
DE2_Poll.elf:     file format elf32-littlenios2
DE2_Poll.elf
architecture: nios2, flags 0x00000112:
EXEC_P, HAS_SYMS, D_PAGED
start address 0x00800000

Program Header:
    LOAD off    0x00001000 vaddr 0x00800000 paddr 0x00800000 align 2**12
         filesz 0x0001e00c memsz 0x00023584 flags rwx
    LOAD off    0x00020000 vaddr 0x01400000 paddr 0x01400000 align 2**12
         filesz 0x00000000 memsz 0x00000000 flags r-x
    LOAD off    0x00020020 vaddr 0x01904020 paddr 0x01904020 align 2**12
         filesz 0x0000019c memsz 0x0000019c flags r-x

Sections:
Idx Name          Size      VMA       LMA       File off  Algn
  0 .entry        00000000  01400000  01400000  00020000  2**5
                  CONTENTS, ALLOC, LOAD, READONLY, CODE
  1 .exceptions   0000019c  01904020  01904020  00020020  2**2
                  CONTENTS, ALLOC, LOAD, READONLY, CODE
  2 .text         0001bcbc  00800000  00800000  00001000  2**2
                  CONTENTS, ALLOC, LOAD, READONLY, CODE
  3 .rodata       0000083c  0081bcbc  0081bcbc  0001ccbc  2**2
                  CONTENTS, ALLOC, LOAD, READONLY, DATA
  4 .rwdata       00001b14  0081c4f8  0081c4f8  0001d4f8  2**2
                  CONTENTS, ALLOC, LOAD, DATA, SMALL_DATA
  5 .bss          00005578  0081e00c  0081e00c  0001f00c  2**2
                  ALLOC, SMALL_DATA
  6 .comment      00000026  00000000  00000000  000201bc  2**0
                  CONTENTS, READONLY
  7 .debug_aranges 00001130  00000000  00000000  000201e8  2**3
                  CONTENTS, READONLY, DEBUGGING
  8 .debug_pubnames 0000268c  00000000  00000000  00021318  2**0
                  CONTENTS, READONLY, DEBUGGING
  9 .debug_info   000357b7  00000000  00000000  000239a4  2**0
                  CONTENTS, READONLY, DEBUGGING
 10 .debug_abbrev 0000b583  00000000  00000000  0005915b  2**0
                  CONTENTS, READONLY, DEBUGGING
 11 .debug_line   00020aa5  00000000  00000000  000646de  2**0
                  CONTENTS, READONLY, DEBUGGING
 12 .debug_frame  00002be8  00000000  00000000  00085184  2**2
                  CONTENTS, READONLY, DEBUGGING
 13 .debug_str    00002aae  00000000  00000000  00087d6c  2**0
                  CONTENTS, READONLY, DEBUGGING
 14 .debug_loc    0000f818  00000000  00000000  0008a81a  2**0
                  CONTENTS, READONLY, DEBUGGING
 15 .debug_alt_sim_info 00000050  00000000  00000000  0009a034  2**2
                  CONTENTS, READONLY, DEBUGGING
 16 .debug_ranges 00000d58  00000000  00000000  0009a088  2**3
                  CONTENTS, READONLY, DEBUGGING
 17 .thread_model 00000006  00000000  00000000  0009fe11  2**0
                  CONTENTS, READONLY
 18 .cpu          0000000c  00000000  00000000  0009fe17  2**0
                  CONTENTS, READONLY
 19 .qsys         00000001  00000000  00000000  0009fe23  2**0
                  CONTENTS, READONLY
 20 .simulation_enabled 00000001  00000000  00000000  0009fe24  2**0
                  CONTENTS, READONLY
 21 .sysid_hash   00000004  00000000  00000000  0009fe25  2**0
                  CONTENTS, READONLY
 22 .sysid_base   00000004  00000000  00000000  0009fe29  2**0
                  CONTENTS, READONLY
 23 .sysid_time   00000004  00000000  00000000  0009fe2d  2**0
                  CONTENTS, READONLY
 24 .stderr_dev   0000000b  00000000  00000000  0009fe31  2**0
                  CONTENTS, READONLY
 25 .stdin_dev    0000000b  00000000  00000000  0009fe3c  2**0
                  CONTENTS, READONLY
 26 .stdout_dev   0000000b  00000000  00000000  0009fe47  2**0
                  CONTENTS, READONLY
 27 .sopc_system_name 0000000d  00000000  00000000  0009fe52  2**0
                  CONTENTS, READONLY
 28 .quartus_project_dir 00000043  00000000  00000000  0009fe5f  2**0
                  CONTENTS, READONLY
 29 .jdi          000051db  00000000  00000000  0009fea2  2**0
                  CONTENTS, READONLY
 30 .sopcinfo     0007bfe7  00000000  00000000  000a507d  2**0
                  CONTENTS, READONLY
SYMBOL TABLE:
01400000 l    d  .entry	00000000 .entry
01904020 l    d  .exceptions	00000000 .exceptions
00800000 l    d  .text	00000000 .text
0081bcbc l    d  .rodata	00000000 .rodata
0081c4f8 l    d  .rwdata	00000000 .rwdata
0081e00c l    d  .bss	00000000 .bss
00000000 l    d  .comment	00000000 .comment
00000000 l    d  .debug_aranges	00000000 .debug_aranges
00000000 l    d  .debug_pubnames	00000000 .debug_pubnames
00000000 l    d  .debug_info	00000000 .debug_info
00000000 l    d  .debug_abbrev	00000000 .debug_abbrev
00000000 l    d  .debug_line	00000000 .debug_line
00000000 l    d  .debug_frame	00000000 .debug_frame
00000000 l    d  .debug_str	00000000 .debug_str
00000000 l    d  .debug_loc	00000000 .debug_loc
00000000 l    d  .debug_alt_sim_info	00000000 .debug_alt_sim_info
00000000 l    d  .debug_ranges	00000000 .debug_ranges
00800044 l       .text	00000000 alt_after_alt_main
00000000 l    df *ABS*	00000000 alt_irq_handler.c
00000000 l    df *ABS*	00000000 DE2_poll.c
00000000 l    df *ABS*	00000000 mpu9250.c
00000000 l    df *ABS*	00000000 I2C.c
00000000 l    df *ABS*	00000000 w_pow.c
00000000 l    df *ABS*	00000000 e_pow.c
0081c028 l     O .rodata	00000010 bp
0081c038 l     O .rodata	00000010 dp_l
0081c048 l     O .rodata	00000010 dp_h
00000000 l    df *ABS*	00000000 e_sqrt.c
00000000 l    df *ABS*	00000000 s_fabs.c
00000000 l    df *ABS*	00000000 s_finite.c
00000000 l    df *ABS*	00000000 s_isnand.c
00000000 l    df *ABS*	00000000 s_lib_ver.c
00000000 l    df *ABS*	00000000 s_matherr.c
00000000 l    df *ABS*	00000000 s_nan.c
00000000 l    df *ABS*	00000000 s_rint.c
0081c058 l     O .rodata	00000010 TWO52
00000000 l    df *ABS*	00000000 s_scalbn.c
00000000 l    df *ABS*	00000000 s_copysign.c
00000000 l    df *ABS*	00000000 fp-bit.c
00805ac8 l     F .text	000001e4 _fpadd_parts
00000000 l    df *ABS*	00000000 fp-bit.c
00000000 l    df *ABS*	00000000 fp-bit.c
00000000 l    df *ABS*	00000000 fp-bit.c
00000000 l    df *ABS*	00000000 fp-bit.c
00000000 l    df *ABS*	00000000 fp-bit.c
00000000 l    df *ABS*	00000000 fp-bit.c
00000000 l    df *ABS*	00000000 fp-bit.c
00000000 l    df *ABS*	00000000 fp-bit.c
00000000 l    df *ABS*	00000000 dp-bit.c
00806370 l     F .text	00000410 _fpadd_parts
00000000 l    df *ABS*	00000000 dp-bit.c
00000000 l    df *ABS*	00000000 dp-bit.c
00000000 l    df *ABS*	00000000 dp-bit.c
00000000 l    df *ABS*	00000000 dp-bit.c
00000000 l    df *ABS*	00000000 dp-bit.c
00000000 l    df *ABS*	00000000 dp-bit.c
00000000 l    df *ABS*	00000000 dp-bit.c
00000000 l    df *ABS*	00000000 dp-bit.c
00000000 l    df *ABS*	00000000 dp-bit.c
00000000 l    df *ABS*	00000000 dp-bit.c
00000000 l    df *ABS*	00000000 dp-bit.c
00000000 l    df *ABS*	00000000 lib2-divmod.c
008072dc l     F .text	0000007c udivmodsi4
00000000 l    df *ABS*	00000000 libgcc2.c
00000000 l    df *ABS*	00000000 libgcc2.c
00000000 l    df *ABS*	00000000 fp-bit.c
00000000 l    df *ABS*	00000000 fp-bit.c
00000000 l    df *ABS*	00000000 fp-bit.c
00000000 l    df *ABS*	00000000 fp-bit.c
00000000 l    df *ABS*	00000000 dp-bit.c
00000000 l    df *ABS*	00000000 dp-bit.c
00000000 l    df *ABS*	00000000 dp-bit.c
00000000 l    df *ABS*	00000000 libgcc2.c
00000000 l    df *ABS*	00000000 errno.c
00000000 l    df *ABS*	00000000 impure.c
0081c4f8 l     O .rwdata	00000400 impure_data
00000000 l    df *ABS*	00000000 printf.c
00000000 l    df *ABS*	00000000 puts.c
00000000 l    df *ABS*	00000000 strlen.c
00000000 l    df *ABS*	00000000 vfprintf.c
00807f00 l     F .text	00000058 __sprint_r
0081c202 l     O .rodata	00000010 blanks.3452
0081c1f2 l     O .rodata	00000010 zeroes.3453
00000000 l    df *ABS*	00000000 wsetup.c
00000000 l    df *ABS*	00000000 dtoa.c
00809f64 l     F .text	00000218 quorem
00000000 l    df *ABS*	00000000 fflush.c
00000000 l    df *ABS*	00000000 findfp.c
0080b960 l     F .text	00000058 std
0080ba6c l     F .text	00000008 __fp_lock
0080ba74 l     F .text	00000008 __fp_unlock
00000000 l    df *ABS*	00000000 mallocr.c
00000000 l    df *ABS*	00000000 fvwrite.c
00000000 l    df *ABS*	00000000 fwalk.c
00000000 l    df *ABS*	00000000 locale.c
0081df5c l     O .rwdata	00000004 charset
0081c234 l     O .rodata	00000030 lconv
00000000 l    df *ABS*	00000000 makebuf.c
00000000 l    df *ABS*	00000000 mallocr.c
00000000 l    df *ABS*	00000000 memchr.c
00000000 l    df *ABS*	00000000 memcpy.c
00000000 l    df *ABS*	00000000 memmove.c
00000000 l    df *ABS*	00000000 memset.c
00000000 l    df *ABS*	00000000 mprec.c
0081c37c l     O .rodata	0000000c p05.2458
00000000 l    df *ABS*	00000000 mallocr.c
00000000 l    df *ABS*	00000000 s_isinfd.c
00000000 l    df *ABS*	00000000 sbrkr.c
00000000 l    df *ABS*	00000000 stdio.c
00000000 l    df *ABS*	00000000 strcmp.c
00000000 l    df *ABS*	00000000 writer.c
00000000 l    df *ABS*	00000000 mallocr.c
00000000 l    df *ABS*	00000000 closer.c
00000000 l    df *ABS*	00000000 fclose.c
00000000 l    df *ABS*	00000000 fstatr.c
00000000 l    df *ABS*	00000000 int_errno.c
00000000 l    df *ABS*	00000000 isattyr.c
00000000 l    df *ABS*	00000000 lseekr.c
00000000 l    df *ABS*	00000000 readr.c
00000000 l    df *ABS*	00000000 libgcc2.c
00000000 l    df *ABS*	00000000 libgcc2.c
00000000 l    df *ABS*	00000000 dp-bit.c
00000000 l    df *ABS*	00000000 dp-bit.c
00000000 l    df *ABS*	00000000 dp-bit.c
00000000 l    df *ABS*	00000000 alt_close.c
0080ffc0 l     F .text	00000060 alt_get_errno
00000000 l    df *ABS*	00000000 alt_dev.c
00810020 l     F .text	0000002c alt_dev_null_write
00000000 l    df *ABS*	00000000 alt_errno.c
00000000 l    df *ABS*	00000000 alt_fstat.c
00810120 l     F .text	00000060 alt_get_errno
00000000 l    df *ABS*	00000000 alt_isatty.c
00810240 l     F .text	00000060 alt_get_errno
00000000 l    df *ABS*	00000000 alt_lseek.c
00810390 l     F .text	00000060 alt_get_errno
00000000 l    df *ABS*	00000000 alt_main.c
00000000 l    df *ABS*	00000000 alt_read.c
008105d8 l     F .text	00000060 alt_get_errno
00000000 l    df *ABS*	00000000 alt_release_fd.c
00000000 l    df *ABS*	00000000 alt_sbrk.c
0081df80 l     O .rwdata	00000004 heap_end
00000000 l    df *ABS*	00000000 alt_usleep.c
00000000 l    df *ABS*	00000000 alt_write.c
0081098c l     F .text	00000060 alt_get_errno
00000000 l    df *ABS*	00000000 alt_env_lock.c
0081df84 l     O .rwdata	00000004 lockid
0081e03c l     O .bss	00000004 locks
00000000 l    df *ABS*	00000000 alt_malloc_lock.c
0081df88 l     O .rwdata	00000004 lockid
0081e044 l     O .bss	00000004 locks
00000000 l    df *ABS*	00000000 os_core.c
008123c4 l     F .text	00000044 OS_InitMisc
00812408 l     F .text	0000006c OS_InitRdyList
0081256c l     F .text	000000e0 OS_InitTCBList
008122e8 l     F .text	000000dc OS_InitEventList
00812474 l     F .text	0000007c OS_InitTaskIdle
008124f0 l     F .text	0000007c OS_InitTaskStat
008127e0 l     F .text	00000070 OS_SchedNew
00000000 l    df *ABS*	00000000 os_dbg.c
00000000 l    df *ABS*	00000000 os_flag.c
00814700 l     F .text	00000110 OS_FlagTaskRdy
00814458 l     F .text	000001c4 OS_FlagBlock
00000000 l    df *ABS*	00000000 os_mem.c
00000000 l    df *ABS*	00000000 os_q.c
00000000 l    df *ABS*	00000000 os_sem.c
00000000 l    df *ABS*	00000000 os_task.c
00000000 l    df *ABS*	00000000 os_time.c
00000000 l    df *ABS*	00000000 alt_sys_init.c
0081ceb4 l     O .rwdata	0000106c jtag_uart_0
0081df20 l     O .rwdata	0000002c character_lcd_0
00819040 l     F .text	00000038 alt_dev_reg
00000000 l    df *ABS*	00000000 altera_avalon_jtag_uart_fd.c
00000000 l    df *ABS*	00000000 altera_avalon_jtag_uart_init.c
008192f8 l     F .text	000002c4 altera_avalon_jtag_uart_irq
008195bc l     F .text	00000114 altera_avalon_jtag_uart_timeout
00000000 l    df *ABS*	00000000 altera_avalon_jtag_uart_ioctl.c
00000000 l    df *ABS*	00000000 altera_avalon_jtag_uart_read.c
00000000 l    df *ABS*	00000000 altera_avalon_jtag_uart_write.c
00000000 l    df *ABS*	00000000 altera_avalon_timer_sc.c
00819dd4 l     F .text	00000070 alt_avalon_timer_sc_irq
00000000 l    df *ABS*	00000000 altera_up_avalon_character_lcd.c
00000000 l    df *ABS*	00000000 alt_alarm_start.c
00000000 l    df *ABS*	00000000 alt_busy_sleep.c
00000000 l    df *ABS*	00000000 alt_dev_llist_insert.c
0081a758 l     F .text	00000060 alt_get_errno
00000000 l    df *ABS*	00000000 alt_do_ctors.c
00000000 l    df *ABS*	00000000 alt_do_dtors.c
00000000 l    df *ABS*	00000000 alt_find_dev.c
00000000 l    df *ABS*	00000000 alt_iic.c
00000000 l    df *ABS*	00000000 alt_iic_isr_register.c
00000000 l    df *ABS*	00000000 alt_io_redirect.c
0081abe0 l     F .text	000000c4 alt_open_fd
00000000 l    df *ABS*	00000000 alt_irq_vars.c
00000000 l    df *ABS*	00000000 alt_open.c
0081ad1c l     F .text	000000dc alt_file_locked
0081af80 l     F .text	00000060 alt_get_errno
00000000 l    df *ABS*	00000000 alt_tick.c
00000000 l    df *ABS*	00000000 altera_nios2_qsys_irq.c
00000040 l       *ABS*	00000000 OSCtxSw_SWITCH_PC
00000000 l    df *ABS*	00000000 os_cpu_c.c
00000014 l       *ABS*	00000000 OSTCBNext_OFFSET
00000032 l       *ABS*	00000000 OSTCBPrio_OFFSET
00000000 l       *ABS*	00000000 OSTCBStkPtr_OFFSET
00000000 l    df *ABS*	00000000 alt_find_file.c
00000000 l    df *ABS*	00000000 alt_get_fd.c
00000000 l    df *ABS*	00000000 atexit.c
00000000 l    df *ABS*	00000000 exit.c
00000000 l    df *ABS*	00000000 memcmp.c
00000000 l    df *ABS*	00000000 __atexit.c
00000000 l    df *ABS*	00000000 __call_atexit.c
0081ba98 l     F .text	00000004 register_fini
00000000 l    df *ABS*	00000000 alt_exit.c
0081bc4c l     F .text	00000040 alt_sim_halt
0080d71c g     F .text	00000094 _mprec_log10
0081dfd6 g     O .rwdata	00000002 OSTaskNameSize
0080d808 g     F .text	00000088 __any_on
0080eee4 g     F .text	00000070 _isatty_r
0081c354 g     O .rodata	00000028 __mprec_tinytens
008103f0 g     F .text	000000c8 alt_main
00807dd8 g     F .text	000000a0 _puts_r
008232f4 g     O .bss	00000100 alt_irq
00805638 g     F .text	00000018 fabs
0080ef54 g     F .text	00000078 _lseek_r
00814ff4 g     F .text	000000d0 OS_MemInit
00818f34 g     F .text	00000064 OSTimeSet
00819f50 g     F .text	00000034 alt_up_character_lcd_send_cmd
00806e90 g     F .text	00000088 __eqdf2
00810f40 g     F .text	000006b4 OSEventPendMulti
00823584 g       *ABS*	00000000 __alt_heap_start
0081b588 g     F .text	00000020 OSTaskCreateHook
0081e0d0 g     O .bss	00002000 task1_stk
00807d60 g     F .text	00000044 printf
0081dfae g     O .rwdata	00000002 OSMboxEn
00811648 g     F .text	0000007c OSIntEnter
0080e9b0 g     F .text	00000068 __sseek
0080b9c8 g     F .text	000000a4 __sinit
0081dfbe g     O .rwdata	00000002 OSQEn
0080c6a0 g     F .text	00000084 _setlocale_r
0080bac8 g     F .text	00000068 __sfmoreglue
00810bfc g     F .text	000000d0 __malloc_unlock
0081b5e4 g     F .text	0000001c OSTaskStatHook
0081e04c g     O .bss	00000001 OSLockNesting
00805f60 g     F .text	00000174 __divsf3
0081dffc g     O .rwdata	00000002 OSDataSize
0081e04d g     O .bss	00000001 OSRunning
0080d198 g     F .text	000000e0 memmove
0081b61c g     F .text	0000001c OSInitHookBegin
0081dff4 g     O .rwdata	00000002 OSTmrSize
0080bab8 g     F .text	00000010 _cleanup
0080d890 g     F .text	000000bc _Balloc
0081e050 g     O .bss	00000004 OSIdleCtr
00806fa0 g     F .text	00000088 __gtdf2
0081b254 g       .text	00000000 OSStartTsk
00807d50 g     F .text	00000010 __errno
00819ed4 g     F .text	0000007c get_DDRAM_addr
00812b14 g     F .text	000002e0 OS_TCBInit
00803938 g     F .text	00000144 i2c_write
01400000 g     F .entry	00000000 __reset
0081dffa g     O .rwdata	00000002 OSTmrWheelTblSize
0081df9a g     O .rwdata	00000002 OSEventSize
0081e054 g     O .bss	00000001 OSPrioHighRdy
0080ee70 g     F .text	00000074 _fstat_r
0081b5a8 g     F .text	00000020 OSTaskDelHook
0081e028 g     O .bss	00000004 errno
00807230 g     F .text	00000038 __make_dp
0081b234 g       .text	00000000 OSStartHighRdy
00817708 g     F .text	00000200 OSTaskCreateExt
00813f74 g     F .text	00000068 OSFlagPendGetFlagsRdy
0081dfda g     O .rwdata	00000002 OSTaskStatStkSize
00807810 g     F .text	0000002c __make_fp
00812f80 g     F .text	00000334 OSFlagAccept
0081572c g     F .text	000000c8 OSQFlush
008150c4 g     F .text	00000154 OSQAccept
0081e034 g     O .bss	00000004 alt_argv
00825f4c g       *ABS*	00000000 _gp
00810754 g     F .text	00000118 usleep
00805cac g     F .text	00000070 __subsf3
00817534 g     F .text	000001d4 OSTaskCreate
00816fc0 g     F .text	00000574 OSTaskChangePrio
0081e048 g     O .bss	00000004 alt_heapsem
00812df4 g     F .text	0000018c OSDebugInit
00817908 g     F .text	0000040c OSTaskDel
0081cd34 g     O .rwdata	00000180 alt_fd_list
008200d0 g     O .bss	00000370 OSFlagTbl
008120c4 g     F .text	000000b8 OS_EventTaskRemove
0081a880 g     F .text	00000094 alt_find_dev
0080d0f8 g     F .text	000000a0 memcpy
0081dfc4 g     O .rwdata	00000002 OSRdyTblSize
0081a0e8 g     F .text	0000004c alt_up_character_lcd_write_fd
0080baac g     F .text	0000000c _cleanup_r
00807138 g     F .text	000000f8 __floatsidf
0081aca4 g     F .text	00000078 alt_io_redirect
00807028 g     F .text	00000088 __ltdf2
0081bcbc g       *ABS*	00000000 __DTOR_END__
00807e78 g     F .text	00000014 puts
00810ccc g     F .text	00000130 OSEventNameGet
0081dfa8 g     O .rwdata	00000002 OSFlagMax
0080d66c g     F .text	000000b0 __ratio
008116c4 g     F .text	00000100 OSIntExit
0081dfe2 g     O .rwdata	00000002 OSTCBSize
0081e055 g     O .bss	00000001 OSPrioCur
00819838 g     F .text	000002c0 altera_avalon_jtag_uart_read
00000000  w      *UND*	00000000 malloc
00807da4 g     F .text	00000034 _printf_r
01904000 g       *ABS*	00000000 __alt_mem_onchip_memory2_0
00807418 g     F .text	00000008 __udivsi3
00810180 g     F .text	000000c0 isatty
00800f28 g     F .text	00000358 initMPU9250
0081dfc8 g     O .rwdata	00000002 OSStkWidth
0081c264 g     O .rodata	000000c8 __mprec_tens
0081dfbc g     O .rwdata	00000002 OSPtrSize
008035b8 g     F .text	0000015c I2C_ReadFromDeviceRegister
0080c67c g     F .text	00000008 __locale_charset
0081df9c g     O .rwdata	00000002 OSEventTblSize
0081b1a8 g       .text	00000000 OSCtxSw
0081e01c g     O .bss	00000004 __malloc_top_pad
0081e058 g     O .bss	00000004 OSTCBList
0081e02c g     O .bss	00000004 alt_fd_list_lock
0081df58 g     O .rwdata	00000004 __mb_cur_max
0080c684 g     F .text	0000000c _localeconv_r
0080df88 g     F .text	0000003c __i2b
0080c060 g     F .text	0000049c __sfvwrite_r
00820440 g     O .bss	00000c30 OSMemTbl
0081e05c g     O .bss	00000001 OSTickStepState
0080e938 g     F .text	00000070 _sbrk_r
0081dfc0 g     O .rwdata	00000002 OSQMax
00821070 g     O .bss	00000800 OSTaskStatStk
00814bdc g     F .text	0000010c OSMemNameGet
0081dfa0 g     O .rwdata	00000002 OSFlagEn
0080efcc g     F .text	00000078 _read_r
0081dfe6 g     O .rwdata	00000002 OSTimeTickHookEn
00815c90 g     F .text	00000180 OSQPost
00814810 g     F .text	000000ac OS_FlagUnlink
0081c8f8 g     O .rwdata	0000000c __lc_ctype
0081df78 g     O .rwdata	00000004 alt_max_fd
008126a0 g     F .text	0000006c OS_MemCopy
0081270c g     F .text	000000d4 OS_Sched
00807b50 g     F .text	00000138 __unpack_d
0080ed4c g     F .text	00000110 _fclose_r
00814ad8 g     F .text	00000104 OSMemGet
0081803c g     F .text	000001c4 OSTaskNameSet
0080b92c g     F .text	00000034 fflush
0081e020 g     O .bss	00000004 __malloc_max_sbrked_mem
0081e060 g     O .bss	00000004 OSCtxSwCtr
0081b600 g     F .text	0000001c OSTimeTickHook
0081dfaa g     O .rwdata	00000002 OSFlagNameSize
0080625c g     F .text	00000054 __extendsfdf2
0081217c g     F .text	00000104 OS_EventTaskRemoveMulti
00806800 g     F .text	00000074 __adddf3
00811f70 g     F .text	00000154 OS_EventTaskWaitMulti
0080d54c g     F .text	00000120 __b2d
0081dfc2 g     O .rwdata	00000002 OSQSize
0080f620 g     F .text	000005b0 __umoddi3
008102a0 g     F .text	000000f0 lseek
0081686c g     F .text	0000027c OSSemPend
0081df4c g     O .rwdata	00000004 __fdlib_version
0081df54 g     O .rwdata	00000004 _global_impure_ptr
0080e304 g     F .text	000005f4 _realloc_r
0081dfac g     O .rwdata	00000002 OSLowestPrio
00823584 g       *ABS*	00000000 __bss_end
0081aae8 g     F .text	000000f8 alt_iic_isr_register
0081b670 g     F .text	00000020 OSTCBInitHook
0081dff2 g     O .rwdata	00000002 OSTmrCfgTicksPerSec
0081b078 g     F .text	00000110 alt_tick
0080f044 g     F .text	000005dc __udivdi3
0081df94 g     O .rwdata	00000002 OSEventEn
0081c32c g     O .rodata	00000028 __mprec_bigtens
0080e1e4 g     F .text	00000120 __s2b
0081dfee g     O .rwdata	00000002 OSTmrCfgNameSize
0080fd30 g     F .text	00000194 __floatunsidf
0080d46c g     F .text	00000060 __mcmp
0080ba94 g     F .text	00000018 __fp_lock_all
0081aaa0 g     F .text	00000048 alt_ic_irq_enabled
0081e00c g     O .bss	00000004 myLCD
0081461c g     F .text	000000e4 OS_FlagInit
0081afe0 g     F .text	00000098 alt_alarm_stop
008032d0 g     F .text	00000130 I2C_WriteToDeviceRegister
0081dfd0 g     O .rwdata	00000002 OSTaskIdleStkSize
0081e09c g     O .bss	00000004 alt_irq_active
008163f8 g     F .text	000000c0 OSSemAccept
00814e08 g     F .text	000000f0 OSMemPut
008148bc g     F .text	0000021c OSMemCreate
0081e064 g     O .bss	00000004 OSIdleCtrMax
019040ec g     F .exceptions	000000d0 alt_irq_handler
0081cd0c g     O .rwdata	00000028 alt_dev_null
0081dfe4 g     O .rwdata	00000002 OSTicksPerSec
008056b4 g     F .text	00000210 rint
008076a0 g     F .text	000000c8 __unpack_f
0081a3d0 g     F .text	00000034 alt_up_character_lcd_cursor_blink_on
00803838 g     F .text	00000088 i2c_start
0081b1a8 g       .text	00000000 OSIntCtxSw
0080d338 g     F .text	00000070 __hi0bits
0080fc58 g     F .text	000000d8 __fixdfsi
0081e068 g     O .bss	00000004 OSTCBFreeList
00816ae8 g     F .text	0000017c OSSemPendAbort
0081df70 g     O .rwdata	00000008 alt_dev_list
0081086c g     F .text	00000120 write
0081dfe8 g     O .rwdata	00000002 OSVersionNbr
00800d28 g     F .text	00000100 readAccelData
008060d4 g     F .text	00000078 __gtsf2
0081004c g     F .text	000000d4 fstat
008070b0 g     F .text	00000088 __ledf2
0081df90 g     O .rwdata	00000004 OSEndiannessTest
0080e0c4 g     F .text	00000120 __pow5mult
0081e010 g     O .bss	00000004 __nlocale_changed
00807420 g     F .text	00000008 __umodsi3
0081dfa2 g     O .rwdata	00000002 OSFlagGrpSize
00823584 g       *ABS*	00000000 end
00807540 g     F .text	00000160 __pack_f
008191c0 g     F .text	00000138 altera_avalon_jtag_uart_init
00812984 g     F .text	000000c8 OS_TaskStat
0081bcb8 g       *ABS*	00000000 __CTOR_LIST__
01000000 g       *ABS*	00000000 __alt_stack_pointer
00819e44 g     F .text	00000090 alt_avalon_timer_sc_init
008074c0 g     F .text	00000080 __clzsi2
00819af8 g     F .text	000002dc altera_avalon_jtag_uart_write
0080b9b8 g     F .text	00000004 __sfp_lock_acquire
0080d014 g     F .text	000000e4 memchr
0081264c g     F .text	00000054 OS_MemClr
00819ff8 g     F .text	00000078 alt_up_character_lcd_write
00807f58 g     F .text	00001eac ___vfprintf_internal_r
0081b278 g     F .text	00000310 OSTaskStkInit
00803400 g     F .text	000000c4 I2C_WriteMore
0080bd4c g     F .text	00000314 _free_r
00811ccc g     F .text	00000194 OS_EventTaskRdy
0081ba9c g     F .text	000001b0 __call_exitprocs
0081e06c g     O .bss	00000001 OSCPUUsage
0081e014 g     O .bss	00000004 __mlocale_changed
0081df64 g     O .rwdata	00000004 __malloc_sbrk_base
00800000 g     F .text	00000048 _start
00800cd0 g     F .text	0000002c getAres
0081e0a0 g     O .bss	00000004 _alt_tick_rate
008157f4 g     F .text	00000320 OSQPend
00818a00 g     F .text	0000014c OSTimeDly
0080dc54 g     F .text	0000014c __lshift
0081e0a4 g     O .bss	00000004 _alt_nticks
008104b8 g     F .text	00000120 read
00818fcc g     F .text	00000074 alt_sys_init
0081a25c g     F .text	000000b0 alt_up_character_lcd_shift_display
008061c4 g     F .text	00000098 __floatsisf
0081b964 g     F .text	00000134 __register_exitproc
0081e06d g     O .bss	00000001 OSTaskCtr
00818b4c g     F .text	00000174 OSTimeDlyHMSM
0080dda0 g     F .text	000001e8 __multiply
0081a30c g     F .text	00000090 alt_up_character_lcd_erase_pos
00804070 g     F .text	00001300 __ieee754_pow
008196d0 g     F .text	00000074 altera_avalon_jtag_uart_close
00803be8 g     F .text	00000488 pow
008031d8 g     F .text	000000f8 I2C_WriteToDevice
0081e0a8 g     O .bss	00000028 __malloc_current_mallinfo
0081df96 g     O .rwdata	00000002 OSEventMax
0080d94c g     F .text	0000017c __d2b
00816c64 g     F .text	00000128 OSSemPost
00811850 g     F .text	000000e4 OSSchedUnlock
00819078 g     F .text	00000058 altera_avalon_jtag_uart_read_fd
0081b7b0 g     F .text	000000f4 alt_get_fd
0081e070 g     O .bss	00000004 OSMemFreeList
008119a4 g     F .text	000000ac OSStatInit
0081a558 g     F .text	0000014c alt_busy_sleep
00814384 g     F .text	000000d4 OSFlagQuery
00807c88 g     F .text	000000c8 __fpcmp_parts_d
0081dfcc g     O .rwdata	00000002 OSTaskCreateExtEn
0080ecdc g     F .text	00000070 _close_r
0081b8f0 g     F .text	00000074 memcmp
00811cb0 g     F .text	0000001c OS_Dummy
00819128 g     F .text	00000048 altera_avalon_jtag_uart_close_fd
00823584 g       *ABS*	00000000 __alt_stack_base
00819170 g     F .text	00000050 altera_avalon_jtag_uart_ioctl_fd
00800048 g     F .text	00000bdc DE2_Poll
00809e28 g     F .text	0000013c __swsetup_r
00821870 g     O .bss	000001e0 OSQTbl
00806c38 g     F .text	00000258 __divdf3
008034c4 g     F .text	000000f4 I2C_ReadFromDevice
0080bb30 g     F .text	000000f0 __sfp
0080d7b0 g     F .text	00000058 __copybits
0081c904 g     O .rwdata	00000408 __malloc_av_
0080b9c4 g     F .text	00000004 __sinit_lock_release
00802180 g     F .text	00000fe8 MPU9250SelfTest
008038c0 g     F .text	00000078 i2c_stop
0081e074 g     O .bss	00000004 OSTCBHighRdy
00806874 g     F .text	000003c4 __muldf3
0080ea94 g     F .text	00000060 __sread
0081c068 g     O .rodata	00000010 __thenan_sf
0081e078 g     O .bss	00000004 OSQFreeList
0081b690 g     F .text	00000120 alt_find_file
0081a6a4 g     F .text	000000b4 alt_dev_llist_insert
00810af4 g     F .text	00000108 __malloc_lock
00810698 g     F .text	000000bc sbrk
00810dfc g     F .text	00000144 OSEventNameSet
0080b730 g     F .text	000001fc _fflush_r
0080ec28 g     F .text	000000b4 _calloc_r
0081e07c g     O .bss	00000001 OSRdyGrp
0081e00c g       *ABS*	00000000 __bss_start
0080d278 g     F .text	00000098 memset
00800c24 g     F .text	000000ac main
0081e038 g     O .bss	00000004 alt_envp
0081e024 g     O .bss	00000004 __malloc_max_total_mem
008190d0 g     F .text	00000058 altera_avalon_jtag_uart_write_fd
00803a7c g     F .text	0000016c i2c_read
0081c3a8 g     O .rodata	00000100 OSUnMapTbl
0080614c g     F .text	00000078 __ltsf2
0081dfc6 g     O .rwdata	00000002 OSSemEn
0081a1ac g     F .text	000000b0 alt_up_character_lcd_shift_cursor
00813fdc g     F .text	000003a8 OSFlagPost
0080e9a8 g     F .text	00000008 __sclose
0080569c g     F .text	00000008 matherr
01000000 g       *ABS*	00000000 __alt_heap_limit
0080ee5c g     F .text	00000014 fclose
00811e60 g     F .text	00000110 OS_EventTaskWait
00807268 g     F .text	00000074 __truncdfsf2
00812a4c g     F .text	000000c8 OS_TaskStatStkChk
008233f4 g     O .bss	00000190 _atexit0
00817d14 g     F .text	00000170 OSTaskDelReq
0080a17c g     F .text	000015b4 _dtoa_r
0080c8d4 g     F .text	00000740 _malloc_r
0081df7c g     O .rwdata	00000004 alt_errno
00811934 g     F .text	00000070 OSStart
00810a98 g     F .text	0000005c __env_unlock
0080c5c4 g     F .text	000000b8 _fwalk
00818200 g     F .text	00000218 OSTaskResume
00814ef8 g     F .text	000000fc OSMemQuery
0081dfd8 g     O .rwdata	00000002 OSTaskStatEn
0081dfb2 g     O .rwdata	00000002 OSMemMax
00815e10 g     F .text	00000188 OSQPostFront
00807358 g     F .text	00000060 __divsi3
0081e07d g     O .bss	00000003 OSRdyTbl
0081df8c g     O .rwdata	00000002 OSDebugEn
0081c078 g     O .rodata	00000014 __thenan_df
00819fb8 g     F .text	00000040 alt_up_character_lcd_open_dev
0080bc20 g     F .text	0000012c _malloc_trim_r
0081bcbc g       *ABS*	00000000 __CTOR_END__
00805d80 g     F .text	000001e0 __mulsf3
00805650 g     F .text	0000001c finite
0081dfa4 g     O .rwdata	00000002 OSFlagNodeSize
0081dfec g     O .rwdata	00000002 OSTmrCfgMax
00819f84 g     F .text	00000034 alt_up_character_lcd_init
00800e28 g     F .text	00000100 readGyroData
0080eaf4 g     F .text	000000bc strcmp
00815218 g     F .text	00000214 OSQCreate
00817e84 g     F .text	000001b8 OSTaskNameGet
00815f98 g     F .text	00000234 OSQPostOpt
00811a50 g     F .text	00000240 OSTimeTick
0081dfd4 g     O .rwdata	00000002 OSTaskMax
0081bcbc g       *ABS*	00000000 __DTOR_LIST__
008164b8 g     F .text	00000114 OSSemCreate
0081dff8 g     O .rwdata	00000002 OSTmrWheelSize
00805aa4 g     F .text	00000024 copysign
00806f18 g     F .text	00000088 __nedf2
0081dfce g     O .rwdata	00000002 OSTaskDelEn
01880000 g       *ABS*	00000000 __alt_mem_sram_0
00816d8c g     F .text	00000130 OSSemQuery
0081542c g     F .text	00000300 OSQDel
00815b14 g     F .text	0000017c OSQPendAbort
00818f98 g     F .text	00000034 alt_irq_init
00810638 g     F .text	00000060 alt_release_fd
0081a39c g     F .text	00000034 alt_up_character_lcd_cursor_off
0081c08c g     O .rodata	00000100 __clz_tab
0081e018 g     O .bss	00000004 _PathLocale
01400000 g       *ABS*	00000000 __alt_mem_generic_tristate_controller_0
0081b8a4 g     F .text	00000014 atexit
0080ebb0 g     F .text	00000078 _write_r
008117c4 g     F .text	0000008c OSSchedLock
0080c724 g     F .text	0000001c setlocale
008132b4 g     F .text	0000013c OSFlagCreate
00803168 g     F .text	00000038 I2C_Start
0081df50 g     O .rwdata	00000004 _impure_ptr
0081e030 g     O .bss	00000004 alt_argc
008058c4 g     F .text	000001e0 scalbn
0081a81c g     F .text	00000064 _do_dtors
008037c0 g     F .text	00000078 i2c_selectAddress
0081df9e g     O .rwdata	00000002 OSEventMultiEn
008133f0 g     F .text	000002a8 OSFlagDel
00800000 g       *ABS*	00000000 __alt_mem_sdram_0
0081e080 g     O .bss	00000004 OSEventFreeList
01904020 g       .exceptions	00000000 alt_irq_entry
0080d4cc g     F .text	00000080 __ulp
0080e8f8 g     F .text	00000040 __isinfd
00813930 g     F .text	00000644 OSFlagPend
0081dfea g     O .rwdata	00000002 OSTmrEn
0080ba7c g     F .text	00000018 __fp_unlock_all
0081df68 g     O .rwdata	00000008 alt_fs_list
00812850 g     F .text	00000080 OS_StrCopy
0081dfb4 g     O .rwdata	00000002 OSMemNameSize
008056a4 g     F .text	00000010 nan
0081b638 g     F .text	0000001c OSInitHookEnd
0081dfe0 g     O .rwdata	00000002 OSTCBPrioTblMax
0080c690 g     F .text	00000010 localeconv
00805370 g     F .text	000002c8 __ieee754_sqrt
0081dfdc g     O .rwdata	00000002 OSTaskStatStkChkEn
0081a914 g     F .text	00000050 alt_ic_isr_register
0081dfb0 g     O .rwdata	00000002 OSMemEn
0081dfba g     O .rwdata	00000002 OSMutexEn
0081e00c g       *ABS*	00000000 _edata
00823584 g       *ABS*	00000000 _end
0081e084 g     O .bss	00000001 OSIntNesting
00819744 g     F .text	000000f4 altera_avalon_jtag_uart_ioctl
00818cc0 g     F .text	00000210 OSTimeDlyResume
008137dc g     F .text	00000154 OSFlagNameSet
00818418 g     F .text	000001fc OSTaskStkChk
0081aa00 g     F .text	000000a0 alt_ic_irq_disable
0081dfb6 g     O .rwdata	00000002 OSMemSize
0080ea18 g     F .text	0000007c __swrite
0081df60 g     O .rwdata	00000004 __malloc_trim_threshold
0081b188 g     F .text	00000020 altera_nios2_qsys_irq_init
0081e088 g     O .bss	00000004 OSTCBCur
0081b8b8 g     F .text	00000038 exit
0081dfb8 g     O .rwdata	00000002 OSMemTblSize
0080c4fc g     F .text	000000c8 _fwalk_reent
008062b0 g     F .text	000000c0 __floatunsisf
0080dac8 g     F .text	0000018c __mdiff
008073b8 g     F .text	00000060 __modsi3
01000000 g       *ABS*	00000000 __alt_data_end
01904020 g     F .exceptions	00000000 alt_exception
0080b9bc g     F .text	00000004 __sfp_lock_release
008115f4 g     F .text	00000054 OSInit
00818840 g     F .text	00000144 OSTaskQuery
0081a070 g     F .text	00000078 alt_up_character_lcd_string
0081634c g     F .text	000000ac OS_QInit
008128d0 g     F .text	00000058 OS_StrLen
00800cfc g     F .text	0000002c getGres
00814ce8 g     F .text	00000120 OSMemNameSet
0081dfd2 g     O .rwdata	00000002 OSTaskProfileEn
0081e08c g     O .bss	00000004 OSTime
008031a0 g     F .text	00000038 I2C_Stop
00807768 g     F .text	000000a8 __fpcmp_parts_f
00821a50 g     O .bss	00000800 OSTaskIdleStk
0081bc8c g     F .text	0000002c _exit
0080566c g     F .text	00000030 __isnand
0081a404 g     F .text	00000154 alt_alarm_start
00813698 g     F .text	00000144 OSFlagNameGet
00818ed0 g     F .text	00000064 OSTimeGet
00807428 g     F .text	00000098 __muldi3
0080c740 g     F .text	00000194 __smakebuf_r
00807e8c g     F .text	00000074 strlen
0081b5c8 g     F .text	0000001c OSTaskSwHook
0081adf8 g     F .text	00000188 open
00822250 g     O .bss	00000b40 OSEventTbl
0080fbd0 g     F .text	00000088 __gedf2
00801280 g     F .text	00000f00 calibrateMPU9250
00822d90 g     O .bss	00000510 OSTCBTbl
00816ebc g     F .text	00000104 OSSemSet
0081a134 g     F .text	00000078 alt_up_character_lcd_set_cursor_pos
0081e000 g     O .rwdata	00000004 alt_priority_mask
008165cc g     F .text	000002a0 OSSemDel
0081e090 g     O .bss	00000004 OSFlagFreeList
0081a964 g     F .text	0000009c alt_ic_irq_enable
0081df98 g     O .rwdata	00000002 OSEventNameSize
00809e04 g     F .text	00000024 __vfprintf_internal
0081e094 g     O .bss	00000001 OSStatRdy
008232a0 g     O .bss	00000054 OSTCBPrioTbl
008109ec g     F .text	000000ac __env_lock
0081dfde g     O .rwdata	00000002 OSTaskSwHookEn
00806780 g     F .text	00000080 __subdf3
00803714 g     F .text	000000ac I2C_ReadMore
0080d3a8 g     F .text	000000c4 __lo0bits
0081e004 g     O .rwdata	00000008 alt_alarm_list
0081dfa6 g     O .rwdata	00000002 OSFlagWidth
0081a7b8 g     F .text	00000064 _do_ctors
0080fec4 g     F .text	000000fc close
00805d1c g     F .text	00000064 __addsf3
0081e040 g     O .bss	00000004 alt_envsem
0081e098 g     O .bss	00000004 OSIdleCtrRun
00811c90 g     F .text	00000020 OSVersion
0081dff0 g     O .rwdata	00000002 OSTmrCfgWheelSize
00818984 g     F .text	0000007c OS_TaskStkClr
0080783c g     F .text	00000314 __pack_d
0081dfca g     O .rwdata	00000002 OSTaskCreateEn
00812280 g     F .text	00000068 OS_EventWaitListInit
0081b654 g     F .text	0000001c OSTaskIdleHook
00000000  w      *UND*	00000000 free
0080b9c0 g     F .text	00000004 __sinit_lock_acquire
0080dfc4 g     F .text	00000100 __multadd
00818614 g     F .text	0000022c OSTaskSuspend
0080d310 g     F .text	00000028 _Bfree
00812928 g     F .text	0000005c OS_TaskIdle
0081dff6 g     O .rwdata	00000002 OSTmrTblSize
008161cc g     F .text	00000180 OSQQuery



Disassembly of section .exceptions:

01904020 <alt_exception>:
         * Process an exception.  For all exceptions we must preserve all
         * caller saved registers on the stack (See the Nios2 ABI
         * documentation for details).
         */

        addi  sp, sp, -76
 1904020:	deffed04 	addi	sp,sp,-76

#endif

#endif

        stw   ra,  0(sp)
 1904024:	dfc00015 	stw	ra,0(sp)
        /*
         * Leave a gap in the stack frame at 4(sp) for the muldiv handler to
         * store zero into.
         */

        stw   r1,   8(sp)
 1904028:	d8400215 	stw	at,8(sp)
        stw   r2,  12(sp)
 190402c:	d8800315 	stw	r2,12(sp)
        stw   r3,  16(sp)
 1904030:	d8c00415 	stw	r3,16(sp)
        stw   r4,  20(sp)
 1904034:	d9000515 	stw	r4,20(sp)
        stw   r5,  24(sp)
 1904038:	d9400615 	stw	r5,24(sp)
        stw   r6,  28(sp)
 190403c:	d9800715 	stw	r6,28(sp)
        stw   r7,  32(sp)
 1904040:	d9c00815 	stw	r7,32(sp)

        rdctl r5, estatus
 1904044:	000b307a 	rdctl	r5,estatus

        stw   r8,  36(sp)
 1904048:	da000915 	stw	r8,36(sp)
        stw   r9,  40(sp)
 190404c:	da400a15 	stw	r9,40(sp)
        stw   r10, 44(sp)
 1904050:	da800b15 	stw	r10,44(sp)
        stw   r11, 48(sp)
 1904054:	dac00c15 	stw	r11,48(sp)
        stw   r12, 52(sp)
 1904058:	db000d15 	stw	r12,52(sp)
        stw   r13, 56(sp)
 190405c:	db400e15 	stw	r13,56(sp)
        stw   r14, 60(sp)
 1904060:	db800f15 	stw	r14,60(sp)
        stw   r15, 64(sp)
 1904064:	dbc01015 	stw	r15,64(sp)
        /*
         * ea-4 contains the address of the instruction being executed
         * when the exception occured. For interrupt exceptions, we will
         * will be re-issue the isntruction. Store it in 72(sp)
         */
        stw   r5,  68(sp)  /* estatus */
 1904068:	d9401115 	stw	r5,68(sp)
        addi  r15, ea, -4  /* instruction that caused exception */
 190406c:	ebffff04 	addi	r15,ea,-4
        stw   r15,  72(sp)
 1904070:	dbc01215 	stw	r15,72(sp)
#else
        /*
         * Test to see if the exception was a software exception or caused 
         * by an external interrupt, and vector accordingly.
         */
        rdctl r4, ipending
 1904074:	0009313a 	rdctl	r4,ipending
        andi  r2, r5, 1
 1904078:	2880004c 	andi	r2,r5,1
        beq   r2, zero, .Lnot_irq
 190407c:	10000326 	beq	r2,zero,190408c <alt_exception+0x6c>
        beq   r4, zero, .Lnot_irq
 1904080:	20000226 	beq	r4,zero,190408c <alt_exception+0x6c>
        /*
         * Now that all necessary registers have been preserved, call 
         * alt_irq_handler() to process the interrupts.
         */

        call alt_irq_handler
 1904084:	19040ec0 	call	19040ec <alt_irq_handler>

        .section .exceptions.irqreturn, "xa"

        br    .Lexception_exit
 1904088:	00000306 	br	1904098 <alt_exception+0x78>
         * upon completion, so we write ea (address of instruction *after*
         * the one where the exception occured) into 72(sp). The actual
         * instruction that caused the exception is written in r2, which these
         * handlers will utilize.
         */
        stw   ea,  72(sp)  /* Don't re-issue */
 190408c:	df401215 	stw	ea,72(sp)
        ldw   r2, -4(ea)   /* Instruction that caused exception */
 1904090:	e8bfff17 	ldw	r2,-4(ea)
#ifdef NIOS2_HAS_DEBUG_STUB
       /*
        *  Either tell the user now (if there is a debugger attached) or go into
        *  the debug monitor which will loop until a debugger is attached.
        */
        break
 1904094:	003da03a 	break	0
        /* 
         * Restore the saved registers, so that all general purpose registers 
         * have been restored to their state at the time the interrupt occured.
         */

        ldw   r5,  68(sp)
 1904098:	d9401117 	ldw	r5,68(sp)
        ldw   ea,  72(sp)  /* This becomes the PC once eret is executed */
 190409c:	df401217 	ldw	ea,72(sp)
        ldw   ra,   0(sp)
 19040a0:	dfc00017 	ldw	ra,0(sp)

        wrctl estatus, r5
 19040a4:	2801707a 	wrctl	estatus,r5

        ldw   r1,   8(sp)
 19040a8:	d8400217 	ldw	at,8(sp)
        ldw   r2,  12(sp)
 19040ac:	d8800317 	ldw	r2,12(sp)
        ldw   r3,  16(sp)
 19040b0:	d8c00417 	ldw	r3,16(sp)
        ldw   r4,  20(sp)
 19040b4:	d9000517 	ldw	r4,20(sp)
        ldw   r5,  24(sp)
 19040b8:	d9400617 	ldw	r5,24(sp)
        ldw   r6,  28(sp)
 19040bc:	d9800717 	ldw	r6,28(sp)
        ldw   r7,  32(sp)
 19040c0:	d9c00817 	ldw	r7,32(sp)
#ifdef ALT_STACK_CHECK
        ldw   et, %gprel(alt_exception_old_stack_limit)(gp)
#endif
#endif

        ldw   r8,  36(sp)
 19040c4:	da000917 	ldw	r8,36(sp)
        ldw   r9,  40(sp)
 19040c8:	da400a17 	ldw	r9,40(sp)
        ldw   r10, 44(sp)
 19040cc:	da800b17 	ldw	r10,44(sp)
        ldw   r11, 48(sp)
 19040d0:	dac00c17 	ldw	r11,48(sp)
        ldw   r12, 52(sp)
 19040d4:	db000d17 	ldw	r12,52(sp)
        ldw   r13, 56(sp)
 19040d8:	db400e17 	ldw	r13,56(sp)
        ldw   r14, 60(sp)
 19040dc:	db800f17 	ldw	r14,60(sp)
        ldw   r15, 64(sp)
 19040e0:	dbc01017 	ldw	r15,64(sp)
#endif

        ldw   sp,  76(sp)

#else
        addi  sp, sp, 76
 19040e4:	dec01304 	addi	sp,sp,76

        /*
         * Return to the interrupted instruction.
         */

        eret
 19040e8:	ef80083a 	eret

019040ec <alt_irq_handler>:
 * instruction is present if the macro ALT_CI_INTERRUPT_VECTOR defined.
 */

void alt_irq_handler (void) __attribute__ ((section (".exceptions")));
void alt_irq_handler (void)
{
 19040ec:	defff904 	addi	sp,sp,-28
 19040f0:	dfc00615 	stw	ra,24(sp)
 19040f4:	df000515 	stw	fp,20(sp)
 19040f8:	df000504 	addi	fp,sp,20
  
  /*
   * Notify the operating system that we are at interrupt level.
   */ 
  
  ALT_OS_INT_ENTER();
 19040fc:	08116480 	call	811648 <OSIntEnter>
#ifndef NIOS2_EIC_PRESENT
static ALT_INLINE alt_u32 ALT_ALWAYS_INLINE alt_irq_pending (void)
{
  alt_u32 active;

  NIOS2_READ_IPENDING (active);
 1904100:	0005313a 	rdctl	r2,ipending
 1904104:	e0bffc15 	stw	r2,-16(fp)

  return active;
 1904108:	e0bffc17 	ldw	r2,-16(fp)
   * Consider the case where the high priority interupt is asserted during
   * the interrupt entry sequence for a lower priority interrupt to see why
   * this is the case.
   */

  active = alt_irq_pending ();
 190410c:	e0bfff15 	stw	r2,-4(fp)

  do
  {
    i = 0;
 1904110:	e03ffd15 	stw	zero,-12(fp)
    mask = 1;
 1904114:	00800044 	movi	r2,1
 1904118:	e0bffe15 	stw	r2,-8(fp)
     * called to clear the interrupt condition.
     */

    do
    {
      if (active & mask)
 190411c:	e0ffff17 	ldw	r3,-4(fp)
 1904120:	e0bffe17 	ldw	r2,-8(fp)
 1904124:	1884703a 	and	r2,r3,r2
 1904128:	1005003a 	cmpeq	r2,r2,zero
 190412c:	1000161e 	bne	r2,zero,1904188 <alt_irq_handler+0x9c>
      { 
#ifdef ALT_ENHANCED_INTERRUPT_API_PRESENT
        alt_irq[i].handler(alt_irq[i].context); 
 1904130:	e0bffd17 	ldw	r2,-12(fp)
 1904134:	00c020b4 	movhi	r3,130
 1904138:	18ccbd04 	addi	r3,r3,13044
 190413c:	100490fa 	slli	r2,r2,3
 1904140:	10c5883a 	add	r2,r2,r3
 1904144:	11400017 	ldw	r5,0(r2)
 1904148:	e0bffd17 	ldw	r2,-12(fp)
 190414c:	00c020b4 	movhi	r3,130
 1904150:	18ccbd04 	addi	r3,r3,13044
 1904154:	100490fa 	slli	r2,r2,3
 1904158:	10c5883a 	add	r2,r2,r3
 190415c:	10800104 	addi	r2,r2,4
 1904160:	11000017 	ldw	r4,0(r2)
 1904164:	283ee83a 	callr	r5
#ifndef NIOS2_EIC_PRESENT
static ALT_INLINE alt_u32 ALT_ALWAYS_INLINE alt_irq_pending (void)
{
  alt_u32 active;

  NIOS2_READ_IPENDING (active);
 1904168:	0005313a 	rdctl	r2,ipending
 190416c:	e0bffb15 	stw	r2,-20(fp)

  return active;
 1904170:	e0bffb17 	ldw	r2,-20(fp)
      mask <<= 1;
      i++;

    } while (1);

    active = alt_irq_pending ();
 1904174:	e0bfff15 	stw	r2,-4(fp)
    
  } while (active);
 1904178:	e0bfff17 	ldw	r2,-4(fp)
 190417c:	1004c03a 	cmpne	r2,r2,zero
 1904180:	103fe31e 	bne	r2,zero,1904110 <alt_irq_handler+0x24>
 1904184:	00000706 	br	19041a4 <alt_irq_handler+0xb8>
#else
        alt_irq[i].handler(alt_irq[i].context, i); 
#endif
        break;
      }
      mask <<= 1;
 1904188:	e0bffe17 	ldw	r2,-8(fp)
 190418c:	1085883a 	add	r2,r2,r2
 1904190:	e0bffe15 	stw	r2,-8(fp)
      i++;
 1904194:	e0bffd17 	ldw	r2,-12(fp)
 1904198:	10800044 	addi	r2,r2,1
 190419c:	e0bffd15 	stw	r2,-12(fp)

    } while (1);
 19041a0:	003fde06 	br	190411c <alt_irq_handler+0x30>

  /*
   * Notify the operating system that interrupt processing is complete.
   */ 

  ALT_OS_INT_EXIT();
 19041a4:	08116c40 	call	8116c4 <OSIntExit>
}
 19041a8:	e037883a 	mov	sp,fp
 19041ac:	dfc00117 	ldw	ra,4(sp)
 19041b0:	df000017 	ldw	fp,0(sp)
 19041b4:	dec00204 	addi	sp,sp,8
 19041b8:	f800283a 	ret

Disassembly of section .text:

00800000 <_start>:

    /* Assume the data cache size is always a power of two. */
#if NIOS2_DCACHE_SIZE > 0x8000
    movhi r2, %hi(NIOS2_DCACHE_SIZE)
#else
    movui r2, NIOS2_DCACHE_SIZE
  800000:	00820014 	movui	r2,2048
#endif

0:
    initd 0(r2)
  800004:	10000033 	initd	0(r2)
    addi r2, r2, -NIOS2_DCACHE_LINE_SIZE
  800008:	10bff804 	addi	r2,r2,-32
    bgt r2, zero, 0b
  80000c:	00bffd16 	blt	zero,r2,800004 <_start+0x4>
#if (NIOS2_NUM_OF_SHADOW_REG_SETS == 0)    
    /*
     * Now that the caches are initialized, set up the stack pointer.
     * The value provided by the linker is assumed to be correctly aligned.
     */
    movhi sp, %hi(__alt_stack_pointer)
  800010:	06c04034 	movhi	sp,256
    ori sp, sp, %lo(__alt_stack_pointer)
  800014:	dec00014 	ori	sp,sp,0

    /* Set up the global pointer. */
    movhi gp, %hi(_gp)
  800018:	068020b4 	movhi	gp,130
    ori gp, gp, %lo(_gp)
  80001c:	d697d314 	ori	gp,gp,24396
 */
#ifndef ALT_SIM_OPTIMIZE
    /* Log that the BSS is about to be cleared. */
    ALT_LOG_PUTS(alt_log_msg_bss)

    movhi r2, %hi(__bss_start)
  800020:	00802074 	movhi	r2,129
    ori r2, r2, %lo(__bss_start)
  800024:	10b80314 	ori	r2,r2,57356

    movhi r3, %hi(__bss_end)
  800028:	00c020b4 	movhi	r3,130
    ori r3, r3, %lo(__bss_end)
  80002c:	18cd6114 	ori	r3,r3,13700

    beq r2, r3, 1f
  800030:	10c00326 	beq	r2,r3,800040 <_start+0x40>

0:
    stw zero, (r2)
  800034:	10000015 	stw	zero,0(r2)
    addi r2, r2, 4
  800038:	10800104 	addi	r2,r2,4
    bltu r2, r3, 0b
  80003c:	10fffd36 	bltu	r2,r3,800034 <_start+0x34>

    /* Log that alt_main is about to be called. */
    ALT_LOG_PUTS(alt_log_msg_alt_main)

    /* Call the C entry point. It should never return. */
    call alt_main
  800040:	08103f00 	call	8103f0 <alt_main>

00800044 <alt_after_alt_main>:

    /* Wait in infinite loop in case alt_main does return. */
alt_after_alt_main:
    br alt_after_alt_main
  800044:	003fff06 	br	800044 <alt_after_alt_main>

00800048 <DE2_Poll>:

alt_up_character_lcd_dev* myLCD;


/* This task initializes the IMUs using I2C communication and reads data from the registers */
void DE2_Poll(void* pdata){
  800048:	deffda04 	addi	sp,sp,-152
  80004c:	dfc02515 	stw	ra,148(sp)
  800050:	df002415 	stw	fp,144(sp)
  800054:	df002404 	addi	fp,sp,144
  800058:	e13fff15 	stw	r4,-4(fp)

	//Temporary buffer to read into
	alt_u8 ReadBuf[6];
	//Device address
	alt_u8 deviceAddress = 0xD0;
  80005c:	00bff404 	movi	r2,-48
  800060:	e0bff1c5 	stb	r2,-57(fp)
	//WHO AM I Register
	alt_u8 whoamireg = 0x75;
  800064:	00801d44 	movi	r2,117
  800068:	e0bff185 	stb	r2,-58(fp)
	alt_u16 buflen = 1;
  80006c:	00800044 	movi	r2,1
  800070:	e0bff10d 	sth	r2,-60(fp)
	// Self tests, biases and resolution for DPS conversions
	float selfTest[6];
	float aRes, gRes;

    // WHO AM I testing
  	I2C_Start(I2C_SCL_BASE,I2C_SDA_BASE);
  800074:	01006474 	movhi	r4,401
  800078:	21241804 	addi	r4,r4,-28576
  80007c:	01406474 	movhi	r5,401
  800080:	29641404 	addi	r5,r5,-28592
  800084:	08031680 	call	803168 <I2C_Start>
    if(!I2C_ReadFromDeviceRegister(I2C_SCL_BASE,I2C_SDA_BASE, deviceAddress, whoamireg, (alt_u8*)&ReadBuf, buflen, true)){
  800088:	e0bff1c3 	ldbu	r2,-57(fp)
  80008c:	11803fcc 	andi	r6,r2,255
  800090:	3180201c 	xori	r6,r6,128
  800094:	31bfe004 	addi	r6,r6,-128
  800098:	e1fff183 	ldbu	r7,-58(fp)
  80009c:	e0fff10b 	ldhu	r3,-60(fp)
  8000a0:	e0bff204 	addi	r2,fp,-56
  8000a4:	d8800015 	stw	r2,0(sp)
  8000a8:	d8c00115 	stw	r3,4(sp)
  8000ac:	00800044 	movi	r2,1
  8000b0:	d8800215 	stw	r2,8(sp)
  8000b4:	01006474 	movhi	r4,401
  8000b8:	21241804 	addi	r4,r4,-28576
  8000bc:	01406474 	movhi	r5,401
  8000c0:	29641404 	addi	r5,r5,-28592
  8000c4:	08035b80 	call	8035b8 <I2C_ReadFromDeviceRegister>

	  }
    I2C_Stop(I2C_SCL_BASE, I2C_SDA_BASE);
  8000c8:	01006474 	movhi	r4,401
  8000cc:	21241804 	addi	r4,r4,-28576
  8000d0:	01406474 	movhi	r5,401
  8000d4:	29641404 	addi	r5,r5,-28592
  8000d8:	08031a00 	call	8031a0 <I2C_Stop>
    printf("DrumStick #1 - WHO AM I: %0x\n", ReadBuf[0]);
  8000dc:	e0bff203 	ldbu	r2,-56(fp)
  8000e0:	11403fcc 	andi	r5,r2,255
  8000e4:	010020b4 	movhi	r4,130
  8000e8:	212f2f04 	addi	r4,r4,-17220
  8000ec:	0807d600 	call	807d60 <printf>

    printf("Starting Self Tests - DrumStick #1\n");
  8000f0:	010020b4 	movhi	r4,130
  8000f4:	212f3704 	addi	r4,r4,-17188
  8000f8:	0807e780 	call	807e78 <puts>

    //Self Testing
    MPU9250SelfTest(selfTest, I2C_SCL_BASE,I2C_SDA_BASE);
  8000fc:	e13ff404 	addi	r4,fp,-48
  800100:	01406474 	movhi	r5,401
  800104:	29641804 	addi	r5,r5,-28576
  800108:	01806474 	movhi	r6,401
  80010c:	31a41404 	addi	r6,r6,-28592
  800110:	08021800 	call	802180 <MPU9250SelfTest>
    printf("x-axis self test: acceleration trim within : ");
  800114:	010020b4 	movhi	r4,130
  800118:	212f4004 	addi	r4,r4,-17152
  80011c:	0807d600 	call	807d60 <printf>
   	printf("%.1f", selfTest[0]); printf("%% of factory value\n");
  800120:	e0bff417 	ldw	r2,-48(fp)
  800124:	1009883a 	mov	r4,r2
  800128:	080625c0 	call	80625c <__extendsfdf2>
  80012c:	100d883a 	mov	r6,r2
  800130:	180f883a 	mov	r7,r3
  800134:	010020b4 	movhi	r4,130
  800138:	212f4c04 	addi	r4,r4,-17104
  80013c:	300b883a 	mov	r5,r6
  800140:	380d883a 	mov	r6,r7
  800144:	0807d600 	call	807d60 <printf>
  800148:	010020b4 	movhi	r4,130
  80014c:	212f4e04 	addi	r4,r4,-17096
  800150:	0807d600 	call	807d60 <printf>
  	printf("y-axis self test: acceleration trim within : ");
  800154:	010020b4 	movhi	r4,130
  800158:	212f5404 	addi	r4,r4,-17072
  80015c:	0807d600 	call	807d60 <printf>
  	printf("%.1f", selfTest[1]); printf("%% of factory value\n");
  800160:	e0bff517 	ldw	r2,-44(fp)
  800164:	1009883a 	mov	r4,r2
  800168:	080625c0 	call	80625c <__extendsfdf2>
  80016c:	100d883a 	mov	r6,r2
  800170:	180f883a 	mov	r7,r3
  800174:	010020b4 	movhi	r4,130
  800178:	212f4c04 	addi	r4,r4,-17104
  80017c:	300b883a 	mov	r5,r6
  800180:	380d883a 	mov	r6,r7
  800184:	0807d600 	call	807d60 <printf>
  800188:	010020b4 	movhi	r4,130
  80018c:	212f4e04 	addi	r4,r4,-17096
  800190:	0807d600 	call	807d60 <printf>
  	printf("z-axis self test: acceleration trim within : ");
  800194:	010020b4 	movhi	r4,130
  800198:	212f6004 	addi	r4,r4,-17024
  80019c:	0807d600 	call	807d60 <printf>
  	printf("%.1f", selfTest[2]); printf("%% of factory value\n");
  8001a0:	e0bff617 	ldw	r2,-40(fp)
  8001a4:	1009883a 	mov	r4,r2
  8001a8:	080625c0 	call	80625c <__extendsfdf2>
  8001ac:	100d883a 	mov	r6,r2
  8001b0:	180f883a 	mov	r7,r3
  8001b4:	010020b4 	movhi	r4,130
  8001b8:	212f4c04 	addi	r4,r4,-17104
  8001bc:	300b883a 	mov	r5,r6
  8001c0:	380d883a 	mov	r6,r7
  8001c4:	0807d600 	call	807d60 <printf>
  8001c8:	010020b4 	movhi	r4,130
  8001cc:	212f4e04 	addi	r4,r4,-17096
  8001d0:	0807d600 	call	807d60 <printf>
  	printf("x-axis self test: gyration trim within : ");
  8001d4:	010020b4 	movhi	r4,130
  8001d8:	212f6c04 	addi	r4,r4,-16976
  8001dc:	0807d600 	call	807d60 <printf>
  	printf("%.1f", selfTest[3]); printf("%% of factory value\n");
  8001e0:	e0bff717 	ldw	r2,-36(fp)
  8001e4:	1009883a 	mov	r4,r2
  8001e8:	080625c0 	call	80625c <__extendsfdf2>
  8001ec:	100d883a 	mov	r6,r2
  8001f0:	180f883a 	mov	r7,r3
  8001f4:	010020b4 	movhi	r4,130
  8001f8:	212f4c04 	addi	r4,r4,-17104
  8001fc:	300b883a 	mov	r5,r6
  800200:	380d883a 	mov	r6,r7
  800204:	0807d600 	call	807d60 <printf>
  800208:	010020b4 	movhi	r4,130
  80020c:	212f4e04 	addi	r4,r4,-17096
  800210:	0807d600 	call	807d60 <printf>
  	printf("y-axis self test: gyration trim within : ");
  800214:	010020b4 	movhi	r4,130
  800218:	212f7704 	addi	r4,r4,-16932
  80021c:	0807d600 	call	807d60 <printf>
  	printf("%.1f", selfTest[4]); printf("%% of factory value\n");
  800220:	e0bff817 	ldw	r2,-32(fp)
  800224:	1009883a 	mov	r4,r2
  800228:	080625c0 	call	80625c <__extendsfdf2>
  80022c:	100d883a 	mov	r6,r2
  800230:	180f883a 	mov	r7,r3
  800234:	010020b4 	movhi	r4,130
  800238:	212f4c04 	addi	r4,r4,-17104
  80023c:	300b883a 	mov	r5,r6
  800240:	380d883a 	mov	r6,r7
  800244:	0807d600 	call	807d60 <printf>
  800248:	010020b4 	movhi	r4,130
  80024c:	212f4e04 	addi	r4,r4,-17096
  800250:	0807d600 	call	807d60 <printf>
  	printf("z-axis self test: gyration trim within : ");
  800254:	010020b4 	movhi	r4,130
  800258:	212f8204 	addi	r4,r4,-16888
  80025c:	0807d600 	call	807d60 <printf>
  	printf("%.1f", selfTest[5]); printf("%% of factory value\n");
  800260:	e0bff917 	ldw	r2,-28(fp)
  800264:	1009883a 	mov	r4,r2
  800268:	080625c0 	call	80625c <__extendsfdf2>
  80026c:	100d883a 	mov	r6,r2
  800270:	180f883a 	mov	r7,r3
  800274:	010020b4 	movhi	r4,130
  800278:	212f4c04 	addi	r4,r4,-17104
  80027c:	300b883a 	mov	r5,r6
  800280:	380d883a 	mov	r6,r7
  800284:	0807d600 	call	807d60 <printf>
  800288:	010020b4 	movhi	r4,130
  80028c:	212f4e04 	addi	r4,r4,-17096
  800290:	0807d600 	call	807d60 <printf>


  	printf("DrumStick #1 initialized for active data mode....\n");
  800294:	010020b4 	movhi	r4,130
  800298:	212f8d04 	addi	r4,r4,-16844
  80029c:	0807e780 	call	807e78 <puts>

  	// Get sensor resolutions
  	getAres(&aRes);
  8002a0:	e13ffa04 	addi	r4,fp,-24
  8002a4:	0800cd00 	call	800cd0 <getAres>
  	getGres(&gRes);
  8002a8:	e13ffb04 	addi	r4,fp,-20
  8002ac:	0800cfc0 	call	800cfc <getGres>

	int hit_flag_1 = 0;
  8002b0:	e03ff015 	stw	zero,-64(fp)
	int gz_hit_flag_1 = 0;
  8002b4:	e03fef15 	stw	zero,-68(fp)

	int drum1_index = 1;
  8002b8:	00800044 	movi	r2,1
  8002bc:	e0bfee15 	stw	r2,-72(fp)
	int drum1_gy_count_up = 0;
  8002c0:	e03fed15 	stw	zero,-76(fp)
	int drum1_gy_count_down = 0;
  8002c4:	e03fec15 	stw	zero,-80(fp)

	// WHO AM I testing
	I2C_Start(I2C_SCL_2_BASE, I2C_SDA_2_BASE);
  8002c8:	01006474 	movhi	r4,401
  8002cc:	21240c04 	addi	r4,r4,-28624
  8002d0:	01406474 	movhi	r5,401
  8002d4:	29641004 	addi	r5,r5,-28608
  8002d8:	08031680 	call	803168 <I2C_Start>
	if(!I2C_ReadFromDeviceRegister(I2C_SCL_2_BASE, I2C_SDA_2_BASE, deviceAddress, whoamireg, (alt_u8*)&ReadBuf, buflen, true)){
  8002dc:	e0bff1c3 	ldbu	r2,-57(fp)
  8002e0:	11803fcc 	andi	r6,r2,255
  8002e4:	3180201c 	xori	r6,r6,128
  8002e8:	31bfe004 	addi	r6,r6,-128
  8002ec:	e1fff183 	ldbu	r7,-58(fp)
  8002f0:	e0fff10b 	ldhu	r3,-60(fp)
  8002f4:	e0bff204 	addi	r2,fp,-56
  8002f8:	d8800015 	stw	r2,0(sp)
  8002fc:	d8c00115 	stw	r3,4(sp)
  800300:	00800044 	movi	r2,1
  800304:	d8800215 	stw	r2,8(sp)
  800308:	01006474 	movhi	r4,401
  80030c:	21240c04 	addi	r4,r4,-28624
  800310:	01406474 	movhi	r5,401
  800314:	29641004 	addi	r5,r5,-28608
  800318:	08035b80 	call	8035b8 <I2C_ReadFromDeviceRegister>

	}
	I2C_Stop(I2C_SCL_2_BASE, I2C_SDA_2_BASE);
  80031c:	01006474 	movhi	r4,401
  800320:	21240c04 	addi	r4,r4,-28624
  800324:	01406474 	movhi	r5,401
  800328:	29641004 	addi	r5,r5,-28608
  80032c:	08031a00 	call	8031a0 <I2C_Stop>
	printf("DrumStick #2 - WHO AM I: %0x\n", ReadBuf[0]);
  800330:	e0bff203 	ldbu	r2,-56(fp)
  800334:	11403fcc 	andi	r5,r2,255
  800338:	010020b4 	movhi	r4,130
  80033c:	212f9a04 	addi	r4,r4,-16792
  800340:	0807d600 	call	807d60 <printf>

	printf("Starting Self Tests - DrumStick #2\n");
  800344:	010020b4 	movhi	r4,130
  800348:	212fa204 	addi	r4,r4,-16760
  80034c:	0807e780 	call	807e78 <puts>

	//Self Testing
	MPU9250SelfTest(selfTest, I2C_SCL_2_BASE, I2C_SDA_2_BASE);
  800350:	e13ff404 	addi	r4,fp,-48
  800354:	01406474 	movhi	r5,401
  800358:	29640c04 	addi	r5,r5,-28624
  80035c:	01806474 	movhi	r6,401
  800360:	31a41004 	addi	r6,r6,-28608
  800364:	08021800 	call	802180 <MPU9250SelfTest>
	printf("x-axis self test: acceleration trim within : ");
  800368:	010020b4 	movhi	r4,130
  80036c:	212f4004 	addi	r4,r4,-17152
  800370:	0807d600 	call	807d60 <printf>
	printf("%.1f", selfTest[0]); printf("%% of factory value\n");
  800374:	e0bff417 	ldw	r2,-48(fp)
  800378:	1009883a 	mov	r4,r2
  80037c:	080625c0 	call	80625c <__extendsfdf2>
  800380:	100d883a 	mov	r6,r2
  800384:	180f883a 	mov	r7,r3
  800388:	010020b4 	movhi	r4,130
  80038c:	212f4c04 	addi	r4,r4,-17104
  800390:	300b883a 	mov	r5,r6
  800394:	380d883a 	mov	r6,r7
  800398:	0807d600 	call	807d60 <printf>
  80039c:	010020b4 	movhi	r4,130
  8003a0:	212f4e04 	addi	r4,r4,-17096
  8003a4:	0807d600 	call	807d60 <printf>
	printf("y-axis self test: acceleration trim within : ");
  8003a8:	010020b4 	movhi	r4,130
  8003ac:	212f5404 	addi	r4,r4,-17072
  8003b0:	0807d600 	call	807d60 <printf>
	printf("%.1f", selfTest[1]); printf("%% of factory value\n");
  8003b4:	e0bff517 	ldw	r2,-44(fp)
  8003b8:	1009883a 	mov	r4,r2
  8003bc:	080625c0 	call	80625c <__extendsfdf2>
  8003c0:	100d883a 	mov	r6,r2
  8003c4:	180f883a 	mov	r7,r3
  8003c8:	010020b4 	movhi	r4,130
  8003cc:	212f4c04 	addi	r4,r4,-17104
  8003d0:	300b883a 	mov	r5,r6
  8003d4:	380d883a 	mov	r6,r7
  8003d8:	0807d600 	call	807d60 <printf>
  8003dc:	010020b4 	movhi	r4,130
  8003e0:	212f4e04 	addi	r4,r4,-17096
  8003e4:	0807d600 	call	807d60 <printf>
	printf("z-axis self test: acceleration trim within : ");
  8003e8:	010020b4 	movhi	r4,130
  8003ec:	212f6004 	addi	r4,r4,-17024
  8003f0:	0807d600 	call	807d60 <printf>
	printf("%.1f", selfTest[2]); printf("%% of factory value\n");
  8003f4:	e0bff617 	ldw	r2,-40(fp)
  8003f8:	1009883a 	mov	r4,r2
  8003fc:	080625c0 	call	80625c <__extendsfdf2>
  800400:	100d883a 	mov	r6,r2
  800404:	180f883a 	mov	r7,r3
  800408:	010020b4 	movhi	r4,130
  80040c:	212f4c04 	addi	r4,r4,-17104
  800410:	300b883a 	mov	r5,r6
  800414:	380d883a 	mov	r6,r7
  800418:	0807d600 	call	807d60 <printf>
  80041c:	010020b4 	movhi	r4,130
  800420:	212f4e04 	addi	r4,r4,-17096
  800424:	0807d600 	call	807d60 <printf>
	printf("x-axis self test: gyration trim within : ");
  800428:	010020b4 	movhi	r4,130
  80042c:	212f6c04 	addi	r4,r4,-16976
  800430:	0807d600 	call	807d60 <printf>
	printf("%.1f", selfTest[3]); printf("%% of factory value\n");
  800434:	e0bff717 	ldw	r2,-36(fp)
  800438:	1009883a 	mov	r4,r2
  80043c:	080625c0 	call	80625c <__extendsfdf2>
  800440:	100d883a 	mov	r6,r2
  800444:	180f883a 	mov	r7,r3
  800448:	010020b4 	movhi	r4,130
  80044c:	212f4c04 	addi	r4,r4,-17104
  800450:	300b883a 	mov	r5,r6
  800454:	380d883a 	mov	r6,r7
  800458:	0807d600 	call	807d60 <printf>
  80045c:	010020b4 	movhi	r4,130
  800460:	212f4e04 	addi	r4,r4,-17096
  800464:	0807d600 	call	807d60 <printf>
	printf("y-axis self test: gyration trim within : ");
  800468:	010020b4 	movhi	r4,130
  80046c:	212f7704 	addi	r4,r4,-16932
  800470:	0807d600 	call	807d60 <printf>
	printf("%.1f", selfTest[4]); printf("%% of factory value\n");
  800474:	e0bff817 	ldw	r2,-32(fp)
  800478:	1009883a 	mov	r4,r2
  80047c:	080625c0 	call	80625c <__extendsfdf2>
  800480:	100d883a 	mov	r6,r2
  800484:	180f883a 	mov	r7,r3
  800488:	010020b4 	movhi	r4,130
  80048c:	212f4c04 	addi	r4,r4,-17104
  800490:	300b883a 	mov	r5,r6
  800494:	380d883a 	mov	r6,r7
  800498:	0807d600 	call	807d60 <printf>
  80049c:	010020b4 	movhi	r4,130
  8004a0:	212f4e04 	addi	r4,r4,-17096
  8004a4:	0807d600 	call	807d60 <printf>
	printf("z-axis self test: gyration trim within : ");
  8004a8:	010020b4 	movhi	r4,130
  8004ac:	212f8204 	addi	r4,r4,-16888
  8004b0:	0807d600 	call	807d60 <printf>
	printf("%.1f", selfTest[5]); printf("%% of factory value\n");
  8004b4:	e0bff917 	ldw	r2,-28(fp)
  8004b8:	1009883a 	mov	r4,r2
  8004bc:	080625c0 	call	80625c <__extendsfdf2>
  8004c0:	100d883a 	mov	r6,r2
  8004c4:	180f883a 	mov	r7,r3
  8004c8:	010020b4 	movhi	r4,130
  8004cc:	212f4c04 	addi	r4,r4,-17104
  8004d0:	300b883a 	mov	r5,r6
  8004d4:	380d883a 	mov	r6,r7
  8004d8:	0807d600 	call	807d60 <printf>
  8004dc:	010020b4 	movhi	r4,130
  8004e0:	212f4e04 	addi	r4,r4,-17096
  8004e4:	0807d600 	call	807d60 <printf>


	printf("DrumStick #2 initialized for active data mode....\n");
  8004e8:	010020b4 	movhi	r4,130
  8004ec:	212fab04 	addi	r4,r4,-16724
  8004f0:	0807e780 	call	807e78 <puts>
	int hit_flag_2 = 0;
  8004f4:	e03feb15 	stw	zero,-84(fp)
	int gz_hit_flag_2 = 0;
  8004f8:	e03fea15 	stw	zero,-88(fp)

	int drum2_index = 1;
  8004fc:	00800044 	movi	r2,1
  800500:	e0bfe915 	stw	r2,-92(fp)
	int drum2_gy_count_up = 0;
  800504:	e03fe815 	stw	zero,-96(fp)
	int drum2_gy_count_down = 0;
  800508:	e03fe715 	stw	zero,-100(fp)

	alt_up_character_lcd_init(myLCD);
  80050c:	d1203017 	ldw	r4,-32576(gp)
  800510:	0819f840 	call	819f84 <alt_up_character_lcd_init>
	alt_up_character_lcd_set_cursor_pos(myLCD, 0, 1);
  800514:	d1203017 	ldw	r4,-32576(gp)
  800518:	000b883a 	mov	r5,zero
  80051c:	01800044 	movi	r6,1
  800520:	081a1340 	call	81a134 <alt_up_character_lcd_set_cursor_pos>
	alt_up_character_lcd_string(myLCD, "Ready To Play");
  800524:	d1203017 	ldw	r4,-32576(gp)
  800528:	014020b4 	movhi	r5,130
  80052c:	296fb804 	addi	r5,r5,-16672
  800530:	081a0700 	call	81a070 <alt_up_character_lcd_string>
	float ax, ay, az, gx, gy, gz, d1_az_old, d2_az_old;

	// Stores the 16-bit signed accelerometer and gyroscope sensor output
	alt_16 accelCount[3];
	alt_16 gyroCount[3];
	d1_az_old = 0;
  800534:	e03fe015 	stw	zero,-128(fp)
	d2_az_old = 0;
  800538:	e03fdf15 	stw	zero,-132(fp)

	//********************* DRUMSTICK #1 *********************************************
	// Read the x/y/z accelerometer values
	readAccelData(accelCount, I2C_SCL_BASE,I2C_SDA_BASE);
  80053c:	e13ffc04 	addi	r4,fp,-16
  800540:	01406474 	movhi	r5,401
  800544:	29641804 	addi	r5,r5,-28576
  800548:	01806474 	movhi	r6,401
  80054c:	31a41404 	addi	r6,r6,-28592
  800550:	0800d280 	call	800d28 <readAccelData>
	 // Read the x/y/z gyroscope values
	readGyroData(gyroCount, I2C_SCL_BASE,I2C_SDA_BASE);
  800554:	e13ffd84 	addi	r4,fp,-10
  800558:	01406474 	movhi	r5,401
  80055c:	29641804 	addi	r5,r5,-28576
  800560:	01806474 	movhi	r6,401
  800564:	31a41404 	addi	r6,r6,-28592
  800568:	0800e280 	call	800e28 <readGyroData>

	// Calculating the acceleration values into actual g's
	// Depends on scale being set
	ax = (float)accelCount[0]*aRes;
  80056c:	e0bffc0b 	ldhu	r2,-16(fp)
  800570:	113fffcc 	andi	r4,r2,65535
  800574:	2120001c 	xori	r4,r4,32768
  800578:	21200004 	addi	r4,r4,-32768
  80057c:	08061c40 	call	8061c4 <__floatsisf>
  800580:	e0fffa17 	ldw	r3,-24(fp)
  800584:	1009883a 	mov	r4,r2
  800588:	180b883a 	mov	r5,r3
  80058c:	0805d800 	call	805d80 <__mulsf3>
  800590:	e0bfe615 	stw	r2,-104(fp)
	ay = (float)accelCount[1]*aRes;
  800594:	e0bffc8b 	ldhu	r2,-14(fp)
  800598:	113fffcc 	andi	r4,r2,65535
  80059c:	2120001c 	xori	r4,r4,32768
  8005a0:	21200004 	addi	r4,r4,-32768
  8005a4:	08061c40 	call	8061c4 <__floatsisf>
  8005a8:	e0fffa17 	ldw	r3,-24(fp)
  8005ac:	1009883a 	mov	r4,r2
  8005b0:	180b883a 	mov	r5,r3
  8005b4:	0805d800 	call	805d80 <__mulsf3>
  8005b8:	e0bfe515 	stw	r2,-108(fp)
	az = (float)accelCount[2]*aRes;
  8005bc:	e0bffd0b 	ldhu	r2,-12(fp)
  8005c0:	113fffcc 	andi	r4,r2,65535
  8005c4:	2120001c 	xori	r4,r4,32768
  8005c8:	21200004 	addi	r4,r4,-32768
  8005cc:	08061c40 	call	8061c4 <__floatsisf>
  8005d0:	e0fffa17 	ldw	r3,-24(fp)
  8005d4:	1009883a 	mov	r4,r2
  8005d8:	180b883a 	mov	r5,r3
  8005dc:	0805d800 	call	805d80 <__mulsf3>
  8005e0:	e0bfe415 	stw	r2,-112(fp)

	// Calculating the gyro values into actual degrees per second
	// Depends on scale being set
	gx = (float)gyroCount[0]*gRes;
  8005e4:	e0bffd8b 	ldhu	r2,-10(fp)
  8005e8:	113fffcc 	andi	r4,r2,65535
  8005ec:	2120001c 	xori	r4,r4,32768
  8005f0:	21200004 	addi	r4,r4,-32768
  8005f4:	08061c40 	call	8061c4 <__floatsisf>
  8005f8:	e0fffb17 	ldw	r3,-20(fp)
  8005fc:	1009883a 	mov	r4,r2
  800600:	180b883a 	mov	r5,r3
  800604:	0805d800 	call	805d80 <__mulsf3>
  800608:	e0bfe315 	stw	r2,-116(fp)
	gy = (float)gyroCount[1]*gRes;
  80060c:	e0bffe0b 	ldhu	r2,-8(fp)
  800610:	113fffcc 	andi	r4,r2,65535
  800614:	2120001c 	xori	r4,r4,32768
  800618:	21200004 	addi	r4,r4,-32768
  80061c:	08061c40 	call	8061c4 <__floatsisf>
  800620:	e0fffb17 	ldw	r3,-20(fp)
  800624:	1009883a 	mov	r4,r2
  800628:	180b883a 	mov	r5,r3
  80062c:	0805d800 	call	805d80 <__mulsf3>
  800630:	e0bfe215 	stw	r2,-120(fp)
	gz = (float)gyroCount[2]*gRes;
  800634:	e0bffe8b 	ldhu	r2,-6(fp)
  800638:	113fffcc 	andi	r4,r2,65535
  80063c:	2120001c 	xori	r4,r4,32768
  800640:	21200004 	addi	r4,r4,-32768
  800644:	08061c40 	call	8061c4 <__floatsisf>
  800648:	e0fffb17 	ldw	r3,-20(fp)
  80064c:	1009883a 	mov	r4,r2
  800650:	180b883a 	mov	r5,r3
  800654:	0805d800 	call	805d80 <__mulsf3>
  800658:	e0bfe115 	stw	r2,-124(fp)

	//printf("gx =  %f, gy = %f, gz = %f \n", gx, gy, gz);
	//printf("%f\n", gy);

	// Horizontal Tracking
	if((gz) < -200){
  80065c:	e13fe117 	ldw	r4,-124(fp)
  800660:	0170d234 	movhi	r5,49992
  800664:	080614c0 	call	80614c <__ltsf2>
  800668:	1004803a 	cmplt	r2,r2,zero
  80066c:	1000011e 	bne	r2,zero,800674 <DE2_Poll+0x62c>
  800670:	00000f06 	br	8006b0 <DE2_Poll+0x668>
		if(!gz_hit_flag_1 && drum1_index != 2 && drum1_index != 5){
  800674:	e0bfef17 	ldw	r2,-68(fp)
  800678:	1004c03a 	cmpne	r2,r2,zero
  80067c:	1000131e 	bne	r2,zero,8006cc <DE2_Poll+0x684>
  800680:	e0bfee17 	ldw	r2,-72(fp)
  800684:	108000a0 	cmpeqi	r2,r2,2
  800688:	1000101e 	bne	r2,zero,8006cc <DE2_Poll+0x684>
  80068c:	e0bfee17 	ldw	r2,-72(fp)
  800690:	10800160 	cmpeqi	r2,r2,5
  800694:	10000d1e 	bne	r2,zero,8006cc <DE2_Poll+0x684>
			drum1_index += 1;
  800698:	e0bfee17 	ldw	r2,-72(fp)
  80069c:	10800044 	addi	r2,r2,1
  8006a0:	e0bfee15 	stw	r2,-72(fp)
			gz_hit_flag_1 = 1;
  8006a4:	00800044 	movi	r2,1
  8006a8:	e0bfef15 	stw	r2,-68(fp)
  8006ac:	00000706 	br	8006cc <DE2_Poll+0x684>
		}
	}
	else if (gz < 30){
  8006b0:	e13fe117 	ldw	r4,-124(fp)
  8006b4:	01507c34 	movhi	r5,16880
  8006b8:	080614c0 	call	80614c <__ltsf2>
  8006bc:	1004803a 	cmplt	r2,r2,zero
  8006c0:	1000011e 	bne	r2,zero,8006c8 <DE2_Poll+0x680>
  8006c4:	00000106 	br	8006cc <DE2_Poll+0x684>
		gz_hit_flag_1 = 0;
  8006c8:	e03fef15 	stw	zero,-68(fp)
	}

	if((gz) > 200){
  8006cc:	e13fe117 	ldw	r4,-124(fp)
  8006d0:	0150d234 	movhi	r5,17224
  8006d4:	08060d40 	call	8060d4 <__gtsf2>
  8006d8:	10800048 	cmpgei	r2,r2,1
  8006dc:	1000011e 	bne	r2,zero,8006e4 <DE2_Poll+0x69c>
  8006e0:	00000f06 	br	800720 <DE2_Poll+0x6d8>
		if(!gz_hit_flag_1 && drum1_index != 0 && drum1_index != 3){
  8006e4:	e0bfef17 	ldw	r2,-68(fp)
  8006e8:	1004c03a 	cmpne	r2,r2,zero
  8006ec:	1000131e 	bne	r2,zero,80073c <DE2_Poll+0x6f4>
  8006f0:	e0bfee17 	ldw	r2,-72(fp)
  8006f4:	1005003a 	cmpeq	r2,r2,zero
  8006f8:	1000101e 	bne	r2,zero,80073c <DE2_Poll+0x6f4>
  8006fc:	e0bfee17 	ldw	r2,-72(fp)
  800700:	108000e0 	cmpeqi	r2,r2,3
  800704:	10000d1e 	bne	r2,zero,80073c <DE2_Poll+0x6f4>
			drum1_index -= 1;
  800708:	e0bfee17 	ldw	r2,-72(fp)
  80070c:	10bfffc4 	addi	r2,r2,-1
  800710:	e0bfee15 	stw	r2,-72(fp)
			gz_hit_flag_1 = 1;
  800714:	00800044 	movi	r2,1
  800718:	e0bfef15 	stw	r2,-68(fp)
  80071c:	00000706 	br	80073c <DE2_Poll+0x6f4>
		}
	}
	else if (gz > 30){
  800720:	e13fe117 	ldw	r4,-124(fp)
  800724:	01507c34 	movhi	r5,16880
  800728:	08060d40 	call	8060d4 <__gtsf2>
  80072c:	10800048 	cmpgei	r2,r2,1
  800730:	1000011e 	bne	r2,zero,800738 <DE2_Poll+0x6f0>
  800734:	00000106 	br	80073c <DE2_Poll+0x6f4>
		gz_hit_flag_1 = 0;
  800738:	e03fef15 	stw	zero,-68(fp)
	}

	// Vertical shift tracking
	if(gy < -70){
  80073c:	e13fe217 	ldw	r4,-120(fp)
  800740:	0170a334 	movhi	r5,49804
  800744:	080614c0 	call	80614c <__ltsf2>
  800748:	1004803a 	cmplt	r2,r2,zero
  80074c:	1000011e 	bne	r2,zero,800754 <DE2_Poll+0x70c>
  800750:	00000406 	br	800764 <DE2_Poll+0x71c>
		drum1_gy_count_up++;
  800754:	e0bfed17 	ldw	r2,-76(fp)
  800758:	10800044 	addi	r2,r2,1
  80075c:	e0bfed15 	stw	r2,-76(fp)
  800760:	00000106 	br	800768 <DE2_Poll+0x720>
	}
	else{
		drum1_gy_count_up = 0;
  800764:	e03fed15 	stw	zero,-76(fp)
	}

	if(gy > 50){
  800768:	e13fe217 	ldw	r4,-120(fp)
  80076c:	01509234 	movhi	r5,16968
  800770:	08060d40 	call	8060d4 <__gtsf2>
  800774:	10800048 	cmpgei	r2,r2,1
  800778:	1000011e 	bne	r2,zero,800780 <DE2_Poll+0x738>
  80077c:	00000406 	br	800790 <DE2_Poll+0x748>
		drum1_gy_count_down++;
  800780:	e0bfec17 	ldw	r2,-80(fp)
  800784:	10800044 	addi	r2,r2,1
  800788:	e0bfec15 	stw	r2,-80(fp)
  80078c:	00000106 	br	800794 <DE2_Poll+0x74c>
	}
	else{
		drum1_gy_count_down = 0;
  800790:	e03fec15 	stw	zero,-80(fp)
	}

	if(drum1_gy_count_up > 14 && drum1_index < 3 ){
  800794:	e0bfed17 	ldw	r2,-76(fp)
  800798:	108003d0 	cmplti	r2,r2,15
  80079c:	1000061e 	bne	r2,zero,8007b8 <DE2_Poll+0x770>
  8007a0:	e0bfee17 	ldw	r2,-72(fp)
  8007a4:	108000c8 	cmpgei	r2,r2,3
  8007a8:	1000031e 	bne	r2,zero,8007b8 <DE2_Poll+0x770>
		drum1_index += 3;
  8007ac:	e0bfee17 	ldw	r2,-72(fp)
  8007b0:	108000c4 	addi	r2,r2,3
  8007b4:	e0bfee15 	stw	r2,-72(fp)
	}
	if(drum1_gy_count_down > 13 && drum1_index > 2){
  8007b8:	e0bfec17 	ldw	r2,-80(fp)
  8007bc:	10800390 	cmplti	r2,r2,14
  8007c0:	1000061e 	bne	r2,zero,8007dc <DE2_Poll+0x794>
  8007c4:	e0bfee17 	ldw	r2,-72(fp)
  8007c8:	108000d0 	cmplti	r2,r2,3
  8007cc:	1000031e 	bne	r2,zero,8007dc <DE2_Poll+0x794>
		drum1_index -= 3;
  8007d0:	e0bfee17 	ldw	r2,-72(fp)
  8007d4:	10bfff44 	addi	r2,r2,-3
  8007d8:	e0bfee15 	stw	r2,-72(fp)
	}

	// Hits
	if((((az - d1_az_old)*1000) < -1000)){
  8007dc:	e13fe417 	ldw	r4,-112(fp)
  8007e0:	e17fe017 	ldw	r5,-128(fp)
  8007e4:	0805cac0 	call	805cac <__subsf3>
  8007e8:	1009883a 	mov	r4,r2
  8007ec:	01511eb4 	movhi	r5,17530
  8007f0:	0805d800 	call	805d80 <__mulsf3>
  8007f4:	1009883a 	mov	r4,r2
  8007f8:	01711eb4 	movhi	r5,50298
  8007fc:	080614c0 	call	80614c <__ltsf2>
  800800:	1004803a 	cmplt	r2,r2,zero
  800804:	1000011e 	bne	r2,zero,80080c <DE2_Poll+0x7c4>
  800808:	00001706 	br	800868 <DE2_Poll+0x820>
		if(!hit_flag_1){
  80080c:	e0bff017 	ldw	r2,-64(fp)
  800810:	1004c03a 	cmpne	r2,r2,zero
  800814:	1000211e 	bne	r2,zero,80089c <DE2_Poll+0x854>
			printf("Hit One: Position %d\n", drum1_index);
  800818:	010020b4 	movhi	r4,130
  80081c:	212fbc04 	addi	r4,r4,-16656
  800820:	e17fee17 	ldw	r5,-72(fp)
  800824:	0807d600 	call	807d60 <printf>
			IOWR_ALTERA_AVALON_PIO_DATA(DRUM_OUT_BASE, drum1_index|0x08);
  800828:	e0bfee17 	ldw	r2,-72(fp)
  80082c:	10c00214 	ori	r3,r2,8
  800830:	00806474 	movhi	r2,401
  800834:	10a40804 	addi	r2,r2,-28640
  800838:	10c00035 	stwio	r3,0(r2)
			OSTimeDlyHMSM(0, 0, 0, 1);
  80083c:	0009883a 	mov	r4,zero
  800840:	000b883a 	mov	r5,zero
  800844:	000d883a 	mov	r6,zero
  800848:	01c00044 	movi	r7,1
  80084c:	0818b4c0 	call	818b4c <OSTimeDlyHMSM>
			IOWR_ALTERA_AVALON_PIO_DATA(DRUM_OUT_BASE, 0x00);
  800850:	00806474 	movhi	r2,401
  800854:	10a40804 	addi	r2,r2,-28640
  800858:	10000035 	stwio	zero,0(r2)
			hit_flag_1 = 1;
  80085c:	00800044 	movi	r2,1
  800860:	e0bff015 	stw	r2,-64(fp)
  800864:	00000d06 	br	80089c <DE2_Poll+0x854>
		}
	}
	else if ((((az - d1_az_old)*1000) > 1000)){
  800868:	e13fe417 	ldw	r4,-112(fp)
  80086c:	e17fe017 	ldw	r5,-128(fp)
  800870:	0805cac0 	call	805cac <__subsf3>
  800874:	1009883a 	mov	r4,r2
  800878:	01511eb4 	movhi	r5,17530
  80087c:	0805d800 	call	805d80 <__mulsf3>
  800880:	1009883a 	mov	r4,r2
  800884:	01511eb4 	movhi	r5,17530
  800888:	08060d40 	call	8060d4 <__gtsf2>
  80088c:	10800048 	cmpgei	r2,r2,1
  800890:	1000011e 	bne	r2,zero,800898 <DE2_Poll+0x850>
  800894:	00000106 	br	80089c <DE2_Poll+0x854>
		hit_flag_1 = 0;
  800898:	e03ff015 	stw	zero,-64(fp)
	}
	d1_az_old =az;
  80089c:	e0bfe417 	ldw	r2,-112(fp)
  8008a0:	e0bfe015 	stw	r2,-128(fp)

	// ************************ DRUMSTICK #2 **********************************
	// Read the x/y/z accelerometer values
	readAccelData(accelCount, I2C_SCL_2_BASE, I2C_SDA_2_BASE);
  8008a4:	e13ffc04 	addi	r4,fp,-16
  8008a8:	01406474 	movhi	r5,401
  8008ac:	29640c04 	addi	r5,r5,-28624
  8008b0:	01806474 	movhi	r6,401
  8008b4:	31a41004 	addi	r6,r6,-28608
  8008b8:	0800d280 	call	800d28 <readAccelData>
	 // Read the x/y/z gyroscope values
	readGyroData(gyroCount, I2C_SCL_2_BASE, I2C_SDA_2_BASE);
  8008bc:	e13ffd84 	addi	r4,fp,-10
  8008c0:	01406474 	movhi	r5,401
  8008c4:	29640c04 	addi	r5,r5,-28624
  8008c8:	01806474 	movhi	r6,401
  8008cc:	31a41004 	addi	r6,r6,-28608
  8008d0:	0800e280 	call	800e28 <readGyroData>

	// Calculating the acceleration values into actual g's
	// Depends on scale being set
	ax = (float)accelCount[0]*aRes;
  8008d4:	e0bffc0b 	ldhu	r2,-16(fp)
  8008d8:	113fffcc 	andi	r4,r2,65535
  8008dc:	2120001c 	xori	r4,r4,32768
  8008e0:	21200004 	addi	r4,r4,-32768
  8008e4:	08061c40 	call	8061c4 <__floatsisf>
  8008e8:	e0fffa17 	ldw	r3,-24(fp)
  8008ec:	1009883a 	mov	r4,r2
  8008f0:	180b883a 	mov	r5,r3
  8008f4:	0805d800 	call	805d80 <__mulsf3>
  8008f8:	e0bfe615 	stw	r2,-104(fp)
	ay = (float)accelCount[1]*aRes;
  8008fc:	e0bffc8b 	ldhu	r2,-14(fp)
  800900:	113fffcc 	andi	r4,r2,65535
  800904:	2120001c 	xori	r4,r4,32768
  800908:	21200004 	addi	r4,r4,-32768
  80090c:	08061c40 	call	8061c4 <__floatsisf>
  800910:	e0fffa17 	ldw	r3,-24(fp)
  800914:	1009883a 	mov	r4,r2
  800918:	180b883a 	mov	r5,r3
  80091c:	0805d800 	call	805d80 <__mulsf3>
  800920:	e0bfe515 	stw	r2,-108(fp)
	az = (float)accelCount[2]*aRes;
  800924:	e0bffd0b 	ldhu	r2,-12(fp)
  800928:	113fffcc 	andi	r4,r2,65535
  80092c:	2120001c 	xori	r4,r4,32768
  800930:	21200004 	addi	r4,r4,-32768
  800934:	08061c40 	call	8061c4 <__floatsisf>
  800938:	e0fffa17 	ldw	r3,-24(fp)
  80093c:	1009883a 	mov	r4,r2
  800940:	180b883a 	mov	r5,r3
  800944:	0805d800 	call	805d80 <__mulsf3>
  800948:	e0bfe415 	stw	r2,-112(fp)

	// Calculating the gyro values into actual degrees per second
	// Depends on scale being set
	gx = (float)gyroCount[0]*gRes;
  80094c:	e0bffd8b 	ldhu	r2,-10(fp)
  800950:	113fffcc 	andi	r4,r2,65535
  800954:	2120001c 	xori	r4,r4,32768
  800958:	21200004 	addi	r4,r4,-32768
  80095c:	08061c40 	call	8061c4 <__floatsisf>
  800960:	e0fffb17 	ldw	r3,-20(fp)
  800964:	1009883a 	mov	r4,r2
  800968:	180b883a 	mov	r5,r3
  80096c:	0805d800 	call	805d80 <__mulsf3>
  800970:	e0bfe315 	stw	r2,-116(fp)
	gy = (float)gyroCount[1]*gRes;
  800974:	e0bffe0b 	ldhu	r2,-8(fp)
  800978:	113fffcc 	andi	r4,r2,65535
  80097c:	2120001c 	xori	r4,r4,32768
  800980:	21200004 	addi	r4,r4,-32768
  800984:	08061c40 	call	8061c4 <__floatsisf>
  800988:	e0fffb17 	ldw	r3,-20(fp)
  80098c:	1009883a 	mov	r4,r2
  800990:	180b883a 	mov	r5,r3
  800994:	0805d800 	call	805d80 <__mulsf3>
  800998:	e0bfe215 	stw	r2,-120(fp)
	gz = (float)gyroCount[2]*gRes;
  80099c:	e0bffe8b 	ldhu	r2,-6(fp)
  8009a0:	113fffcc 	andi	r4,r2,65535
  8009a4:	2120001c 	xori	r4,r4,32768
  8009a8:	21200004 	addi	r4,r4,-32768
  8009ac:	08061c40 	call	8061c4 <__floatsisf>
  8009b0:	e0fffb17 	ldw	r3,-20(fp)
  8009b4:	1009883a 	mov	r4,r2
  8009b8:	180b883a 	mov	r5,r3
  8009bc:	0805d800 	call	805d80 <__mulsf3>
  8009c0:	e0bfe115 	stw	r2,-124(fp)

	// Horizontal Tracking
	if((gz) < -200){
  8009c4:	e13fe117 	ldw	r4,-124(fp)
  8009c8:	0170d234 	movhi	r5,49992
  8009cc:	080614c0 	call	80614c <__ltsf2>
  8009d0:	1004803a 	cmplt	r2,r2,zero
  8009d4:	1000011e 	bne	r2,zero,8009dc <DE2_Poll+0x994>
  8009d8:	00000f06 	br	800a18 <DE2_Poll+0x9d0>
		if(!gz_hit_flag_2 && drum2_index != 2 && drum2_index != 5){
  8009dc:	e0bfea17 	ldw	r2,-88(fp)
  8009e0:	1004c03a 	cmpne	r2,r2,zero
  8009e4:	1000131e 	bne	r2,zero,800a34 <DE2_Poll+0x9ec>
  8009e8:	e0bfe917 	ldw	r2,-92(fp)
  8009ec:	108000a0 	cmpeqi	r2,r2,2
  8009f0:	1000101e 	bne	r2,zero,800a34 <DE2_Poll+0x9ec>
  8009f4:	e0bfe917 	ldw	r2,-92(fp)
  8009f8:	10800160 	cmpeqi	r2,r2,5
  8009fc:	10000d1e 	bne	r2,zero,800a34 <DE2_Poll+0x9ec>
			drum2_index += 1;
  800a00:	e0bfe917 	ldw	r2,-92(fp)
  800a04:	10800044 	addi	r2,r2,1
  800a08:	e0bfe915 	stw	r2,-92(fp)
			gz_hit_flag_2 = 1;
  800a0c:	00800044 	movi	r2,1
  800a10:	e0bfea15 	stw	r2,-88(fp)
  800a14:	00000706 	br	800a34 <DE2_Poll+0x9ec>
		}
	}
	else if (gz < 30){
  800a18:	e13fe117 	ldw	r4,-124(fp)
  800a1c:	01507c34 	movhi	r5,16880
  800a20:	080614c0 	call	80614c <__ltsf2>
  800a24:	1004803a 	cmplt	r2,r2,zero
  800a28:	1000011e 	bne	r2,zero,800a30 <DE2_Poll+0x9e8>
  800a2c:	00000106 	br	800a34 <DE2_Poll+0x9ec>
		gz_hit_flag_2 = 0;
  800a30:	e03fea15 	stw	zero,-88(fp)
	}

	if((gz) > 200){
  800a34:	e13fe117 	ldw	r4,-124(fp)
  800a38:	0150d234 	movhi	r5,17224
  800a3c:	08060d40 	call	8060d4 <__gtsf2>
  800a40:	10800048 	cmpgei	r2,r2,1
  800a44:	1000011e 	bne	r2,zero,800a4c <DE2_Poll+0xa04>
  800a48:	00000f06 	br	800a88 <DE2_Poll+0xa40>
		if(!gz_hit_flag_2 && drum2_index != 0 && drum2_index != 3){
  800a4c:	e0bfea17 	ldw	r2,-88(fp)
  800a50:	1004c03a 	cmpne	r2,r2,zero
  800a54:	1000131e 	bne	r2,zero,800aa4 <DE2_Poll+0xa5c>
  800a58:	e0bfe917 	ldw	r2,-92(fp)
  800a5c:	1005003a 	cmpeq	r2,r2,zero
  800a60:	1000101e 	bne	r2,zero,800aa4 <DE2_Poll+0xa5c>
  800a64:	e0bfe917 	ldw	r2,-92(fp)
  800a68:	108000e0 	cmpeqi	r2,r2,3
  800a6c:	10000d1e 	bne	r2,zero,800aa4 <DE2_Poll+0xa5c>
			drum2_index -= 1;
  800a70:	e0bfe917 	ldw	r2,-92(fp)
  800a74:	10bfffc4 	addi	r2,r2,-1
  800a78:	e0bfe915 	stw	r2,-92(fp)
			gz_hit_flag_2 = 1;
  800a7c:	00800044 	movi	r2,1
  800a80:	e0bfea15 	stw	r2,-88(fp)
  800a84:	00000706 	br	800aa4 <DE2_Poll+0xa5c>
		}
	}
	else if (gz > 30){
  800a88:	e13fe117 	ldw	r4,-124(fp)
  800a8c:	01507c34 	movhi	r5,16880
  800a90:	08060d40 	call	8060d4 <__gtsf2>
  800a94:	10800048 	cmpgei	r2,r2,1
  800a98:	1000011e 	bne	r2,zero,800aa0 <DE2_Poll+0xa58>
  800a9c:	00000106 	br	800aa4 <DE2_Poll+0xa5c>
		gz_hit_flag_2 = 0;
  800aa0:	e03fea15 	stw	zero,-88(fp)
	}

	// Vertical shift tracking
	if(gy < -70){
  800aa4:	e13fe217 	ldw	r4,-120(fp)
  800aa8:	0170a334 	movhi	r5,49804
  800aac:	080614c0 	call	80614c <__ltsf2>
  800ab0:	1004803a 	cmplt	r2,r2,zero
  800ab4:	1000011e 	bne	r2,zero,800abc <DE2_Poll+0xa74>
  800ab8:	00000406 	br	800acc <DE2_Poll+0xa84>
		drum2_gy_count_up++;
  800abc:	e0bfe817 	ldw	r2,-96(fp)
  800ac0:	10800044 	addi	r2,r2,1
  800ac4:	e0bfe815 	stw	r2,-96(fp)
  800ac8:	00000106 	br	800ad0 <DE2_Poll+0xa88>
	}
	else{
		drum2_gy_count_up = 0;
  800acc:	e03fe815 	stw	zero,-96(fp)
	}

	if(gy > 50){
  800ad0:	e13fe217 	ldw	r4,-120(fp)
  800ad4:	01509234 	movhi	r5,16968
  800ad8:	08060d40 	call	8060d4 <__gtsf2>
  800adc:	10800048 	cmpgei	r2,r2,1
  800ae0:	1000011e 	bne	r2,zero,800ae8 <DE2_Poll+0xaa0>
  800ae4:	00000406 	br	800af8 <DE2_Poll+0xab0>
		drum2_gy_count_down++;
  800ae8:	e0bfe717 	ldw	r2,-100(fp)
  800aec:	10800044 	addi	r2,r2,1
  800af0:	e0bfe715 	stw	r2,-100(fp)
  800af4:	00000106 	br	800afc <DE2_Poll+0xab4>
	}
	else{
		drum2_gy_count_down = 0;
  800af8:	e03fe715 	stw	zero,-100(fp)
	}

	if(drum2_gy_count_up > 14 && drum2_index < 3 ){
  800afc:	e0bfe817 	ldw	r2,-96(fp)
  800b00:	108003d0 	cmplti	r2,r2,15
  800b04:	1000061e 	bne	r2,zero,800b20 <DE2_Poll+0xad8>
  800b08:	e0bfe917 	ldw	r2,-92(fp)
  800b0c:	108000c8 	cmpgei	r2,r2,3
  800b10:	1000031e 	bne	r2,zero,800b20 <DE2_Poll+0xad8>
		drum2_index += 3;
  800b14:	e0bfe917 	ldw	r2,-92(fp)
  800b18:	108000c4 	addi	r2,r2,3
  800b1c:	e0bfe915 	stw	r2,-92(fp)
	}
	if(drum2_gy_count_down > 13 && drum2_index > 2){
  800b20:	e0bfe717 	ldw	r2,-100(fp)
  800b24:	10800390 	cmplti	r2,r2,14
  800b28:	1000061e 	bne	r2,zero,800b44 <DE2_Poll+0xafc>
  800b2c:	e0bfe917 	ldw	r2,-92(fp)
  800b30:	108000d0 	cmplti	r2,r2,3
  800b34:	1000031e 	bne	r2,zero,800b44 <DE2_Poll+0xafc>
		drum2_index -= 3;
  800b38:	e0bfe917 	ldw	r2,-92(fp)
  800b3c:	10bfff44 	addi	r2,r2,-3
  800b40:	e0bfe915 	stw	r2,-92(fp)
	}

	// Hits
	if((((az - d2_az_old)*1000) < -1000)){
  800b44:	e13fe417 	ldw	r4,-112(fp)
  800b48:	e17fdf17 	ldw	r5,-132(fp)
  800b4c:	0805cac0 	call	805cac <__subsf3>
  800b50:	1009883a 	mov	r4,r2
  800b54:	01511eb4 	movhi	r5,17530
  800b58:	0805d800 	call	805d80 <__mulsf3>
  800b5c:	1009883a 	mov	r4,r2
  800b60:	01711eb4 	movhi	r5,50298
  800b64:	080614c0 	call	80614c <__ltsf2>
  800b68:	1004803a 	cmplt	r2,r2,zero
  800b6c:	1000011e 	bne	r2,zero,800b74 <DE2_Poll+0xb2c>
  800b70:	00001706 	br	800bd0 <DE2_Poll+0xb88>
		if(!hit_flag_2){
  800b74:	e0bfeb17 	ldw	r2,-84(fp)
  800b78:	1004c03a 	cmpne	r2,r2,zero
  800b7c:	1000211e 	bne	r2,zero,800c04 <DE2_Poll+0xbbc>
			printf("Hit two: Position %d\n", drum2_index);
  800b80:	010020b4 	movhi	r4,130
  800b84:	212fc204 	addi	r4,r4,-16632
  800b88:	e17fe917 	ldw	r5,-92(fp)
  800b8c:	0807d600 	call	807d60 <printf>
			IOWR_ALTERA_AVALON_PIO_DATA(DRUM_OUT_BASE, drum2_index|0x08);
  800b90:	e0bfe917 	ldw	r2,-92(fp)
  800b94:	10c00214 	ori	r3,r2,8
  800b98:	00806474 	movhi	r2,401
  800b9c:	10a40804 	addi	r2,r2,-28640
  800ba0:	10c00035 	stwio	r3,0(r2)
			OSTimeDlyHMSM(0, 0, 0, 1);
  800ba4:	0009883a 	mov	r4,zero
  800ba8:	000b883a 	mov	r5,zero
  800bac:	000d883a 	mov	r6,zero
  800bb0:	01c00044 	movi	r7,1
  800bb4:	0818b4c0 	call	818b4c <OSTimeDlyHMSM>
			IOWR_ALTERA_AVALON_PIO_DATA(DRUM_OUT_BASE, 0x00);
  800bb8:	00806474 	movhi	r2,401
  800bbc:	10a40804 	addi	r2,r2,-28640
  800bc0:	10000035 	stwio	zero,0(r2)
			hit_flag_2 = 1;
  800bc4:	00800044 	movi	r2,1
  800bc8:	e0bfeb15 	stw	r2,-84(fp)
  800bcc:	00000d06 	br	800c04 <DE2_Poll+0xbbc>
		}
	}
	else if ((((az - d2_az_old)*1000) > 1000)){
  800bd0:	e13fe417 	ldw	r4,-112(fp)
  800bd4:	e17fdf17 	ldw	r5,-132(fp)
  800bd8:	0805cac0 	call	805cac <__subsf3>
  800bdc:	1009883a 	mov	r4,r2
  800be0:	01511eb4 	movhi	r5,17530
  800be4:	0805d800 	call	805d80 <__mulsf3>
  800be8:	1009883a 	mov	r4,r2
  800bec:	01511eb4 	movhi	r5,17530
  800bf0:	08060d40 	call	8060d4 <__gtsf2>
  800bf4:	10800048 	cmpgei	r2,r2,1
  800bf8:	1000011e 	bne	r2,zero,800c00 <DE2_Poll+0xbb8>
  800bfc:	00000106 	br	800c04 <DE2_Poll+0xbbc>
		hit_flag_2 = 0;
  800c00:	e03feb15 	stw	zero,-84(fp)
	}
	d2_az_old =az;
  800c04:	e0bfe417 	ldw	r2,-112(fp)
  800c08:	e0bfdf15 	stw	r2,-132(fp)

	OSTimeDlyHMSM(0, 0, 0, 1);
  800c0c:	0009883a 	mov	r4,zero
  800c10:	000b883a 	mov	r5,zero
  800c14:	000d883a 	mov	r6,zero
  800c18:	01c00044 	movi	r7,1
  800c1c:	0818b4c0 	call	818b4c <OSTimeDlyHMSM>
  }
  800c20:	003e4406 	br	800534 <DE2_Poll+0x4ec>

00800c24 <main>:
}

/* The main function creates two task and starts multi-tasking */
int main(void) {
  800c24:	defff904 	addi	sp,sp,-28
  800c28:	dfc00615 	stw	ra,24(sp)
  800c2c:	df000515 	stw	fp,20(sp)
  800c30:	df000504 	addi	fp,sp,20

  myLCD = alt_up_character_lcd_open_dev(CHARACTER_LCD_0_NAME);
  800c34:	010020b4 	movhi	r4,130
  800c38:	212fc804 	addi	r4,r4,-16608
  800c3c:	0819fb80 	call	819fb8 <alt_up_character_lcd_open_dev>
  800c40:	d0a03015 	stw	r2,-32576(gp)
  alt_up_character_lcd_init(myLCD);
  800c44:	d1203017 	ldw	r4,-32576(gp)
  800c48:	0819f840 	call	819f84 <alt_up_character_lcd_init>
  
  alt_up_character_lcd_init(myLCD);
  800c4c:	d1203017 	ldw	r4,-32576(gp)
  800c50:	0819f840 	call	819f84 <alt_up_character_lcd_init>
  alt_up_character_lcd_set_cursor_pos(myLCD, 0, 1);
  800c54:	d1203017 	ldw	r4,-32576(gp)
  800c58:	000b883a 	mov	r5,zero
  800c5c:	01800044 	movi	r6,1
  800c60:	081a1340 	call	81a134 <alt_up_character_lcd_set_cursor_pos>
  alt_up_character_lcd_string(myLCD, "Self Tests");
  800c64:	d1203017 	ldw	r4,-32576(gp)
  800c68:	014020b4 	movhi	r5,130
  800c6c:	296fce04 	addi	r5,r5,-16584
  800c70:	081a0700 	call	81a070 <alt_up_character_lcd_string>

  OSTaskCreateExt(DE2_Poll,
  800c74:	018020b4 	movhi	r6,130
  800c78:	31803304 	addi	r6,r6,204
  800c7c:	00800044 	movi	r2,1
  800c80:	d8800015 	stw	r2,0(sp)
  800c84:	008020b4 	movhi	r2,130
  800c88:	10b83404 	addi	r2,r2,-7984
  800c8c:	d8800115 	stw	r2,4(sp)
  800c90:	00820004 	movi	r2,2048
  800c94:	d8800215 	stw	r2,8(sp)
  800c98:	d8000315 	stw	zero,12(sp)
  800c9c:	d8000415 	stw	zero,16(sp)
  800ca0:	01002034 	movhi	r4,128
  800ca4:	21001204 	addi	r4,r4,72
  800ca8:	000b883a 	mov	r5,zero
  800cac:	01c00044 	movi	r7,1
  800cb0:	08177080 	call	817708 <OSTaskCreateExt>
                  task1_stk,
                  TASK_STACKSIZE,
                  NULL,
                  0);
              
  OSStart();
  800cb4:	08119340 	call	811934 <OSStart>
  return 0;
  800cb8:	0005883a 	mov	r2,zero
}
  800cbc:	e037883a 	mov	sp,fp
  800cc0:	dfc00117 	ldw	ra,4(sp)
  800cc4:	df000017 	ldw	fp,0(sp)
  800cc8:	dec00204 	addi	sp,sp,8
  800ccc:	f800283a 	ret

00800cd0 <getAres>:
**************************************************************************/
/*
 * Sets the resolution of the accelerometer
 */

void getAres(float* aRes){
  800cd0:	defffe04 	addi	sp,sp,-8
  800cd4:	df000115 	stw	fp,4(sp)
  800cd8:	df000104 	addi	fp,sp,4
  800cdc:	e13fff15 	stw	r4,-4(fp)
	// Possible accelerometer scales (and their register bit settings) are:
	// 2 Gs (00), 4 Gs (01), 8 Gs (10), and 16 Gs  (11).
	*aRes =  (float)2.0 / (float)32768.0;
  800ce0:	e0ffff17 	ldw	r3,-4(fp)
  800ce4:	008e2034 	movhi	r2,14464
  800ce8:	18800015 	stw	r2,0(r3)
}
  800cec:	e037883a 	mov	sp,fp
  800cf0:	df000017 	ldw	fp,0(sp)
  800cf4:	dec00104 	addi	sp,sp,4
  800cf8:	f800283a 	ret

00800cfc <getGres>:

/*
 * Sets the resolution of the gyroscope
 */
void getGres(float* gRes){
  800cfc:	defffe04 	addi	sp,sp,-8
  800d00:	df000115 	stw	fp,4(sp)
  800d04:	df000104 	addi	fp,sp,4
  800d08:	e13fff15 	stw	r4,-4(fp)
	// Possible gyro scales (and their register bit settings) are:
	// 250 DPS (00), 500 DPS (01), 1000 DPS (10), and 2000 DPS (11).
	*gRes =  (float)1000.0 / (float)32768.0;
  800d0c:	e0ffff17 	ldw	r3,-4(fp)
  800d10:	008f3eb4 	movhi	r2,15610
  800d14:	18800015 	stw	r2,0(r3)
}
  800d18:	e037883a 	mov	sp,fp
  800d1c:	df000017 	ldw	fp,0(sp)
  800d20:	dec00104 	addi	sp,sp,4
  800d24:	f800283a 	ret

00800d28 <readAccelData>:

/*
 * Read the accelerometer data*/
void readAccelData(alt_16 * destination, alt_u32 scl_base, alt_u32 sda_base)
{
  800d28:	defff604 	addi	sp,sp,-40
  800d2c:	dfc00915 	stw	ra,36(sp)
  800d30:	df000815 	stw	fp,32(sp)
  800d34:	df000804 	addi	fp,sp,32
  800d38:	e13ffd15 	stw	r4,-12(fp)
  800d3c:	e17ffe15 	stw	r5,-8(fp)
  800d40:	e1bfff15 	stw	r6,-4(fp)
  alt_u8 deviceAddress = 0xD0;
  800d44:	00bff404 	movi	r2,-48
  800d48:	e0bffb05 	stb	r2,-20(fp)
  alt_u8 rawData[6];  // x/y/z accel register data stored here
  // Read the six raw data registers into data array
  I2C_Start(scl_base, sda_base);
  800d4c:	e13ffe17 	ldw	r4,-8(fp)
  800d50:	e17fff17 	ldw	r5,-4(fp)
  800d54:	08031680 	call	803168 <I2C_Start>
  I2C_ReadFromDeviceRegister(scl_base, sda_base, deviceAddress, ACCEL_XOUT_H, &rawData[0], 6, true);
  800d58:	e0bffb03 	ldbu	r2,-20(fp)
  800d5c:	11803fcc 	andi	r6,r2,255
  800d60:	3180201c 	xori	r6,r6,128
  800d64:	31bfe004 	addi	r6,r6,-128
  800d68:	e0bffb44 	addi	r2,fp,-19
  800d6c:	d8800015 	stw	r2,0(sp)
  800d70:	00800184 	movi	r2,6
  800d74:	d8800115 	stw	r2,4(sp)
  800d78:	00800044 	movi	r2,1
  800d7c:	d8800215 	stw	r2,8(sp)
  800d80:	e13ffe17 	ldw	r4,-8(fp)
  800d84:	e17fff17 	ldw	r5,-4(fp)
  800d88:	01c00ec4 	movi	r7,59
  800d8c:	08035b80 	call	8035b8 <I2C_ReadFromDeviceRegister>
  I2C_Stop(scl_base, sda_base);
  800d90:	e13ffe17 	ldw	r4,-8(fp)
  800d94:	e17fff17 	ldw	r5,-4(fp)
  800d98:	08031a00 	call	8031a0 <I2C_Stop>

  // Turn the MSB and LSB into a signed 16-bit value
  destination[0] = ((alt_16)rawData[0] << 8) | rawData[1] ;
  800d9c:	e0bffb43 	ldbu	r2,-19(fp)
  800da0:	10803fcc 	andi	r2,r2,255
  800da4:	1004923a 	slli	r2,r2,8
  800da8:	1007883a 	mov	r3,r2
  800dac:	e0bffb83 	ldbu	r2,-18(fp)
  800db0:	10803fcc 	andi	r2,r2,255
  800db4:	1884b03a 	or	r2,r3,r2
  800db8:	1007883a 	mov	r3,r2
  800dbc:	e0bffd17 	ldw	r2,-12(fp)
  800dc0:	10c0000d 	sth	r3,0(r2)
  destination[1] = ((alt_16)rawData[2] << 8) | rawData[3] ;
  800dc4:	e0bffd17 	ldw	r2,-12(fp)
  800dc8:	11000084 	addi	r4,r2,2
  800dcc:	e0bffbc3 	ldbu	r2,-17(fp)
  800dd0:	10803fcc 	andi	r2,r2,255
  800dd4:	1004923a 	slli	r2,r2,8
  800dd8:	1007883a 	mov	r3,r2
  800ddc:	e0bffc03 	ldbu	r2,-16(fp)
  800de0:	10803fcc 	andi	r2,r2,255
  800de4:	1884b03a 	or	r2,r3,r2
  800de8:	2080000d 	sth	r2,0(r4)
  destination[2] = ((alt_16)rawData[4] << 8) | rawData[5] ;
  800dec:	e0bffd17 	ldw	r2,-12(fp)
  800df0:	11000104 	addi	r4,r2,4
  800df4:	e0bffc43 	ldbu	r2,-15(fp)
  800df8:	10803fcc 	andi	r2,r2,255
  800dfc:	1004923a 	slli	r2,r2,8
  800e00:	1007883a 	mov	r3,r2
  800e04:	e0bffc83 	ldbu	r2,-14(fp)
  800e08:	10803fcc 	andi	r2,r2,255
  800e0c:	1884b03a 	or	r2,r3,r2
  800e10:	2080000d 	sth	r2,0(r4)
  //printf("destination[0] %d\n", destination[0]);
  //printf("destination[1] %d\n", destination[1]);
  //printf("destination[2] %d\n", destination[2]);
}
  800e14:	e037883a 	mov	sp,fp
  800e18:	dfc00117 	ldw	ra,4(sp)
  800e1c:	df000017 	ldw	fp,0(sp)
  800e20:	dec00204 	addi	sp,sp,8
  800e24:	f800283a 	ret

00800e28 <readGyroData>:

/* Read the gyroscope data*/
void readGyroData(alt_16 * destination, alt_u32 scl_base, alt_u32 sda_base)
{
  800e28:	defff604 	addi	sp,sp,-40
  800e2c:	dfc00915 	stw	ra,36(sp)
  800e30:	df000815 	stw	fp,32(sp)
  800e34:	df000804 	addi	fp,sp,32
  800e38:	e13ffd15 	stw	r4,-12(fp)
  800e3c:	e17ffe15 	stw	r5,-8(fp)
  800e40:	e1bfff15 	stw	r6,-4(fp)
  alt_u8 deviceAddress = 0xD0;
  800e44:	00bff404 	movi	r2,-48
  800e48:	e0bffb05 	stb	r2,-20(fp)
  alt_u8 rawData[6];  // x/y/z gyro register data stored here
  // Read the six raw data registers sequentially into data array
  I2C_Start(scl_base, sda_base);
  800e4c:	e13ffe17 	ldw	r4,-8(fp)
  800e50:	e17fff17 	ldw	r5,-4(fp)
  800e54:	08031680 	call	803168 <I2C_Start>
  I2C_ReadFromDeviceRegister(scl_base, sda_base, deviceAddress, GYRO_XOUT_H, &rawData[0], 6, true);
  800e58:	e0bffb03 	ldbu	r2,-20(fp)
  800e5c:	11803fcc 	andi	r6,r2,255
  800e60:	3180201c 	xori	r6,r6,128
  800e64:	31bfe004 	addi	r6,r6,-128
  800e68:	e0bffb44 	addi	r2,fp,-19
  800e6c:	d8800015 	stw	r2,0(sp)
  800e70:	00800184 	movi	r2,6
  800e74:	d8800115 	stw	r2,4(sp)
  800e78:	00800044 	movi	r2,1
  800e7c:	d8800215 	stw	r2,8(sp)
  800e80:	e13ffe17 	ldw	r4,-8(fp)
  800e84:	e17fff17 	ldw	r5,-4(fp)
  800e88:	01c010c4 	movi	r7,67
  800e8c:	08035b80 	call	8035b8 <I2C_ReadFromDeviceRegister>
  I2C_Stop(scl_base, sda_base);
  800e90:	e13ffe17 	ldw	r4,-8(fp)
  800e94:	e17fff17 	ldw	r5,-4(fp)
  800e98:	08031a00 	call	8031a0 <I2C_Stop>

  // Turn the MSB and LSB into a signed 16-bit value
  destination[0] = ((alt_16)rawData[0] << 8) | rawData[1] ;
  800e9c:	e0bffb43 	ldbu	r2,-19(fp)
  800ea0:	10803fcc 	andi	r2,r2,255
  800ea4:	1004923a 	slli	r2,r2,8
  800ea8:	1007883a 	mov	r3,r2
  800eac:	e0bffb83 	ldbu	r2,-18(fp)
  800eb0:	10803fcc 	andi	r2,r2,255
  800eb4:	1884b03a 	or	r2,r3,r2
  800eb8:	1007883a 	mov	r3,r2
  800ebc:	e0bffd17 	ldw	r2,-12(fp)
  800ec0:	10c0000d 	sth	r3,0(r2)
  destination[1] = ((alt_16)rawData[2] << 8) | rawData[3] ;
  800ec4:	e0bffd17 	ldw	r2,-12(fp)
  800ec8:	11000084 	addi	r4,r2,2
  800ecc:	e0bffbc3 	ldbu	r2,-17(fp)
  800ed0:	10803fcc 	andi	r2,r2,255
  800ed4:	1004923a 	slli	r2,r2,8
  800ed8:	1007883a 	mov	r3,r2
  800edc:	e0bffc03 	ldbu	r2,-16(fp)
  800ee0:	10803fcc 	andi	r2,r2,255
  800ee4:	1884b03a 	or	r2,r3,r2
  800ee8:	2080000d 	sth	r2,0(r4)
  destination[2] = ((alt_16)rawData[4] << 8) | rawData[5] ;
  800eec:	e0bffd17 	ldw	r2,-12(fp)
  800ef0:	11000104 	addi	r4,r2,4
  800ef4:	e0bffc43 	ldbu	r2,-15(fp)
  800ef8:	10803fcc 	andi	r2,r2,255
  800efc:	1004923a 	slli	r2,r2,8
  800f00:	1007883a 	mov	r3,r2
  800f04:	e0bffc83 	ldbu	r2,-14(fp)
  800f08:	10803fcc 	andi	r2,r2,255
  800f0c:	1884b03a 	or	r2,r3,r2
  800f10:	2080000d 	sth	r2,0(r4)
}
  800f14:	e037883a 	mov	sp,fp
  800f18:	dfc00117 	ldw	ra,4(sp)
  800f1c:	df000017 	ldw	fp,0(sp)
  800f20:	dec00204 	addi	sp,sp,8
  800f24:	f800283a 	ret

00800f28 <initMPU9250>:

/*
 * Initialize the IMU to Active/Read mode
 * */
void initMPU9250(alt_u32 scl_base, alt_u32 sda_base){
  800f28:	defff804 	addi	sp,sp,-32
  800f2c:	dfc00715 	stw	ra,28(sp)
  800f30:	df000615 	stw	fp,24(sp)
  800f34:	df000604 	addi	fp,sp,24
  800f38:	e13ffe15 	stw	r4,-8(fp)
  800f3c:	e17fff15 	stw	r5,-4(fp)
  alt_u8 deviceAddress = 0xD0;
  800f40:	00bff404 	movi	r2,-48
  800f44:	e0bffd45 	stb	r2,-11(fp)
  alt_u8 c;
  // wake up device
  // Clear sleep mode bit (6), enable all sensors
  I2C_Start(scl_base, sda_base);
  800f48:	e13ffe17 	ldw	r4,-8(fp)
  800f4c:	e17fff17 	ldw	r5,-4(fp)
  800f50:	08031680 	call	803168 <I2C_Start>
  I2C_WriteToDeviceRegister(scl_base, sda_base, deviceAddress, PWR_MGMT_1, 0x00, 1);
  800f54:	e0bffd43 	ldbu	r2,-11(fp)
  800f58:	11803fcc 	andi	r6,r2,255
  800f5c:	3180201c 	xori	r6,r6,128
  800f60:	31bfe004 	addi	r6,r6,-128
  800f64:	d8000015 	stw	zero,0(sp)
  800f68:	00800044 	movi	r2,1
  800f6c:	d8800115 	stw	r2,4(sp)
  800f70:	e13ffe17 	ldw	r4,-8(fp)
  800f74:	e17fff17 	ldw	r5,-4(fp)
  800f78:	01c01ac4 	movi	r7,107
  800f7c:	08032d00 	call	8032d0 <I2C_WriteToDeviceRegister>

  OSTimeDlyHMSM(0, 0, 0, 100); ; // Wait for all registers to reset
  800f80:	0009883a 	mov	r4,zero
  800f84:	000b883a 	mov	r5,zero
  800f88:	000d883a 	mov	r6,zero
  800f8c:	01c01904 	movi	r7,100
  800f90:	0818b4c0 	call	818b4c <OSTimeDlyHMSM>

  // Get stable time source
  // Auto select clock source to be PLL gyroscope reference if ready else
  I2C_WriteToDeviceRegister(scl_base, sda_base, deviceAddress, PWR_MGMT_1, 0x01, 1);
  800f94:	e0bffd43 	ldbu	r2,-11(fp)
  800f98:	11803fcc 	andi	r6,r2,255
  800f9c:	3180201c 	xori	r6,r6,128
  800fa0:	31bfe004 	addi	r6,r6,-128
  800fa4:	00800044 	movi	r2,1
  800fa8:	d8800015 	stw	r2,0(sp)
  800fac:	00800044 	movi	r2,1
  800fb0:	d8800115 	stw	r2,4(sp)
  800fb4:	e13ffe17 	ldw	r4,-8(fp)
  800fb8:	e17fff17 	ldw	r5,-4(fp)
  800fbc:	01c01ac4 	movi	r7,107
  800fc0:	08032d00 	call	8032d0 <I2C_WriteToDeviceRegister>

  OSTimeDlyHMSM(0, 0, 0, 200);
  800fc4:	0009883a 	mov	r4,zero
  800fc8:	000b883a 	mov	r5,zero
  800fcc:	000d883a 	mov	r6,zero
  800fd0:	01c03204 	movi	r7,200
  800fd4:	0818b4c0 	call	818b4c <OSTimeDlyHMSM>
  // minimum delay time for this setting is 5.9 ms, which means sensor fusion
  // update rates cannot be higher than 1 / 0.0059 = 170 Hz
  // DLPF_CFG = bits 2:0 = 011; this limits the sample rate to 1000 Hz for both
  // With the MPU9250, it is possible to get gyro sample rates of 32 kHz (!),
  // 8 kHz, or 1 kHz
  I2C_WriteToDeviceRegister(scl_base, sda_base, deviceAddress, CONFIG, 0x03, 1);
  800fd8:	e0bffd43 	ldbu	r2,-11(fp)
  800fdc:	11803fcc 	andi	r6,r2,255
  800fe0:	3180201c 	xori	r6,r6,128
  800fe4:	31bfe004 	addi	r6,r6,-128
  800fe8:	008000c4 	movi	r2,3
  800fec:	d8800015 	stw	r2,0(sp)
  800ff0:	00800044 	movi	r2,1
  800ff4:	d8800115 	stw	r2,4(sp)
  800ff8:	e13ffe17 	ldw	r4,-8(fp)
  800ffc:	e17fff17 	ldw	r5,-4(fp)
  801000:	01c00684 	movi	r7,26
  801004:	08032d00 	call	8032d0 <I2C_WriteToDeviceRegister>

  // Set sample rate = gyroscope output rate/(1 + SMPLRT_DIV)
  // Use a 200 Hz rate; a rate consistent with the filter update rate
  // determined inset in CONFIG above.
  I2C_WriteToDeviceRegister(scl_base, sda_base, deviceAddress, SMPLRT_DIV, 0x04, 1);
  801008:	e0bffd43 	ldbu	r2,-11(fp)
  80100c:	11803fcc 	andi	r6,r2,255
  801010:	3180201c 	xori	r6,r6,128
  801014:	31bfe004 	addi	r6,r6,-128
  801018:	00800104 	movi	r2,4
  80101c:	d8800015 	stw	r2,0(sp)
  801020:	00800044 	movi	r2,1
  801024:	d8800115 	stw	r2,4(sp)
  801028:	e13ffe17 	ldw	r4,-8(fp)
  80102c:	e17fff17 	ldw	r5,-4(fp)
  801030:	01c00644 	movi	r7,25
  801034:	08032d00 	call	8032d0 <I2C_WriteToDeviceRegister>

  // Set gyroscope full scale range
  // Range selects FS_SEL and AFS_SEL are 0 - 3, so 2-bit values are
  // left-shifted into positions 4:3
  I2C_Stop(scl_base, sda_base);
  801038:	e13ffe17 	ldw	r4,-8(fp)
  80103c:	e17fff17 	ldw	r5,-4(fp)
  801040:	08031a00 	call	8031a0 <I2C_Stop>
  // get current GYRO_CONFIG register value
  I2C_Start(scl_base, sda_base);
  801044:	e13ffe17 	ldw	r4,-8(fp)
  801048:	e17fff17 	ldw	r5,-4(fp)
  80104c:	08031680 	call	803168 <I2C_Start>
  I2C_ReadFromDeviceRegister(scl_base, sda_base, deviceAddress, GYRO_CONFIG, c, 1, true);
  801050:	e0bffd43 	ldbu	r2,-11(fp)
  801054:	11803fcc 	andi	r6,r2,255
  801058:	3180201c 	xori	r6,r6,128
  80105c:	31bfe004 	addi	r6,r6,-128
  801060:	e0bffd03 	ldbu	r2,-12(fp)
  801064:	d8800015 	stw	r2,0(sp)
  801068:	00800044 	movi	r2,1
  80106c:	d8800115 	stw	r2,4(sp)
  801070:	00800044 	movi	r2,1
  801074:	d8800215 	stw	r2,8(sp)
  801078:	e13ffe17 	ldw	r4,-8(fp)
  80107c:	e17fff17 	ldw	r5,-4(fp)
  801080:	01c006c4 	movi	r7,27
  801084:	08035b80 	call	8035b8 <I2C_ReadFromDeviceRegister>
  I2C_Stop(scl_base, sda_base);
  801088:	e13ffe17 	ldw	r4,-8(fp)
  80108c:	e17fff17 	ldw	r5,-4(fp)
  801090:	08031a00 	call	8031a0 <I2C_Stop>
  // c = c & ~0xE0; // Clear self-test bits [7:5]
  c = c & ~0x02; // Clear Fchoice bits [1:0]
  801094:	e0fffd03 	ldbu	r3,-12(fp)
  801098:	00bfff44 	movi	r2,-3
  80109c:	1884703a 	and	r2,r3,r2
  8010a0:	e0bffd05 	stb	r2,-12(fp)
  c = c & ~0x18; // Clear AFS bits [4:3]
  8010a4:	e0fffd03 	ldbu	r3,-12(fp)
  8010a8:	00bff9c4 	movi	r2,-25
  8010ac:	1884703a 	and	r2,r3,r2
  8010b0:	e0bffd05 	stb	r2,-12(fp)
  c = c | GFS_250DPS   << 3; // Set full scale range for the gyro
  // Set Fchoice for the gyro to 11 by writing its inverse to bits 1:0 of
  // GYRO_CONFIG
  // c =| 0x00;
  // Write new GYRO_CONFIG value to register
  I2C_Start(scl_base, sda_base);
  8010b4:	e13ffe17 	ldw	r4,-8(fp)
  8010b8:	e17fff17 	ldw	r5,-4(fp)
  8010bc:	08031680 	call	803168 <I2C_Start>
  I2C_WriteToDeviceRegister(scl_base, sda_base, deviceAddress, GYRO_CONFIG, c, 1);
  8010c0:	e0bffd43 	ldbu	r2,-11(fp)
  8010c4:	11803fcc 	andi	r6,r2,255
  8010c8:	3180201c 	xori	r6,r6,128
  8010cc:	31bfe004 	addi	r6,r6,-128
  8010d0:	e0bffd03 	ldbu	r2,-12(fp)
  8010d4:	d8800015 	stw	r2,0(sp)
  8010d8:	00800044 	movi	r2,1
  8010dc:	d8800115 	stw	r2,4(sp)
  8010e0:	e13ffe17 	ldw	r4,-8(fp)
  8010e4:	e17fff17 	ldw	r5,-4(fp)
  8010e8:	01c006c4 	movi	r7,27
  8010ec:	08032d00 	call	8032d0 <I2C_WriteToDeviceRegister>
  I2C_Stop(scl_base, sda_base);
  8010f0:	e13ffe17 	ldw	r4,-8(fp)
  8010f4:	e17fff17 	ldw	r5,-4(fp)
  8010f8:	08031a00 	call	8031a0 <I2C_Stop>

  // Set accelerometer full-scale range configuration
  // Get current ACCEL_CONFIG register value
  I2C_Start(scl_base, sda_base);
  8010fc:	e13ffe17 	ldw	r4,-8(fp)
  801100:	e17fff17 	ldw	r5,-4(fp)
  801104:	08031680 	call	803168 <I2C_Start>
  I2C_ReadFromDeviceRegister(scl_base, sda_base, deviceAddress, ACCEL_CONFIG, c, 1, true);
  801108:	e0bffd43 	ldbu	r2,-11(fp)
  80110c:	11803fcc 	andi	r6,r2,255
  801110:	3180201c 	xori	r6,r6,128
  801114:	31bfe004 	addi	r6,r6,-128
  801118:	e0bffd03 	ldbu	r2,-12(fp)
  80111c:	d8800015 	stw	r2,0(sp)
  801120:	00800044 	movi	r2,1
  801124:	d8800115 	stw	r2,4(sp)
  801128:	00800044 	movi	r2,1
  80112c:	d8800215 	stw	r2,8(sp)
  801130:	e13ffe17 	ldw	r4,-8(fp)
  801134:	e17fff17 	ldw	r5,-4(fp)
  801138:	01c00704 	movi	r7,28
  80113c:	08035b80 	call	8035b8 <I2C_ReadFromDeviceRegister>
  I2C_Stop(scl_base, sda_base);
  801140:	e13ffe17 	ldw	r4,-8(fp)
  801144:	e17fff17 	ldw	r5,-4(fp)
  801148:	08031a00 	call	8031a0 <I2C_Stop>
  // c = c & ~0xE0; // Clear self-test bits [7:5]
  c = c & ~0x18;  // Clear AFS bits [4:3]
  80114c:	e0fffd03 	ldbu	r3,-12(fp)
  801150:	00bff9c4 	movi	r2,-25
  801154:	1884703a 	and	r2,r3,r2
  801158:	e0bffd05 	stb	r2,-12(fp)
  c = c | AFS_2G << 3; // Set full scale range for the accelerometer
  // Write new ACCEL_CONFIG register value
  I2C_Start(scl_base, sda_base);
  80115c:	e13ffe17 	ldw	r4,-8(fp)
  801160:	e17fff17 	ldw	r5,-4(fp)
  801164:	08031680 	call	803168 <I2C_Start>
  I2C_WriteToDeviceRegister(scl_base, sda_base, deviceAddress, ACCEL_CONFIG, c, 1);
  801168:	e0bffd43 	ldbu	r2,-11(fp)
  80116c:	11803fcc 	andi	r6,r2,255
  801170:	3180201c 	xori	r6,r6,128
  801174:	31bfe004 	addi	r6,r6,-128
  801178:	e0bffd03 	ldbu	r2,-12(fp)
  80117c:	d8800015 	stw	r2,0(sp)
  801180:	00800044 	movi	r2,1
  801184:	d8800115 	stw	r2,4(sp)
  801188:	e13ffe17 	ldw	r4,-8(fp)
  80118c:	e17fff17 	ldw	r5,-4(fp)
  801190:	01c00704 	movi	r7,28
  801194:	08032d00 	call	8032d0 <I2C_WriteToDeviceRegister>
  I2C_Stop(scl_base, sda_base);
  801198:	e13ffe17 	ldw	r4,-8(fp)
  80119c:	e17fff17 	ldw	r5,-4(fp)
  8011a0:	08031a00 	call	8031a0 <I2C_Stop>
  // Set accelerometer sample rate configuration
  // It is possible to get a 4 kHz sample rate from the accelerometer by
  // choosing 1 for accel_fchoice_b bit [3]; in this case the bandwidth is
  // 1.13 kHz
  // Get current ACCEL_CONFIG2 register value
  I2C_Start(scl_base, sda_base);
  8011a4:	e13ffe17 	ldw	r4,-8(fp)
  8011a8:	e17fff17 	ldw	r5,-4(fp)
  8011ac:	08031680 	call	803168 <I2C_Start>
  I2C_ReadFromDeviceRegister(scl_base, sda_base, deviceAddress, ACCEL_CONFIG2, c, 1, true);
  8011b0:	e0bffd43 	ldbu	r2,-11(fp)
  8011b4:	11803fcc 	andi	r6,r2,255
  8011b8:	3180201c 	xori	r6,r6,128
  8011bc:	31bfe004 	addi	r6,r6,-128
  8011c0:	e0bffd03 	ldbu	r2,-12(fp)
  8011c4:	d8800015 	stw	r2,0(sp)
  8011c8:	00800044 	movi	r2,1
  8011cc:	d8800115 	stw	r2,4(sp)
  8011d0:	00800044 	movi	r2,1
  8011d4:	d8800215 	stw	r2,8(sp)
  8011d8:	e13ffe17 	ldw	r4,-8(fp)
  8011dc:	e17fff17 	ldw	r5,-4(fp)
  8011e0:	01c00744 	movi	r7,29
  8011e4:	08035b80 	call	8035b8 <I2C_ReadFromDeviceRegister>
  I2C_Stop(scl_base, sda_base);
  8011e8:	e13ffe17 	ldw	r4,-8(fp)
  8011ec:	e17fff17 	ldw	r5,-4(fp)
  8011f0:	08031a00 	call	8031a0 <I2C_Stop>
  c = c & ~0x0F; // Clear accel_fchoice_b (bit 3) and A_DLPFG (bits [2:0])
  8011f4:	e0fffd03 	ldbu	r3,-12(fp)
  8011f8:	00bffc04 	movi	r2,-16
  8011fc:	1884703a 	and	r2,r3,r2
  801200:	e0bffd05 	stb	r2,-12(fp)
  c = c | 0x03;  // Set accelerometer rate to 1 kHz and bandwidth to 41 Hz
  801204:	e0bffd03 	ldbu	r2,-12(fp)
  801208:	108000d4 	ori	r2,r2,3
  80120c:	e0bffd05 	stb	r2,-12(fp)

  // Write new ACCEL_CONFIG2 register value
  I2C_Start(scl_base, sda_base);
  801210:	e13ffe17 	ldw	r4,-8(fp)
  801214:	e17fff17 	ldw	r5,-4(fp)
  801218:	08031680 	call	803168 <I2C_Start>
  I2C_WriteToDeviceRegister(scl_base, sda_base, deviceAddress, ACCEL_CONFIG2, c, 1);
  80121c:	e0bffd43 	ldbu	r2,-11(fp)
  801220:	11803fcc 	andi	r6,r2,255
  801224:	3180201c 	xori	r6,r6,128
  801228:	31bfe004 	addi	r6,r6,-128
  80122c:	e0bffd03 	ldbu	r2,-12(fp)
  801230:	d8800015 	stw	r2,0(sp)
  801234:	00800044 	movi	r2,1
  801238:	d8800115 	stw	r2,4(sp)
  80123c:	e13ffe17 	ldw	r4,-8(fp)
  801240:	e17fff17 	ldw	r5,-4(fp)
  801244:	01c00744 	movi	r7,29
  801248:	08032d00 	call	8032d0 <I2C_WriteToDeviceRegister>
  //I2C_WriteToDeviceRegister(scl_base, sda_base, deviceAddress, INT_PIN_CFG, 0x22, 1);

  // Enable data ready (bit 0) interrupt
  //I2C_WriteToDeviceRegister(scl_base, sda_base, deviceAddress, INT_ENABLE, 0x01, 1);

  I2C_Stop(scl_base, sda_base);
  80124c:	e13ffe17 	ldw	r4,-8(fp)
  801250:	e17fff17 	ldw	r5,-4(fp)
  801254:	08031a00 	call	8031a0 <I2C_Stop>
  OSTimeDlyHMSM(0, 0, 0, 100);
  801258:	0009883a 	mov	r4,zero
  80125c:	000b883a 	mov	r5,zero
  801260:	000d883a 	mov	r6,zero
  801264:	01c01904 	movi	r7,100
  801268:	0818b4c0 	call	818b4c <OSTimeDlyHMSM>
}
  80126c:	e037883a 	mov	sp,fp
  801270:	dfc00117 	ldw	ra,4(sp)
  801274:	df000017 	ldw	fp,0(sp)
  801278:	dec00204 	addi	sp,sp,8
  80127c:	f800283a 	ret

00801280 <calibrateMPU9250>:


// Function which accumulates gyro and accelerometer data after device
// initialization. It calculates the average of the at-rest readings and then
// loads the resulting offsets into accelerometer and gyro bias registers.
void calibrateMPU9250(float * gyroBias, float * accelBias, alt_u32 scl_base, alt_u32 sda_base) {
  801280:	deffd504 	addi	sp,sp,-172
  801284:	dfc02a15 	stw	ra,168(sp)
  801288:	df002915 	stw	fp,164(sp)
  80128c:	dc402815 	stw	r17,160(sp)
  801290:	dc002715 	stw	r16,156(sp)
  801294:	df002704 	addi	fp,sp,156
  801298:	e13ff015 	stw	r4,-64(fp)
  80129c:	e17ff115 	stw	r5,-60(fp)
  8012a0:	e1bff215 	stw	r6,-56(fp)
  8012a4:	e1fff315 	stw	r7,-52(fp)

  alt_u8 deviceAddress = 0xD0;
  8012a8:	00bff404 	movi	r2,-48
  8012ac:	e0bfdf85 	stb	r2,-130(fp)
  alt_u8 data[12]; // data array to hold accelerometer and gyro x, y, z, data
  alt_u16 ii, packet_count, fifo_count;
  alt_32 gyro_bias[3]  = {0, 0, 0}, accel_bias[3] = {0, 0, 0};
  8012b0:	e03fe315 	stw	zero,-116(fp)
  8012b4:	e03fe415 	stw	zero,-112(fp)
  8012b8:	e03fe515 	stw	zero,-108(fp)
  8012bc:	e03fe615 	stw	zero,-104(fp)
  8012c0:	e03fe715 	stw	zero,-100(fp)
  8012c4:	e03fe815 	stw	zero,-96(fp)

  // reset device
  // Write a one to bit 7 reset bit; toggle reset device
  I2C_Start(scl_base, sda_base);
  8012c8:	e13ff217 	ldw	r4,-56(fp)
  8012cc:	e17ff317 	ldw	r5,-52(fp)
  8012d0:	08031680 	call	803168 <I2C_Start>
  I2C_WriteToDeviceRegister(scl_base, sda_base, deviceAddress, PWR_MGMT_1, READ_FLAG, 1);
  8012d4:	e0bfdf83 	ldbu	r2,-130(fp)
  8012d8:	11803fcc 	andi	r6,r2,255
  8012dc:	3180201c 	xori	r6,r6,128
  8012e0:	31bfe004 	addi	r6,r6,-128
  8012e4:	00802004 	movi	r2,128
  8012e8:	d8800015 	stw	r2,0(sp)
  8012ec:	00800044 	movi	r2,1
  8012f0:	d8800115 	stw	r2,4(sp)
  8012f4:	e13ff217 	ldw	r4,-56(fp)
  8012f8:	e17ff317 	ldw	r5,-52(fp)
  8012fc:	01c01ac4 	movi	r7,107
  801300:	08032d00 	call	8032d0 <I2C_WriteToDeviceRegister>
  OSTimeDlyHMSM(0, 0, 0, 100);
  801304:	0009883a 	mov	r4,zero
  801308:	000b883a 	mov	r5,zero
  80130c:	000d883a 	mov	r6,zero
  801310:	01c01904 	movi	r7,100
  801314:	0818b4c0 	call	818b4c <OSTimeDlyHMSM>
  // get stable time source; Auto select clock source to be PLL gyroscope
  // reference if ready else use the internal oscillator, bits 2:0 = 001
  I2C_WriteToDeviceRegister(scl_base, sda_base, deviceAddress, PWR_MGMT_1, 0x01, 1);
  801318:	e0bfdf83 	ldbu	r2,-130(fp)
  80131c:	11803fcc 	andi	r6,r2,255
  801320:	3180201c 	xori	r6,r6,128
  801324:	31bfe004 	addi	r6,r6,-128
  801328:	00800044 	movi	r2,1
  80132c:	d8800015 	stw	r2,0(sp)
  801330:	00800044 	movi	r2,1
  801334:	d8800115 	stw	r2,4(sp)
  801338:	e13ff217 	ldw	r4,-56(fp)
  80133c:	e17ff317 	ldw	r5,-52(fp)
  801340:	01c01ac4 	movi	r7,107
  801344:	08032d00 	call	8032d0 <I2C_WriteToDeviceRegister>
  I2C_WriteToDeviceRegister(scl_base, sda_base, deviceAddress, PWR_MGMT_2, 0x00, 1);
  801348:	e0bfdf83 	ldbu	r2,-130(fp)
  80134c:	11803fcc 	andi	r6,r2,255
  801350:	3180201c 	xori	r6,r6,128
  801354:	31bfe004 	addi	r6,r6,-128
  801358:	d8000015 	stw	zero,0(sp)
  80135c:	00800044 	movi	r2,1
  801360:	d8800115 	stw	r2,4(sp)
  801364:	e13ff217 	ldw	r4,-56(fp)
  801368:	e17ff317 	ldw	r5,-52(fp)
  80136c:	01c01b04 	movi	r7,108
  801370:	08032d00 	call	8032d0 <I2C_WriteToDeviceRegister>

  OSTimeDlyHMSM(0, 0, 0, 200);
  801374:	0009883a 	mov	r4,zero
  801378:	000b883a 	mov	r5,zero
  80137c:	000d883a 	mov	r6,zero
  801380:	01c03204 	movi	r7,200
  801384:	0818b4c0 	call	818b4c <OSTimeDlyHMSM>

  // Configure device for bias calculation
  // Disable all interrupts
  I2C_WriteToDeviceRegister(scl_base, sda_base, deviceAddress, INT_ENABLE, 0x00, 1);
  801388:	e0bfdf83 	ldbu	r2,-130(fp)
  80138c:	11803fcc 	andi	r6,r2,255
  801390:	3180201c 	xori	r6,r6,128
  801394:	31bfe004 	addi	r6,r6,-128
  801398:	d8000015 	stw	zero,0(sp)
  80139c:	00800044 	movi	r2,1
  8013a0:	d8800115 	stw	r2,4(sp)
  8013a4:	e13ff217 	ldw	r4,-56(fp)
  8013a8:	e17ff317 	ldw	r5,-52(fp)
  8013ac:	01c00e04 	movi	r7,56
  8013b0:	08032d00 	call	8032d0 <I2C_WriteToDeviceRegister>
  // Disable FIFO
  I2C_WriteToDeviceRegister(scl_base, sda_base, deviceAddress, FIFO_EN, 0x00, 1);
  8013b4:	e0bfdf83 	ldbu	r2,-130(fp)
  8013b8:	11803fcc 	andi	r6,r2,255
  8013bc:	3180201c 	xori	r6,r6,128
  8013c0:	31bfe004 	addi	r6,r6,-128
  8013c4:	d8000015 	stw	zero,0(sp)
  8013c8:	00800044 	movi	r2,1
  8013cc:	d8800115 	stw	r2,4(sp)
  8013d0:	e13ff217 	ldw	r4,-56(fp)
  8013d4:	e17ff317 	ldw	r5,-52(fp)
  8013d8:	01c008c4 	movi	r7,35
  8013dc:	08032d00 	call	8032d0 <I2C_WriteToDeviceRegister>
  // Turn on internal clock source
  I2C_WriteToDeviceRegister(scl_base, sda_base, deviceAddress, PWR_MGMT_1, 0x00, 1);
  8013e0:	e0bfdf83 	ldbu	r2,-130(fp)
  8013e4:	11803fcc 	andi	r6,r2,255
  8013e8:	3180201c 	xori	r6,r6,128
  8013ec:	31bfe004 	addi	r6,r6,-128
  8013f0:	d8000015 	stw	zero,0(sp)
  8013f4:	00800044 	movi	r2,1
  8013f8:	d8800115 	stw	r2,4(sp)
  8013fc:	e13ff217 	ldw	r4,-56(fp)
  801400:	e17ff317 	ldw	r5,-52(fp)
  801404:	01c01ac4 	movi	r7,107
  801408:	08032d00 	call	8032d0 <I2C_WriteToDeviceRegister>
  // Disable I2C master
  I2C_WriteToDeviceRegister(scl_base, sda_base, deviceAddress, I2C_MST_CTRL, 0x00, 1);
  80140c:	e0bfdf83 	ldbu	r2,-130(fp)
  801410:	11803fcc 	andi	r6,r2,255
  801414:	3180201c 	xori	r6,r6,128
  801418:	31bfe004 	addi	r6,r6,-128
  80141c:	d8000015 	stw	zero,0(sp)
  801420:	00800044 	movi	r2,1
  801424:	d8800115 	stw	r2,4(sp)
  801428:	e13ff217 	ldw	r4,-56(fp)
  80142c:	e17ff317 	ldw	r5,-52(fp)
  801430:	01c00904 	movi	r7,36
  801434:	08032d00 	call	8032d0 <I2C_WriteToDeviceRegister>
  // Disable FIFO and I2C master modes
  I2C_WriteToDeviceRegister(scl_base, sda_base, deviceAddress,  USER_CTRL, 0x00, 1);
  801438:	e0bfdf83 	ldbu	r2,-130(fp)
  80143c:	11803fcc 	andi	r6,r2,255
  801440:	3180201c 	xori	r6,r6,128
  801444:	31bfe004 	addi	r6,r6,-128
  801448:	d8000015 	stw	zero,0(sp)
  80144c:	00800044 	movi	r2,1
  801450:	d8800115 	stw	r2,4(sp)
  801454:	e13ff217 	ldw	r4,-56(fp)
  801458:	e17ff317 	ldw	r5,-52(fp)
  80145c:	01c01a84 	movi	r7,106
  801460:	08032d00 	call	8032d0 <I2C_WriteToDeviceRegister>
  // Reset FIFO and DMP
  I2C_WriteToDeviceRegister(scl_base, sda_base, deviceAddress,  USER_CTRL, 0x0C, 1);
  801464:	e0bfdf83 	ldbu	r2,-130(fp)
  801468:	11803fcc 	andi	r6,r2,255
  80146c:	3180201c 	xori	r6,r6,128
  801470:	31bfe004 	addi	r6,r6,-128
  801474:	00800304 	movi	r2,12
  801478:	d8800015 	stw	r2,0(sp)
  80147c:	00800044 	movi	r2,1
  801480:	d8800115 	stw	r2,4(sp)
  801484:	e13ff217 	ldw	r4,-56(fp)
  801488:	e17ff317 	ldw	r5,-52(fp)
  80148c:	01c01a84 	movi	r7,106
  801490:	08032d00 	call	8032d0 <I2C_WriteToDeviceRegister>
  OSTimeDlyHMSM(0, 0, 0, 15);
  801494:	0009883a 	mov	r4,zero
  801498:	000b883a 	mov	r5,zero
  80149c:	000d883a 	mov	r6,zero
  8014a0:	01c003c4 	movi	r7,15
  8014a4:	0818b4c0 	call	818b4c <OSTimeDlyHMSM>

  // Configure MPU6050 gyro and accelerometer for bias calculation
  // Set low-pass filter to 188 Hz
  I2C_WriteToDeviceRegister(scl_base, sda_base, deviceAddress, CONFIG, 0x01, 1);
  8014a8:	e0bfdf83 	ldbu	r2,-130(fp)
  8014ac:	11803fcc 	andi	r6,r2,255
  8014b0:	3180201c 	xori	r6,r6,128
  8014b4:	31bfe004 	addi	r6,r6,-128
  8014b8:	00800044 	movi	r2,1
  8014bc:	d8800015 	stw	r2,0(sp)
  8014c0:	00800044 	movi	r2,1
  8014c4:	d8800115 	stw	r2,4(sp)
  8014c8:	e13ff217 	ldw	r4,-56(fp)
  8014cc:	e17ff317 	ldw	r5,-52(fp)
  8014d0:	01c00684 	movi	r7,26
  8014d4:	08032d00 	call	8032d0 <I2C_WriteToDeviceRegister>
  // Set sample rate to 1 kHz
  I2C_WriteToDeviceRegister(scl_base, sda_base, deviceAddress,  SMPLRT_DIV, 0x00, 1);
  8014d8:	e0bfdf83 	ldbu	r2,-130(fp)
  8014dc:	11803fcc 	andi	r6,r2,255
  8014e0:	3180201c 	xori	r6,r6,128
  8014e4:	31bfe004 	addi	r6,r6,-128
  8014e8:	d8000015 	stw	zero,0(sp)
  8014ec:	00800044 	movi	r2,1
  8014f0:	d8800115 	stw	r2,4(sp)
  8014f4:	e13ff217 	ldw	r4,-56(fp)
  8014f8:	e17ff317 	ldw	r5,-52(fp)
  8014fc:	01c00644 	movi	r7,25
  801500:	08032d00 	call	8032d0 <I2C_WriteToDeviceRegister>
  // Set gyro full-scale to 250 degrees per second, maximum sensitivity
  I2C_WriteToDeviceRegister(scl_base, sda_base, deviceAddress, GYRO_CONFIG, 0x00, 1);
  801504:	e0bfdf83 	ldbu	r2,-130(fp)
  801508:	11803fcc 	andi	r6,r2,255
  80150c:	3180201c 	xori	r6,r6,128
  801510:	31bfe004 	addi	r6,r6,-128
  801514:	d8000015 	stw	zero,0(sp)
  801518:	00800044 	movi	r2,1
  80151c:	d8800115 	stw	r2,4(sp)
  801520:	e13ff217 	ldw	r4,-56(fp)
  801524:	e17ff317 	ldw	r5,-52(fp)
  801528:	01c006c4 	movi	r7,27
  80152c:	08032d00 	call	8032d0 <I2C_WriteToDeviceRegister>
  // Set accelerometer full-scale to 2 g, maximum sensitivity
  I2C_WriteToDeviceRegister(scl_base, sda_base, deviceAddress,  ACCEL_CONFIG, 0x00, 1);
  801530:	e0bfdf83 	ldbu	r2,-130(fp)
  801534:	11803fcc 	andi	r6,r2,255
  801538:	3180201c 	xori	r6,r6,128
  80153c:	31bfe004 	addi	r6,r6,-128
  801540:	d8000015 	stw	zero,0(sp)
  801544:	00800044 	movi	r2,1
  801548:	d8800115 	stw	r2,4(sp)
  80154c:	e13ff217 	ldw	r4,-56(fp)
  801550:	e17ff317 	ldw	r5,-52(fp)
  801554:	01c00704 	movi	r7,28
  801558:	08032d00 	call	8032d0 <I2C_WriteToDeviceRegister>

  alt_u16  gyrosensitivity  = 131;   // = 131 LSB/degrees/sec
  80155c:	008020c4 	movi	r2,131
  801560:	e0bfdd8d 	sth	r2,-138(fp)
  alt_u16  accelsensitivity = 16384; // = 16384 LSB/g
  801564:	00900004 	movi	r2,16384
  801568:	e0bfdd0d 	sth	r2,-140(fp)

  // Configure FIFO to capture accelerometer and gyro data for bias calculation
  I2C_WriteToDeviceRegister(scl_base, sda_base, deviceAddress,  USER_CTRL, 0x40, 1);  // Enable FIFO
  80156c:	e0bfdf83 	ldbu	r2,-130(fp)
  801570:	11803fcc 	andi	r6,r2,255
  801574:	3180201c 	xori	r6,r6,128
  801578:	31bfe004 	addi	r6,r6,-128
  80157c:	00801004 	movi	r2,64
  801580:	d8800015 	stw	r2,0(sp)
  801584:	00800044 	movi	r2,1
  801588:	d8800115 	stw	r2,4(sp)
  80158c:	e13ff217 	ldw	r4,-56(fp)
  801590:	e17ff317 	ldw	r5,-52(fp)
  801594:	01c01a84 	movi	r7,106
  801598:	08032d00 	call	8032d0 <I2C_WriteToDeviceRegister>
  // Enable gyro and accelerometer sensors for FIFO  (max size 512 bytes in
  // MPU-9150)
  I2C_WriteToDeviceRegister(scl_base, sda_base, deviceAddress,  FIFO_EN, 0x78, 1);
  80159c:	e0bfdf83 	ldbu	r2,-130(fp)
  8015a0:	11803fcc 	andi	r6,r2,255
  8015a4:	3180201c 	xori	r6,r6,128
  8015a8:	31bfe004 	addi	r6,r6,-128
  8015ac:	00801e04 	movi	r2,120
  8015b0:	d8800015 	stw	r2,0(sp)
  8015b4:	00800044 	movi	r2,1
  8015b8:	d8800115 	stw	r2,4(sp)
  8015bc:	e13ff217 	ldw	r4,-56(fp)
  8015c0:	e17ff317 	ldw	r5,-52(fp)
  8015c4:	01c008c4 	movi	r7,35
  8015c8:	08032d00 	call	8032d0 <I2C_WriteToDeviceRegister>

  OSTimeDlyHMSM(0, 0, 0, 40);  // accumulate 40 samples in 40 milliseconds = 480 bytes
  8015cc:	0009883a 	mov	r4,zero
  8015d0:	000b883a 	mov	r5,zero
  8015d4:	000d883a 	mov	r6,zero
  8015d8:	01c00a04 	movi	r7,40
  8015dc:	0818b4c0 	call	818b4c <OSTimeDlyHMSM>

  // At end of sample accumulation, turn off FIFO sensor read
  // Disable gyro and accelerometer sensors for FIFO
  I2C_WriteToDeviceRegister(scl_base, sda_base, deviceAddress,  FIFO_EN, 0x00, 1);
  8015e0:	e0bfdf83 	ldbu	r2,-130(fp)
  8015e4:	11803fcc 	andi	r6,r2,255
  8015e8:	3180201c 	xori	r6,r6,128
  8015ec:	31bfe004 	addi	r6,r6,-128
  8015f0:	d8000015 	stw	zero,0(sp)
  8015f4:	00800044 	movi	r2,1
  8015f8:	d8800115 	stw	r2,4(sp)
  8015fc:	e13ff217 	ldw	r4,-56(fp)
  801600:	e17ff317 	ldw	r5,-52(fp)
  801604:	01c008c4 	movi	r7,35
  801608:	08032d00 	call	8032d0 <I2C_WriteToDeviceRegister>


  I2C_Stop(scl_base, sda_base);
  80160c:	e13ff217 	ldw	r4,-56(fp)
  801610:	e17ff317 	ldw	r5,-52(fp)
  801614:	08031a00 	call	8031a0 <I2C_Stop>

  I2C_Start(scl_base, sda_base);
  801618:	e13ff217 	ldw	r4,-56(fp)
  80161c:	e17ff317 	ldw	r5,-52(fp)
  801620:	08031680 	call	803168 <I2C_Start>
  // Read FIFO sample count
  I2C_ReadFromDeviceRegister(scl_base, sda_base, deviceAddress, FIFO_COUNTH, &data[0], 2, true);
  801624:	e0bfdf83 	ldbu	r2,-130(fp)
  801628:	11803fcc 	andi	r6,r2,255
  80162c:	3180201c 	xori	r6,r6,128
  801630:	31bfe004 	addi	r6,r6,-128
  801634:	e0bfdfc4 	addi	r2,fp,-129
  801638:	d8800015 	stw	r2,0(sp)
  80163c:	00800084 	movi	r2,2
  801640:	d8800115 	stw	r2,4(sp)
  801644:	00800044 	movi	r2,1
  801648:	d8800215 	stw	r2,8(sp)
  80164c:	e13ff217 	ldw	r4,-56(fp)
  801650:	e17ff317 	ldw	r5,-52(fp)
  801654:	01c01c84 	movi	r7,114
  801658:	08035b80 	call	8035b8 <I2C_ReadFromDeviceRegister>
  I2C_Stop(scl_base, sda_base);
  80165c:	e13ff217 	ldw	r4,-56(fp)
  801660:	e17ff317 	ldw	r5,-52(fp)
  801664:	08031a00 	call	8031a0 <I2C_Stop>

  fifo_count = ((alt_u16)data[0] << 8) | data[1];
  801668:	e0bfdfc3 	ldbu	r2,-129(fp)
  80166c:	10803fcc 	andi	r2,r2,255
  801670:	1004923a 	slli	r2,r2,8
  801674:	1007883a 	mov	r3,r2
  801678:	e0bfe003 	ldbu	r2,-128(fp)
  80167c:	10803fcc 	andi	r2,r2,255
  801680:	1884b03a 	or	r2,r3,r2
  801684:	e0bfde0d 	sth	r2,-136(fp)
  // How many sets of full gyro and accelerometer data for averaging
  packet_count = fifo_count/12;
  801688:	e13fde0b 	ldhu	r4,-136(fp)
  80168c:	01400304 	movi	r5,12
  801690:	08074180 	call	807418 <__udivsi3>
  801694:	e0bfde8d 	sth	r2,-134(fp)

  for (ii = 0; ii < packet_count; ii++)
  801698:	e03fdf0d 	sth	zero,-132(fp)
  80169c:	00007706 	br	80187c <calibrateMPU9250+0x5fc>
  {
    alt_16 accel_temp[3] = {0, 0, 0}, gyro_temp[3] = {0, 0, 0};
  8016a0:	e03fed0d 	sth	zero,-76(fp)
  8016a4:	e03fed8d 	sth	zero,-74(fp)
  8016a8:	e03fee0d 	sth	zero,-72(fp)
  8016ac:	e03fee8d 	sth	zero,-70(fp)
  8016b0:	e03fef0d 	sth	zero,-68(fp)
  8016b4:	e03fef8d 	sth	zero,-66(fp)
    // Read data for averaging
    I2C_Start(scl_base, sda_base);
  8016b8:	e13ff217 	ldw	r4,-56(fp)
  8016bc:	e17ff317 	ldw	r5,-52(fp)
  8016c0:	08031680 	call	803168 <I2C_Start>
	// Read FIFO sample count
	I2C_ReadFromDeviceRegister(scl_base, sda_base, deviceAddress, FIFO_R_W, &data[0], 12, true);
  8016c4:	e0bfdf83 	ldbu	r2,-130(fp)
  8016c8:	11803fcc 	andi	r6,r2,255
  8016cc:	3180201c 	xori	r6,r6,128
  8016d0:	31bfe004 	addi	r6,r6,-128
  8016d4:	e0bfdfc4 	addi	r2,fp,-129
  8016d8:	d8800015 	stw	r2,0(sp)
  8016dc:	00800304 	movi	r2,12
  8016e0:	d8800115 	stw	r2,4(sp)
  8016e4:	00800044 	movi	r2,1
  8016e8:	d8800215 	stw	r2,8(sp)
  8016ec:	e13ff217 	ldw	r4,-56(fp)
  8016f0:	e17ff317 	ldw	r5,-52(fp)
  8016f4:	01c01d04 	movi	r7,116
  8016f8:	08035b80 	call	8035b8 <I2C_ReadFromDeviceRegister>
	I2C_Stop(scl_base, sda_base);
  8016fc:	e13ff217 	ldw	r4,-56(fp)
  801700:	e17ff317 	ldw	r5,-52(fp)
  801704:	08031a00 	call	8031a0 <I2C_Stop>
    // Form signed 16-bit integer for each sample in FIFO
    accel_temp[0] = (alt_16) (((alt_16)data[0] << 8) | data[1]  );
  801708:	e0bfdfc3 	ldbu	r2,-129(fp)
  80170c:	10803fcc 	andi	r2,r2,255
  801710:	1004923a 	slli	r2,r2,8
  801714:	1007883a 	mov	r3,r2
  801718:	e0bfe003 	ldbu	r2,-128(fp)
  80171c:	10803fcc 	andi	r2,r2,255
  801720:	1884b03a 	or	r2,r3,r2
  801724:	e0bfed0d 	sth	r2,-76(fp)
    accel_temp[1] = (alt_16) (((alt_16)data[2] << 8) | data[3]  );
  801728:	e0bfe043 	ldbu	r2,-127(fp)
  80172c:	10803fcc 	andi	r2,r2,255
  801730:	1004923a 	slli	r2,r2,8
  801734:	1007883a 	mov	r3,r2
  801738:	e0bfe083 	ldbu	r2,-126(fp)
  80173c:	10803fcc 	andi	r2,r2,255
  801740:	1884b03a 	or	r2,r3,r2
  801744:	e0bfed8d 	sth	r2,-74(fp)
    accel_temp[2] = (alt_16) (((alt_16)data[4] << 8) | data[5]  );
  801748:	e0bfe0c3 	ldbu	r2,-125(fp)
  80174c:	10803fcc 	andi	r2,r2,255
  801750:	1004923a 	slli	r2,r2,8
  801754:	1007883a 	mov	r3,r2
  801758:	e0bfe103 	ldbu	r2,-124(fp)
  80175c:	10803fcc 	andi	r2,r2,255
  801760:	1884b03a 	or	r2,r3,r2
  801764:	e0bfee0d 	sth	r2,-72(fp)
    gyro_temp[0]  = (alt_16) (((alt_16)data[6] << 8) | data[7]  );
  801768:	e0bfe143 	ldbu	r2,-123(fp)
  80176c:	10803fcc 	andi	r2,r2,255
  801770:	1004923a 	slli	r2,r2,8
  801774:	1007883a 	mov	r3,r2
  801778:	e0bfe183 	ldbu	r2,-122(fp)
  80177c:	10803fcc 	andi	r2,r2,255
  801780:	1884b03a 	or	r2,r3,r2
  801784:	e0bfee8d 	sth	r2,-70(fp)
    gyro_temp[1]  = (alt_16) (((alt_16)data[8] << 8) | data[9]  );
  801788:	e0bfe1c3 	ldbu	r2,-121(fp)
  80178c:	10803fcc 	andi	r2,r2,255
  801790:	1004923a 	slli	r2,r2,8
  801794:	1007883a 	mov	r3,r2
  801798:	e0bfe203 	ldbu	r2,-120(fp)
  80179c:	10803fcc 	andi	r2,r2,255
  8017a0:	1884b03a 	or	r2,r3,r2
  8017a4:	e0bfef0d 	sth	r2,-68(fp)
    gyro_temp[2]  = (alt_16) (((alt_16)data[10] << 8) | data[11]);
  8017a8:	e0bfe243 	ldbu	r2,-119(fp)
  8017ac:	10803fcc 	andi	r2,r2,255
  8017b0:	1004923a 	slli	r2,r2,8
  8017b4:	1007883a 	mov	r3,r2
  8017b8:	e0bfe283 	ldbu	r2,-118(fp)
  8017bc:	10803fcc 	andi	r2,r2,255
  8017c0:	1884b03a 	or	r2,r3,r2
  8017c4:	e0bfef8d 	sth	r2,-66(fp)

    // Sum individual signed 16-bit biases to get accumulated signed 32-bit
    // biases.
    accel_bias[0] += (alt_32) accel_temp[0];
  8017c8:	e0ffe617 	ldw	r3,-104(fp)
  8017cc:	e0bfed0b 	ldhu	r2,-76(fp)
  8017d0:	10bfffcc 	andi	r2,r2,65535
  8017d4:	10a0001c 	xori	r2,r2,32768
  8017d8:	10a00004 	addi	r2,r2,-32768
  8017dc:	1885883a 	add	r2,r3,r2
  8017e0:	e0bfe615 	stw	r2,-104(fp)
    accel_bias[1] += (alt_32) accel_temp[1];
  8017e4:	e0ffe717 	ldw	r3,-100(fp)
  8017e8:	e0bfed8b 	ldhu	r2,-74(fp)
  8017ec:	10bfffcc 	andi	r2,r2,65535
  8017f0:	10a0001c 	xori	r2,r2,32768
  8017f4:	10a00004 	addi	r2,r2,-32768
  8017f8:	1885883a 	add	r2,r3,r2
  8017fc:	e0bfe715 	stw	r2,-100(fp)
    accel_bias[2] += (alt_32) accel_temp[2];
  801800:	e0ffe817 	ldw	r3,-96(fp)
  801804:	e0bfee0b 	ldhu	r2,-72(fp)
  801808:	10bfffcc 	andi	r2,r2,65535
  80180c:	10a0001c 	xori	r2,r2,32768
  801810:	10a00004 	addi	r2,r2,-32768
  801814:	1885883a 	add	r2,r3,r2
  801818:	e0bfe815 	stw	r2,-96(fp)
    gyro_bias[0]  += (alt_32) gyro_temp[0];
  80181c:	e0ffe317 	ldw	r3,-116(fp)
  801820:	e0bfee8b 	ldhu	r2,-70(fp)
  801824:	10bfffcc 	andi	r2,r2,65535
  801828:	10a0001c 	xori	r2,r2,32768
  80182c:	10a00004 	addi	r2,r2,-32768
  801830:	1885883a 	add	r2,r3,r2
  801834:	e0bfe315 	stw	r2,-116(fp)
    gyro_bias[1]  += (alt_32) gyro_temp[1];
  801838:	e0ffe417 	ldw	r3,-112(fp)
  80183c:	e0bfef0b 	ldhu	r2,-68(fp)
  801840:	10bfffcc 	andi	r2,r2,65535
  801844:	10a0001c 	xori	r2,r2,32768
  801848:	10a00004 	addi	r2,r2,-32768
  80184c:	1885883a 	add	r2,r3,r2
  801850:	e0bfe415 	stw	r2,-112(fp)
    gyro_bias[2]  += (alt_32) gyro_temp[2];
  801854:	e0ffe517 	ldw	r3,-108(fp)
  801858:	e0bfef8b 	ldhu	r2,-66(fp)
  80185c:	10bfffcc 	andi	r2,r2,65535
  801860:	10a0001c 	xori	r2,r2,32768
  801864:	10a00004 	addi	r2,r2,-32768
  801868:	1885883a 	add	r2,r3,r2
  80186c:	e0bfe515 	stw	r2,-108(fp)

  fifo_count = ((alt_u16)data[0] << 8) | data[1];
  // How many sets of full gyro and accelerometer data for averaging
  packet_count = fifo_count/12;

  for (ii = 0; ii < packet_count; ii++)
  801870:	e0bfdf0b 	ldhu	r2,-132(fp)
  801874:	10800044 	addi	r2,r2,1
  801878:	e0bfdf0d 	sth	r2,-132(fp)
  80187c:	e0ffdf0b 	ldhu	r3,-132(fp)
  801880:	e0bfde8b 	ldhu	r2,-134(fp)
  801884:	18bf8636 	bltu	r3,r2,8016a0 <calibrateMPU9250+0x420>
    gyro_bias[0]  += (alt_32) gyro_temp[0];
    gyro_bias[1]  += (alt_32) gyro_temp[1];
    gyro_bias[2]  += (alt_32) gyro_temp[2];
  }
  // Sum individual signed 16-bit biases to get accumulated signed 32-bit biases
  accel_bias[0] /= (alt_32) packet_count;
  801888:	e13fe617 	ldw	r4,-104(fp)
  80188c:	e17fde8b 	ldhu	r5,-134(fp)
  801890:	08073580 	call	807358 <__divsi3>
  801894:	e0bfe615 	stw	r2,-104(fp)
  accel_bias[1] /= (alt_32) packet_count;
  801898:	e13fe717 	ldw	r4,-100(fp)
  80189c:	e17fde8b 	ldhu	r5,-134(fp)
  8018a0:	08073580 	call	807358 <__divsi3>
  8018a4:	e0bfe715 	stw	r2,-100(fp)
  accel_bias[2] /= (alt_32) packet_count;
  8018a8:	e13fe817 	ldw	r4,-96(fp)
  8018ac:	e17fde8b 	ldhu	r5,-134(fp)
  8018b0:	08073580 	call	807358 <__divsi3>
  8018b4:	e0bfe815 	stw	r2,-96(fp)
  gyro_bias[0]  /= (alt_32) packet_count;
  8018b8:	e13fe317 	ldw	r4,-116(fp)
  8018bc:	e17fde8b 	ldhu	r5,-134(fp)
  8018c0:	08073580 	call	807358 <__divsi3>
  8018c4:	e0bfe315 	stw	r2,-116(fp)
  gyro_bias[1]  /= (alt_32) packet_count;
  8018c8:	e13fe417 	ldw	r4,-112(fp)
  8018cc:	e17fde8b 	ldhu	r5,-134(fp)
  8018d0:	08073580 	call	807358 <__divsi3>
  8018d4:	e0bfe415 	stw	r2,-112(fp)
  gyro_bias[2]  /= (alt_32) packet_count;
  8018d8:	e13fe517 	ldw	r4,-108(fp)
  8018dc:	e17fde8b 	ldhu	r5,-134(fp)
  8018e0:	08073580 	call	807358 <__divsi3>
  8018e4:	e0bfe515 	stw	r2,-108(fp)

  // Sum individual signed 16-bit biases to get accumulated signed 32-bit biases
  if (accel_bias[2] > 0L)
  8018e8:	e0bfe817 	ldw	r2,-96(fp)
  8018ec:	10800050 	cmplti	r2,r2,1
  8018f0:	1000051e 	bne	r2,zero,801908 <calibrateMPU9250+0x688>
  {
    accel_bias[2] -= (alt_32) accelsensitivity;
  8018f4:	e0bfe817 	ldw	r2,-96(fp)
  8018f8:	e0ffdd0b 	ldhu	r3,-140(fp)
  8018fc:	10c5c83a 	sub	r2,r2,r3
  801900:	e0bfe815 	stw	r2,-96(fp)
  801904:	00000406 	br	801918 <calibrateMPU9250+0x698>
  }
  else
  {
    accel_bias[2] += (alt_32) accelsensitivity;
  801908:	e0bfe817 	ldw	r2,-96(fp)
  80190c:	e0ffdd0b 	ldhu	r3,-140(fp)
  801910:	10c5883a 	add	r2,r2,r3
  801914:	e0bfe815 	stw	r2,-96(fp)

  // Construct the gyro biases for push to the hardware gyro bias registers,
  // which are reset to zero upon device startup.
  // Divide by 4 to get 32.9 LSB per deg/s to conform to expected bias input
  // format.
  data[0] = (-gyro_bias[0]/4  >> 8) & 0xFF;
  801918:	e0bfe317 	ldw	r2,-116(fp)
  80191c:	0085c83a 	sub	r2,zero,r2
  801920:	e0bff715 	stw	r2,-36(fp)
  801924:	e0fff717 	ldw	r3,-36(fp)
  801928:	1804403a 	cmpge	r2,r3,zero
  80192c:	1000031e 	bne	r2,zero,80193c <calibrateMPU9250+0x6bc>
  801930:	e0bff717 	ldw	r2,-36(fp)
  801934:	108000c4 	addi	r2,r2,3
  801938:	e0bff715 	stw	r2,-36(fp)
  80193c:	e0fff717 	ldw	r3,-36(fp)
  801940:	1805d0ba 	srai	r2,r3,2
  801944:	1005d23a 	srai	r2,r2,8
  801948:	1007883a 	mov	r3,r2
  80194c:	00bfffc4 	movi	r2,-1
  801950:	1884703a 	and	r2,r3,r2
  801954:	e0bfdfc5 	stb	r2,-129(fp)
  // Biases are additive, so change sign on calculated average gyro biases
  data[1] = (-gyro_bias[0]/4)       & 0xFF;
  801958:	e0bfe317 	ldw	r2,-116(fp)
  80195c:	0085c83a 	sub	r2,zero,r2
  801960:	e0bff815 	stw	r2,-32(fp)
  801964:	e0fff817 	ldw	r3,-32(fp)
  801968:	1804403a 	cmpge	r2,r3,zero
  80196c:	1000031e 	bne	r2,zero,80197c <calibrateMPU9250+0x6fc>
  801970:	e0bff817 	ldw	r2,-32(fp)
  801974:	108000c4 	addi	r2,r2,3
  801978:	e0bff815 	stw	r2,-32(fp)
  80197c:	e0fff817 	ldw	r3,-32(fp)
  801980:	1805d0ba 	srai	r2,r3,2
  801984:	1007883a 	mov	r3,r2
  801988:	00bfffc4 	movi	r2,-1
  80198c:	1884703a 	and	r2,r3,r2
  801990:	e0bfe005 	stb	r2,-128(fp)
  data[2] = (-gyro_bias[1]/4  >> 8) & 0xFF;
  801994:	e0bfe417 	ldw	r2,-112(fp)
  801998:	0085c83a 	sub	r2,zero,r2
  80199c:	e0bff915 	stw	r2,-28(fp)
  8019a0:	e0fff917 	ldw	r3,-28(fp)
  8019a4:	1804403a 	cmpge	r2,r3,zero
  8019a8:	1000031e 	bne	r2,zero,8019b8 <calibrateMPU9250+0x738>
  8019ac:	e0bff917 	ldw	r2,-28(fp)
  8019b0:	108000c4 	addi	r2,r2,3
  8019b4:	e0bff915 	stw	r2,-28(fp)
  8019b8:	e0fff917 	ldw	r3,-28(fp)
  8019bc:	1805d0ba 	srai	r2,r3,2
  8019c0:	1005d23a 	srai	r2,r2,8
  8019c4:	1007883a 	mov	r3,r2
  8019c8:	00bfffc4 	movi	r2,-1
  8019cc:	1884703a 	and	r2,r3,r2
  8019d0:	e0bfe045 	stb	r2,-127(fp)
  data[3] = (-gyro_bias[1]/4)       & 0xFF;
  8019d4:	e0bfe417 	ldw	r2,-112(fp)
  8019d8:	0085c83a 	sub	r2,zero,r2
  8019dc:	e0bffa15 	stw	r2,-24(fp)
  8019e0:	e0fffa17 	ldw	r3,-24(fp)
  8019e4:	1804403a 	cmpge	r2,r3,zero
  8019e8:	1000031e 	bne	r2,zero,8019f8 <calibrateMPU9250+0x778>
  8019ec:	e0bffa17 	ldw	r2,-24(fp)
  8019f0:	108000c4 	addi	r2,r2,3
  8019f4:	e0bffa15 	stw	r2,-24(fp)
  8019f8:	e0fffa17 	ldw	r3,-24(fp)
  8019fc:	1805d0ba 	srai	r2,r3,2
  801a00:	1007883a 	mov	r3,r2
  801a04:	00bfffc4 	movi	r2,-1
  801a08:	1884703a 	and	r2,r3,r2
  801a0c:	e0bfe085 	stb	r2,-126(fp)
  data[4] = (-gyro_bias[2]/4  >> 8) & 0xFF;
  801a10:	e0bfe517 	ldw	r2,-108(fp)
  801a14:	0085c83a 	sub	r2,zero,r2
  801a18:	e0bffb15 	stw	r2,-20(fp)
  801a1c:	e0fffb17 	ldw	r3,-20(fp)
  801a20:	1804403a 	cmpge	r2,r3,zero
  801a24:	1000031e 	bne	r2,zero,801a34 <calibrateMPU9250+0x7b4>
  801a28:	e0bffb17 	ldw	r2,-20(fp)
  801a2c:	108000c4 	addi	r2,r2,3
  801a30:	e0bffb15 	stw	r2,-20(fp)
  801a34:	e0fffb17 	ldw	r3,-20(fp)
  801a38:	1805d0ba 	srai	r2,r3,2
  801a3c:	1005d23a 	srai	r2,r2,8
  801a40:	1007883a 	mov	r3,r2
  801a44:	00bfffc4 	movi	r2,-1
  801a48:	1884703a 	and	r2,r3,r2
  801a4c:	e0bfe0c5 	stb	r2,-125(fp)
  data[5] = (-gyro_bias[2]/4)       & 0xFF;
  801a50:	e0bfe517 	ldw	r2,-108(fp)
  801a54:	0085c83a 	sub	r2,zero,r2
  801a58:	e0bffc15 	stw	r2,-16(fp)
  801a5c:	e0fffc17 	ldw	r3,-16(fp)
  801a60:	1804403a 	cmpge	r2,r3,zero
  801a64:	1000031e 	bne	r2,zero,801a74 <calibrateMPU9250+0x7f4>
  801a68:	e0bffc17 	ldw	r2,-16(fp)
  801a6c:	108000c4 	addi	r2,r2,3
  801a70:	e0bffc15 	stw	r2,-16(fp)
  801a74:	e0fffc17 	ldw	r3,-16(fp)
  801a78:	1805d0ba 	srai	r2,r3,2
  801a7c:	1007883a 	mov	r3,r2
  801a80:	00bfffc4 	movi	r2,-1
  801a84:	1884703a 	and	r2,r3,r2
  801a88:	e0bfe105 	stb	r2,-124(fp)

  // Push gyro biases to hardware registers

  I2C_Start(scl_base, sda_base);
  801a8c:	e13ff217 	ldw	r4,-56(fp)
  801a90:	e17ff317 	ldw	r5,-52(fp)
  801a94:	08031680 	call	803168 <I2C_Start>
  I2C_WriteToDeviceRegister(scl_base, sda_base, deviceAddress,  XG_OFFSET_H, data[0], 1);
  801a98:	e0bfdf83 	ldbu	r2,-130(fp)
  801a9c:	11803fcc 	andi	r6,r2,255
  801aa0:	3180201c 	xori	r6,r6,128
  801aa4:	31bfe004 	addi	r6,r6,-128
  801aa8:	e0bfdfc3 	ldbu	r2,-129(fp)
  801aac:	10803fcc 	andi	r2,r2,255
  801ab0:	d8800015 	stw	r2,0(sp)
  801ab4:	00800044 	movi	r2,1
  801ab8:	d8800115 	stw	r2,4(sp)
  801abc:	e13ff217 	ldw	r4,-56(fp)
  801ac0:	e17ff317 	ldw	r5,-52(fp)
  801ac4:	01c004c4 	movi	r7,19
  801ac8:	08032d00 	call	8032d0 <I2C_WriteToDeviceRegister>
  I2C_WriteToDeviceRegister(scl_base, sda_base, deviceAddress,  XG_OFFSET_L, data[1], 1);
  801acc:	e0bfdf83 	ldbu	r2,-130(fp)
  801ad0:	11803fcc 	andi	r6,r2,255
  801ad4:	3180201c 	xori	r6,r6,128
  801ad8:	31bfe004 	addi	r6,r6,-128
  801adc:	e0bfe003 	ldbu	r2,-128(fp)
  801ae0:	10803fcc 	andi	r2,r2,255
  801ae4:	d8800015 	stw	r2,0(sp)
  801ae8:	00800044 	movi	r2,1
  801aec:	d8800115 	stw	r2,4(sp)
  801af0:	e13ff217 	ldw	r4,-56(fp)
  801af4:	e17ff317 	ldw	r5,-52(fp)
  801af8:	01c00504 	movi	r7,20
  801afc:	08032d00 	call	8032d0 <I2C_WriteToDeviceRegister>
  I2C_WriteToDeviceRegister(scl_base, sda_base, deviceAddress, YG_OFFSET_H, data[2], 1);
  801b00:	e0bfdf83 	ldbu	r2,-130(fp)
  801b04:	11803fcc 	andi	r6,r2,255
  801b08:	3180201c 	xori	r6,r6,128
  801b0c:	31bfe004 	addi	r6,r6,-128
  801b10:	e0bfe043 	ldbu	r2,-127(fp)
  801b14:	10803fcc 	andi	r2,r2,255
  801b18:	d8800015 	stw	r2,0(sp)
  801b1c:	00800044 	movi	r2,1
  801b20:	d8800115 	stw	r2,4(sp)
  801b24:	e13ff217 	ldw	r4,-56(fp)
  801b28:	e17ff317 	ldw	r5,-52(fp)
  801b2c:	01c00544 	movi	r7,21
  801b30:	08032d00 	call	8032d0 <I2C_WriteToDeviceRegister>
  I2C_WriteToDeviceRegister(scl_base, sda_base, deviceAddress, YG_OFFSET_L, data[3], 1);
  801b34:	e0bfdf83 	ldbu	r2,-130(fp)
  801b38:	11803fcc 	andi	r6,r2,255
  801b3c:	3180201c 	xori	r6,r6,128
  801b40:	31bfe004 	addi	r6,r6,-128
  801b44:	e0bfe083 	ldbu	r2,-126(fp)
  801b48:	10803fcc 	andi	r2,r2,255
  801b4c:	d8800015 	stw	r2,0(sp)
  801b50:	00800044 	movi	r2,1
  801b54:	d8800115 	stw	r2,4(sp)
  801b58:	e13ff217 	ldw	r4,-56(fp)
  801b5c:	e17ff317 	ldw	r5,-52(fp)
  801b60:	01c00584 	movi	r7,22
  801b64:	08032d00 	call	8032d0 <I2C_WriteToDeviceRegister>
  I2C_WriteToDeviceRegister(scl_base, sda_base, deviceAddress, ZG_OFFSET_H, data[4], 1);
  801b68:	e0bfdf83 	ldbu	r2,-130(fp)
  801b6c:	11803fcc 	andi	r6,r2,255
  801b70:	3180201c 	xori	r6,r6,128
  801b74:	31bfe004 	addi	r6,r6,-128
  801b78:	e0bfe0c3 	ldbu	r2,-125(fp)
  801b7c:	10803fcc 	andi	r2,r2,255
  801b80:	d8800015 	stw	r2,0(sp)
  801b84:	00800044 	movi	r2,1
  801b88:	d8800115 	stw	r2,4(sp)
  801b8c:	e13ff217 	ldw	r4,-56(fp)
  801b90:	e17ff317 	ldw	r5,-52(fp)
  801b94:	01c005c4 	movi	r7,23
  801b98:	08032d00 	call	8032d0 <I2C_WriteToDeviceRegister>
  I2C_WriteToDeviceRegister(scl_base, sda_base, deviceAddress, ZG_OFFSET_L, data[5], 1);
  801b9c:	e0bfdf83 	ldbu	r2,-130(fp)
  801ba0:	11803fcc 	andi	r6,r2,255
  801ba4:	3180201c 	xori	r6,r6,128
  801ba8:	31bfe004 	addi	r6,r6,-128
  801bac:	e0bfe103 	ldbu	r2,-124(fp)
  801bb0:	10803fcc 	andi	r2,r2,255
  801bb4:	d8800015 	stw	r2,0(sp)
  801bb8:	00800044 	movi	r2,1
  801bbc:	d8800115 	stw	r2,4(sp)
  801bc0:	e13ff217 	ldw	r4,-56(fp)
  801bc4:	e17ff317 	ldw	r5,-52(fp)
  801bc8:	01c00604 	movi	r7,24
  801bcc:	08032d00 	call	8032d0 <I2C_WriteToDeviceRegister>
  I2C_Stop(scl_base, sda_base);
  801bd0:	e13ff217 	ldw	r4,-56(fp)
  801bd4:	e17ff317 	ldw	r5,-52(fp)
  801bd8:	08031a00 	call	8031a0 <I2C_Stop>


  // Output scaled gyro biases for display in the main program
  gyroBias[0] = (float) gyro_bias[0]/(float) gyrosensitivity;
  801bdc:	e13fe317 	ldw	r4,-116(fp)
  801be0:	08061c40 	call	8061c4 <__floatsisf>
  801be4:	1021883a 	mov	r16,r2
  801be8:	e13fdd8b 	ldhu	r4,-138(fp)
  801bec:	08062b00 	call	8062b0 <__floatunsisf>
  801bf0:	8009883a 	mov	r4,r16
  801bf4:	100b883a 	mov	r5,r2
  801bf8:	0805f600 	call	805f60 <__divsf3>
  801bfc:	1007883a 	mov	r3,r2
  801c00:	e0bff017 	ldw	r2,-64(fp)
  801c04:	10c00015 	stw	r3,0(r2)
  gyroBias[1] = (float) gyro_bias[1]/(float) gyrosensitivity;
  801c08:	e0bff017 	ldw	r2,-64(fp)
  801c0c:	14400104 	addi	r17,r2,4
  801c10:	e13fe417 	ldw	r4,-112(fp)
  801c14:	08061c40 	call	8061c4 <__floatsisf>
  801c18:	1021883a 	mov	r16,r2
  801c1c:	e13fdd8b 	ldhu	r4,-138(fp)
  801c20:	08062b00 	call	8062b0 <__floatunsisf>
  801c24:	8009883a 	mov	r4,r16
  801c28:	100b883a 	mov	r5,r2
  801c2c:	0805f600 	call	805f60 <__divsf3>
  801c30:	88800015 	stw	r2,0(r17)
  gyroBias[2] = (float) gyro_bias[2]/(float) gyrosensitivity;
  801c34:	e0bff017 	ldw	r2,-64(fp)
  801c38:	14400204 	addi	r17,r2,8
  801c3c:	e13fe517 	ldw	r4,-108(fp)
  801c40:	08061c40 	call	8061c4 <__floatsisf>
  801c44:	1021883a 	mov	r16,r2
  801c48:	e13fdd8b 	ldhu	r4,-138(fp)
  801c4c:	08062b00 	call	8062b0 <__floatunsisf>
  801c50:	8009883a 	mov	r4,r16
  801c54:	100b883a 	mov	r5,r2
  801c58:	0805f600 	call	805f60 <__divsf3>
  801c5c:	88800015 	stw	r2,0(r17)
  // preserved since it is used for temperature compensation calculations.
  // Accelerometer bias registers expect bias input as 2048 LSB per g, so that
  // the accelerometer biases calculated above must be divided by 8.

  // A place to hold the factory accelerometer trim biases
  alt_32 accel_bias_reg[3] = {0, 0, 0};
  801c60:	e03fe915 	stw	zero,-92(fp)
  801c64:	e03fea15 	stw	zero,-88(fp)
  801c68:	e03feb15 	stw	zero,-84(fp)
  // Read factory accelerometer trim values
  I2C_Start(scl_base, sda_base);
  801c6c:	e13ff217 	ldw	r4,-56(fp)
  801c70:	e17ff317 	ldw	r5,-52(fp)
  801c74:	08031680 	call	803168 <I2C_Start>
  I2C_ReadFromDeviceRegister(scl_base, sda_base, deviceAddress, XA_OFFSET_H, &data[0], 2, true);
  801c78:	e0bfdf83 	ldbu	r2,-130(fp)
  801c7c:	11803fcc 	andi	r6,r2,255
  801c80:	3180201c 	xori	r6,r6,128
  801c84:	31bfe004 	addi	r6,r6,-128
  801c88:	e0bfdfc4 	addi	r2,fp,-129
  801c8c:	d8800015 	stw	r2,0(sp)
  801c90:	00800084 	movi	r2,2
  801c94:	d8800115 	stw	r2,4(sp)
  801c98:	00800044 	movi	r2,1
  801c9c:	d8800215 	stw	r2,8(sp)
  801ca0:	e13ff217 	ldw	r4,-56(fp)
  801ca4:	e17ff317 	ldw	r5,-52(fp)
  801ca8:	01c01dc4 	movi	r7,119
  801cac:	08035b80 	call	8035b8 <I2C_ReadFromDeviceRegister>
  I2C_Stop(scl_base, sda_base);
  801cb0:	e13ff217 	ldw	r4,-56(fp)
  801cb4:	e17ff317 	ldw	r5,-52(fp)
  801cb8:	08031a00 	call	8031a0 <I2C_Stop>
  accel_bias_reg[0] = (alt_32) (((alt_16)data[0] << 8) | data[1]);
  801cbc:	e0bfdfc3 	ldbu	r2,-129(fp)
  801cc0:	10803fcc 	andi	r2,r2,255
  801cc4:	1006923a 	slli	r3,r2,8
  801cc8:	e0bfe003 	ldbu	r2,-128(fp)
  801ccc:	10803fcc 	andi	r2,r2,255
  801cd0:	1884b03a 	or	r2,r3,r2
  801cd4:	e0bfe915 	stw	r2,-92(fp)
  I2C_Start(scl_base, sda_base);
  801cd8:	e13ff217 	ldw	r4,-56(fp)
  801cdc:	e17ff317 	ldw	r5,-52(fp)
  801ce0:	08031680 	call	803168 <I2C_Start>
  I2C_ReadFromDeviceRegister(scl_base, sda_base, deviceAddress, YA_OFFSET_H, &data[0], 2, true);
  801ce4:	e0bfdf83 	ldbu	r2,-130(fp)
  801ce8:	11803fcc 	andi	r6,r2,255
  801cec:	3180201c 	xori	r6,r6,128
  801cf0:	31bfe004 	addi	r6,r6,-128
  801cf4:	e0bfdfc4 	addi	r2,fp,-129
  801cf8:	d8800015 	stw	r2,0(sp)
  801cfc:	00800084 	movi	r2,2
  801d00:	d8800115 	stw	r2,4(sp)
  801d04:	00800044 	movi	r2,1
  801d08:	d8800215 	stw	r2,8(sp)
  801d0c:	e13ff217 	ldw	r4,-56(fp)
  801d10:	e17ff317 	ldw	r5,-52(fp)
  801d14:	01c01e84 	movi	r7,122
  801d18:	08035b80 	call	8035b8 <I2C_ReadFromDeviceRegister>
  I2C_Stop(scl_base, sda_base);
  801d1c:	e13ff217 	ldw	r4,-56(fp)
  801d20:	e17ff317 	ldw	r5,-52(fp)
  801d24:	08031a00 	call	8031a0 <I2C_Stop>
  accel_bias_reg[1] = (alt_32) (((alt_16)data[0] << 8) | data[1]);
  801d28:	e0bfdfc3 	ldbu	r2,-129(fp)
  801d2c:	10803fcc 	andi	r2,r2,255
  801d30:	1006923a 	slli	r3,r2,8
  801d34:	e0bfe003 	ldbu	r2,-128(fp)
  801d38:	10803fcc 	andi	r2,r2,255
  801d3c:	1884b03a 	or	r2,r3,r2
  801d40:	e0bfea15 	stw	r2,-88(fp)
  I2C_Start(scl_base, sda_base);
  801d44:	e13ff217 	ldw	r4,-56(fp)
  801d48:	e17ff317 	ldw	r5,-52(fp)
  801d4c:	08031680 	call	803168 <I2C_Start>
  I2C_ReadFromDeviceRegister(scl_base, sda_base, deviceAddress, ZA_OFFSET_H, &data[0], 2, true);
  801d50:	e0bfdf83 	ldbu	r2,-130(fp)
  801d54:	11803fcc 	andi	r6,r2,255
  801d58:	3180201c 	xori	r6,r6,128
  801d5c:	31bfe004 	addi	r6,r6,-128
  801d60:	e0bfdfc4 	addi	r2,fp,-129
  801d64:	d8800015 	stw	r2,0(sp)
  801d68:	00800084 	movi	r2,2
  801d6c:	d8800115 	stw	r2,4(sp)
  801d70:	00800044 	movi	r2,1
  801d74:	d8800215 	stw	r2,8(sp)
  801d78:	e13ff217 	ldw	r4,-56(fp)
  801d7c:	e17ff317 	ldw	r5,-52(fp)
  801d80:	01c01f44 	movi	r7,125
  801d84:	08035b80 	call	8035b8 <I2C_ReadFromDeviceRegister>
  I2C_Stop(scl_base, sda_base);
  801d88:	e13ff217 	ldw	r4,-56(fp)
  801d8c:	e17ff317 	ldw	r5,-52(fp)
  801d90:	08031a00 	call	8031a0 <I2C_Stop>
  accel_bias_reg[2] = (alt_32) (((alt_16)data[0] << 8) | data[1]);
  801d94:	e0bfdfc3 	ldbu	r2,-129(fp)
  801d98:	10803fcc 	andi	r2,r2,255
  801d9c:	1006923a 	slli	r3,r2,8
  801da0:	e0bfe003 	ldbu	r2,-128(fp)
  801da4:	10803fcc 	andi	r2,r2,255
  801da8:	1884b03a 	or	r2,r3,r2
  801dac:	e0bfeb15 	stw	r2,-84(fp)

  // Define mask for temperature compensation bit 0 of lower byte of
  // accelerometer bias registers
  alt_u32 mask = 1uL;
  801db0:	00800044 	movi	r2,1
  801db4:	e0bfdc15 	stw	r2,-144(fp)
  // Define array to hold mask bit for each accelerometer bias axis
  alt_u8 mask_bit[3] = {0, 0, 0};
  801db8:	e03fec05 	stb	zero,-80(fp)
  801dbc:	e03fec45 	stb	zero,-79(fp)
  801dc0:	e03fec85 	stb	zero,-78(fp)

  for (ii = 0; ii < 3; ii++)
  801dc4:	e03fdf0d 	sth	zero,-132(fp)
  801dc8:	00001406 	br	801e1c <calibrateMPU9250+0xb9c>
  {
    // If temperature compensation bit is set, record that fact in mask_bit
    if ((accel_bias_reg[ii] & mask))
  801dcc:	e0bfdf0b 	ldhu	r2,-132(fp)
  801dd0:	1085883a 	add	r2,r2,r2
  801dd4:	1085883a 	add	r2,r2,r2
  801dd8:	e0ffdc04 	addi	r3,fp,-144
  801ddc:	10c5883a 	add	r2,r2,r3
  801de0:	10800d04 	addi	r2,r2,52
  801de4:	10800017 	ldw	r2,0(r2)
  801de8:	1007883a 	mov	r3,r2
  801dec:	e0bfdc17 	ldw	r2,-144(fp)
  801df0:	1884703a 	and	r2,r3,r2
  801df4:	1005003a 	cmpeq	r2,r2,zero
  801df8:	1000051e 	bne	r2,zero,801e10 <calibrateMPU9250+0xb90>
    {
      mask_bit[ii] = 0x01;
  801dfc:	e0ffdf0b 	ldhu	r3,-132(fp)
  801e00:	e0bfec04 	addi	r2,fp,-80
  801e04:	10c7883a 	add	r3,r2,r3
  801e08:	00800044 	movi	r2,1
  801e0c:	18800005 	stb	r2,0(r3)
  // accelerometer bias registers
  alt_u32 mask = 1uL;
  // Define array to hold mask bit for each accelerometer bias axis
  alt_u8 mask_bit[3] = {0, 0, 0};

  for (ii = 0; ii < 3; ii++)
  801e10:	e0bfdf0b 	ldhu	r2,-132(fp)
  801e14:	10800044 	addi	r2,r2,1
  801e18:	e0bfdf0d 	sth	r2,-132(fp)
  801e1c:	e0bfdf0b 	ldhu	r2,-132(fp)
  801e20:	108000f0 	cmpltui	r2,r2,3
  801e24:	103fe91e 	bne	r2,zero,801dcc <calibrateMPU9250+0xb4c>

  // Construct total accelerometer bias, including calculated average
  // accelerometer bias from above
  // Subtract calculated averaged accelerometer bias scaled to 2048 LSB/g
  // (16 g full scale)
  accel_bias_reg[0] -= (accel_bias[0]/8);
  801e28:	e0bfe917 	ldw	r2,-92(fp)
  801e2c:	e0bff615 	stw	r2,-40(fp)
  801e30:	e0bfe617 	ldw	r2,-104(fp)
  801e34:	e0bffd15 	stw	r2,-12(fp)
  801e38:	e0fffd17 	ldw	r3,-12(fp)
  801e3c:	1804403a 	cmpge	r2,r3,zero
  801e40:	1000031e 	bne	r2,zero,801e50 <calibrateMPU9250+0xbd0>
  801e44:	e0bffd17 	ldw	r2,-12(fp)
  801e48:	108001c4 	addi	r2,r2,7
  801e4c:	e0bffd15 	stw	r2,-12(fp)
  801e50:	e0fffd17 	ldw	r3,-12(fp)
  801e54:	1805d0fa 	srai	r2,r3,3
  801e58:	e0fff617 	ldw	r3,-40(fp)
  801e5c:	1885c83a 	sub	r2,r3,r2
  801e60:	e0bfe915 	stw	r2,-92(fp)
  accel_bias_reg[1] -= (accel_bias[1]/8);
  801e64:	e0bfea17 	ldw	r2,-88(fp)
  801e68:	e0bff515 	stw	r2,-44(fp)
  801e6c:	e0bfe717 	ldw	r2,-100(fp)
  801e70:	e0bffe15 	stw	r2,-8(fp)
  801e74:	e0fffe17 	ldw	r3,-8(fp)
  801e78:	1804403a 	cmpge	r2,r3,zero
  801e7c:	1000031e 	bne	r2,zero,801e8c <calibrateMPU9250+0xc0c>
  801e80:	e0bffe17 	ldw	r2,-8(fp)
  801e84:	108001c4 	addi	r2,r2,7
  801e88:	e0bffe15 	stw	r2,-8(fp)
  801e8c:	e0fffe17 	ldw	r3,-8(fp)
  801e90:	1805d0fa 	srai	r2,r3,3
  801e94:	e0fff517 	ldw	r3,-44(fp)
  801e98:	1885c83a 	sub	r2,r3,r2
  801e9c:	e0bfea15 	stw	r2,-88(fp)
  accel_bias_reg[2] -= (accel_bias[2]/8);
  801ea0:	e0bfeb17 	ldw	r2,-84(fp)
  801ea4:	e0bff415 	stw	r2,-48(fp)
  801ea8:	e0bfe817 	ldw	r2,-96(fp)
  801eac:	e0bfff15 	stw	r2,-4(fp)
  801eb0:	e0ffff17 	ldw	r3,-4(fp)
  801eb4:	1804403a 	cmpge	r2,r3,zero
  801eb8:	1000031e 	bne	r2,zero,801ec8 <calibrateMPU9250+0xc48>
  801ebc:	e0bfff17 	ldw	r2,-4(fp)
  801ec0:	108001c4 	addi	r2,r2,7
  801ec4:	e0bfff15 	stw	r2,-4(fp)
  801ec8:	e0ffff17 	ldw	r3,-4(fp)
  801ecc:	1805d0fa 	srai	r2,r3,3
  801ed0:	e0fff417 	ldw	r3,-48(fp)
  801ed4:	1885c83a 	sub	r2,r3,r2
  801ed8:	e0bfeb15 	stw	r2,-84(fp)

  data[0] = (accel_bias_reg[0] >> 8) & 0xFF;
  801edc:	e0bfe917 	ldw	r2,-92(fp)
  801ee0:	1005d23a 	srai	r2,r2,8
  801ee4:	1007883a 	mov	r3,r2
  801ee8:	00bfffc4 	movi	r2,-1
  801eec:	1884703a 	and	r2,r3,r2
  801ef0:	e0bfdfc5 	stb	r2,-129(fp)
  data[1] = (accel_bias_reg[0])      & 0xFF;
  801ef4:	e0bfe917 	ldw	r2,-92(fp)
  801ef8:	1007883a 	mov	r3,r2
  801efc:	00bfffc4 	movi	r2,-1
  801f00:	1884703a 	and	r2,r3,r2
  801f04:	e0bfe005 	stb	r2,-128(fp)
  // preserve temperature compensation bit when writing back to accelerometer
  // bias registers
  data[1] = data[1] | mask_bit[0];
  801f08:	e0ffe003 	ldbu	r3,-128(fp)
  801f0c:	e0bfec03 	ldbu	r2,-80(fp)
  801f10:	1884b03a 	or	r2,r3,r2
  801f14:	e0bfe005 	stb	r2,-128(fp)
  data[2] = (accel_bias_reg[1] >> 8) & 0xFF;
  801f18:	e0bfea17 	ldw	r2,-88(fp)
  801f1c:	1005d23a 	srai	r2,r2,8
  801f20:	1007883a 	mov	r3,r2
  801f24:	00bfffc4 	movi	r2,-1
  801f28:	1884703a 	and	r2,r3,r2
  801f2c:	e0bfe045 	stb	r2,-127(fp)
  data[3] = (accel_bias_reg[1])      & 0xFF;
  801f30:	e0bfea17 	ldw	r2,-88(fp)
  801f34:	1007883a 	mov	r3,r2
  801f38:	00bfffc4 	movi	r2,-1
  801f3c:	1884703a 	and	r2,r3,r2
  801f40:	e0bfe085 	stb	r2,-126(fp)
  // Preserve temperature compensation bit when writing back to accelerometer
  // bias registers
  data[3] = data[3] | mask_bit[1];
  801f44:	e0ffe083 	ldbu	r3,-126(fp)
  801f48:	e0bfec43 	ldbu	r2,-79(fp)
  801f4c:	1884b03a 	or	r2,r3,r2
  801f50:	e0bfe085 	stb	r2,-126(fp)
  data[4] = (accel_bias_reg[2] >> 8) & 0xFF;
  801f54:	e0bfeb17 	ldw	r2,-84(fp)
  801f58:	1005d23a 	srai	r2,r2,8
  801f5c:	1007883a 	mov	r3,r2
  801f60:	00bfffc4 	movi	r2,-1
  801f64:	1884703a 	and	r2,r3,r2
  801f68:	e0bfe0c5 	stb	r2,-125(fp)
  data[5] = (accel_bias_reg[2])      & 0xFF;
  801f6c:	e0bfeb17 	ldw	r2,-84(fp)
  801f70:	1007883a 	mov	r3,r2
  801f74:	00bfffc4 	movi	r2,-1
  801f78:	1884703a 	and	r2,r3,r2
  801f7c:	e0bfe105 	stb	r2,-124(fp)
  // Preserve temperature compensation bit when writing back to accelerometer
  // bias registers
  data[5] = data[5] | mask_bit[2];
  801f80:	e0ffe103 	ldbu	r3,-124(fp)
  801f84:	e0bfec83 	ldbu	r2,-78(fp)
  801f88:	1884b03a 	or	r2,r3,r2
  801f8c:	e0bfe105 	stb	r2,-124(fp)

  // Apparently this is not working for the acceleration biases in the MPU-9250
  // Are we handling the temperature correction bit properly?
  // Push accelerometer biases to hardware registers
  I2C_Start(scl_base, sda_base);
  801f90:	e13ff217 	ldw	r4,-56(fp)
  801f94:	e17ff317 	ldw	r5,-52(fp)
  801f98:	08031680 	call	803168 <I2C_Start>
  I2C_WriteToDeviceRegister(scl_base, sda_base, deviceAddress,  XA_OFFSET_H, data[0], 1);
  801f9c:	e0bfdf83 	ldbu	r2,-130(fp)
  801fa0:	11803fcc 	andi	r6,r2,255
  801fa4:	3180201c 	xori	r6,r6,128
  801fa8:	31bfe004 	addi	r6,r6,-128
  801fac:	e0bfdfc3 	ldbu	r2,-129(fp)
  801fb0:	10803fcc 	andi	r2,r2,255
  801fb4:	d8800015 	stw	r2,0(sp)
  801fb8:	00800044 	movi	r2,1
  801fbc:	d8800115 	stw	r2,4(sp)
  801fc0:	e13ff217 	ldw	r4,-56(fp)
  801fc4:	e17ff317 	ldw	r5,-52(fp)
  801fc8:	01c01dc4 	movi	r7,119
  801fcc:	08032d00 	call	8032d0 <I2C_WriteToDeviceRegister>
  I2C_WriteToDeviceRegister(scl_base, sda_base, deviceAddress,  XA_OFFSET_L, data[1], 1);
  801fd0:	e0bfdf83 	ldbu	r2,-130(fp)
  801fd4:	11803fcc 	andi	r6,r2,255
  801fd8:	3180201c 	xori	r6,r6,128
  801fdc:	31bfe004 	addi	r6,r6,-128
  801fe0:	e0bfe003 	ldbu	r2,-128(fp)
  801fe4:	10803fcc 	andi	r2,r2,255
  801fe8:	d8800015 	stw	r2,0(sp)
  801fec:	00800044 	movi	r2,1
  801ff0:	d8800115 	stw	r2,4(sp)
  801ff4:	e13ff217 	ldw	r4,-56(fp)
  801ff8:	e17ff317 	ldw	r5,-52(fp)
  801ffc:	01c01e04 	movi	r7,120
  802000:	08032d00 	call	8032d0 <I2C_WriteToDeviceRegister>
  I2C_WriteToDeviceRegister(scl_base, sda_base, deviceAddress, YA_OFFSET_H, data[2], 1);
  802004:	e0bfdf83 	ldbu	r2,-130(fp)
  802008:	11803fcc 	andi	r6,r2,255
  80200c:	3180201c 	xori	r6,r6,128
  802010:	31bfe004 	addi	r6,r6,-128
  802014:	e0bfe043 	ldbu	r2,-127(fp)
  802018:	10803fcc 	andi	r2,r2,255
  80201c:	d8800015 	stw	r2,0(sp)
  802020:	00800044 	movi	r2,1
  802024:	d8800115 	stw	r2,4(sp)
  802028:	e13ff217 	ldw	r4,-56(fp)
  80202c:	e17ff317 	ldw	r5,-52(fp)
  802030:	01c01e84 	movi	r7,122
  802034:	08032d00 	call	8032d0 <I2C_WriteToDeviceRegister>
  I2C_WriteToDeviceRegister(scl_base, sda_base, deviceAddress, YA_OFFSET_L, data[3], 1);
  802038:	e0bfdf83 	ldbu	r2,-130(fp)
  80203c:	11803fcc 	andi	r6,r2,255
  802040:	3180201c 	xori	r6,r6,128
  802044:	31bfe004 	addi	r6,r6,-128
  802048:	e0bfe083 	ldbu	r2,-126(fp)
  80204c:	10803fcc 	andi	r2,r2,255
  802050:	d8800015 	stw	r2,0(sp)
  802054:	00800044 	movi	r2,1
  802058:	d8800115 	stw	r2,4(sp)
  80205c:	e13ff217 	ldw	r4,-56(fp)
  802060:	e17ff317 	ldw	r5,-52(fp)
  802064:	01c01ec4 	movi	r7,123
  802068:	08032d00 	call	8032d0 <I2C_WriteToDeviceRegister>
  I2C_WriteToDeviceRegister(scl_base, sda_base, deviceAddress, ZA_OFFSET_H, data[4], 1);
  80206c:	e0bfdf83 	ldbu	r2,-130(fp)
  802070:	11803fcc 	andi	r6,r2,255
  802074:	3180201c 	xori	r6,r6,128
  802078:	31bfe004 	addi	r6,r6,-128
  80207c:	e0bfe0c3 	ldbu	r2,-125(fp)
  802080:	10803fcc 	andi	r2,r2,255
  802084:	d8800015 	stw	r2,0(sp)
  802088:	00800044 	movi	r2,1
  80208c:	d8800115 	stw	r2,4(sp)
  802090:	e13ff217 	ldw	r4,-56(fp)
  802094:	e17ff317 	ldw	r5,-52(fp)
  802098:	01c01f44 	movi	r7,125
  80209c:	08032d00 	call	8032d0 <I2C_WriteToDeviceRegister>
  I2C_WriteToDeviceRegister(scl_base, sda_base, deviceAddress, ZA_OFFSET_L, data[5], 1);
  8020a0:	e0bfdf83 	ldbu	r2,-130(fp)
  8020a4:	11803fcc 	andi	r6,r2,255
  8020a8:	3180201c 	xori	r6,r6,128
  8020ac:	31bfe004 	addi	r6,r6,-128
  8020b0:	e0bfe103 	ldbu	r2,-124(fp)
  8020b4:	10803fcc 	andi	r2,r2,255
  8020b8:	d8800015 	stw	r2,0(sp)
  8020bc:	00800044 	movi	r2,1
  8020c0:	d8800115 	stw	r2,4(sp)
  8020c4:	e13ff217 	ldw	r4,-56(fp)
  8020c8:	e17ff317 	ldw	r5,-52(fp)
  8020cc:	01c01f84 	movi	r7,126
  8020d0:	08032d00 	call	8032d0 <I2C_WriteToDeviceRegister>
  I2C_Stop(scl_base, sda_base);
  8020d4:	e13ff217 	ldw	r4,-56(fp)
  8020d8:	e17ff317 	ldw	r5,-52(fp)
  8020dc:	08031a00 	call	8031a0 <I2C_Stop>


  // Output scaled accelerometer biases for display in the main program
  accelBias[0] = (float)accel_bias[0]/(float)accelsensitivity;
  8020e0:	e13fe617 	ldw	r4,-104(fp)
  8020e4:	08061c40 	call	8061c4 <__floatsisf>
  8020e8:	1021883a 	mov	r16,r2
  8020ec:	e13fdd0b 	ldhu	r4,-140(fp)
  8020f0:	08062b00 	call	8062b0 <__floatunsisf>
  8020f4:	8009883a 	mov	r4,r16
  8020f8:	100b883a 	mov	r5,r2
  8020fc:	0805f600 	call	805f60 <__divsf3>
  802100:	1007883a 	mov	r3,r2
  802104:	e0bff117 	ldw	r2,-60(fp)
  802108:	10c00015 	stw	r3,0(r2)
  accelBias[1] = (float)accel_bias[1]/(float)accelsensitivity;
  80210c:	e0bff117 	ldw	r2,-60(fp)
  802110:	14400104 	addi	r17,r2,4
  802114:	e13fe717 	ldw	r4,-100(fp)
  802118:	08061c40 	call	8061c4 <__floatsisf>
  80211c:	1021883a 	mov	r16,r2
  802120:	e13fdd0b 	ldhu	r4,-140(fp)
  802124:	08062b00 	call	8062b0 <__floatunsisf>
  802128:	8009883a 	mov	r4,r16
  80212c:	100b883a 	mov	r5,r2
  802130:	0805f600 	call	805f60 <__divsf3>
  802134:	88800015 	stw	r2,0(r17)
  accelBias[2] = (float)accel_bias[2]/(float)accelsensitivity;
  802138:	e0bff117 	ldw	r2,-60(fp)
  80213c:	14400204 	addi	r17,r2,8
  802140:	e13fe817 	ldw	r4,-96(fp)
  802144:	08061c40 	call	8061c4 <__floatsisf>
  802148:	1021883a 	mov	r16,r2
  80214c:	e13fdd0b 	ldhu	r4,-140(fp)
  802150:	08062b00 	call	8062b0 <__floatunsisf>
  802154:	8009883a 	mov	r4,r16
  802158:	100b883a 	mov	r5,r2
  80215c:	0805f600 	call	805f60 <__divsf3>
  802160:	88800015 	stw	r2,0(r17)
}
  802164:	e037883a 	mov	sp,fp
  802168:	dfc00317 	ldw	ra,12(sp)
  80216c:	df000217 	ldw	fp,8(sp)
  802170:	dc400117 	ldw	r17,4(sp)
  802174:	dc000017 	ldw	r16,0(sp)
  802178:	dec00404 	addi	sp,sp,16
  80217c:	f800283a 	ret

00802180 <MPU9250SelfTest>:

// Accelerometer and gyroscope self test; check calibration wrt factory settings
// Should return percent deviation from factory trim values, +/- 14 or less
// deviation is a pass.
void MPU9250SelfTest(float * destination, alt_u32 scl_base, alt_u32 sda_base)
{
  802180:	deffde04 	addi	sp,sp,-136
  802184:	dfc02115 	stw	ra,132(sp)
  802188:	df002015 	stw	fp,128(sp)
  80218c:	dc401f15 	stw	r17,124(sp)
  802190:	dc001e15 	stw	r16,120(sp)
  802194:	df001e04 	addi	fp,sp,120
  802198:	e13ffd15 	stw	r4,-12(fp)
  80219c:	e17ffe15 	stw	r5,-8(fp)
  8021a0:	e1bfff15 	stw	r6,-4(fp)
  alt_u8 deviceAddress = 0xD0;
  8021a4:	00bff404 	movi	r2,-48
  8021a8:	e0bfe645 	stb	r2,-103(fp)
  alt_u8 rawData[6];
  alt_u8 selfTest[6];
  alt_32 gAvg[3] = {0}, aAvg[3] = {0}, aSTAvg[3] = {0}, gSTAvg[3] = {0};
  8021ac:	e03fea15 	stw	zero,-88(fp)
  8021b0:	e03feb15 	stw	zero,-84(fp)
  8021b4:	e03fec15 	stw	zero,-80(fp)
  8021b8:	e03fed15 	stw	zero,-76(fp)
  8021bc:	e03fee15 	stw	zero,-72(fp)
  8021c0:	e03fef15 	stw	zero,-68(fp)
  8021c4:	e03ff015 	stw	zero,-64(fp)
  8021c8:	e03ff115 	stw	zero,-60(fp)
  8021cc:	e03ff215 	stw	zero,-56(fp)
  8021d0:	e03ff315 	stw	zero,-52(fp)
  8021d4:	e03ff415 	stw	zero,-48(fp)
  8021d8:	e03ff515 	stw	zero,-44(fp)
  float factoryTrim[6];
  alt_u8 FS = 0;
  8021dc:	e03fe605 	stb	zero,-104(fp)
  alt_u8 ReadBuf[1];

  I2C_Start(scl_base, sda_base);
  8021e0:	e13ffe17 	ldw	r4,-8(fp)
  8021e4:	e17fff17 	ldw	r5,-4(fp)
  8021e8:	08031680 	call	803168 <I2C_Start>
  // Set gyro sample rate to 1 kHz
  if(!I2C_ReadFromDeviceRegister(scl_base,sda_base, deviceAddress, 0x75, (alt_u8*)&ReadBuf, 1, true)){
  8021ec:	e0bfe643 	ldbu	r2,-103(fp)
  8021f0:	11803fcc 	andi	r6,r2,255
  8021f4:	3180201c 	xori	r6,r6,128
  8021f8:	31bfe004 	addi	r6,r6,-128
  8021fc:	e0bffc04 	addi	r2,fp,-16
  802200:	d8800015 	stw	r2,0(sp)
  802204:	00800044 	movi	r2,1
  802208:	d8800115 	stw	r2,4(sp)
  80220c:	00800044 	movi	r2,1
  802210:	d8800215 	stw	r2,8(sp)
  802214:	e13ffe17 	ldw	r4,-8(fp)
  802218:	e17fff17 	ldw	r5,-4(fp)
  80221c:	01c01d44 	movi	r7,117
  802220:	08035b80 	call	8035b8 <I2C_ReadFromDeviceRegister>

  }
  I2C_Stop(scl_base, sda_base);
  802224:	e13ffe17 	ldw	r4,-8(fp)
  802228:	e17fff17 	ldw	r5,-4(fp)
  80222c:	08031a00 	call	8031a0 <I2C_Stop>
  printf("WHO AM I: %0x\n", ReadBuf[0]);
  802230:	e0bffc03 	ldbu	r2,-16(fp)
  802234:	11403fcc 	andi	r5,r2,255
  802238:	010020b4 	movhi	r4,130
  80223c:	212fd104 	addi	r4,r4,-16572
  802240:	0807d600 	call	807d60 <printf>


  I2C_Start(scl_base, sda_base);
  802244:	e13ffe17 	ldw	r4,-8(fp)
  802248:	e17fff17 	ldw	r5,-4(fp)
  80224c:	08031680 	call	803168 <I2C_Start>
  I2C_WriteToDeviceRegister(scl_base, sda_base, deviceAddress, SMPLRT_DIV, 0x00, 1);
  802250:	e0bfe643 	ldbu	r2,-103(fp)
  802254:	11803fcc 	andi	r6,r2,255
  802258:	3180201c 	xori	r6,r6,128
  80225c:	31bfe004 	addi	r6,r6,-128
  802260:	d8000015 	stw	zero,0(sp)
  802264:	00800044 	movi	r2,1
  802268:	d8800115 	stw	r2,4(sp)
  80226c:	e13ffe17 	ldw	r4,-8(fp)
  802270:	e17fff17 	ldw	r5,-4(fp)
  802274:	01c00644 	movi	r7,25
  802278:	08032d00 	call	8032d0 <I2C_WriteToDeviceRegister>
  // Set gyro sample rate to 1 kHz and DLPF to 92 Hz
  I2C_WriteToDeviceRegister(scl_base, sda_base, deviceAddress, CONFIG, 0x02, 1);
  80227c:	e0bfe643 	ldbu	r2,-103(fp)
  802280:	11803fcc 	andi	r6,r2,255
  802284:	3180201c 	xori	r6,r6,128
  802288:	31bfe004 	addi	r6,r6,-128
  80228c:	00800084 	movi	r2,2
  802290:	d8800015 	stw	r2,0(sp)
  802294:	00800044 	movi	r2,1
  802298:	d8800115 	stw	r2,4(sp)
  80229c:	e13ffe17 	ldw	r4,-8(fp)
  8022a0:	e17fff17 	ldw	r5,-4(fp)
  8022a4:	01c00684 	movi	r7,26
  8022a8:	08032d00 	call	8032d0 <I2C_WriteToDeviceRegister>
  // Set full scale range for the gyro to 250 dps
  I2C_WriteToDeviceRegister(scl_base, sda_base, deviceAddress, GYRO_CONFIG,  0x10, 1);
  8022ac:	e0bfe643 	ldbu	r2,-103(fp)
  8022b0:	11803fcc 	andi	r6,r2,255
  8022b4:	3180201c 	xori	r6,r6,128
  8022b8:	31bfe004 	addi	r6,r6,-128
  8022bc:	00800404 	movi	r2,16
  8022c0:	d8800015 	stw	r2,0(sp)
  8022c4:	00800044 	movi	r2,1
  8022c8:	d8800115 	stw	r2,4(sp)
  8022cc:	e13ffe17 	ldw	r4,-8(fp)
  8022d0:	e17fff17 	ldw	r5,-4(fp)
  8022d4:	01c006c4 	movi	r7,27
  8022d8:	08032d00 	call	8032d0 <I2C_WriteToDeviceRegister>
  // Set accelerometer rate to 1 kHz and bandwidth to 92 Hz
  I2C_WriteToDeviceRegister(scl_base, sda_base, deviceAddress, ACCEL_CONFIG2, 0x02, 1);
  8022dc:	e0bfe643 	ldbu	r2,-103(fp)
  8022e0:	11803fcc 	andi	r6,r2,255
  8022e4:	3180201c 	xori	r6,r6,128
  8022e8:	31bfe004 	addi	r6,r6,-128
  8022ec:	00800084 	movi	r2,2
  8022f0:	d8800015 	stw	r2,0(sp)
  8022f4:	00800044 	movi	r2,1
  8022f8:	d8800115 	stw	r2,4(sp)
  8022fc:	e13ffe17 	ldw	r4,-8(fp)
  802300:	e17fff17 	ldw	r5,-4(fp)
  802304:	01c00744 	movi	r7,29
  802308:	08032d00 	call	8032d0 <I2C_WriteToDeviceRegister>
  // Set full scale range for the accelerometer to 2 g
  I2C_WriteToDeviceRegister(scl_base, sda_base, deviceAddress, ACCEL_CONFIG, 1<<FS, 1);
  80230c:	e0bfe643 	ldbu	r2,-103(fp)
  802310:	11803fcc 	andi	r6,r2,255
  802314:	3180201c 	xori	r6,r6,128
  802318:	31bfe004 	addi	r6,r6,-128
  80231c:	e0ffe603 	ldbu	r3,-104(fp)
  802320:	00800044 	movi	r2,1
  802324:	10c4983a 	sll	r2,r2,r3
  802328:	d8800015 	stw	r2,0(sp)
  80232c:	00800044 	movi	r2,1
  802330:	d8800115 	stw	r2,4(sp)
  802334:	e13ffe17 	ldw	r4,-8(fp)
  802338:	e17fff17 	ldw	r5,-4(fp)
  80233c:	01c00704 	movi	r7,28
  802340:	08032d00 	call	8032d0 <I2C_WriteToDeviceRegister>
  I2C_Stop(scl_base, sda_base);
  802344:	e13ffe17 	ldw	r4,-8(fp)
  802348:	e17fff17 	ldw	r5,-4(fp)
  80234c:	08031a00 	call	8031a0 <I2C_Stop>


  int ii;
  // Get average current values of gyro and acclerometer
  for ( ii = 0; ii < 100; ii= ii+1) {
  802350:	e03fe515 	stw	zero,-108(fp)
  802354:	00007606 	br	802530 <MPU9250SelfTest+0x3b0>

  	//printf("BHW::ii = %d \n", ii );
  	I2C_Start(scl_base, sda_base);
  802358:	e13ffe17 	ldw	r4,-8(fp)
  80235c:	e17fff17 	ldw	r5,-4(fp)
  802360:	08031680 	call	803168 <I2C_Start>
    // Read the six raw data registers into data array
	I2C_ReadFromDeviceRegister(scl_base, sda_base, 0xD0, ACCEL_XOUT_H, &rawData[0],6, true);
  802364:	e0bfe684 	addi	r2,fp,-102
  802368:	d8800015 	stw	r2,0(sp)
  80236c:	00800184 	movi	r2,6
  802370:	d8800115 	stw	r2,4(sp)
  802374:	00800044 	movi	r2,1
  802378:	d8800215 	stw	r2,8(sp)
  80237c:	e13ffe17 	ldw	r4,-8(fp)
  802380:	e17fff17 	ldw	r5,-4(fp)
  802384:	01bff404 	movi	r6,-48
  802388:	01c00ec4 	movi	r7,59
  80238c:	08035b80 	call	8035b8 <I2C_ReadFromDeviceRegister>
    I2C_Stop(scl_base, sda_base);
  802390:	e13ffe17 	ldw	r4,-8(fp)
  802394:	e17fff17 	ldw	r5,-4(fp)
  802398:	08031a00 	call	8031a0 <I2C_Stop>

	// Turn the MSB and LSB into a signed 16-bit value
    aAvg[0] += (alt_16)(((alt_16)rawData[0] << 8) | rawData[1]) ;
  80239c:	e13fed17 	ldw	r4,-76(fp)
  8023a0:	e0bfe683 	ldbu	r2,-102(fp)
  8023a4:	10803fcc 	andi	r2,r2,255
  8023a8:	1004923a 	slli	r2,r2,8
  8023ac:	1007883a 	mov	r3,r2
  8023b0:	e0bfe6c3 	ldbu	r2,-101(fp)
  8023b4:	10803fcc 	andi	r2,r2,255
  8023b8:	1884b03a 	or	r2,r3,r2
  8023bc:	10bfffcc 	andi	r2,r2,65535
  8023c0:	10a0001c 	xori	r2,r2,32768
  8023c4:	10a00004 	addi	r2,r2,-32768
  8023c8:	2085883a 	add	r2,r4,r2
  8023cc:	e0bfed15 	stw	r2,-76(fp)
    aAvg[1] += (alt_16)(((alt_16)rawData[2] << 8) | rawData[3]) ;
  8023d0:	e13fee17 	ldw	r4,-72(fp)
  8023d4:	e0bfe703 	ldbu	r2,-100(fp)
  8023d8:	10803fcc 	andi	r2,r2,255
  8023dc:	1004923a 	slli	r2,r2,8
  8023e0:	1007883a 	mov	r3,r2
  8023e4:	e0bfe743 	ldbu	r2,-99(fp)
  8023e8:	10803fcc 	andi	r2,r2,255
  8023ec:	1884b03a 	or	r2,r3,r2
  8023f0:	10bfffcc 	andi	r2,r2,65535
  8023f4:	10a0001c 	xori	r2,r2,32768
  8023f8:	10a00004 	addi	r2,r2,-32768
  8023fc:	2085883a 	add	r2,r4,r2
  802400:	e0bfee15 	stw	r2,-72(fp)
    aAvg[2] += (alt_16)(((alt_16)rawData[4] << 8) | rawData[5]) ;
  802404:	e13fef17 	ldw	r4,-68(fp)
  802408:	e0bfe783 	ldbu	r2,-98(fp)
  80240c:	10803fcc 	andi	r2,r2,255
  802410:	1004923a 	slli	r2,r2,8
  802414:	1007883a 	mov	r3,r2
  802418:	e0bfe7c3 	ldbu	r2,-97(fp)
  80241c:	10803fcc 	andi	r2,r2,255
  802420:	1884b03a 	or	r2,r3,r2
  802424:	10bfffcc 	andi	r2,r2,65535
  802428:	10a0001c 	xori	r2,r2,32768
  80242c:	10a00004 	addi	r2,r2,-32768
  802430:	2085883a 	add	r2,r4,r2
  802434:	e0bfef15 	stw	r2,-68(fp)

  	I2C_Start(scl_base, sda_base);
  802438:	e13ffe17 	ldw	r4,-8(fp)
  80243c:	e17fff17 	ldw	r5,-4(fp)
  802440:	08031680 	call	803168 <I2C_Start>

    // Read the six raw data registers sequentially into data array
	I2C_ReadFromDeviceRegister(scl_base, sda_base, deviceAddress, GYRO_XOUT_H, &rawData[0], 6, true);
  802444:	e0bfe643 	ldbu	r2,-103(fp)
  802448:	11803fcc 	andi	r6,r2,255
  80244c:	3180201c 	xori	r6,r6,128
  802450:	31bfe004 	addi	r6,r6,-128
  802454:	e0bfe684 	addi	r2,fp,-102
  802458:	d8800015 	stw	r2,0(sp)
  80245c:	00800184 	movi	r2,6
  802460:	d8800115 	stw	r2,4(sp)
  802464:	00800044 	movi	r2,1
  802468:	d8800215 	stw	r2,8(sp)
  80246c:	e13ffe17 	ldw	r4,-8(fp)
  802470:	e17fff17 	ldw	r5,-4(fp)
  802474:	01c010c4 	movi	r7,67
  802478:	08035b80 	call	8035b8 <I2C_ReadFromDeviceRegister>
    I2C_Stop(scl_base, sda_base);
  80247c:	e13ffe17 	ldw	r4,-8(fp)
  802480:	e17fff17 	ldw	r5,-4(fp)
  802484:	08031a00 	call	8031a0 <I2C_Stop>

	// Turn the MSB and LSB into a signed 16-bit value
    gAvg[0] += (alt_16)(((alt_16)rawData[0] << 8) | rawData[1]) ;
  802488:	e13fea17 	ldw	r4,-88(fp)
  80248c:	e0bfe683 	ldbu	r2,-102(fp)
  802490:	10803fcc 	andi	r2,r2,255
  802494:	1004923a 	slli	r2,r2,8
  802498:	1007883a 	mov	r3,r2
  80249c:	e0bfe6c3 	ldbu	r2,-101(fp)
  8024a0:	10803fcc 	andi	r2,r2,255
  8024a4:	1884b03a 	or	r2,r3,r2
  8024a8:	10bfffcc 	andi	r2,r2,65535
  8024ac:	10a0001c 	xori	r2,r2,32768
  8024b0:	10a00004 	addi	r2,r2,-32768
  8024b4:	2085883a 	add	r2,r4,r2
  8024b8:	e0bfea15 	stw	r2,-88(fp)
    gAvg[1] += (alt_16)(((alt_16)rawData[2] << 8) | rawData[3]) ;
  8024bc:	e13feb17 	ldw	r4,-84(fp)
  8024c0:	e0bfe703 	ldbu	r2,-100(fp)
  8024c4:	10803fcc 	andi	r2,r2,255
  8024c8:	1004923a 	slli	r2,r2,8
  8024cc:	1007883a 	mov	r3,r2
  8024d0:	e0bfe743 	ldbu	r2,-99(fp)
  8024d4:	10803fcc 	andi	r2,r2,255
  8024d8:	1884b03a 	or	r2,r3,r2
  8024dc:	10bfffcc 	andi	r2,r2,65535
  8024e0:	10a0001c 	xori	r2,r2,32768
  8024e4:	10a00004 	addi	r2,r2,-32768
  8024e8:	2085883a 	add	r2,r4,r2
  8024ec:	e0bfeb15 	stw	r2,-84(fp)
    gAvg[2] += (alt_16)(((alt_16)rawData[4] << 8) | rawData[5]) ;
  8024f0:	e13fec17 	ldw	r4,-80(fp)
  8024f4:	e0bfe783 	ldbu	r2,-98(fp)
  8024f8:	10803fcc 	andi	r2,r2,255
  8024fc:	1004923a 	slli	r2,r2,8
  802500:	1007883a 	mov	r3,r2
  802504:	e0bfe7c3 	ldbu	r2,-97(fp)
  802508:	10803fcc 	andi	r2,r2,255
  80250c:	1884b03a 	or	r2,r3,r2
  802510:	10bfffcc 	andi	r2,r2,65535
  802514:	10a0001c 	xori	r2,r2,32768
  802518:	10a00004 	addi	r2,r2,-32768
  80251c:	2085883a 	add	r2,r4,r2
  802520:	e0bfec15 	stw	r2,-80(fp)
  I2C_Stop(scl_base, sda_base);


  int ii;
  // Get average current values of gyro and acclerometer
  for ( ii = 0; ii < 100; ii= ii+1) {
  802524:	e0bfe517 	ldw	r2,-108(fp)
  802528:	10800044 	addi	r2,r2,1
  80252c:	e0bfe515 	stw	r2,-108(fp)
  802530:	e0bfe517 	ldw	r2,-108(fp)
  802534:	10801910 	cmplti	r2,r2,100
  802538:	103f871e 	bne	r2,zero,802358 <MPU9250SelfTest+0x1d8>
    gAvg[2] += (alt_16)(((alt_16)rawData[4] << 8) | rawData[5]) ;

  }

  // Get average of 200 values and store as average current readings
  for ( ii =0; ii < 3; ii = ii+1)
  80253c:	e03fe515 	stw	zero,-108(fp)
  802540:	00002506 	br	8025d8 <MPU9250SelfTest+0x458>
  {
    aAvg[ii] /= 100;
  802544:	e43fe517 	ldw	r16,-108(fp)
  802548:	e0bfe517 	ldw	r2,-108(fp)
  80254c:	1085883a 	add	r2,r2,r2
  802550:	1085883a 	add	r2,r2,r2
  802554:	e0ffe504 	addi	r3,fp,-108
  802558:	10c5883a 	add	r2,r2,r3
  80255c:	10800804 	addi	r2,r2,32
  802560:	11000017 	ldw	r4,0(r2)
  802564:	01401904 	movi	r5,100
  802568:	08073580 	call	807358 <__divsi3>
  80256c:	1007883a 	mov	r3,r2
  802570:	8405883a 	add	r2,r16,r16
  802574:	1085883a 	add	r2,r2,r2
  802578:	e13fe504 	addi	r4,fp,-108
  80257c:	1105883a 	add	r2,r2,r4
  802580:	10800804 	addi	r2,r2,32
  802584:	10c00015 	stw	r3,0(r2)
    gAvg[ii] /= 100;
  802588:	e43fe517 	ldw	r16,-108(fp)
  80258c:	e0bfe517 	ldw	r2,-108(fp)
  802590:	1085883a 	add	r2,r2,r2
  802594:	1085883a 	add	r2,r2,r2
  802598:	e0ffe504 	addi	r3,fp,-108
  80259c:	10c5883a 	add	r2,r2,r3
  8025a0:	10800504 	addi	r2,r2,20
  8025a4:	11000017 	ldw	r4,0(r2)
  8025a8:	01401904 	movi	r5,100
  8025ac:	08073580 	call	807358 <__divsi3>
  8025b0:	1007883a 	mov	r3,r2
  8025b4:	8405883a 	add	r2,r16,r16
  8025b8:	1085883a 	add	r2,r2,r2
  8025bc:	e13fe504 	addi	r4,fp,-108
  8025c0:	1105883a 	add	r2,r2,r4
  8025c4:	10800504 	addi	r2,r2,20
  8025c8:	10c00015 	stw	r3,0(r2)
    gAvg[2] += (alt_16)(((alt_16)rawData[4] << 8) | rawData[5]) ;

  }

  // Get average of 200 values and store as average current readings
  for ( ii =0; ii < 3; ii = ii+1)
  8025cc:	e0bfe517 	ldw	r2,-108(fp)
  8025d0:	10800044 	addi	r2,r2,1
  8025d4:	e0bfe515 	stw	r2,-108(fp)
  8025d8:	e0bfe517 	ldw	r2,-108(fp)
  8025dc:	108000d0 	cmplti	r2,r2,3
  8025e0:	103fd81e 	bne	r2,zero,802544 <MPU9250SelfTest+0x3c4>
  {
    aAvg[ii] /= 100;
    gAvg[ii] /= 100;
  }
  I2C_Start(scl_base, sda_base);
  8025e4:	e13ffe17 	ldw	r4,-8(fp)
  8025e8:	e17fff17 	ldw	r5,-4(fp)
  8025ec:	08031680 	call	803168 <I2C_Start>


  // Configure the accelerometer for self-test
  // Enable self test on all three axes and set accelerometer range to +/- 2 g
  I2C_WriteToDeviceRegister(scl_base, sda_base, deviceAddress, ACCEL_CONFIG, 0xE0, 1);
  8025f0:	e0bfe643 	ldbu	r2,-103(fp)
  8025f4:	11803fcc 	andi	r6,r2,255
  8025f8:	3180201c 	xori	r6,r6,128
  8025fc:	31bfe004 	addi	r6,r6,-128
  802600:	00803804 	movi	r2,224
  802604:	d8800015 	stw	r2,0(sp)
  802608:	00800044 	movi	r2,1
  80260c:	d8800115 	stw	r2,4(sp)
  802610:	e13ffe17 	ldw	r4,-8(fp)
  802614:	e17fff17 	ldw	r5,-4(fp)
  802618:	01c00704 	movi	r7,28
  80261c:	08032d00 	call	8032d0 <I2C_WriteToDeviceRegister>
  // Enable self test on all three axes and set gyro range to +/- 250 degrees/s
  I2C_WriteToDeviceRegister(scl_base, sda_base, deviceAddress, GYRO_CONFIG, 0xF0, 1);
  802620:	e0bfe643 	ldbu	r2,-103(fp)
  802624:	11803fcc 	andi	r6,r2,255
  802628:	3180201c 	xori	r6,r6,128
  80262c:	31bfe004 	addi	r6,r6,-128
  802630:	00803c04 	movi	r2,240
  802634:	d8800015 	stw	r2,0(sp)
  802638:	00800044 	movi	r2,1
  80263c:	d8800115 	stw	r2,4(sp)
  802640:	e13ffe17 	ldw	r4,-8(fp)
  802644:	e17fff17 	ldw	r5,-4(fp)
  802648:	01c006c4 	movi	r7,27
  80264c:	08032d00 	call	8032d0 <I2C_WriteToDeviceRegister>

  I2C_Stop(scl_base, sda_base);
  802650:	e13ffe17 	ldw	r4,-8(fp)
  802654:	e17fff17 	ldw	r5,-4(fp)
  802658:	08031a00 	call	8031a0 <I2C_Stop>
  OSTimeDlyHMSM(0, 0, 0, 25);  // Delay a while to let the device stabilize
  80265c:	0009883a 	mov	r4,zero
  802660:	000b883a 	mov	r5,zero
  802664:	000d883a 	mov	r6,zero
  802668:	01c00644 	movi	r7,25
  80266c:	0818b4c0 	call	818b4c <OSTimeDlyHMSM>


  // Get average self-test values of gyro and acclerometer
  for ( ii =0; ii < 100; ii = ii+1)
  802670:	e03fe515 	stw	zero,-108(fp)
  802674:	00007906 	br	80285c <MPU9250SelfTest+0x6dc>
  {
	I2C_Start(scl_base, sda_base);
  802678:	e13ffe17 	ldw	r4,-8(fp)
  80267c:	e17fff17 	ldw	r5,-4(fp)
  802680:	08031680 	call	803168 <I2C_Start>
    // Read the six raw data registers into data array
	I2C_ReadFromDeviceRegister(scl_base, sda_base, deviceAddress, ACCEL_XOUT_H, &rawData[0], 6, true);
  802684:	e0bfe643 	ldbu	r2,-103(fp)
  802688:	11803fcc 	andi	r6,r2,255
  80268c:	3180201c 	xori	r6,r6,128
  802690:	31bfe004 	addi	r6,r6,-128
  802694:	e0bfe684 	addi	r2,fp,-102
  802698:	d8800015 	stw	r2,0(sp)
  80269c:	00800184 	movi	r2,6
  8026a0:	d8800115 	stw	r2,4(sp)
  8026a4:	00800044 	movi	r2,1
  8026a8:	d8800215 	stw	r2,8(sp)
  8026ac:	e13ffe17 	ldw	r4,-8(fp)
  8026b0:	e17fff17 	ldw	r5,-4(fp)
  8026b4:	01c00ec4 	movi	r7,59
  8026b8:	08035b80 	call	8035b8 <I2C_ReadFromDeviceRegister>
    I2C_Stop(scl_base, sda_base);
  8026bc:	e13ffe17 	ldw	r4,-8(fp)
  8026c0:	e17fff17 	ldw	r5,-4(fp)
  8026c4:	08031a00 	call	8031a0 <I2C_Stop>

	// Turn the MSB and LSB into a signed 16-bit value
    aSTAvg[0] += (alt_16)(((alt_16)rawData[0] << 8) | rawData[1]) ;
  8026c8:	e13ff017 	ldw	r4,-64(fp)
  8026cc:	e0bfe683 	ldbu	r2,-102(fp)
  8026d0:	10803fcc 	andi	r2,r2,255
  8026d4:	1004923a 	slli	r2,r2,8
  8026d8:	1007883a 	mov	r3,r2
  8026dc:	e0bfe6c3 	ldbu	r2,-101(fp)
  8026e0:	10803fcc 	andi	r2,r2,255
  8026e4:	1884b03a 	or	r2,r3,r2
  8026e8:	10bfffcc 	andi	r2,r2,65535
  8026ec:	10a0001c 	xori	r2,r2,32768
  8026f0:	10a00004 	addi	r2,r2,-32768
  8026f4:	2085883a 	add	r2,r4,r2
  8026f8:	e0bff015 	stw	r2,-64(fp)
    aSTAvg[1] += (alt_16)(((alt_16)rawData[2] << 8) | rawData[3]) ;
  8026fc:	e13ff117 	ldw	r4,-60(fp)
  802700:	e0bfe703 	ldbu	r2,-100(fp)
  802704:	10803fcc 	andi	r2,r2,255
  802708:	1004923a 	slli	r2,r2,8
  80270c:	1007883a 	mov	r3,r2
  802710:	e0bfe743 	ldbu	r2,-99(fp)
  802714:	10803fcc 	andi	r2,r2,255
  802718:	1884b03a 	or	r2,r3,r2
  80271c:	10bfffcc 	andi	r2,r2,65535
  802720:	10a0001c 	xori	r2,r2,32768
  802724:	10a00004 	addi	r2,r2,-32768
  802728:	2085883a 	add	r2,r4,r2
  80272c:	e0bff115 	stw	r2,-60(fp)
    aSTAvg[2] += (alt_16)(((alt_16)rawData[4] << 8) | rawData[5]) ;
  802730:	e13ff217 	ldw	r4,-56(fp)
  802734:	e0bfe783 	ldbu	r2,-98(fp)
  802738:	10803fcc 	andi	r2,r2,255
  80273c:	1004923a 	slli	r2,r2,8
  802740:	1007883a 	mov	r3,r2
  802744:	e0bfe7c3 	ldbu	r2,-97(fp)
  802748:	10803fcc 	andi	r2,r2,255
  80274c:	1884b03a 	or	r2,r3,r2
  802750:	10bfffcc 	andi	r2,r2,65535
  802754:	10a0001c 	xori	r2,r2,32768
  802758:	10a00004 	addi	r2,r2,-32768
  80275c:	2085883a 	add	r2,r4,r2
  802760:	e0bff215 	stw	r2,-56(fp)

    I2C_Start(scl_base, sda_base);
  802764:	e13ffe17 	ldw	r4,-8(fp)
  802768:	e17fff17 	ldw	r5,-4(fp)
  80276c:	08031680 	call	803168 <I2C_Start>
    // Read the six raw data registers sequentially into data array
	I2C_ReadFromDeviceRegister(scl_base, sda_base, deviceAddress, GYRO_XOUT_H, &rawData[0], 6, true);
  802770:	e0bfe643 	ldbu	r2,-103(fp)
  802774:	11803fcc 	andi	r6,r2,255
  802778:	3180201c 	xori	r6,r6,128
  80277c:	31bfe004 	addi	r6,r6,-128
  802780:	e0bfe684 	addi	r2,fp,-102
  802784:	d8800015 	stw	r2,0(sp)
  802788:	00800184 	movi	r2,6
  80278c:	d8800115 	stw	r2,4(sp)
  802790:	00800044 	movi	r2,1
  802794:	d8800215 	stw	r2,8(sp)
  802798:	e13ffe17 	ldw	r4,-8(fp)
  80279c:	e17fff17 	ldw	r5,-4(fp)
  8027a0:	01c010c4 	movi	r7,67
  8027a4:	08035b80 	call	8035b8 <I2C_ReadFromDeviceRegister>
    I2C_Stop(scl_base, sda_base);
  8027a8:	e13ffe17 	ldw	r4,-8(fp)
  8027ac:	e17fff17 	ldw	r5,-4(fp)
  8027b0:	08031a00 	call	8031a0 <I2C_Stop>

	// Turn the MSB and LSB into a signed 16-bit value
    gSTAvg[0] += (alt_16)(((alt_16)rawData[0] << 8) | rawData[1]) ;
  8027b4:	e13ff317 	ldw	r4,-52(fp)
  8027b8:	e0bfe683 	ldbu	r2,-102(fp)
  8027bc:	10803fcc 	andi	r2,r2,255
  8027c0:	1004923a 	slli	r2,r2,8
  8027c4:	1007883a 	mov	r3,r2
  8027c8:	e0bfe6c3 	ldbu	r2,-101(fp)
  8027cc:	10803fcc 	andi	r2,r2,255
  8027d0:	1884b03a 	or	r2,r3,r2
  8027d4:	10bfffcc 	andi	r2,r2,65535
  8027d8:	10a0001c 	xori	r2,r2,32768
  8027dc:	10a00004 	addi	r2,r2,-32768
  8027e0:	2085883a 	add	r2,r4,r2
  8027e4:	e0bff315 	stw	r2,-52(fp)
    gSTAvg[1] += (alt_16)(((alt_16)rawData[2] << 8) | rawData[3]) ;
  8027e8:	e13ff417 	ldw	r4,-48(fp)
  8027ec:	e0bfe703 	ldbu	r2,-100(fp)
  8027f0:	10803fcc 	andi	r2,r2,255
  8027f4:	1004923a 	slli	r2,r2,8
  8027f8:	1007883a 	mov	r3,r2
  8027fc:	e0bfe743 	ldbu	r2,-99(fp)
  802800:	10803fcc 	andi	r2,r2,255
  802804:	1884b03a 	or	r2,r3,r2
  802808:	10bfffcc 	andi	r2,r2,65535
  80280c:	10a0001c 	xori	r2,r2,32768
  802810:	10a00004 	addi	r2,r2,-32768
  802814:	2085883a 	add	r2,r4,r2
  802818:	e0bff415 	stw	r2,-48(fp)
    gSTAvg[2] += (alt_16)(((alt_16)rawData[4] << 8) | rawData[5]) ;
  80281c:	e13ff517 	ldw	r4,-44(fp)
  802820:	e0bfe783 	ldbu	r2,-98(fp)
  802824:	10803fcc 	andi	r2,r2,255
  802828:	1004923a 	slli	r2,r2,8
  80282c:	1007883a 	mov	r3,r2
  802830:	e0bfe7c3 	ldbu	r2,-97(fp)
  802834:	10803fcc 	andi	r2,r2,255
  802838:	1884b03a 	or	r2,r3,r2
  80283c:	10bfffcc 	andi	r2,r2,65535
  802840:	10a0001c 	xori	r2,r2,32768
  802844:	10a00004 	addi	r2,r2,-32768
  802848:	2085883a 	add	r2,r4,r2
  80284c:	e0bff515 	stw	r2,-44(fp)
  I2C_Stop(scl_base, sda_base);
  OSTimeDlyHMSM(0, 0, 0, 25);  // Delay a while to let the device stabilize


  // Get average self-test values of gyro and acclerometer
  for ( ii =0; ii < 100; ii = ii+1)
  802850:	e0bfe517 	ldw	r2,-108(fp)
  802854:	10800044 	addi	r2,r2,1
  802858:	e0bfe515 	stw	r2,-108(fp)
  80285c:	e0bfe517 	ldw	r2,-108(fp)
  802860:	10801910 	cmplti	r2,r2,100
  802864:	103f841e 	bne	r2,zero,802678 <MPU9250SelfTest+0x4f8>
    gSTAvg[1] += (alt_16)(((alt_16)rawData[2] << 8) | rawData[3]) ;
    gSTAvg[2] += (alt_16)(((alt_16)rawData[4] << 8) | rawData[5]) ;
  }

  // Get average of 200 values and store as average self-test readings
  for ( ii =0; ii < 3; ii = ii+1)
  802868:	e03fe515 	stw	zero,-108(fp)
  80286c:	00002506 	br	802904 <MPU9250SelfTest+0x784>
  {
    aSTAvg[ii] /= 100;
  802870:	e43fe517 	ldw	r16,-108(fp)
  802874:	e0bfe517 	ldw	r2,-108(fp)
  802878:	1085883a 	add	r2,r2,r2
  80287c:	1085883a 	add	r2,r2,r2
  802880:	e0ffe504 	addi	r3,fp,-108
  802884:	10c5883a 	add	r2,r2,r3
  802888:	10800b04 	addi	r2,r2,44
  80288c:	11000017 	ldw	r4,0(r2)
  802890:	01401904 	movi	r5,100
  802894:	08073580 	call	807358 <__divsi3>
  802898:	1007883a 	mov	r3,r2
  80289c:	8405883a 	add	r2,r16,r16
  8028a0:	1085883a 	add	r2,r2,r2
  8028a4:	e13fe504 	addi	r4,fp,-108
  8028a8:	1105883a 	add	r2,r2,r4
  8028ac:	10800b04 	addi	r2,r2,44
  8028b0:	10c00015 	stw	r3,0(r2)
    gSTAvg[ii] /= 100;
  8028b4:	e43fe517 	ldw	r16,-108(fp)
  8028b8:	e0bfe517 	ldw	r2,-108(fp)
  8028bc:	1085883a 	add	r2,r2,r2
  8028c0:	1085883a 	add	r2,r2,r2
  8028c4:	e0ffe504 	addi	r3,fp,-108
  8028c8:	10c5883a 	add	r2,r2,r3
  8028cc:	10800e04 	addi	r2,r2,56
  8028d0:	11000017 	ldw	r4,0(r2)
  8028d4:	01401904 	movi	r5,100
  8028d8:	08073580 	call	807358 <__divsi3>
  8028dc:	1007883a 	mov	r3,r2
  8028e0:	8405883a 	add	r2,r16,r16
  8028e4:	1085883a 	add	r2,r2,r2
  8028e8:	e13fe504 	addi	r4,fp,-108
  8028ec:	1105883a 	add	r2,r2,r4
  8028f0:	10800e04 	addi	r2,r2,56
  8028f4:	10c00015 	stw	r3,0(r2)
    gSTAvg[1] += (alt_16)(((alt_16)rawData[2] << 8) | rawData[3]) ;
    gSTAvg[2] += (alt_16)(((alt_16)rawData[4] << 8) | rawData[5]) ;
  }

  // Get average of 200 values and store as average self-test readings
  for ( ii =0; ii < 3; ii = ii+1)
  8028f8:	e0bfe517 	ldw	r2,-108(fp)
  8028fc:	10800044 	addi	r2,r2,1
  802900:	e0bfe515 	stw	r2,-108(fp)
  802904:	e0bfe517 	ldw	r2,-108(fp)
  802908:	108000d0 	cmplti	r2,r2,3
  80290c:	103fd81e 	bne	r2,zero,802870 <MPU9250SelfTest+0x6f0>
  {
    aSTAvg[ii] /= 100;
    gSTAvg[ii] /= 100;
  }

  I2C_Start(scl_base, sda_base);
  802910:	e13ffe17 	ldw	r4,-8(fp)
  802914:	e17fff17 	ldw	r5,-4(fp)
  802918:	08031680 	call	803168 <I2C_Start>

  // Configure the gyro and accelerometer for normal operation
  I2C_WriteToDeviceRegister(scl_base, sda_base, deviceAddress, ACCEL_CONFIG, 0x00, 1);
  80291c:	e0bfe643 	ldbu	r2,-103(fp)
  802920:	11803fcc 	andi	r6,r2,255
  802924:	3180201c 	xori	r6,r6,128
  802928:	31bfe004 	addi	r6,r6,-128
  80292c:	d8000015 	stw	zero,0(sp)
  802930:	00800044 	movi	r2,1
  802934:	d8800115 	stw	r2,4(sp)
  802938:	e13ffe17 	ldw	r4,-8(fp)
  80293c:	e17fff17 	ldw	r5,-4(fp)
  802940:	01c00704 	movi	r7,28
  802944:	08032d00 	call	8032d0 <I2C_WriteToDeviceRegister>
  I2C_Stop(scl_base, sda_base);
  802948:	e13ffe17 	ldw	r4,-8(fp)
  80294c:	e17fff17 	ldw	r5,-4(fp)
  802950:	08031a00 	call	8031a0 <I2C_Stop>
  I2C_Start(scl_base, sda_base);
  802954:	e13ffe17 	ldw	r4,-8(fp)
  802958:	e17fff17 	ldw	r5,-4(fp)
  80295c:	08031680 	call	803168 <I2C_Start>

  I2C_WriteToDeviceRegister(scl_base, sda_base, deviceAddress, GYRO_CONFIG, 0x10, 1);
  802960:	e0bfe643 	ldbu	r2,-103(fp)
  802964:	11803fcc 	andi	r6,r2,255
  802968:	3180201c 	xori	r6,r6,128
  80296c:	31bfe004 	addi	r6,r6,-128
  802970:	00800404 	movi	r2,16
  802974:	d8800015 	stw	r2,0(sp)
  802978:	00800044 	movi	r2,1
  80297c:	d8800115 	stw	r2,4(sp)
  802980:	e13ffe17 	ldw	r4,-8(fp)
  802984:	e17fff17 	ldw	r5,-4(fp)
  802988:	01c006c4 	movi	r7,27
  80298c:	08032d00 	call	8032d0 <I2C_WriteToDeviceRegister>
  OSTimeDlyHMSM(0, 0, 0, 25);;  // Delay a while to let the device stabilize
  802990:	0009883a 	mov	r4,zero
  802994:	000b883a 	mov	r5,zero
  802998:	000d883a 	mov	r6,zero
  80299c:	01c00644 	movi	r7,25
  8029a0:	0818b4c0 	call	818b4c <OSTimeDlyHMSM>

  // Retrieve accelerometer and gyro factory Self-Test Code from USR_Reg
  // X-axis accel self-test results
  I2C_Stop(scl_base, sda_base);
  8029a4:	e13ffe17 	ldw	r4,-8(fp)
  8029a8:	e17fff17 	ldw	r5,-4(fp)
  8029ac:	08031a00 	call	8031a0 <I2C_Stop>
  I2C_Start(scl_base, sda_base);
  8029b0:	e13ffe17 	ldw	r4,-8(fp)
  8029b4:	e17fff17 	ldw	r5,-4(fp)
  8029b8:	08031680 	call	803168 <I2C_Start>
  I2C_ReadFromDeviceRegister(scl_base, sda_base, deviceAddress, SELF_TEST_X_ACCEL, &selfTest[0] , 1, true);
  8029bc:	e0bfe643 	ldbu	r2,-103(fp)
  8029c0:	11803fcc 	andi	r6,r2,255
  8029c4:	3180201c 	xori	r6,r6,128
  8029c8:	31bfe004 	addi	r6,r6,-128
  8029cc:	e0bfe804 	addi	r2,fp,-96
  8029d0:	d8800015 	stw	r2,0(sp)
  8029d4:	00800044 	movi	r2,1
  8029d8:	d8800115 	stw	r2,4(sp)
  8029dc:	00800044 	movi	r2,1
  8029e0:	d8800215 	stw	r2,8(sp)
  8029e4:	e13ffe17 	ldw	r4,-8(fp)
  8029e8:	e17fff17 	ldw	r5,-4(fp)
  8029ec:	01c00344 	movi	r7,13
  8029f0:	08035b80 	call	8035b8 <I2C_ReadFromDeviceRegister>
  // Y-axis accel self-test results
  I2C_Stop(scl_base, sda_base);
  8029f4:	e13ffe17 	ldw	r4,-8(fp)
  8029f8:	e17fff17 	ldw	r5,-4(fp)
  8029fc:	08031a00 	call	8031a0 <I2C_Stop>
  I2C_Start(scl_base, sda_base);
  802a00:	e13ffe17 	ldw	r4,-8(fp)
  802a04:	e17fff17 	ldw	r5,-4(fp)
  802a08:	08031680 	call	803168 <I2C_Start>
  I2C_ReadFromDeviceRegister(scl_base, sda_base, deviceAddress, SELF_TEST_Y_ACCEL, &selfTest[1] , 1, true);
  802a0c:	e0bfe643 	ldbu	r2,-103(fp)
  802a10:	11803fcc 	andi	r6,r2,255
  802a14:	3180201c 	xori	r6,r6,128
  802a18:	31bfe004 	addi	r6,r6,-128
  802a1c:	e0bfe804 	addi	r2,fp,-96
  802a20:	10800044 	addi	r2,r2,1
  802a24:	d8800015 	stw	r2,0(sp)
  802a28:	00800044 	movi	r2,1
  802a2c:	d8800115 	stw	r2,4(sp)
  802a30:	00800044 	movi	r2,1
  802a34:	d8800215 	stw	r2,8(sp)
  802a38:	e13ffe17 	ldw	r4,-8(fp)
  802a3c:	e17fff17 	ldw	r5,-4(fp)
  802a40:	01c00384 	movi	r7,14
  802a44:	08035b80 	call	8035b8 <I2C_ReadFromDeviceRegister>
  // Z-axis accel self-test results
  I2C_Stop(scl_base, sda_base);
  802a48:	e13ffe17 	ldw	r4,-8(fp)
  802a4c:	e17fff17 	ldw	r5,-4(fp)
  802a50:	08031a00 	call	8031a0 <I2C_Stop>
  I2C_Start(scl_base, sda_base);
  802a54:	e13ffe17 	ldw	r4,-8(fp)
  802a58:	e17fff17 	ldw	r5,-4(fp)
  802a5c:	08031680 	call	803168 <I2C_Start>
  I2C_ReadFromDeviceRegister(scl_base, sda_base, deviceAddress, SELF_TEST_Z_ACCEL, &selfTest[2] , 1, true);
  802a60:	e0bfe643 	ldbu	r2,-103(fp)
  802a64:	11803fcc 	andi	r6,r2,255
  802a68:	3180201c 	xori	r6,r6,128
  802a6c:	31bfe004 	addi	r6,r6,-128
  802a70:	e0bfe804 	addi	r2,fp,-96
  802a74:	10800084 	addi	r2,r2,2
  802a78:	d8800015 	stw	r2,0(sp)
  802a7c:	00800044 	movi	r2,1
  802a80:	d8800115 	stw	r2,4(sp)
  802a84:	00800044 	movi	r2,1
  802a88:	d8800215 	stw	r2,8(sp)
  802a8c:	e13ffe17 	ldw	r4,-8(fp)
  802a90:	e17fff17 	ldw	r5,-4(fp)
  802a94:	01c003c4 	movi	r7,15
  802a98:	08035b80 	call	8035b8 <I2C_ReadFromDeviceRegister>
  // X-axis gyro self-test results
  I2C_Stop(scl_base, sda_base);
  802a9c:	e13ffe17 	ldw	r4,-8(fp)
  802aa0:	e17fff17 	ldw	r5,-4(fp)
  802aa4:	08031a00 	call	8031a0 <I2C_Stop>
  I2C_Start(scl_base, sda_base);
  802aa8:	e13ffe17 	ldw	r4,-8(fp)
  802aac:	e17fff17 	ldw	r5,-4(fp)
  802ab0:	08031680 	call	803168 <I2C_Start>
  I2C_ReadFromDeviceRegister(scl_base, sda_base, deviceAddress, SELF_TEST_X_GYRO, &selfTest[3] , 1, true);
  802ab4:	e0bfe643 	ldbu	r2,-103(fp)
  802ab8:	11803fcc 	andi	r6,r2,255
  802abc:	3180201c 	xori	r6,r6,128
  802ac0:	31bfe004 	addi	r6,r6,-128
  802ac4:	e0bfe804 	addi	r2,fp,-96
  802ac8:	108000c4 	addi	r2,r2,3
  802acc:	d8800015 	stw	r2,0(sp)
  802ad0:	00800044 	movi	r2,1
  802ad4:	d8800115 	stw	r2,4(sp)
  802ad8:	00800044 	movi	r2,1
  802adc:	d8800215 	stw	r2,8(sp)
  802ae0:	e13ffe17 	ldw	r4,-8(fp)
  802ae4:	e17fff17 	ldw	r5,-4(fp)
  802ae8:	000f883a 	mov	r7,zero
  802aec:	08035b80 	call	8035b8 <I2C_ReadFromDeviceRegister>
  // Y-axis gyro self-test results
  I2C_Stop(scl_base, sda_base);
  802af0:	e13ffe17 	ldw	r4,-8(fp)
  802af4:	e17fff17 	ldw	r5,-4(fp)
  802af8:	08031a00 	call	8031a0 <I2C_Stop>
  I2C_Start(scl_base, sda_base);
  802afc:	e13ffe17 	ldw	r4,-8(fp)
  802b00:	e17fff17 	ldw	r5,-4(fp)
  802b04:	08031680 	call	803168 <I2C_Start>
  I2C_ReadFromDeviceRegister(scl_base, sda_base, deviceAddress, SELF_TEST_Y_GYRO, &selfTest[4] , 1, true);
  802b08:	e0bfe643 	ldbu	r2,-103(fp)
  802b0c:	11803fcc 	andi	r6,r2,255
  802b10:	3180201c 	xori	r6,r6,128
  802b14:	31bfe004 	addi	r6,r6,-128
  802b18:	e0bfe804 	addi	r2,fp,-96
  802b1c:	10800104 	addi	r2,r2,4
  802b20:	d8800015 	stw	r2,0(sp)
  802b24:	00800044 	movi	r2,1
  802b28:	d8800115 	stw	r2,4(sp)
  802b2c:	00800044 	movi	r2,1
  802b30:	d8800215 	stw	r2,8(sp)
  802b34:	e13ffe17 	ldw	r4,-8(fp)
  802b38:	e17fff17 	ldw	r5,-4(fp)
  802b3c:	01c00044 	movi	r7,1
  802b40:	08035b80 	call	8035b8 <I2C_ReadFromDeviceRegister>
  // Z-axis gyro self-test results
  I2C_Stop(scl_base, sda_base);
  802b44:	e13ffe17 	ldw	r4,-8(fp)
  802b48:	e17fff17 	ldw	r5,-4(fp)
  802b4c:	08031a00 	call	8031a0 <I2C_Stop>
  I2C_Start(scl_base, sda_base);
  802b50:	e13ffe17 	ldw	r4,-8(fp)
  802b54:	e17fff17 	ldw	r5,-4(fp)
  802b58:	08031680 	call	803168 <I2C_Start>
  I2C_ReadFromDeviceRegister(scl_base, sda_base, deviceAddress, SELF_TEST_Z_GYRO, &selfTest[5] , 1, true);
  802b5c:	e0bfe643 	ldbu	r2,-103(fp)
  802b60:	11803fcc 	andi	r6,r2,255
  802b64:	3180201c 	xori	r6,r6,128
  802b68:	31bfe004 	addi	r6,r6,-128
  802b6c:	e0bfe804 	addi	r2,fp,-96
  802b70:	10800144 	addi	r2,r2,5
  802b74:	d8800015 	stw	r2,0(sp)
  802b78:	00800044 	movi	r2,1
  802b7c:	d8800115 	stw	r2,4(sp)
  802b80:	00800044 	movi	r2,1
  802b84:	d8800215 	stw	r2,8(sp)
  802b88:	e13ffe17 	ldw	r4,-8(fp)
  802b8c:	e17fff17 	ldw	r5,-4(fp)
  802b90:	01c00084 	movi	r7,2
  802b94:	08035b80 	call	8035b8 <I2C_ReadFromDeviceRegister>

  I2C_Stop(scl_base, sda_base);
  802b98:	e13ffe17 	ldw	r4,-8(fp)
  802b9c:	e17fff17 	ldw	r5,-4(fp)
  802ba0:	08031a00 	call	8031a0 <I2C_Stop>


  // Retrieve factory self-test value from self-test code reads
  // FT[Xa] factory trim calculation
  factoryTrim[0] = (float)(2620/1<<FS)*(pow(1.01 ,((float)selfTest[0] - 1.0) ));
  802ba4:	e0ffe603 	ldbu	r3,-104(fp)
  802ba8:	00828f04 	movi	r2,2620
  802bac:	10c8983a 	sll	r4,r2,r3
  802bb0:	08061c40 	call	8061c4 <__floatsisf>
  802bb4:	1009883a 	mov	r4,r2
  802bb8:	080625c0 	call	80625c <__extendsfdf2>
  802bbc:	1021883a 	mov	r16,r2
  802bc0:	1823883a 	mov	r17,r3
  802bc4:	e0bfe803 	ldbu	r2,-96(fp)
  802bc8:	11003fcc 	andi	r4,r2,255
  802bcc:	08062b00 	call	8062b0 <__floatunsisf>
  802bd0:	1009883a 	mov	r4,r2
  802bd4:	080625c0 	call	80625c <__extendsfdf2>
  802bd8:	100b883a 	mov	r5,r2
  802bdc:	180d883a 	mov	r6,r3
  802be0:	2809883a 	mov	r4,r5
  802be4:	300b883a 	mov	r5,r6
  802be8:	000d883a 	mov	r6,zero
  802bec:	01cffc34 	movhi	r7,16368
  802bf0:	08067800 	call	806780 <__subdf3>
  802bf4:	1009883a 	mov	r4,r2
  802bf8:	180b883a 	mov	r5,r3
  802bfc:	2005883a 	mov	r2,r4
  802c00:	2807883a 	mov	r3,r5
  802c04:	0130a3f4 	movhi	r4,49807
  802c08:	21170a44 	addi	r4,r4,23593
  802c0c:	014ffc34 	movhi	r5,16368
  802c10:	294a3d44 	addi	r5,r5,10485
  802c14:	100d883a 	mov	r6,r2
  802c18:	180f883a 	mov	r7,r3
  802c1c:	0803be80 	call	803be8 <pow>
  802c20:	1009883a 	mov	r4,r2
  802c24:	180b883a 	mov	r5,r3
  802c28:	2005883a 	mov	r2,r4
  802c2c:	2807883a 	mov	r3,r5
  802c30:	8009883a 	mov	r4,r16
  802c34:	880b883a 	mov	r5,r17
  802c38:	100d883a 	mov	r6,r2
  802c3c:	180f883a 	mov	r7,r3
  802c40:	08068740 	call	806874 <__muldf3>
  802c44:	1009883a 	mov	r4,r2
  802c48:	180b883a 	mov	r5,r3
  802c4c:	2005883a 	mov	r2,r4
  802c50:	2807883a 	mov	r3,r5
  802c54:	1009883a 	mov	r4,r2
  802c58:	180b883a 	mov	r5,r3
  802c5c:	08072680 	call	807268 <__truncdfsf2>
  802c60:	e0bff615 	stw	r2,-40(fp)
  // FT[Ya] factory trim calculation
  factoryTrim[1] = (float)(2620/1<<FS)*(pow(1.01 ,((float)selfTest[1] - 1.0) ));
  802c64:	e0ffe603 	ldbu	r3,-104(fp)
  802c68:	00828f04 	movi	r2,2620
  802c6c:	10c8983a 	sll	r4,r2,r3
  802c70:	08061c40 	call	8061c4 <__floatsisf>
  802c74:	1009883a 	mov	r4,r2
  802c78:	080625c0 	call	80625c <__extendsfdf2>
  802c7c:	1021883a 	mov	r16,r2
  802c80:	1823883a 	mov	r17,r3
  802c84:	e0bfe843 	ldbu	r2,-95(fp)
  802c88:	11003fcc 	andi	r4,r2,255
  802c8c:	08062b00 	call	8062b0 <__floatunsisf>
  802c90:	1009883a 	mov	r4,r2
  802c94:	080625c0 	call	80625c <__extendsfdf2>
  802c98:	100b883a 	mov	r5,r2
  802c9c:	180d883a 	mov	r6,r3
  802ca0:	2809883a 	mov	r4,r5
  802ca4:	300b883a 	mov	r5,r6
  802ca8:	000d883a 	mov	r6,zero
  802cac:	01cffc34 	movhi	r7,16368
  802cb0:	08067800 	call	806780 <__subdf3>
  802cb4:	1009883a 	mov	r4,r2
  802cb8:	180b883a 	mov	r5,r3
  802cbc:	2005883a 	mov	r2,r4
  802cc0:	2807883a 	mov	r3,r5
  802cc4:	0130a3f4 	movhi	r4,49807
  802cc8:	21170a44 	addi	r4,r4,23593
  802ccc:	014ffc34 	movhi	r5,16368
  802cd0:	294a3d44 	addi	r5,r5,10485
  802cd4:	100d883a 	mov	r6,r2
  802cd8:	180f883a 	mov	r7,r3
  802cdc:	0803be80 	call	803be8 <pow>
  802ce0:	100f883a 	mov	r7,r2
  802ce4:	1811883a 	mov	r8,r3
  802ce8:	8009883a 	mov	r4,r16
  802cec:	880b883a 	mov	r5,r17
  802cf0:	380d883a 	mov	r6,r7
  802cf4:	400f883a 	mov	r7,r8
  802cf8:	08068740 	call	806874 <__muldf3>
  802cfc:	1009883a 	mov	r4,r2
  802d00:	180b883a 	mov	r5,r3
  802d04:	2005883a 	mov	r2,r4
  802d08:	2807883a 	mov	r3,r5
  802d0c:	1009883a 	mov	r4,r2
  802d10:	180b883a 	mov	r5,r3
  802d14:	08072680 	call	807268 <__truncdfsf2>
  802d18:	e0bff715 	stw	r2,-36(fp)
  // FT[Za] factory trim calculation
  factoryTrim[2] = (float)(2620/1<<FS)*(pow(1.01 ,((float)selfTest[2] - 1.0) ));
  802d1c:	e0ffe603 	ldbu	r3,-104(fp)
  802d20:	00828f04 	movi	r2,2620
  802d24:	10c8983a 	sll	r4,r2,r3
  802d28:	08061c40 	call	8061c4 <__floatsisf>
  802d2c:	1009883a 	mov	r4,r2
  802d30:	080625c0 	call	80625c <__extendsfdf2>
  802d34:	1021883a 	mov	r16,r2
  802d38:	1823883a 	mov	r17,r3
  802d3c:	e0bfe883 	ldbu	r2,-94(fp)
  802d40:	11003fcc 	andi	r4,r2,255
  802d44:	08062b00 	call	8062b0 <__floatunsisf>
  802d48:	1009883a 	mov	r4,r2
  802d4c:	080625c0 	call	80625c <__extendsfdf2>
  802d50:	100b883a 	mov	r5,r2
  802d54:	180d883a 	mov	r6,r3
  802d58:	2809883a 	mov	r4,r5
  802d5c:	300b883a 	mov	r5,r6
  802d60:	000d883a 	mov	r6,zero
  802d64:	01cffc34 	movhi	r7,16368
  802d68:	08067800 	call	806780 <__subdf3>
  802d6c:	1009883a 	mov	r4,r2
  802d70:	180b883a 	mov	r5,r3
  802d74:	2005883a 	mov	r2,r4
  802d78:	2807883a 	mov	r3,r5
  802d7c:	0130a3f4 	movhi	r4,49807
  802d80:	21170a44 	addi	r4,r4,23593
  802d84:	014ffc34 	movhi	r5,16368
  802d88:	294a3d44 	addi	r5,r5,10485
  802d8c:	100d883a 	mov	r6,r2
  802d90:	180f883a 	mov	r7,r3
  802d94:	0803be80 	call	803be8 <pow>
  802d98:	100f883a 	mov	r7,r2
  802d9c:	1811883a 	mov	r8,r3
  802da0:	8009883a 	mov	r4,r16
  802da4:	880b883a 	mov	r5,r17
  802da8:	380d883a 	mov	r6,r7
  802dac:	400f883a 	mov	r7,r8
  802db0:	08068740 	call	806874 <__muldf3>
  802db4:	1009883a 	mov	r4,r2
  802db8:	180b883a 	mov	r5,r3
  802dbc:	2005883a 	mov	r2,r4
  802dc0:	2807883a 	mov	r3,r5
  802dc4:	1009883a 	mov	r4,r2
  802dc8:	180b883a 	mov	r5,r3
  802dcc:	08072680 	call	807268 <__truncdfsf2>
  802dd0:	e0bff815 	stw	r2,-32(fp)
  // FT[Xg] factory trim calculation
  factoryTrim[3] = (float)(2620/1<<FS)*(pow(1.01 ,((float)selfTest[3] - 1.0) ));
  802dd4:	e0ffe603 	ldbu	r3,-104(fp)
  802dd8:	00828f04 	movi	r2,2620
  802ddc:	10c8983a 	sll	r4,r2,r3
  802de0:	08061c40 	call	8061c4 <__floatsisf>
  802de4:	1009883a 	mov	r4,r2
  802de8:	080625c0 	call	80625c <__extendsfdf2>
  802dec:	1021883a 	mov	r16,r2
  802df0:	1823883a 	mov	r17,r3
  802df4:	e0bfe8c3 	ldbu	r2,-93(fp)
  802df8:	11003fcc 	andi	r4,r2,255
  802dfc:	08062b00 	call	8062b0 <__floatunsisf>
  802e00:	1009883a 	mov	r4,r2
  802e04:	080625c0 	call	80625c <__extendsfdf2>
  802e08:	100b883a 	mov	r5,r2
  802e0c:	180d883a 	mov	r6,r3
  802e10:	2809883a 	mov	r4,r5
  802e14:	300b883a 	mov	r5,r6
  802e18:	000d883a 	mov	r6,zero
  802e1c:	01cffc34 	movhi	r7,16368
  802e20:	08067800 	call	806780 <__subdf3>
  802e24:	1009883a 	mov	r4,r2
  802e28:	180b883a 	mov	r5,r3
  802e2c:	2005883a 	mov	r2,r4
  802e30:	2807883a 	mov	r3,r5
  802e34:	0130a3f4 	movhi	r4,49807
  802e38:	21170a44 	addi	r4,r4,23593
  802e3c:	014ffc34 	movhi	r5,16368
  802e40:	294a3d44 	addi	r5,r5,10485
  802e44:	100d883a 	mov	r6,r2
  802e48:	180f883a 	mov	r7,r3
  802e4c:	0803be80 	call	803be8 <pow>
  802e50:	100f883a 	mov	r7,r2
  802e54:	1811883a 	mov	r8,r3
  802e58:	8009883a 	mov	r4,r16
  802e5c:	880b883a 	mov	r5,r17
  802e60:	380d883a 	mov	r6,r7
  802e64:	400f883a 	mov	r7,r8
  802e68:	08068740 	call	806874 <__muldf3>
  802e6c:	1009883a 	mov	r4,r2
  802e70:	180b883a 	mov	r5,r3
  802e74:	2005883a 	mov	r2,r4
  802e78:	2807883a 	mov	r3,r5
  802e7c:	1009883a 	mov	r4,r2
  802e80:	180b883a 	mov	r5,r3
  802e84:	08072680 	call	807268 <__truncdfsf2>
  802e88:	e0bff915 	stw	r2,-28(fp)
  // FT[Yg] factory trim calculation
  factoryTrim[4] = (float)(2620/1<<FS)*(pow(1.01 ,((float)selfTest[4] - 1.0) ));
  802e8c:	e0ffe603 	ldbu	r3,-104(fp)
  802e90:	00828f04 	movi	r2,2620
  802e94:	10c8983a 	sll	r4,r2,r3
  802e98:	08061c40 	call	8061c4 <__floatsisf>
  802e9c:	1009883a 	mov	r4,r2
  802ea0:	080625c0 	call	80625c <__extendsfdf2>
  802ea4:	1021883a 	mov	r16,r2
  802ea8:	1823883a 	mov	r17,r3
  802eac:	e0bfe903 	ldbu	r2,-92(fp)
  802eb0:	11003fcc 	andi	r4,r2,255
  802eb4:	08062b00 	call	8062b0 <__floatunsisf>
  802eb8:	1009883a 	mov	r4,r2
  802ebc:	080625c0 	call	80625c <__extendsfdf2>
  802ec0:	100b883a 	mov	r5,r2
  802ec4:	180d883a 	mov	r6,r3
  802ec8:	2809883a 	mov	r4,r5
  802ecc:	300b883a 	mov	r5,r6
  802ed0:	000d883a 	mov	r6,zero
  802ed4:	01cffc34 	movhi	r7,16368
  802ed8:	08067800 	call	806780 <__subdf3>
  802edc:	1009883a 	mov	r4,r2
  802ee0:	180b883a 	mov	r5,r3
  802ee4:	2005883a 	mov	r2,r4
  802ee8:	2807883a 	mov	r3,r5
  802eec:	0130a3f4 	movhi	r4,49807
  802ef0:	21170a44 	addi	r4,r4,23593
  802ef4:	014ffc34 	movhi	r5,16368
  802ef8:	294a3d44 	addi	r5,r5,10485
  802efc:	100d883a 	mov	r6,r2
  802f00:	180f883a 	mov	r7,r3
  802f04:	0803be80 	call	803be8 <pow>
  802f08:	100f883a 	mov	r7,r2
  802f0c:	1811883a 	mov	r8,r3
  802f10:	8009883a 	mov	r4,r16
  802f14:	880b883a 	mov	r5,r17
  802f18:	380d883a 	mov	r6,r7
  802f1c:	400f883a 	mov	r7,r8
  802f20:	08068740 	call	806874 <__muldf3>
  802f24:	1009883a 	mov	r4,r2
  802f28:	180b883a 	mov	r5,r3
  802f2c:	2005883a 	mov	r2,r4
  802f30:	2807883a 	mov	r3,r5
  802f34:	1009883a 	mov	r4,r2
  802f38:	180b883a 	mov	r5,r3
  802f3c:	08072680 	call	807268 <__truncdfsf2>
  802f40:	e0bffa15 	stw	r2,-24(fp)
  // FT[Zg] factory trim calculation
  factoryTrim[5] = (float)(2620/1<<FS)*(pow(1.01 ,((float)selfTest[5] - 1.0) ));
  802f44:	e0ffe603 	ldbu	r3,-104(fp)
  802f48:	00828f04 	movi	r2,2620
  802f4c:	10c8983a 	sll	r4,r2,r3
  802f50:	08061c40 	call	8061c4 <__floatsisf>
  802f54:	1009883a 	mov	r4,r2
  802f58:	080625c0 	call	80625c <__extendsfdf2>
  802f5c:	1021883a 	mov	r16,r2
  802f60:	1823883a 	mov	r17,r3
  802f64:	e0bfe943 	ldbu	r2,-91(fp)
  802f68:	11003fcc 	andi	r4,r2,255
  802f6c:	08062b00 	call	8062b0 <__floatunsisf>
  802f70:	1009883a 	mov	r4,r2
  802f74:	080625c0 	call	80625c <__extendsfdf2>
  802f78:	100b883a 	mov	r5,r2
  802f7c:	180d883a 	mov	r6,r3
  802f80:	2809883a 	mov	r4,r5
  802f84:	300b883a 	mov	r5,r6
  802f88:	000d883a 	mov	r6,zero
  802f8c:	01cffc34 	movhi	r7,16368
  802f90:	08067800 	call	806780 <__subdf3>
  802f94:	1009883a 	mov	r4,r2
  802f98:	180b883a 	mov	r5,r3
  802f9c:	2005883a 	mov	r2,r4
  802fa0:	2807883a 	mov	r3,r5
  802fa4:	0130a3f4 	movhi	r4,49807
  802fa8:	21170a44 	addi	r4,r4,23593
  802fac:	014ffc34 	movhi	r5,16368
  802fb0:	294a3d44 	addi	r5,r5,10485
  802fb4:	100d883a 	mov	r6,r2
  802fb8:	180f883a 	mov	r7,r3
  802fbc:	0803be80 	call	803be8 <pow>
  802fc0:	100f883a 	mov	r7,r2
  802fc4:	1811883a 	mov	r8,r3
  802fc8:	8009883a 	mov	r4,r16
  802fcc:	880b883a 	mov	r5,r17
  802fd0:	380d883a 	mov	r6,r7
  802fd4:	400f883a 	mov	r7,r8
  802fd8:	08068740 	call	806874 <__muldf3>
  802fdc:	1009883a 	mov	r4,r2
  802fe0:	180b883a 	mov	r5,r3
  802fe4:	2005883a 	mov	r2,r4
  802fe8:	2807883a 	mov	r3,r5
  802fec:	1009883a 	mov	r4,r2
  802ff0:	180b883a 	mov	r5,r3
  802ff4:	08072680 	call	807268 <__truncdfsf2>
  802ff8:	e0bffb15 	stw	r2,-20(fp)

  // Report results as a ratio of (STR - FT)/FT; the change from Factory Trim
  // of the Self-Test Response
  // To get percent, must multiply by 100
  for ( ii =0; ii < 3; ii = ii+1)
  802ffc:	e03fe515 	stw	zero,-108(fp)
  803000:	00004f06 	br	803140 <MPU9250SelfTest+0xfc0>
  {
	//printf("aSTAvg = %f\n",(float)aSTAvg[ii]);
	//printf("aAvg = %f\n",(float)aAvg[ii]);
	//printf("factoryTrim = %f\n",(float)factoryTrim[ii]);
    // Report percent differences
    destination[ii] = 100.0 * (((float)(aSTAvg[ii] - aAvg[ii])) / factoryTrim[ii]);
  803004:	e0bfe517 	ldw	r2,-108(fp)
  803008:	1085883a 	add	r2,r2,r2
  80300c:	1085883a 	add	r2,r2,r2
  803010:	1007883a 	mov	r3,r2
  803014:	e0bffd17 	ldw	r2,-12(fp)
  803018:	18a1883a 	add	r16,r3,r2
  80301c:	e0bfe517 	ldw	r2,-108(fp)
  803020:	1085883a 	add	r2,r2,r2
  803024:	1085883a 	add	r2,r2,r2
  803028:	e0ffe504 	addi	r3,fp,-108
  80302c:	10c5883a 	add	r2,r2,r3
  803030:	10800b04 	addi	r2,r2,44
  803034:	10c00017 	ldw	r3,0(r2)
  803038:	e0bfe517 	ldw	r2,-108(fp)
  80303c:	1085883a 	add	r2,r2,r2
  803040:	1085883a 	add	r2,r2,r2
  803044:	e13fe504 	addi	r4,fp,-108
  803048:	1105883a 	add	r2,r2,r4
  80304c:	10800804 	addi	r2,r2,32
  803050:	10800017 	ldw	r2,0(r2)
  803054:	1889c83a 	sub	r4,r3,r2
  803058:	08061c40 	call	8061c4 <__floatsisf>
  80305c:	1007883a 	mov	r3,r2
  803060:	e0bfe517 	ldw	r2,-108(fp)
  803064:	1085883a 	add	r2,r2,r2
  803068:	1085883a 	add	r2,r2,r2
  80306c:	e13fe504 	addi	r4,fp,-108
  803070:	1105883a 	add	r2,r2,r4
  803074:	10801104 	addi	r2,r2,68
  803078:	10800017 	ldw	r2,0(r2)
  80307c:	1809883a 	mov	r4,r3
  803080:	100b883a 	mov	r5,r2
  803084:	0805f600 	call	805f60 <__divsf3>
  803088:	1009883a 	mov	r4,r2
  80308c:	0150b234 	movhi	r5,17096
  803090:	0805d800 	call	805d80 <__mulsf3>
  803094:	80800015 	stw	r2,0(r16)
    // Report percent differences
    destination[ii+3] = 100.0*(((float)(gSTAvg[ii] - gAvg[ii]))/factoryTrim[ii+3]);
  803098:	e0bfe517 	ldw	r2,-108(fp)
  80309c:	1085883a 	add	r2,r2,r2
  8030a0:	1085883a 	add	r2,r2,r2
  8030a4:	1007883a 	mov	r3,r2
  8030a8:	e0bffd17 	ldw	r2,-12(fp)
  8030ac:	1885883a 	add	r2,r3,r2
  8030b0:	14000304 	addi	r16,r2,12
  8030b4:	e0bfe517 	ldw	r2,-108(fp)
  8030b8:	1085883a 	add	r2,r2,r2
  8030bc:	1085883a 	add	r2,r2,r2
  8030c0:	e0ffe504 	addi	r3,fp,-108
  8030c4:	10c5883a 	add	r2,r2,r3
  8030c8:	10800e04 	addi	r2,r2,56
  8030cc:	10c00017 	ldw	r3,0(r2)
  8030d0:	e0bfe517 	ldw	r2,-108(fp)
  8030d4:	1085883a 	add	r2,r2,r2
  8030d8:	1085883a 	add	r2,r2,r2
  8030dc:	e13fe504 	addi	r4,fp,-108
  8030e0:	1105883a 	add	r2,r2,r4
  8030e4:	10800504 	addi	r2,r2,20
  8030e8:	10800017 	ldw	r2,0(r2)
  8030ec:	1889c83a 	sub	r4,r3,r2
  8030f0:	08061c40 	call	8061c4 <__floatsisf>
  8030f4:	1007883a 	mov	r3,r2
  8030f8:	e0bfe517 	ldw	r2,-108(fp)
  8030fc:	108000c4 	addi	r2,r2,3
  803100:	1085883a 	add	r2,r2,r2
  803104:	1085883a 	add	r2,r2,r2
  803108:	e13fe504 	addi	r4,fp,-108
  80310c:	1105883a 	add	r2,r2,r4
  803110:	10801104 	addi	r2,r2,68
  803114:	10800017 	ldw	r2,0(r2)
  803118:	1809883a 	mov	r4,r3
  80311c:	100b883a 	mov	r5,r2
  803120:	0805f600 	call	805f60 <__divsf3>
  803124:	1009883a 	mov	r4,r2
  803128:	0150b234 	movhi	r5,17096
  80312c:	0805d800 	call	805d80 <__mulsf3>
  803130:	80800015 	stw	r2,0(r16)
  factoryTrim[5] = (float)(2620/1<<FS)*(pow(1.01 ,((float)selfTest[5] - 1.0) ));

  // Report results as a ratio of (STR - FT)/FT; the change from Factory Trim
  // of the Self-Test Response
  // To get percent, must multiply by 100
  for ( ii =0; ii < 3; ii = ii+1)
  803134:	e0bfe517 	ldw	r2,-108(fp)
  803138:	10800044 	addi	r2,r2,1
  80313c:	e0bfe515 	stw	r2,-108(fp)
  803140:	e0bfe517 	ldw	r2,-108(fp)
  803144:	108000d0 	cmplti	r2,r2,3
  803148:	103fae1e 	bne	r2,zero,803004 <MPU9250SelfTest+0xe84>
    // printf("destination[%d] = %f\n",ii+3, destination[ii+3]);
    //printf("test1 difference: %f\n",aSTAvg[ii] - aAvg[ii]);
    //printf("test q: %f\n",416 / 6479.571777);

  }
}
  80314c:	e037883a 	mov	sp,fp
  803150:	dfc00317 	ldw	ra,12(sp)
  803154:	df000217 	ldw	fp,8(sp)
  803158:	dc400117 	ldw	r17,4(sp)
  80315c:	dc000017 	ldw	r16,0(sp)
  803160:	dec00404 	addi	sp,sp,16
  803164:	f800283a 	ret

00803168 <I2C_Start>:
bool i2c_write(alt_u32 clk_base, alt_u32 data_base, alt_u8 Data);
void i2c_read(alt_u32 clk_base, alt_u32 data_base, alt_u8 *pData, bool bAck);

/* Write an i2c start condition */
void I2C_Start(alt_u32 clk_base, alt_u32 data_base)
{
  803168:	defffc04 	addi	sp,sp,-16
  80316c:	dfc00315 	stw	ra,12(sp)
  803170:	df000215 	stw	fp,8(sp)
  803174:	df000204 	addi	fp,sp,8
  803178:	e13ffe15 	stw	r4,-8(fp)
  80317c:	e17fff15 	stw	r5,-4(fp)
	i2c_start(clk_base, data_base);
  803180:	e13ffe17 	ldw	r4,-8(fp)
  803184:	e17fff17 	ldw	r5,-4(fp)
  803188:	08038380 	call	803838 <i2c_start>
}
  80318c:	e037883a 	mov	sp,fp
  803190:	dfc00117 	ldw	ra,4(sp)
  803194:	df000017 	ldw	fp,0(sp)
  803198:	dec00204 	addi	sp,sp,8
  80319c:	f800283a 	ret

008031a0 <I2C_Stop>:

/* Write an i2c stop condition */
void I2C_Stop(alt_u32 clk_base, alt_u32 data_base)
{
  8031a0:	defffc04 	addi	sp,sp,-16
  8031a4:	dfc00315 	stw	ra,12(sp)
  8031a8:	df000215 	stw	fp,8(sp)
  8031ac:	df000204 	addi	fp,sp,8
  8031b0:	e13ffe15 	stw	r4,-8(fp)
  8031b4:	e17fff15 	stw	r5,-4(fp)
	i2c_stop(clk_base, data_base);
  8031b8:	e13ffe17 	ldw	r4,-8(fp)
  8031bc:	e17fff17 	ldw	r5,-4(fp)
  8031c0:	08038c00 	call	8038c0 <i2c_stop>
}
  8031c4:	e037883a 	mov	sp,fp
  8031c8:	dfc00117 	ldw	ra,4(sp)
  8031cc:	df000017 	ldw	fp,0(sp)
  8031d0:	dec00204 	addi	sp,sp,8
  8031d4:	f800283a 	ret

008031d8 <I2C_WriteToDevice>:

/* Write len bytes of data to specified device */
bool I2C_WriteToDevice(alt_u32 clk_base, alt_u32 data_base, alt_8 deviceAddr, alt_u8 *pData, alt_u16 len)
{
  8031d8:	defff604 	addi	sp,sp,-40
  8031dc:	dfc00915 	stw	ra,36(sp)
  8031e0:	df000815 	stw	fp,32(sp)
  8031e4:	df000804 	addi	fp,sp,32
  8031e8:	e13ffa15 	stw	r4,-24(fp)
  8031ec:	e17ffb15 	stw	r5,-20(fp)
  8031f0:	e1fffd15 	stw	r7,-12(fp)
  8031f4:	e0800217 	ldw	r2,8(fp)
  8031f8:	e1bffc05 	stb	r6,-16(fp)
  8031fc:	e0bffe0d 	sth	r2,-8(fp)
	int i;
	bool bSuccess = true;
  803200:	00800044 	movi	r2,1
  803204:	e0bff805 	stb	r2,-32(fp)

	if (!i2c_selectAddress(clk_base, data_base, deviceAddr))
  803208:	e1bffc07 	ldb	r6,-16(fp)
  80320c:	e13ffa17 	ldw	r4,-24(fp)
  803210:	e17ffb17 	ldw	r5,-20(fp)
  803214:	08037c00 	call	8037c0 <i2c_selectAddress>
  803218:	1080005c 	xori	r2,r2,1
  80321c:	10803fcc 	andi	r2,r2,255
  803220:	1005003a 	cmpeq	r2,r2,zero
  803224:	1000021e 	bne	r2,zero,803230 <I2C_WriteToDevice+0x58>
		return false;
  803228:	e03fff15 	stw	zero,-4(fp)
  80322c:	00002206 	br	8032b8 <I2C_WriteToDevice+0xe0>

	for (i = 0; i < len && bSuccess; i++)
  803230:	e03ff915 	stw	zero,-28(fp)
  803234:	00000d06 	br	80326c <I2C_WriteToDevice+0x94>
	{
		bSuccess = i2c_write(clk_base, data_base, *pData);
  803238:	e0bffd17 	ldw	r2,-12(fp)
  80323c:	10800003 	ldbu	r2,0(r2)
  803240:	11803fcc 	andi	r6,r2,255
  803244:	e13ffa17 	ldw	r4,-24(fp)
  803248:	e17ffb17 	ldw	r5,-20(fp)
  80324c:	08039380 	call	803938 <i2c_write>
  803250:	e0bff805 	stb	r2,-32(fp)
		pData++;
  803254:	e0bffd17 	ldw	r2,-12(fp)
  803258:	10800044 	addi	r2,r2,1
  80325c:	e0bffd15 	stw	r2,-12(fp)
	bool bSuccess = true;

	if (!i2c_selectAddress(clk_base, data_base, deviceAddr))
		return false;

	for (i = 0; i < len && bSuccess; i++)
  803260:	e0bff917 	ldw	r2,-28(fp)
  803264:	10800044 	addi	r2,r2,1
  803268:	e0bff915 	stw	r2,-28(fp)
  80326c:	e0fffe0b 	ldhu	r3,-8(fp)
  803270:	e0bff917 	ldw	r2,-28(fp)
  803274:	10c0030e 	bge	r2,r3,803284 <I2C_WriteToDevice+0xac>
  803278:	e0bff803 	ldbu	r2,-32(fp)
  80327c:	1004c03a 	cmpne	r2,r2,zero
  803280:	103fed1e 	bne	r2,zero,803238 <I2C_WriteToDevice+0x60>
	{
		bSuccess = i2c_write(clk_base, data_base, *pData);
		pData++;
	}

	if (!bSuccess)
  803284:	e0bff803 	ldbu	r2,-32(fp)
  803288:	1080005c 	xori	r2,r2,1
  80328c:	10803fcc 	andi	r2,r2,255
  803290:	1005003a 	cmpeq	r2,r2,zero
  803294:	1000061e 	bne	r2,zero,8032b0 <I2C_WriteToDevice+0xd8>
	{
		printf("I2C Error: Data write to device 0x%02x failed\n", deviceAddr);
  803298:	e17ffc07 	ldb	r5,-16(fp)
  80329c:	010020b4 	movhi	r4,130
  8032a0:	212fd504 	addi	r4,r4,-16556
  8032a4:	0807d600 	call	807d60 <printf>
		return false;
  8032a8:	e03fff15 	stw	zero,-4(fp)
  8032ac:	00000206 	br	8032b8 <I2C_WriteToDevice+0xe0>
	}
    
    return true;
  8032b0:	00800044 	movi	r2,1
  8032b4:	e0bfff15 	stw	r2,-4(fp)
  8032b8:	e0bfff17 	ldw	r2,-4(fp)
}
  8032bc:	e037883a 	mov	sp,fp
  8032c0:	dfc00117 	ldw	ra,4(sp)
  8032c4:	df000017 	ldw	fp,0(sp)
  8032c8:	dec00204 	addi	sp,sp,8
  8032cc:	f800283a 	ret

008032d0 <I2C_WriteToDeviceRegister>:

/* Write len bytes of data to specified control register of specified device */
bool I2C_WriteToDeviceRegister(alt_u32 clk_base, alt_u32 data_base, alt_8 deviceAddr,
							   alt_u8 controlAddr, alt_u8 *pData, alt_u16 len)
{
  8032d0:	defff604 	addi	sp,sp,-40
  8032d4:	dfc00915 	stw	ra,36(sp)
  8032d8:	df000815 	stw	fp,32(sp)
  8032dc:	df000804 	addi	fp,sp,32
  8032e0:	e13ffa15 	stw	r4,-24(fp)
  8032e4:	e17ffb15 	stw	r5,-20(fp)
  8032e8:	e0800317 	ldw	r2,12(fp)
  8032ec:	e1bffc05 	stb	r6,-16(fp)
  8032f0:	e1fffd05 	stb	r7,-12(fp)
  8032f4:	e0bffe0d 	sth	r2,-8(fp)
	int i;
	bool bSuccess = true;
  8032f8:	00800044 	movi	r2,1
  8032fc:	e0bff805 	stb	r2,-32(fp)

	if (!i2c_selectAddress(clk_base, data_base, deviceAddr))
  803300:	e1bffc07 	ldb	r6,-16(fp)
  803304:	e13ffa17 	ldw	r4,-24(fp)
  803308:	e17ffb17 	ldw	r5,-20(fp)
  80330c:	08037c00 	call	8037c0 <i2c_selectAddress>
  803310:	1080005c 	xori	r2,r2,1
  803314:	10803fcc 	andi	r2,r2,255
  803318:	1005003a 	cmpeq	r2,r2,zero
  80331c:	1000021e 	bne	r2,zero,803328 <I2C_WriteToDeviceRegister+0x58>
		return false;
  803320:	e03fff15 	stw	zero,-4(fp)
  803324:	00003006 	br	8033e8 <I2C_WriteToDeviceRegister+0x118>

	if (!i2c_selectAddress(clk_base, data_base, controlAddr))
  803328:	e0bffd03 	ldbu	r2,-12(fp)
  80332c:	11803fcc 	andi	r6,r2,255
  803330:	3180201c 	xori	r6,r6,128
  803334:	31bfe004 	addi	r6,r6,-128
  803338:	e13ffa17 	ldw	r4,-24(fp)
  80333c:	e17ffb17 	ldw	r5,-20(fp)
  803340:	08037c00 	call	8037c0 <i2c_selectAddress>
  803344:	1080005c 	xori	r2,r2,1
  803348:	10803fcc 	andi	r2,r2,255
  80334c:	1005003a 	cmpeq	r2,r2,zero
  803350:	1000021e 	bne	r2,zero,80335c <I2C_WriteToDeviceRegister+0x8c>
		return false;
  803354:	e03fff15 	stw	zero,-4(fp)
  803358:	00002306 	br	8033e8 <I2C_WriteToDeviceRegister+0x118>

	for (i = 0; i < len && bSuccess; i++)
  80335c:	e03ff915 	stw	zero,-28(fp)
  803360:	00000d06 	br	803398 <I2C_WriteToDeviceRegister+0xc8>
	{
		bSuccess = i2c_write(clk_base, data_base, *pData);
  803364:	e0800217 	ldw	r2,8(fp)
  803368:	10800003 	ldbu	r2,0(r2)
  80336c:	11803fcc 	andi	r6,r2,255
  803370:	e13ffa17 	ldw	r4,-24(fp)
  803374:	e17ffb17 	ldw	r5,-20(fp)
  803378:	08039380 	call	803938 <i2c_write>
  80337c:	e0bff805 	stb	r2,-32(fp)
		pData++;
  803380:	e0800217 	ldw	r2,8(fp)
  803384:	10800044 	addi	r2,r2,1
  803388:	e0800215 	stw	r2,8(fp)
		return false;

	if (!i2c_selectAddress(clk_base, data_base, controlAddr))
		return false;

	for (i = 0; i < len && bSuccess; i++)
  80338c:	e0bff917 	ldw	r2,-28(fp)
  803390:	10800044 	addi	r2,r2,1
  803394:	e0bff915 	stw	r2,-28(fp)
  803398:	e0fffe0b 	ldhu	r3,-8(fp)
  80339c:	e0bff917 	ldw	r2,-28(fp)
  8033a0:	10c0030e 	bge	r2,r3,8033b0 <I2C_WriteToDeviceRegister+0xe0>
  8033a4:	e0bff803 	ldbu	r2,-32(fp)
  8033a8:	1004c03a 	cmpne	r2,r2,zero
  8033ac:	103fed1e 	bne	r2,zero,803364 <I2C_WriteToDeviceRegister+0x94>
	{
		bSuccess = i2c_write(clk_base, data_base, *pData);
		pData++;
	}

	if (!bSuccess)
  8033b0:	e0bff803 	ldbu	r2,-32(fp)
  8033b4:	1080005c 	xori	r2,r2,1
  8033b8:	10803fcc 	andi	r2,r2,255
  8033bc:	1005003a 	cmpeq	r2,r2,zero
  8033c0:	1000071e 	bne	r2,zero,8033e0 <I2C_WriteToDeviceRegister+0x110>
	{
		printf("I2C Error: Data write to register 0x%02x on device 0x%02x failed\n", deviceAddr, controlAddr);
  8033c4:	e17ffc07 	ldb	r5,-16(fp)
  8033c8:	e1bffd03 	ldbu	r6,-12(fp)
  8033cc:	010020b4 	movhi	r4,130
  8033d0:	212fe104 	addi	r4,r4,-16508
  8033d4:	0807d600 	call	807d60 <printf>
		return false;
  8033d8:	e03fff15 	stw	zero,-4(fp)
  8033dc:	00000206 	br	8033e8 <I2C_WriteToDeviceRegister+0x118>
	}

    return true;
  8033e0:	00800044 	movi	r2,1
  8033e4:	e0bfff15 	stw	r2,-4(fp)
  8033e8:	e0bfff17 	ldw	r2,-4(fp)
}
  8033ec:	e037883a 	mov	sp,fp
  8033f0:	dfc00117 	ldw	ra,4(sp)
  8033f4:	df000017 	ldw	fp,0(sp)
  8033f8:	dec00204 	addi	sp,sp,8
  8033fc:	f800283a 	ret

00803400 <I2C_WriteMore>:

/* Write len bytes of data to last address */
bool I2C_WriteMore(alt_u32 clk_base, alt_u32 data_base, alt_u8 *pData, alt_u16 len)
{
  803400:	defff704 	addi	sp,sp,-36
  803404:	dfc00815 	stw	ra,32(sp)
  803408:	df000715 	stw	fp,28(sp)
  80340c:	df000704 	addi	fp,sp,28
  803410:	e13ffb15 	stw	r4,-20(fp)
  803414:	e17ffc15 	stw	r5,-16(fp)
  803418:	e1bffd15 	stw	r6,-12(fp)
  80341c:	e1fffe0d 	sth	r7,-8(fp)
	int i;
	bool bSuccess = true;
  803420:	00800044 	movi	r2,1
  803424:	e0bff905 	stb	r2,-28(fp)

	for (i = 0; i < len && bSuccess; i++)
  803428:	e03ffa15 	stw	zero,-24(fp)
  80342c:	00000d06 	br	803464 <I2C_WriteMore+0x64>
	{
		bSuccess = i2c_write(clk_base, data_base, *pData);
  803430:	e0bffd17 	ldw	r2,-12(fp)
  803434:	10800003 	ldbu	r2,0(r2)
  803438:	11803fcc 	andi	r6,r2,255
  80343c:	e13ffb17 	ldw	r4,-20(fp)
  803440:	e17ffc17 	ldw	r5,-16(fp)
  803444:	08039380 	call	803938 <i2c_write>
  803448:	e0bff905 	stb	r2,-28(fp)
		pData++;
  80344c:	e0bffd17 	ldw	r2,-12(fp)
  803450:	10800044 	addi	r2,r2,1
  803454:	e0bffd15 	stw	r2,-12(fp)
bool I2C_WriteMore(alt_u32 clk_base, alt_u32 data_base, alt_u8 *pData, alt_u16 len)
{
	int i;
	bool bSuccess = true;

	for (i = 0; i < len && bSuccess; i++)
  803458:	e0bffa17 	ldw	r2,-24(fp)
  80345c:	10800044 	addi	r2,r2,1
  803460:	e0bffa15 	stw	r2,-24(fp)
  803464:	e0fffe0b 	ldhu	r3,-8(fp)
  803468:	e0bffa17 	ldw	r2,-24(fp)
  80346c:	10c0030e 	bge	r2,r3,80347c <I2C_WriteMore+0x7c>
  803470:	e0bff903 	ldbu	r2,-28(fp)
  803474:	1004c03a 	cmpne	r2,r2,zero
  803478:	103fed1e 	bne	r2,zero,803430 <I2C_WriteMore+0x30>
	{
		bSuccess = i2c_write(clk_base, data_base, *pData);
		pData++;
	}

	if (!bSuccess)
  80347c:	e0bff903 	ldbu	r2,-28(fp)
  803480:	1080005c 	xori	r2,r2,1
  803484:	10803fcc 	andi	r2,r2,255
  803488:	1005003a 	cmpeq	r2,r2,zero
  80348c:	1000051e 	bne	r2,zero,8034a4 <I2C_WriteMore+0xa4>
	{
		printf("I2C Error: Additional data write failed\n");
  803490:	010020b4 	movhi	r4,130
  803494:	212ff204 	addi	r4,r4,-16440
  803498:	0807e780 	call	807e78 <puts>
		return false;
  80349c:	e03fff15 	stw	zero,-4(fp)
  8034a0:	00000206 	br	8034ac <I2C_WriteMore+0xac>
	}

    return true;
  8034a4:	00800044 	movi	r2,1
  8034a8:	e0bfff15 	stw	r2,-4(fp)
  8034ac:	e0bfff17 	ldw	r2,-4(fp)
}
  8034b0:	e037883a 	mov	sp,fp
  8034b4:	dfc00117 	ldw	ra,4(sp)
  8034b8:	df000017 	ldw	fp,0(sp)
  8034bc:	dec00204 	addi	sp,sp,8
  8034c0:	f800283a 	ret

008034c4 <I2C_ReadFromDevice>:

/* Read len bytes of data from specified device */
bool I2C_ReadFromDevice(alt_u32 clk_base, alt_u32 data_base, alt_8 deviceAddr, alt_u8 *pBuf, alt_u16 len, bool endRead)
{
  8034c4:	defff604 	addi	sp,sp,-40
  8034c8:	dfc00915 	stw	ra,36(sp)
  8034cc:	df000815 	stw	fp,32(sp)
  8034d0:	df000804 	addi	fp,sp,32
  8034d4:	e13ff915 	stw	r4,-28(fp)
  8034d8:	e17ffa15 	stw	r5,-24(fp)
  8034dc:	e1fffc15 	stw	r7,-16(fp)
  8034e0:	e0800217 	ldw	r2,8(fp)
  8034e4:	e0c00317 	ldw	r3,12(fp)
  8034e8:	e1bffb05 	stb	r6,-20(fp)
  8034ec:	e0bffd0d 	sth	r2,-12(fp)
  8034f0:	e0fffe05 	stb	r3,-8(fp)
    int i;
    deviceAddr |= 1; // Read address
  8034f4:	e0bffb03 	ldbu	r2,-20(fp)
  8034f8:	10800054 	ori	r2,r2,1
  8034fc:	e0bffb05 	stb	r2,-20(fp)

	if (!i2c_selectAddress(clk_base, data_base, deviceAddr))
  803500:	e1bffb07 	ldb	r6,-20(fp)
  803504:	e13ff917 	ldw	r4,-28(fp)
  803508:	e17ffa17 	ldw	r5,-24(fp)
  80350c:	08037c00 	call	8037c0 <i2c_selectAddress>
  803510:	1080005c 	xori	r2,r2,1
  803514:	10803fcc 	andi	r2,r2,255
  803518:	1005003a 	cmpeq	r2,r2,zero
  80351c:	1000021e 	bne	r2,zero,803528 <I2C_ReadFromDevice+0x64>
		return false;
  803520:	e03fff15 	stw	zero,-4(fp)
  803524:	00001e06 	br	8035a0 <I2C_ReadFromDevice+0xdc>
    
	for (i = 0; i < len; i++)
  803528:	e03ff815 	stw	zero,-32(fp)
  80352c:	00001706 	br	80358c <I2C_ReadFromDevice+0xc8>
	{
		if (i == (len - 1))
  803530:	e0bffd0b 	ldhu	r2,-12(fp)
  803534:	10ffffc4 	addi	r3,r2,-1
  803538:	e0bff817 	ldw	r2,-32(fp)
  80353c:	1880081e 	bne	r3,r2,803560 <I2C_ReadFromDevice+0x9c>
		{
			i2c_read(clk_base, data_base, pBuf, !endRead);  // last byte
  803540:	e0bffe03 	ldbu	r2,-8(fp)
  803544:	1080005c 	xori	r2,r2,1
  803548:	11c03fcc 	andi	r7,r2,255
  80354c:	e13ff917 	ldw	r4,-28(fp)
  803550:	e17ffa17 	ldw	r5,-24(fp)
  803554:	e1bffc17 	ldw	r6,-16(fp)
  803558:	0803a7c0 	call	803a7c <i2c_read>
  80355c:	00000806 	br	803580 <I2C_ReadFromDevice+0xbc>
		}
		else
		{
			i2c_read(clk_base, data_base, pBuf, true);  // read
  803560:	e13ff917 	ldw	r4,-28(fp)
  803564:	e17ffa17 	ldw	r5,-24(fp)
  803568:	e1bffc17 	ldw	r6,-16(fp)
  80356c:	01c00044 	movi	r7,1
  803570:	0803a7c0 	call	803a7c <i2c_read>
			pBuf++;
  803574:	e0bffc17 	ldw	r2,-16(fp)
  803578:	10800044 	addi	r2,r2,1
  80357c:	e0bffc15 	stw	r2,-16(fp)
    deviceAddr |= 1; // Read address

	if (!i2c_selectAddress(clk_base, data_base, deviceAddr))
		return false;
    
	for (i = 0; i < len; i++)
  803580:	e0bff817 	ldw	r2,-32(fp)
  803584:	10800044 	addi	r2,r2,1
  803588:	e0bff815 	stw	r2,-32(fp)
  80358c:	e0fffd0b 	ldhu	r3,-12(fp)
  803590:	e0bff817 	ldw	r2,-32(fp)
  803594:	10ffe616 	blt	r2,r3,803530 <I2C_ReadFromDevice+0x6c>
			i2c_read(clk_base, data_base, pBuf, true);  // read
			pBuf++;
		}
	}

	return true;
  803598:	00800044 	movi	r2,1
  80359c:	e0bfff15 	stw	r2,-4(fp)
  8035a0:	e0bfff17 	ldw	r2,-4(fp)
}
  8035a4:	e037883a 	mov	sp,fp
  8035a8:	dfc00117 	ldw	ra,4(sp)
  8035ac:	df000017 	ldw	fp,0(sp)
  8035b0:	dec00204 	addi	sp,sp,8
  8035b4:	f800283a 	ret

008035b8 <I2C_ReadFromDeviceRegister>:

/* Read len bytes of data from specified control register of specified device */
bool I2C_ReadFromDeviceRegister(alt_u32 clk_base, alt_u32 data_base, alt_8 deviceAddr,
								alt_u8 controlAddr, alt_u8 *pBuf, alt_u16 len, bool endRead)
{
  8035b8:	defff604 	addi	sp,sp,-40
  8035bc:	dfc00915 	stw	ra,36(sp)
  8035c0:	df000815 	stw	fp,32(sp)
  8035c4:	df000804 	addi	fp,sp,32
  8035c8:	e13ff915 	stw	r4,-28(fp)
  8035cc:	e17ffa15 	stw	r5,-24(fp)
  8035d0:	e0800317 	ldw	r2,12(fp)
  8035d4:	e0c00417 	ldw	r3,16(fp)
  8035d8:	e1bffb05 	stb	r6,-20(fp)
  8035dc:	e1fffc05 	stb	r7,-16(fp)
  8035e0:	e0bffd0d 	sth	r2,-12(fp)
  8035e4:	e0fffe05 	stb	r3,-8(fp)
    int i;

	if (!i2c_selectAddress(clk_base, data_base, deviceAddr))
  8035e8:	e1bffb07 	ldb	r6,-20(fp)
  8035ec:	e13ff917 	ldw	r4,-28(fp)
  8035f0:	e17ffa17 	ldw	r5,-24(fp)
  8035f4:	08037c00 	call	8037c0 <i2c_selectAddress>
  8035f8:	1080005c 	xori	r2,r2,1
  8035fc:	10803fcc 	andi	r2,r2,255
  803600:	1005003a 	cmpeq	r2,r2,zero
  803604:	1000021e 	bne	r2,zero,803610 <I2C_ReadFromDeviceRegister+0x58>
		return false;
  803608:	e03fff15 	stw	zero,-4(fp)
  80360c:	00003b06 	br	8036fc <I2C_ReadFromDeviceRegister+0x144>

	if (!i2c_selectAddress(clk_base, data_base, controlAddr))
  803610:	e0bffc03 	ldbu	r2,-16(fp)
  803614:	11803fcc 	andi	r6,r2,255
  803618:	3180201c 	xori	r6,r6,128
  80361c:	31bfe004 	addi	r6,r6,-128
  803620:	e13ff917 	ldw	r4,-28(fp)
  803624:	e17ffa17 	ldw	r5,-24(fp)
  803628:	08037c00 	call	8037c0 <i2c_selectAddress>
  80362c:	1080005c 	xori	r2,r2,1
  803630:	10803fcc 	andi	r2,r2,255
  803634:	1005003a 	cmpeq	r2,r2,zero
  803638:	1000021e 	bne	r2,zero,803644 <I2C_ReadFromDeviceRegister+0x8c>
		return false;
  80363c:	e03fff15 	stw	zero,-4(fp)
  803640:	00002e06 	br	8036fc <I2C_ReadFromDeviceRegister+0x144>

    i2c_start(clk_base, data_base);  // restart
  803644:	e13ff917 	ldw	r4,-28(fp)
  803648:	e17ffa17 	ldw	r5,-24(fp)
  80364c:	08038380 	call	803838 <i2c_start>
    deviceAddr |= 1; // Read address
  803650:	e0bffb03 	ldbu	r2,-20(fp)
  803654:	10800054 	ori	r2,r2,1
  803658:	e0bffb05 	stb	r2,-20(fp)

	if (!i2c_selectAddress(clk_base, data_base, deviceAddr))
  80365c:	e1bffb07 	ldb	r6,-20(fp)
  803660:	e13ff917 	ldw	r4,-28(fp)
  803664:	e17ffa17 	ldw	r5,-24(fp)
  803668:	08037c00 	call	8037c0 <i2c_selectAddress>
  80366c:	1080005c 	xori	r2,r2,1
  803670:	10803fcc 	andi	r2,r2,255
  803674:	1005003a 	cmpeq	r2,r2,zero
  803678:	1000021e 	bne	r2,zero,803684 <I2C_ReadFromDeviceRegister+0xcc>
		return false;
  80367c:	e03fff15 	stw	zero,-4(fp)
  803680:	00001e06 	br	8036fc <I2C_ReadFromDeviceRegister+0x144>

	for (i = 0; i < len; i++)
  803684:	e03ff815 	stw	zero,-32(fp)
  803688:	00001706 	br	8036e8 <I2C_ReadFromDeviceRegister+0x130>
	{
		if (i == (len - 1))
  80368c:	e0bffd0b 	ldhu	r2,-12(fp)
  803690:	10ffffc4 	addi	r3,r2,-1
  803694:	e0bff817 	ldw	r2,-32(fp)
  803698:	1880081e 	bne	r3,r2,8036bc <I2C_ReadFromDeviceRegister+0x104>
		{
			i2c_read(clk_base, data_base, pBuf, !endRead);  // last byte
  80369c:	e0bffe03 	ldbu	r2,-8(fp)
  8036a0:	1080005c 	xori	r2,r2,1
  8036a4:	11c03fcc 	andi	r7,r2,255
  8036a8:	e13ff917 	ldw	r4,-28(fp)
  8036ac:	e17ffa17 	ldw	r5,-24(fp)
  8036b0:	e1800217 	ldw	r6,8(fp)
  8036b4:	0803a7c0 	call	803a7c <i2c_read>
  8036b8:	00000806 	br	8036dc <I2C_ReadFromDeviceRegister+0x124>
		}
		else
		{
			i2c_read(clk_base, data_base, pBuf, true);  // read
  8036bc:	e13ff917 	ldw	r4,-28(fp)
  8036c0:	e17ffa17 	ldw	r5,-24(fp)
  8036c4:	e1800217 	ldw	r6,8(fp)
  8036c8:	01c00044 	movi	r7,1
  8036cc:	0803a7c0 	call	803a7c <i2c_read>
			pBuf++;
  8036d0:	e0800217 	ldw	r2,8(fp)
  8036d4:	10800044 	addi	r2,r2,1
  8036d8:	e0800215 	stw	r2,8(fp)
    deviceAddr |= 1; // Read address

	if (!i2c_selectAddress(clk_base, data_base, deviceAddr))
		return false;

	for (i = 0; i < len; i++)
  8036dc:	e0bff817 	ldw	r2,-32(fp)
  8036e0:	10800044 	addi	r2,r2,1
  8036e4:	e0bff815 	stw	r2,-32(fp)
  8036e8:	e0fffd0b 	ldhu	r3,-12(fp)
  8036ec:	e0bff817 	ldw	r2,-32(fp)
  8036f0:	10ffe616 	blt	r2,r3,80368c <I2C_ReadFromDeviceRegister+0xd4>
			i2c_read(clk_base, data_base, pBuf, true);  // read
			pBuf++;
		}
	}

	return true;
  8036f4:	00800044 	movi	r2,1
  8036f8:	e0bfff15 	stw	r2,-4(fp)
  8036fc:	e0bfff17 	ldw	r2,-4(fp)
}
  803700:	e037883a 	mov	sp,fp
  803704:	dfc00117 	ldw	ra,4(sp)
  803708:	df000017 	ldw	fp,0(sp)
  80370c:	dec00204 	addi	sp,sp,8
  803710:	f800283a 	ret

00803714 <I2C_ReadMore>:

/* Read len bytes of data from last address */
void I2C_ReadMore(alt_u32 clk_base, alt_u32 data_base, alt_u8 *pBuf, alt_u16 len, bool endRead)
{
  803714:	defff804 	addi	sp,sp,-32
  803718:	dfc00715 	stw	ra,28(sp)
  80371c:	df000615 	stw	fp,24(sp)
  803720:	df000604 	addi	fp,sp,24
  803724:	e13ffb15 	stw	r4,-20(fp)
  803728:	e17ffc15 	stw	r5,-16(fp)
  80372c:	e1bffd15 	stw	r6,-12(fp)
  803730:	e0800217 	ldw	r2,8(fp)
  803734:	e1fffe0d 	sth	r7,-8(fp)
  803738:	e0bfff05 	stb	r2,-4(fp)
    int i;

	for (i = 0; i < len; i++)
  80373c:	e03ffa15 	stw	zero,-24(fp)
  803740:	00001706 	br	8037a0 <I2C_ReadMore+0x8c>
	{
		if (i == (len - 1))
  803744:	e0bffe0b 	ldhu	r2,-8(fp)
  803748:	10ffffc4 	addi	r3,r2,-1
  80374c:	e0bffa17 	ldw	r2,-24(fp)
  803750:	1880081e 	bne	r3,r2,803774 <I2C_ReadMore+0x60>
		{
			i2c_read(clk_base, data_base, pBuf, !endRead);  // last byte
  803754:	e0bfff03 	ldbu	r2,-4(fp)
  803758:	1080005c 	xori	r2,r2,1
  80375c:	11c03fcc 	andi	r7,r2,255
  803760:	e13ffb17 	ldw	r4,-20(fp)
  803764:	e17ffc17 	ldw	r5,-16(fp)
  803768:	e1bffd17 	ldw	r6,-12(fp)
  80376c:	0803a7c0 	call	803a7c <i2c_read>
  803770:	00000806 	br	803794 <I2C_ReadMore+0x80>
		}
		else
		{
			i2c_read(clk_base, data_base, pBuf, true);  // read
  803774:	e13ffb17 	ldw	r4,-20(fp)
  803778:	e17ffc17 	ldw	r5,-16(fp)
  80377c:	e1bffd17 	ldw	r6,-12(fp)
  803780:	01c00044 	movi	r7,1
  803784:	0803a7c0 	call	803a7c <i2c_read>
			pBuf++;
  803788:	e0bffd17 	ldw	r2,-12(fp)
  80378c:	10800044 	addi	r2,r2,1
  803790:	e0bffd15 	stw	r2,-12(fp)
/* Read len bytes of data from last address */
void I2C_ReadMore(alt_u32 clk_base, alt_u32 data_base, alt_u8 *pBuf, alt_u16 len, bool endRead)
{
    int i;

	for (i = 0; i < len; i++)
  803794:	e0bffa17 	ldw	r2,-24(fp)
  803798:	10800044 	addi	r2,r2,1
  80379c:	e0bffa15 	stw	r2,-24(fp)
  8037a0:	e0fffe0b 	ldhu	r3,-8(fp)
  8037a4:	e0bffa17 	ldw	r2,-24(fp)
  8037a8:	10ffe616 	blt	r2,r3,803744 <I2C_ReadMore+0x30>
		{
			i2c_read(clk_base, data_base, pBuf, true);  // read
			pBuf++;
		}
	}
}
  8037ac:	e037883a 	mov	sp,fp
  8037b0:	dfc00117 	ldw	ra,4(sp)
  8037b4:	df000017 	ldw	fp,0(sp)
  8037b8:	dec00204 	addi	sp,sp,8
  8037bc:	f800283a 	ret

008037c0 <i2c_selectAddress>:
///////////// Internal functions (i2c_XXX) body //////////////////////////////////////////////
/////////////////////////////////////////////////////////////////////////////////////////////

// write the given address on the i2c bus
bool i2c_selectAddress(alt_u32 clk_base, alt_u32 data_base, alt_8 address)
{
  8037c0:	defffa04 	addi	sp,sp,-24
  8037c4:	dfc00515 	stw	ra,20(sp)
  8037c8:	df000415 	stw	fp,16(sp)
  8037cc:	df000404 	addi	fp,sp,16
  8037d0:	e13ffc15 	stw	r4,-16(fp)
  8037d4:	e17ffd15 	stw	r5,-12(fp)
  8037d8:	e1bffe05 	stb	r6,-8(fp)
    if (!i2c_write(clk_base, data_base, address))
  8037dc:	e0bffe03 	ldbu	r2,-8(fp)
  8037e0:	11803fcc 	andi	r6,r2,255
  8037e4:	e13ffc17 	ldw	r4,-16(fp)
  8037e8:	e17ffd17 	ldw	r5,-12(fp)
  8037ec:	08039380 	call	803938 <i2c_write>
  8037f0:	1080005c 	xori	r2,r2,1
  8037f4:	10803fcc 	andi	r2,r2,255
  8037f8:	1005003a 	cmpeq	r2,r2,zero
  8037fc:	1000061e 	bne	r2,zero,803818 <i2c_selectAddress+0x58>
    {
		printf("I2C Error: Address write to device 0x%02x failed\n", address);
  803800:	e17ffe07 	ldb	r5,-8(fp)
  803804:	010020b4 	movhi	r4,130
  803808:	212ffc04 	addi	r4,r4,-16400
  80380c:	0807d600 	call	807d60 <printf>
    	return false;
  803810:	e03fff15 	stw	zero,-4(fp)
  803814:	00000206 	br	803820 <i2c_selectAddress+0x60>
    }

    return true;
  803818:	00800044 	movi	r2,1
  80381c:	e0bfff15 	stw	r2,-4(fp)
  803820:	e0bfff17 	ldw	r2,-4(fp)
}
  803824:	e037883a 	mov	sp,fp
  803828:	dfc00117 	ldw	ra,4(sp)
  80382c:	df000017 	ldw	fp,0(sp)
  803830:	dec00204 	addi	sp,sp,8
  803834:	f800283a 	ret

00803838 <i2c_start>:

//SDA 1->0 while SCL=1
void i2c_start(alt_u32 clk_base, alt_u32 data_base)
{
  803838:	defffc04 	addi	sp,sp,-16
  80383c:	dfc00315 	stw	ra,12(sp)
  803840:	df000215 	stw	fp,8(sp)
  803844:	df000204 	addi	fp,sp,8
  803848:	e13ffe15 	stw	r4,-8(fp)
  80384c:	e17fff15 	stw	r5,-4(fp)
    // make sure it is in normal state
    SDA_DIR_OUT(data_base);  // data output enabled
  803850:	e0bfff17 	ldw	r2,-4(fp)
  803854:	10800104 	addi	r2,r2,4
  803858:	1007883a 	mov	r3,r2
  80385c:	00800044 	movi	r2,1
  803860:	18800035 	stwio	r2,0(r3)
    
    // start condition
    SDA_HIGH(data_base); // data high
  803864:	e0bfff17 	ldw	r2,-4(fp)
  803868:	1007883a 	mov	r3,r2
  80386c:	00800044 	movi	r2,1
  803870:	18800035 	stwio	r2,0(r3)
    SCL_HIGH(clk_base);
  803874:	e0bffe17 	ldw	r2,-8(fp)
  803878:	1007883a 	mov	r3,r2
  80387c:	00800044 	movi	r2,1
  803880:	18800035 	stwio	r2,0(r3)
    SCL_DELAY;
  803884:	01000044 	movi	r4,1
  803888:	08107540 	call	810754 <usleep>
    SDA_LOW(data_base); // data low
  80388c:	e0bfff17 	ldw	r2,-4(fp)
  803890:	10000035 	stwio	zero,0(r2)
    SCL_DELAY; 
  803894:	01000044 	movi	r4,1
  803898:	08107540 	call	810754 <usleep>
    SCL_LOW(clk_base); // clock low
  80389c:	e0bffe17 	ldw	r2,-8(fp)
  8038a0:	10000035 	stwio	zero,0(r2)
    SCL_DELAY;
  8038a4:	01000044 	movi	r4,1
  8038a8:	08107540 	call	810754 <usleep>
}
  8038ac:	e037883a 	mov	sp,fp
  8038b0:	dfc00117 	ldw	ra,4(sp)
  8038b4:	df000017 	ldw	fp,0(sp)
  8038b8:	dec00204 	addi	sp,sp,8
  8038bc:	f800283a 	ret

008038c0 <i2c_stop>:

// SDA 0->1 while SCL=1
void i2c_stop(alt_u32 clk_base, alt_u32 data_base)
{
  8038c0:	defffc04 	addi	sp,sp,-16
  8038c4:	dfc00315 	stw	ra,12(sp)
  8038c8:	df000215 	stw	fp,8(sp)
  8038cc:	df000204 	addi	fp,sp,8
  8038d0:	e13ffe15 	stw	r4,-8(fp)
  8038d4:	e17fff15 	stw	r5,-4(fp)
    // assume SCL = 0
    
    SDA_DIR_OUT(data_base);  // data output enabled
  8038d8:	e0bfff17 	ldw	r2,-4(fp)
  8038dc:	10800104 	addi	r2,r2,4
  8038e0:	1007883a 	mov	r3,r2
  8038e4:	00800044 	movi	r2,1
  8038e8:	18800035 	stwio	r2,0(r3)
    SDA_LOW(data_base); // Data Low
  8038ec:	e0bfff17 	ldw	r2,-4(fp)
  8038f0:	10000035 	stwio	zero,0(r2)
    //SCL_DELAY; 
    SCL_HIGH(clk_base);  // clock high
  8038f4:	e0bffe17 	ldw	r2,-8(fp)
  8038f8:	1007883a 	mov	r3,r2
  8038fc:	00800044 	movi	r2,1
  803900:	18800035 	stwio	r2,0(r3)
    SCL_DELAY; // clock high long delay
  803904:	01000044 	movi	r4,1
  803908:	08107540 	call	810754 <usleep>
    SDA_HIGH(data_base); // data high
  80390c:	e0bfff17 	ldw	r2,-4(fp)
  803910:	1007883a 	mov	r3,r2
  803914:	00800044 	movi	r2,1
  803918:	18800035 	stwio	r2,0(r3)
    SCL_DELAY; // data high delay
  80391c:	01000044 	movi	r4,1
  803920:	08107540 	call	810754 <usleep>
}
  803924:	e037883a 	mov	sp,fp
  803928:	dfc00117 	ldw	ra,4(sp)
  80392c:	df000017 	ldw	fp,0(sp)
  803930:	dec00204 	addi	sp,sp,8
  803934:	f800283a 	ret

00803938 <i2c_write>:

// return true if device response ack
bool i2c_write(alt_u32 clk_base, alt_u32 data_base, alt_u8 Data)
{
  803938:	defff904 	addi	sp,sp,-28
  80393c:	dfc00615 	stw	ra,24(sp)
  803940:	df000515 	stw	fp,20(sp)
  803944:	df000504 	addi	fp,sp,20
  803948:	e13ffd15 	stw	r4,-12(fp)
  80394c:	e17ffe15 	stw	r5,-8(fp)
  803950:	e1bfff05 	stb	r6,-4(fp)
    alt_u8 Mask = 0x80;
  803954:	00bfe004 	movi	r2,-128
  803958:	e0bffc45 	stb	r2,-15(fp)
    bool bAck;
    int i;
    
    // assume, SCL = 0
    
    SDA_DIR_OUT(data_base);  // data write mode
  80395c:	e0bffe17 	ldw	r2,-8(fp)
  803960:	10800104 	addi	r2,r2,4
  803964:	1007883a 	mov	r3,r2
  803968:	00800044 	movi	r2,1
  80396c:	18800035 	stwio	r2,0(r3)
    
    for (i = 0; i < 8; i++)
  803970:	e03ffb15 	stw	zero,-20(fp)
  803974:	00002306 	br	803a04 <i2c_write+0xcc>
    {
        SCL_LOW(clk_base);  // new, make sure data change at clk low
  803978:	e0bffd17 	ldw	r2,-12(fp)
  80397c:	10000035 	stwio	zero,0(r2)
        // output data on bus
        if (Data & Mask)
  803980:	e0ffff03 	ldbu	r3,-4(fp)
  803984:	e0bffc43 	ldbu	r2,-15(fp)
  803988:	1884703a 	and	r2,r3,r2
  80398c:	10803fcc 	andi	r2,r2,255
  803990:	1005003a 	cmpeq	r2,r2,zero
  803994:	1000051e 	bne	r2,zero,8039ac <i2c_write+0x74>
        { // there is a delay in this command
            SDA_HIGH(data_base);
  803998:	e0bffe17 	ldw	r2,-8(fp)
  80399c:	1007883a 	mov	r3,r2
  8039a0:	00800044 	movi	r2,1
  8039a4:	18800035 	stwio	r2,0(r3)
  8039a8:	00000206 	br	8039b4 <i2c_write+0x7c>
        }
        else
        {
            SDA_LOW(data_base);
  8039ac:	e0bffe17 	ldw	r2,-8(fp)
  8039b0:	10000035 	stwio	zero,0(r2)
        }
        Mask >>= 1; // there is a delay in this command
  8039b4:	e0bffc43 	ldbu	r2,-15(fp)
  8039b8:	1004d07a 	srli	r2,r2,1
  8039bc:	e0bffc45 	stb	r2,-15(fp)
        // clock high
        SCL_HIGH(clk_base);
  8039c0:	e0bffd17 	ldw	r2,-12(fp)
  8039c4:	1007883a 	mov	r3,r2
  8039c8:	00800044 	movi	r2,1
  8039cc:	18800035 	stwio	r2,0(r3)
        while (SCL_READ(clk_base) == 0); // clock stretching
  8039d0:	e0bffd17 	ldw	r2,-12(fp)
  8039d4:	10800037 	ldwio	r2,0(r2)
  8039d8:	1005003a 	cmpeq	r2,r2,zero
  8039dc:	103ffc1e 	bne	r2,zero,8039d0 <i2c_write+0x98>
        SCL_DELAY;
  8039e0:	01000044 	movi	r4,1
  8039e4:	08107540 	call	810754 <usleep>
        SCL_LOW(clk_base);
  8039e8:	e0bffd17 	ldw	r2,-12(fp)
  8039ec:	10000035 	stwio	zero,0(r2)
        SCL_DELAY;
  8039f0:	01000044 	movi	r4,1
  8039f4:	08107540 	call	810754 <usleep>
    
    // assume, SCL = 0
    
    SDA_DIR_OUT(data_base);  // data write mode
    
    for (i = 0; i < 8; i++)
  8039f8:	e0bffb17 	ldw	r2,-20(fp)
  8039fc:	10800044 	addi	r2,r2,1
  803a00:	e0bffb15 	stw	r2,-20(fp)
  803a04:	e0bffb17 	ldw	r2,-20(fp)
  803a08:	10800210 	cmplti	r2,r2,8
  803a0c:	103fda1e 	bne	r2,zero,803978 <i2c_write+0x40>
        SCL_LOW(clk_base);
        SCL_DELAY;
    }
    
    //===== get ack
    SDA_DIR_IN(data_base);  // data read mode
  803a10:	e0bffe17 	ldw	r2,-8(fp)
  803a14:	10800104 	addi	r2,r2,4
  803a18:	10000035 	stwio	zero,0(r2)
    //SCL_DELAY;
    // clock high
    SCL_HIGH(clk_base);  // clock high
  803a1c:	e0bffd17 	ldw	r2,-12(fp)
  803a20:	1007883a 	mov	r3,r2
  803a24:	00800044 	movi	r2,1
  803a28:	18800035 	stwio	r2,0(r3)
    while (SCL_READ(clk_base) == 0); // clock stretching
  803a2c:	e0bffd17 	ldw	r2,-12(fp)
  803a30:	10800037 	ldwio	r2,0(r2)
  803a34:	1005003a 	cmpeq	r2,r2,zero
  803a38:	103ffc1e 	bne	r2,zero,803a2c <i2c_write+0xf4>
    SCL_DELAY;  // clock high delay
  803a3c:	01000044 	movi	r4,1
  803a40:	08107540 	call	810754 <usleep>
    bAck = SDA_READ(data_base)?false:true;  // get ack
  803a44:	e0bffe17 	ldw	r2,-8(fp)
  803a48:	10800037 	ldwio	r2,0(r2)
  803a4c:	1005003a 	cmpeq	r2,r2,zero
  803a50:	e0bffc05 	stb	r2,-16(fp)
    //SCL_DELAY;
    //SDA_DIR_OUT;
    SCL_LOW(clk_base); // clock low         
  803a54:	e0bffd17 	ldw	r2,-12(fp)
  803a58:	10000035 	stwio	zero,0(r2)
    SCL_DELAY; // clock low delay
  803a5c:	01000044 	movi	r4,1
  803a60:	08107540 	call	810754 <usleep>
    return bAck;
  803a64:	e0bffc03 	ldbu	r2,-16(fp)
}    
  803a68:	e037883a 	mov	sp,fp
  803a6c:	dfc00117 	ldw	ra,4(sp)
  803a70:	df000017 	ldw	fp,0(sp)
  803a74:	dec00204 	addi	sp,sp,8
  803a78:	f800283a 	ret

00803a7c <i2c_read>:

// return true if device response ack
void i2c_read(alt_u32 clk_base, alt_u32 data_base, alt_u8 *pData, bool bAck)
{
  803a7c:	defff804 	addi	sp,sp,-32
  803a80:	dfc00715 	stw	ra,28(sp)
  803a84:	df000615 	stw	fp,24(sp)
  803a88:	df000604 	addi	fp,sp,24
  803a8c:	e13ffc15 	stw	r4,-16(fp)
  803a90:	e17ffd15 	stw	r5,-12(fp)
  803a94:	e1bffe15 	stw	r6,-8(fp)
  803a98:	e1ffff05 	stb	r7,-4(fp)
    alt_u8 Data = 0;
  803a9c:	e03ffb05 	stb	zero,-20(fp)
    int i;
    
    // assume SCL = low
    
    SDA_DIR_IN(data_base);  // set data read mode
  803aa0:	e0bffd17 	ldw	r2,-12(fp)
  803aa4:	10800104 	addi	r2,r2,4
  803aa8:	10000035 	stwio	zero,0(r2)
    SCL_LOW(clk_base); // clock low
  803aac:	e0bffc17 	ldw	r2,-16(fp)
  803ab0:	10000035 	stwio	zero,0(r2)
    SCL_DELAY; // clock low delay
  803ab4:	01000044 	movi	r4,1
  803ab8:	08107540 	call	810754 <usleep>

    for (i = 0; i < 8; i++)
  803abc:	e03ffa15 	stw	zero,-24(fp)
  803ac0:	00001b06 	br	803b30 <i2c_read+0xb4>
    {
        Data <<= 1;
  803ac4:	e0bffb03 	ldbu	r2,-20(fp)
  803ac8:	1085883a 	add	r2,r2,r2
  803acc:	e0bffb05 	stb	r2,-20(fp)
        SCL_HIGH(clk_base);  // clock high
  803ad0:	e0bffc17 	ldw	r2,-16(fp)
  803ad4:	1007883a 	mov	r3,r2
  803ad8:	00800044 	movi	r2,1
  803adc:	18800035 	stwio	r2,0(r3)
        while (SCL_READ(clk_base) == 0); // clock stretching
  803ae0:	e0bffc17 	ldw	r2,-16(fp)
  803ae4:	10800037 	ldwio	r2,0(r2)
  803ae8:	1005003a 	cmpeq	r2,r2,zero
  803aec:	103ffc1e 	bne	r2,zero,803ae0 <i2c_read+0x64>
        SCL_DELAY;
  803af0:	01000044 	movi	r4,1
  803af4:	08107540 	call	810754 <usleep>
        if (SDA_READ(data_base))  // read data   
  803af8:	e0bffd17 	ldw	r2,-12(fp)
  803afc:	10800037 	ldwio	r2,0(r2)
  803b00:	1005003a 	cmpeq	r2,r2,zero
  803b04:	1000031e 	bne	r2,zero,803b14 <i2c_read+0x98>
        {
            Data |= 0x01;
  803b08:	e0bffb03 	ldbu	r2,-20(fp)
  803b0c:	10800054 	ori	r2,r2,1
  803b10:	e0bffb05 	stb	r2,-20(fp)
        else
        {
        	//printf("0");
        }

        SCL_LOW(clk_base);  // clock low
  803b14:	e0bffc17 	ldw	r2,-16(fp)
  803b18:	10000035 	stwio	zero,0(r2)
        SCL_DELAY;
  803b1c:	01000044 	movi	r4,1
  803b20:	08107540 	call	810754 <usleep>
    
    SDA_DIR_IN(data_base);  // set data read mode
    SCL_LOW(clk_base); // clock low
    SCL_DELAY; // clock low delay

    for (i = 0; i < 8; i++)
  803b24:	e0bffa17 	ldw	r2,-24(fp)
  803b28:	10800044 	addi	r2,r2,1
  803b2c:	e0bffa15 	stw	r2,-24(fp)
  803b30:	e0bffa17 	ldw	r2,-24(fp)
  803b34:	10800210 	cmplti	r2,r2,8
  803b38:	103fe21e 	bne	r2,zero,803ac4 <i2c_read+0x48>
        SCL_LOW(clk_base);  // clock low
        SCL_DELAY;
    }
    //printf("\n");
    // send ACK
    SCL_LOW(clk_base);  // new, make sure data change at clk low
  803b3c:	e0bffc17 	ldw	r2,-16(fp)
  803b40:	10000035 	stwio	zero,0(r2)
    SDA_DIR_OUT(data_base);  // set data write mode
  803b44:	e0bffd17 	ldw	r2,-12(fp)
  803b48:	10800104 	addi	r2,r2,4
  803b4c:	1007883a 	mov	r3,r2
  803b50:	00800044 	movi	r2,1
  803b54:	18800035 	stwio	r2,0(r3)
    if (bAck)
  803b58:	e0bfff03 	ldbu	r2,-4(fp)
  803b5c:	1005003a 	cmpeq	r2,r2,zero
  803b60:	1000031e 	bne	r2,zero,803b70 <i2c_read+0xf4>
        SDA_LOW(data_base);
  803b64:	e0bffd17 	ldw	r2,-12(fp)
  803b68:	10000035 	stwio	zero,0(r2)
  803b6c:	00000406 	br	803b80 <i2c_read+0x104>
    else
        SDA_HIGH(data_base);
  803b70:	e0bffd17 	ldw	r2,-12(fp)
  803b74:	1007883a 	mov	r3,r2
  803b78:	00800044 	movi	r2,1
  803b7c:	18800035 	stwio	r2,0(r3)
    SCL_HIGH(clk_base); // clock high
  803b80:	e0bffc17 	ldw	r2,-16(fp)
  803b84:	1007883a 	mov	r3,r2
  803b88:	00800044 	movi	r2,1
  803b8c:	18800035 	stwio	r2,0(r3)
    while (SCL_READ(clk_base) == 0); // clock stretching
  803b90:	e0bffc17 	ldw	r2,-16(fp)
  803b94:	10800037 	ldwio	r2,0(r2)
  803b98:	1005003a 	cmpeq	r2,r2,zero
  803b9c:	103ffc1e 	bne	r2,zero,803b90 <i2c_read+0x114>
    SCL_DELAY; // clock high  delay
  803ba0:	01000044 	movi	r4,1
  803ba4:	08107540 	call	810754 <usleep>
    SCL_LOW(clk_base); // clock low
  803ba8:	e0bffc17 	ldw	r2,-16(fp)
  803bac:	10000035 	stwio	zero,0(r2)
    SCL_DELAY; // clock low delay
  803bb0:	01000044 	movi	r4,1
  803bb4:	08107540 	call	810754 <usleep>
    SDA_LOW(data_base);  // data low
  803bb8:	e0bffd17 	ldw	r2,-12(fp)
  803bbc:	10000035 	stwio	zero,0(r2)
    SCL_DELAY; // data low delay
  803bc0:	01000044 	movi	r4,1
  803bc4:	08107540 	call	810754 <usleep>
//    SDA_DIR_IN;  // set data read mode
    
    *pData = Data;
  803bc8:	e0fffe17 	ldw	r3,-8(fp)
  803bcc:	e0bffb03 	ldbu	r2,-20(fp)
  803bd0:	18800005 	stb	r2,0(r3)
}
  803bd4:	e037883a 	mov	sp,fp
  803bd8:	dfc00117 	ldw	ra,4(sp)
  803bdc:	df000017 	ldw	fp,0(sp)
  803be0:	dec00204 	addi	sp,sp,8
  803be4:	f800283a 	ret

00803be8 <pow>:
  803be8:	deffee04 	addi	sp,sp,-72
  803bec:	ddc01015 	stw	r23,64(sp)
  803bf0:	05c020b4 	movhi	r23,130
  803bf4:	bdf7d304 	addi	r23,r23,-8372
  803bf8:	dd800f15 	stw	r22,60(sp)
  803bfc:	dd400e15 	stw	r21,56(sp)
  803c00:	dd000d15 	stw	r20,52(sp)
  803c04:	dcc00c15 	stw	r19,48(sp)
  803c08:	dc800b15 	stw	r18,44(sp)
  803c0c:	dc400a15 	stw	r17,40(sp)
  803c10:	dc000915 	stw	r16,36(sp)
  803c14:	2029883a 	mov	r20,r4
  803c18:	dfc01115 	stw	ra,68(sp)
  803c1c:	3025883a 	mov	r18,r6
  803c20:	282b883a 	mov	r21,r5
  803c24:	3827883a 	mov	r19,r7
  803c28:	08040700 	call	804070 <__ieee754_pow>
  803c2c:	b9000017 	ldw	r4,0(r23)
  803c30:	05bfffc4 	movi	r22,-1
  803c34:	1021883a 	mov	r16,r2
  803c38:	1823883a 	mov	r17,r3
  803c3c:	25800426 	beq	r4,r22,803c50 <pow+0x68>
  803c40:	9009883a 	mov	r4,r18
  803c44:	980b883a 	mov	r5,r19
  803c48:	080566c0 	call	80566c <__isnand>
  803c4c:	10000d26 	beq	r2,zero,803c84 <pow+0x9c>
  803c50:	8005883a 	mov	r2,r16
  803c54:	8807883a 	mov	r3,r17
  803c58:	dfc01117 	ldw	ra,68(sp)
  803c5c:	ddc01017 	ldw	r23,64(sp)
  803c60:	dd800f17 	ldw	r22,60(sp)
  803c64:	dd400e17 	ldw	r21,56(sp)
  803c68:	dd000d17 	ldw	r20,52(sp)
  803c6c:	dcc00c17 	ldw	r19,48(sp)
  803c70:	dc800b17 	ldw	r18,44(sp)
  803c74:	dc400a17 	ldw	r17,40(sp)
  803c78:	dc000917 	ldw	r16,36(sp)
  803c7c:	dec01204 	addi	sp,sp,72
  803c80:	f800283a 	ret
  803c84:	a009883a 	mov	r4,r20
  803c88:	a80b883a 	mov	r5,r21
  803c8c:	080566c0 	call	80566c <__isnand>
  803c90:	1000151e 	bne	r2,zero,803ce8 <pow+0x100>
  803c94:	000d883a 	mov	r6,zero
  803c98:	000f883a 	mov	r7,zero
  803c9c:	a009883a 	mov	r4,r20
  803ca0:	a80b883a 	mov	r5,r21
  803ca4:	0806e900 	call	806e90 <__eqdf2>
  803ca8:	1000541e 	bne	r2,zero,803dfc <pow+0x214>
  803cac:	000d883a 	mov	r6,zero
  803cb0:	000f883a 	mov	r7,zero
  803cb4:	9009883a 	mov	r4,r18
  803cb8:	980b883a 	mov	r5,r19
  803cbc:	0806e900 	call	806e90 <__eqdf2>
  803cc0:	10002c1e 	bne	r2,zero,803d74 <pow+0x18c>
  803cc4:	b8800017 	ldw	r2,0(r23)
  803cc8:	d8000615 	stw	zero,24(sp)
  803ccc:	d8000715 	stw	zero,28(sp)
  803cd0:	10001226 	beq	r2,zero,803d1c <pow+0x134>
  803cd4:	008ffc34 	movhi	r2,16368
  803cd8:	d8800715 	stw	r2,28(sp)
  803cdc:	dc000617 	ldw	r16,24(sp)
  803ce0:	dc400717 	ldw	r17,28(sp)
  803ce4:	003fda06 	br	803c50 <pow+0x68>
  803ce8:	000d883a 	mov	r6,zero
  803cec:	000f883a 	mov	r7,zero
  803cf0:	9009883a 	mov	r4,r18
  803cf4:	980b883a 	mov	r5,r19
  803cf8:	0806e900 	call	806e90 <__eqdf2>
  803cfc:	103fd41e 	bne	r2,zero,803c50 <pow+0x68>
  803d00:	b8c00017 	ldw	r3,0(r23)
  803d04:	010ffc34 	movhi	r4,16368
  803d08:	d8000615 	stw	zero,24(sp)
  803d0c:	d9000715 	stw	r4,28(sp)
  803d10:	1d801526 	beq	r3,r22,803d68 <pow+0x180>
  803d14:	00800084 	movi	r2,2
  803d18:	18801326 	beq	r3,r2,803d68 <pow+0x180>
  803d1c:	008020b4 	movhi	r2,130
  803d20:	10b00904 	addi	r2,r2,-16348
  803d24:	00c00044 	movi	r3,1
  803d28:	d809883a 	mov	r4,sp
  803d2c:	dcc00515 	stw	r19,20(sp)
  803d30:	dd400315 	stw	r21,12(sp)
  803d34:	d8800115 	stw	r2,4(sp)
  803d38:	d8c00015 	stw	r3,0(sp)
  803d3c:	dc800415 	stw	r18,16(sp)
  803d40:	dd000215 	stw	r20,8(sp)
  803d44:	d8000815 	stw	zero,32(sp)
  803d48:	080569c0 	call	80569c <matherr>
  803d4c:	10002726 	beq	r2,zero,803dec <pow+0x204>
  803d50:	d8800817 	ldw	r2,32(sp)
  803d54:	103fe126 	beq	r2,zero,803cdc <pow+0xf4>
  803d58:	0807d500 	call	807d50 <__errno>
  803d5c:	d8c00817 	ldw	r3,32(sp)
  803d60:	10c00015 	stw	r3,0(r2)
  803d64:	003fdd06 	br	803cdc <pow+0xf4>
  803d68:	d9000715 	stw	r4,28(sp)
  803d6c:	d8000615 	stw	zero,24(sp)
  803d70:	003fda06 	br	803cdc <pow+0xf4>
  803d74:	9009883a 	mov	r4,r18
  803d78:	980b883a 	mov	r5,r19
  803d7c:	08056500 	call	805650 <finite>
  803d80:	103fb326 	beq	r2,zero,803c50 <pow+0x68>
  803d84:	000d883a 	mov	r6,zero
  803d88:	000f883a 	mov	r7,zero
  803d8c:	9009883a 	mov	r4,r18
  803d90:	980b883a 	mov	r5,r19
  803d94:	08070280 	call	807028 <__ltdf2>
  803d98:	103fad0e 	bge	r2,zero,803c50 <pow+0x68>
  803d9c:	b9000017 	ldw	r4,0(r23)
  803da0:	00800044 	movi	r2,1
  803da4:	00c020b4 	movhi	r3,130
  803da8:	18f00904 	addi	r3,r3,-16348
  803dac:	d8800015 	stw	r2,0(sp)
  803db0:	d8c00115 	stw	r3,4(sp)
  803db4:	dd400315 	stw	r21,12(sp)
  803db8:	dcc00515 	stw	r19,20(sp)
  803dbc:	d8000815 	stw	zero,32(sp)
  803dc0:	dd000215 	stw	r20,8(sp)
  803dc4:	dc800415 	stw	r18,16(sp)
  803dc8:	20005626 	beq	r4,zero,803f24 <pow+0x33c>
  803dcc:	00bffc34 	movhi	r2,65520
  803dd0:	d8800715 	stw	r2,28(sp)
  803dd4:	00800084 	movi	r2,2
  803dd8:	d8000615 	stw	zero,24(sp)
  803ddc:	20800326 	beq	r4,r2,803dec <pow+0x204>
  803de0:	d809883a 	mov	r4,sp
  803de4:	080569c0 	call	80569c <matherr>
  803de8:	103fd91e 	bne	r2,zero,803d50 <pow+0x168>
  803dec:	0807d500 	call	807d50 <__errno>
  803df0:	00c00844 	movi	r3,33
  803df4:	10c00015 	stw	r3,0(r2)
  803df8:	003fd506 	br	803d50 <pow+0x168>
  803dfc:	8009883a 	mov	r4,r16
  803e00:	880b883a 	mov	r5,r17
  803e04:	08056500 	call	805650 <finite>
  803e08:	10002426 	beq	r2,zero,803e9c <pow+0x2b4>
  803e0c:	000d883a 	mov	r6,zero
  803e10:	000f883a 	mov	r7,zero
  803e14:	8009883a 	mov	r4,r16
  803e18:	880b883a 	mov	r5,r17
  803e1c:	0806e900 	call	806e90 <__eqdf2>
  803e20:	103f8b1e 	bne	r2,zero,803c50 <pow+0x68>
  803e24:	a009883a 	mov	r4,r20
  803e28:	a80b883a 	mov	r5,r21
  803e2c:	08056500 	call	805650 <finite>
  803e30:	103f8726 	beq	r2,zero,803c50 <pow+0x68>
  803e34:	9009883a 	mov	r4,r18
  803e38:	980b883a 	mov	r5,r19
  803e3c:	08056500 	call	805650 <finite>
  803e40:	103f8326 	beq	r2,zero,803c50 <pow+0x68>
  803e44:	b9000017 	ldw	r4,0(r23)
  803e48:	00800104 	movi	r2,4
  803e4c:	d8800015 	stw	r2,0(sp)
  803e50:	00c020b4 	movhi	r3,130
  803e54:	18f00904 	addi	r3,r3,-16348
  803e58:	00800084 	movi	r2,2
  803e5c:	d8c00115 	stw	r3,4(sp)
  803e60:	dd400315 	stw	r21,12(sp)
  803e64:	dcc00515 	stw	r19,20(sp)
  803e68:	d8000815 	stw	zero,32(sp)
  803e6c:	dd000215 	stw	r20,8(sp)
  803e70:	dc800415 	stw	r18,16(sp)
  803e74:	d8000615 	stw	zero,24(sp)
  803e78:	d8000715 	stw	zero,28(sp)
  803e7c:	20800326 	beq	r4,r2,803e8c <pow+0x2a4>
  803e80:	d809883a 	mov	r4,sp
  803e84:	080569c0 	call	80569c <matherr>
  803e88:	103fb11e 	bne	r2,zero,803d50 <pow+0x168>
  803e8c:	0807d500 	call	807d50 <__errno>
  803e90:	00c00884 	movi	r3,34
  803e94:	10c00015 	stw	r3,0(r2)
  803e98:	003fad06 	br	803d50 <pow+0x168>
  803e9c:	a009883a 	mov	r4,r20
  803ea0:	a80b883a 	mov	r5,r21
  803ea4:	08056500 	call	805650 <finite>
  803ea8:	103fd826 	beq	r2,zero,803e0c <pow+0x224>
  803eac:	9009883a 	mov	r4,r18
  803eb0:	980b883a 	mov	r5,r19
  803eb4:	08056500 	call	805650 <finite>
  803eb8:	103fd426 	beq	r2,zero,803e0c <pow+0x224>
  803ebc:	880b883a 	mov	r5,r17
  803ec0:	8009883a 	mov	r4,r16
  803ec4:	080566c0 	call	80566c <__isnand>
  803ec8:	10001926 	beq	r2,zero,803f30 <pow+0x348>
  803ecc:	bc000017 	ldw	r16,0(r23)
  803ed0:	00800044 	movi	r2,1
  803ed4:	00c020b4 	movhi	r3,130
  803ed8:	18f00904 	addi	r3,r3,-16348
  803edc:	d8800015 	stw	r2,0(sp)
  803ee0:	d8c00115 	stw	r3,4(sp)
  803ee4:	dd400315 	stw	r21,12(sp)
  803ee8:	dcc00515 	stw	r19,20(sp)
  803eec:	d8000815 	stw	zero,32(sp)
  803ef0:	dd000215 	stw	r20,8(sp)
  803ef4:	dc800415 	stw	r18,16(sp)
  803ef8:	80000a26 	beq	r16,zero,803f24 <pow+0x33c>
  803efc:	0009883a 	mov	r4,zero
  803f00:	000d883a 	mov	r6,zero
  803f04:	000b883a 	mov	r5,zero
  803f08:	000f883a 	mov	r7,zero
  803f0c:	0806c380 	call	806c38 <__divdf3>
  803f10:	d8800615 	stw	r2,24(sp)
  803f14:	00800084 	movi	r2,2
  803f18:	d8c00715 	stw	r3,28(sp)
  803f1c:	80bfb01e 	bne	r16,r2,803de0 <pow+0x1f8>
  803f20:	003fb206 	br	803dec <pow+0x204>
  803f24:	d8000615 	stw	zero,24(sp)
  803f28:	d8000715 	stw	zero,28(sp)
  803f2c:	003fac06 	br	803de0 <pow+0x1f8>
  803f30:	b8800017 	ldw	r2,0(r23)
  803f34:	00c000c4 	movi	r3,3
  803f38:	010020b4 	movhi	r4,130
  803f3c:	21300904 	addi	r4,r4,-16348
  803f40:	d8c00015 	stw	r3,0(sp)
  803f44:	d9000115 	stw	r4,4(sp)
  803f48:	d8000815 	stw	zero,32(sp)
  803f4c:	dd000215 	stw	r20,8(sp)
  803f50:	dd400315 	stw	r21,12(sp)
  803f54:	dc800415 	stw	r18,16(sp)
  803f58:	dcc00515 	stw	r19,20(sp)
  803f5c:	1000251e 	bne	r2,zero,803ff4 <pow+0x40c>
  803f60:	05b80034 	movhi	r22,57344
  803f64:	0091fc34 	movhi	r2,18416
  803f68:	10bfffc4 	addi	r2,r2,-1
  803f6c:	000d883a 	mov	r6,zero
  803f70:	000f883a 	mov	r7,zero
  803f74:	a80b883a 	mov	r5,r21
  803f78:	a009883a 	mov	r4,r20
  803f7c:	d8800715 	stw	r2,28(sp)
  803f80:	dd800615 	stw	r22,24(sp)
  803f84:	08070280 	call	807028 <__ltdf2>
  803f88:	103fbd0e 	bge	r2,zero,803e80 <pow+0x298>
  803f8c:	0005883a 	mov	r2,zero
  803f90:	00cff834 	movhi	r3,16352
  803f94:	180f883a 	mov	r7,r3
  803f98:	100d883a 	mov	r6,r2
  803f9c:	980b883a 	mov	r5,r19
  803fa0:	9009883a 	mov	r4,r18
  803fa4:	08068740 	call	806874 <__muldf3>
  803fa8:	1009883a 	mov	r4,r2
  803fac:	180b883a 	mov	r5,r3
  803fb0:	1021883a 	mov	r16,r2
  803fb4:	1823883a 	mov	r17,r3
  803fb8:	08056b40 	call	8056b4 <rint>
  803fbc:	180f883a 	mov	r7,r3
  803fc0:	8009883a 	mov	r4,r16
  803fc4:	880b883a 	mov	r5,r17
  803fc8:	100d883a 	mov	r6,r2
  803fcc:	0806f180 	call	806f18 <__nedf2>
  803fd0:	10000426 	beq	r2,zero,803fe4 <pow+0x3fc>
  803fd4:	00b1fc34 	movhi	r2,51184
  803fd8:	10bfffc4 	addi	r2,r2,-1
  803fdc:	dd800615 	stw	r22,24(sp)
  803fe0:	d8800715 	stw	r2,28(sp)
  803fe4:	b8c00017 	ldw	r3,0(r23)
  803fe8:	00800084 	movi	r2,2
  803fec:	18bfa41e 	bne	r3,r2,803e80 <pow+0x298>
  803ff0:	003fa606 	br	803e8c <pow+0x2a4>
  803ff4:	009ffc34 	movhi	r2,32752
  803ff8:	000d883a 	mov	r6,zero
  803ffc:	000f883a 	mov	r7,zero
  804000:	a80b883a 	mov	r5,r21
  804004:	a009883a 	mov	r4,r20
  804008:	d8800715 	stw	r2,28(sp)
  80400c:	d8000615 	stw	zero,24(sp)
  804010:	08070280 	call	807028 <__ltdf2>
  804014:	103ff30e 	bge	r2,zero,803fe4 <pow+0x3fc>
  804018:	0005883a 	mov	r2,zero
  80401c:	00cff834 	movhi	r3,16352
  804020:	180f883a 	mov	r7,r3
  804024:	100d883a 	mov	r6,r2
  804028:	980b883a 	mov	r5,r19
  80402c:	9009883a 	mov	r4,r18
  804030:	08068740 	call	806874 <__muldf3>
  804034:	1009883a 	mov	r4,r2
  804038:	180b883a 	mov	r5,r3
  80403c:	1021883a 	mov	r16,r2
  804040:	1823883a 	mov	r17,r3
  804044:	08056b40 	call	8056b4 <rint>
  804048:	180f883a 	mov	r7,r3
  80404c:	8009883a 	mov	r4,r16
  804050:	880b883a 	mov	r5,r17
  804054:	100d883a 	mov	r6,r2
  804058:	0806f180 	call	806f18 <__nedf2>
  80405c:	103fe126 	beq	r2,zero,803fe4 <pow+0x3fc>
  804060:	00bffc34 	movhi	r2,65520
  804064:	d8800715 	stw	r2,28(sp)
  804068:	d8000615 	stw	zero,24(sp)
  80406c:	003fdd06 	br	803fe4 <pow+0x3fc>

00804070 <__ieee754_pow>:
  804070:	deffbb04 	addi	sp,sp,-276
  804074:	3005883a 	mov	r2,r6
  804078:	dd404015 	stw	r21,256(sp)
  80407c:	dd003f15 	stw	r20,252(sp)
  804080:	d9802815 	stw	r6,160(sp)
  804084:	2029883a 	mov	r20,r4
  804088:	282b883a 	mov	r21,r5
  80408c:	3009883a 	mov	r4,r6
  804090:	380b883a 	mov	r5,r7
  804094:	01a00034 	movhi	r6,32768
  804098:	31bfffc4 	addi	r6,r6,-1
  80409c:	dc003b15 	stw	r16,236(sp)
  8040a0:	29a0703a 	and	r16,r5,r6
  8040a4:	1404b03a 	or	r2,r2,r16
  8040a8:	dd804115 	stw	r22,260(sp)
  8040ac:	dc403c15 	stw	r17,240(sp)
  8040b0:	d9c02915 	stw	r7,164(sp)
  8040b4:	382d883a 	mov	r22,r7
  8040b8:	dfc04415 	stw	ra,272(sp)
  8040bc:	200f883a 	mov	r7,r4
  8040c0:	df004315 	stw	fp,268(sp)
  8040c4:	ddc04215 	stw	r23,264(sp)
  8040c8:	dcc03e15 	stw	r19,248(sp)
  8040cc:	dc803d15 	stw	r18,244(sp)
  8040d0:	a023883a 	mov	r17,r20
  8040d4:	2809883a 	mov	r4,r5
  8040d8:	10000826 	beq	r2,zero,8040fc <__ieee754_pow+0x8c>
  8040dc:	a9a4703a 	and	r18,r21,r6
  8040e0:	009ffc34 	movhi	r2,32752
  8040e4:	a827883a 	mov	r19,r21
  8040e8:	1480180e 	bge	r2,r18,80414c <__ieee754_pow+0xdc>
  8040ec:	00b00434 	movhi	r2,49168
  8040f0:	9085883a 	add	r2,r18,r2
  8040f4:	8884b03a 	or	r2,r17,r2
  8040f8:	1000321e 	bne	r2,zero,8041c4 <__ieee754_pow+0x154>
  8040fc:	0009883a 	mov	r4,zero
  804100:	014ffc34 	movhi	r5,16368
  804104:	d9002815 	stw	r4,160(sp)
  804108:	d9402915 	stw	r5,164(sp)
  80410c:	d9002817 	ldw	r4,160(sp)
  804110:	d9402917 	ldw	r5,164(sp)
  804114:	2005883a 	mov	r2,r4
  804118:	2807883a 	mov	r3,r5
  80411c:	dfc04417 	ldw	ra,272(sp)
  804120:	df004317 	ldw	fp,268(sp)
  804124:	ddc04217 	ldw	r23,264(sp)
  804128:	dd804117 	ldw	r22,260(sp)
  80412c:	dd404017 	ldw	r21,256(sp)
  804130:	dd003f17 	ldw	r20,252(sp)
  804134:	dcc03e17 	ldw	r19,248(sp)
  804138:	dc803d17 	ldw	r18,244(sp)
  80413c:	dc403c17 	ldw	r17,240(sp)
  804140:	dc003b17 	ldw	r16,236(sp)
  804144:	dec04504 	addi	sp,sp,276
  804148:	f800283a 	ret
  80414c:	90802b26 	beq	r18,r2,8041fc <__ieee754_pow+0x18c>
  804150:	143fe616 	blt	r2,r16,8040ec <__ieee754_pow+0x7c>
  804154:	80806126 	beq	r16,r2,8042dc <__ieee754_pow+0x26c>
  804158:	982e403a 	cmpge	r23,r19,zero
  80415c:	b8004e26 	beq	r23,zero,804298 <__ieee754_pow+0x228>
  804160:	0039883a 	mov	fp,zero
  804164:	3800281e 	bne	r7,zero,804208 <__ieee754_pow+0x198>
  804168:	009ffc34 	movhi	r2,32752
  80416c:	80804f26 	beq	r16,r2,8042ac <__ieee754_pow+0x23c>
  804170:	008ffc34 	movhi	r2,16368
  804174:	80808226 	beq	r16,r2,804380 <__ieee754_pow+0x310>
  804178:	00900034 	movhi	r2,16384
  80417c:	20828426 	beq	r4,r2,804b90 <__ieee754_pow+0xb20>
  804180:	008ff834 	movhi	r2,16352
  804184:	2080201e 	bne	r4,r2,804208 <__ieee754_pow+0x198>
  804188:	98001f16 	blt	r19,zero,804208 <__ieee754_pow+0x198>
  80418c:	a80b883a 	mov	r5,r21
  804190:	a009883a 	mov	r4,r20
  804194:	dfc04417 	ldw	ra,272(sp)
  804198:	df004317 	ldw	fp,268(sp)
  80419c:	ddc04217 	ldw	r23,264(sp)
  8041a0:	dd804117 	ldw	r22,260(sp)
  8041a4:	dd404017 	ldw	r21,256(sp)
  8041a8:	dd003f17 	ldw	r20,252(sp)
  8041ac:	dcc03e17 	ldw	r19,248(sp)
  8041b0:	dc803d17 	ldw	r18,244(sp)
  8041b4:	dc403c17 	ldw	r17,240(sp)
  8041b8:	dc003b17 	ldw	r16,236(sp)
  8041bc:	dec04504 	addi	sp,sp,276
  8041c0:	08053701 	jmpi	805370 <__ieee754_sqrt>
  8041c4:	010020b4 	movhi	r4,130
  8041c8:	21307404 	addi	r4,r4,-15920
  8041cc:	dfc04417 	ldw	ra,272(sp)
  8041d0:	df004317 	ldw	fp,268(sp)
  8041d4:	ddc04217 	ldw	r23,264(sp)
  8041d8:	dd804117 	ldw	r22,260(sp)
  8041dc:	dd404017 	ldw	r21,256(sp)
  8041e0:	dd003f17 	ldw	r20,252(sp)
  8041e4:	dcc03e17 	ldw	r19,248(sp)
  8041e8:	dc803d17 	ldw	r18,244(sp)
  8041ec:	dc403c17 	ldw	r17,240(sp)
  8041f0:	dc003b17 	ldw	r16,236(sp)
  8041f4:	dec04504 	addi	sp,sp,276
  8041f8:	08056a41 	jmpi	8056a4 <nan>
  8041fc:	a03fbb1e 	bne	r20,zero,8040ec <__ieee754_pow+0x7c>
  804200:	003fd306 	br	804150 <__ieee754_pow+0xe0>
  804204:	0039883a 	mov	fp,zero
  804208:	a009883a 	mov	r4,r20
  80420c:	a80b883a 	mov	r5,r21
  804210:	08056380 	call	805638 <fabs>
  804214:	1015883a 	mov	r10,r2
  804218:	1817883a 	mov	r11,r3
  80421c:	88001226 	beq	r17,zero,804268 <__ieee754_pow+0x1f8>
  804220:	9804d7fa 	srli	r2,r19,31
  804224:	10bfffc4 	addi	r2,r2,-1
  804228:	1706b03a 	or	r3,r2,fp
  80422c:	d8802515 	stw	r2,148(sp)
  804230:	18002c1e 	bne	r3,zero,8042e4 <__ieee754_pow+0x274>
  804234:	a80f883a 	mov	r7,r21
  804238:	a009883a 	mov	r4,r20
  80423c:	a80b883a 	mov	r5,r21
  804240:	a00d883a 	mov	r6,r20
  804244:	08067800 	call	806780 <__subdf3>
  804248:	1009883a 	mov	r4,r2
  80424c:	180b883a 	mov	r5,r3
  804250:	100d883a 	mov	r6,r2
  804254:	180f883a 	mov	r7,r3
  804258:	0806c380 	call	806c38 <__divdf3>
  80425c:	d8802815 	stw	r2,160(sp)
  804260:	d8c02915 	stw	r3,164(sp)
  804264:	003fa906 	br	80410c <__ieee754_pow+0x9c>
  804268:	009ffc34 	movhi	r2,32752
  80426c:	90800326 	beq	r18,r2,80427c <__ieee754_pow+0x20c>
  804270:	90000226 	beq	r18,zero,80427c <__ieee754_pow+0x20c>
  804274:	008ffc34 	movhi	r2,16368
  804278:	90bfe91e 	bne	r18,r2,804220 <__ieee754_pow+0x1b0>
  80427c:	b0026316 	blt	r22,zero,804c0c <__ieee754_pow+0xb9c>
  804280:	5011883a 	mov	r8,r10
  804284:	5813883a 	mov	r9,r11
  804288:	b8023126 	beq	r23,zero,804b50 <__ieee754_pow+0xae0>
  80428c:	da002815 	stw	r8,160(sp)
  804290:	da402915 	stw	r9,164(sp)
  804294:	003f9d06 	br	80410c <__ieee754_pow+0x9c>
  804298:	0090d034 	movhi	r2,17216
  80429c:	10bfffc4 	addi	r2,r2,-1
  8042a0:	1400270e 	bge	r2,r16,804340 <__ieee754_pow+0x2d0>
  8042a4:	07000084 	movi	fp,2
  8042a8:	003fae06 	br	804164 <__ieee754_pow+0xf4>
  8042ac:	00b00434 	movhi	r2,49168
  8042b0:	9085883a 	add	r2,r18,r2
  8042b4:	8884b03a 	or	r2,r17,r2
  8042b8:	103f9026 	beq	r2,zero,8040fc <__ieee754_pow+0x8c>
  8042bc:	008ffc34 	movhi	r2,16368
  8042c0:	10bfffc4 	addi	r2,r2,-1
  8042c4:	1482d00e 	bge	r2,r18,804e08 <__ieee754_pow+0xd98>
  8042c8:	b03f900e 	bge	r22,zero,80410c <__ieee754_pow+0x9c>
  8042cc:	0005883a 	mov	r2,zero
  8042d0:	d8802815 	stw	r2,160(sp)
  8042d4:	d8802915 	stw	r2,164(sp)
  8042d8:	003f8c06 	br	80410c <__ieee754_pow+0x9c>
  8042dc:	383f9e26 	beq	r7,zero,804158 <__ieee754_pow+0xe8>
  8042e0:	003f8206 	br	8040ec <__ieee754_pow+0x7c>
  8042e4:	00907834 	movhi	r2,16864
  8042e8:	1400290e 	bge	r2,r16,804390 <__ieee754_pow+0x320>
  8042ec:	0090fc34 	movhi	r2,17392
  8042f0:	1402500e 	bge	r2,r16,804c34 <__ieee754_pow+0xbc4>
  8042f4:	008ffc34 	movhi	r2,16368
  8042f8:	10bfffc4 	addi	r2,r2,-1
  8042fc:	14800b0e 	bge	r2,r18,80432c <__ieee754_pow+0x2bc>
  804300:	05800b0e 	bge	zero,r22,804330 <__ieee754_pow+0x2c0>
  804304:	00a20034 	movhi	r2,34816
  804308:	109d6704 	addi	r2,r2,30108
  80430c:	00df8e34 	movhi	r3,32312
  804310:	18f90f04 	addi	r3,r3,-7108
  804314:	100d883a 	mov	r6,r2
  804318:	180f883a 	mov	r7,r3
  80431c:	1009883a 	mov	r4,r2
  804320:	180b883a 	mov	r5,r3
  804324:	08068740 	call	806874 <__muldf3>
  804328:	003fcc06 	br	80425c <__ieee754_pow+0x1ec>
  80432c:	b03ff516 	blt	r22,zero,804304 <__ieee754_pow+0x294>
  804330:	0007883a 	mov	r3,zero
  804334:	d8c02815 	stw	r3,160(sp)
  804338:	d8c02915 	stw	r3,164(sp)
  80433c:	003f7306 	br	80410c <__ieee754_pow+0x9c>
  804340:	008ffc34 	movhi	r2,16368
  804344:	10bfffc4 	addi	r2,r2,-1
  804348:	143f850e 	bge	r2,r16,804160 <__ieee754_pow+0xf0>
  80434c:	8005d53a 	srai	r2,r16,20
  804350:	01400504 	movi	r5,20
  804354:	10ff0044 	addi	r3,r2,-1023
  804358:	28c3e10e 	bge	r5,r3,8052e0 <__ieee754_pow+0x1270>
  80435c:	00800d04 	movi	r2,52
  804360:	10c5c83a 	sub	r2,r2,r3
  804364:	3886d83a 	srl	r3,r7,r2
  804368:	1884983a 	sll	r2,r3,r2
  80436c:	38bf7c1e 	bne	r7,r2,804160 <__ieee754_pow+0xf0>
  804370:	18c0004c 	andi	r3,r3,1
  804374:	00800084 	movi	r2,2
  804378:	10f9c83a 	sub	fp,r2,r3
  80437c:	003f7906 	br	804164 <__ieee754_pow+0xf4>
  804380:	b0038516 	blt	r22,zero,805198 <__ieee754_pow+0x1128>
  804384:	dd002815 	stw	r20,160(sp)
  804388:	dd402915 	stw	r21,164(sp)
  80438c:	003f5f06 	br	80410c <__ieee754_pow+0x9c>
  804390:	00800434 	movhi	r2,16
  804394:	10bfffc4 	addi	r2,r2,-1
  804398:	1482900e 	bge	r2,r18,804ddc <__ieee754_pow+0xd6c>
  80439c:	000b883a 	mov	r5,zero
  8043a0:	9005d53a 	srai	r2,r18,20
  8043a4:	00c00434 	movhi	r3,16
  8043a8:	18ffffc4 	addi	r3,r3,-1
  8043ac:	90c8703a 	and	r4,r18,r3
  8043b0:	2887883a 	add	r3,r5,r2
  8043b4:	18bf0044 	addi	r2,r3,-1023
  8043b8:	d8800015 	stw	r2,0(sp)
  8043bc:	00800134 	movhi	r2,4
  8043c0:	10a62384 	addi	r2,r2,-26482
  8043c4:	250ffc34 	orhi	r20,r4,16368
  8043c8:	1101ee0e 	bge	r2,r4,804b84 <__ieee754_pow+0xb14>
  8043cc:	00800334 	movhi	r2,12
  8043d0:	10ad9e44 	addi	r2,r2,-18823
  8043d4:	1101e716 	blt	r2,r4,804b74 <__ieee754_pow+0xb04>
  8043d8:	01000044 	movi	r4,1
  8043dc:	04000334 	movhi	r16,12
  8043e0:	200890fa 	slli	r4,r4,3
  8043e4:	da800115 	stw	r10,4(sp)
  8043e8:	dd000215 	stw	r20,8(sp)
  8043ec:	d9002c15 	stw	r4,176(sp)
  8043f0:	d9402c17 	ldw	r5,176(sp)
  8043f4:	010020b4 	movhi	r4,130
  8043f8:	21300a04 	addi	r4,r4,-16344
  8043fc:	a02bd07a 	srai	r21,r20,1
  804400:	2909883a 	add	r4,r5,r4
  804404:	25800017 	ldw	r22,0(r4)
  804408:	25c00117 	ldw	r23,4(r4)
  80440c:	a00b883a 	mov	r5,r20
  804410:	5009883a 	mov	r4,r10
  804414:	b00d883a 	mov	r6,r22
  804418:	b80f883a 	mov	r7,r23
  80441c:	08067800 	call	806780 <__subdf3>
  804420:	d9000117 	ldw	r4,4(sp)
  804424:	a00b883a 	mov	r5,r20
  804428:	b00d883a 	mov	r6,r22
  80442c:	b80f883a 	mov	r7,r23
  804430:	1025883a 	mov	r18,r2
  804434:	1827883a 	mov	r19,r3
  804438:	08068000 	call	806800 <__adddf3>
  80443c:	0011883a 	mov	r8,zero
  804440:	024ffc34 	movhi	r9,16368
  804444:	480b883a 	mov	r5,r9
  804448:	4009883a 	mov	r4,r8
  80444c:	180f883a 	mov	r7,r3
  804450:	100d883a 	mov	r6,r2
  804454:	0806c380 	call	806c38 <__divdf3>
  804458:	d8c02e15 	stw	r3,184(sp)
  80445c:	d8800f15 	stw	r2,60(sp)
  804460:	d8802d15 	stw	r2,180(sp)
  804464:	d8802e17 	ldw	r2,184(sp)
  804468:	d9800f17 	ldw	r6,60(sp)
  80446c:	9009883a 	mov	r4,r18
  804470:	980b883a 	mov	r5,r19
  804474:	100f883a 	mov	r7,r2
  804478:	dc800b15 	stw	r18,44(sp)
  80447c:	dcc00c15 	stw	r19,48(sp)
  804480:	d8801015 	stw	r2,64(sp)
  804484:	08068740 	call	806874 <__muldf3>
  804488:	d8c03015 	stw	r3,192(sp)
  80448c:	d9003017 	ldw	r4,192(sp)
  804490:	d8802f15 	stw	r2,188(sp)
  804494:	d8800315 	stw	r2,12(sp)
  804498:	ad480034 	orhi	r21,r21,8192
  80449c:	0005883a 	mov	r2,zero
  8044a0:	ac2b883a 	add	r21,r21,r16
  8044a4:	000b883a 	mov	r5,zero
  8044a8:	1021883a 	mov	r16,r2
  8044ac:	2005883a 	mov	r2,r4
  8044b0:	800d883a 	mov	r6,r16
  8044b4:	a80f883a 	mov	r7,r21
  8044b8:	d9000415 	stw	r4,16(sp)
  8044bc:	d9002715 	stw	r4,156(sp)
  8044c0:	d9402615 	stw	r5,152(sp)
  8044c4:	d9401615 	stw	r5,88(sp)
  8044c8:	d9001715 	stw	r4,92(sp)
  8044cc:	100b883a 	mov	r5,r2
  8044d0:	0009883a 	mov	r4,zero
  8044d4:	08068740 	call	806874 <__muldf3>
  8044d8:	d9000b17 	ldw	r4,44(sp)
  8044dc:	980b883a 	mov	r5,r19
  8044e0:	180f883a 	mov	r7,r3
  8044e4:	100d883a 	mov	r6,r2
  8044e8:	08067800 	call	806780 <__subdf3>
  8044ec:	8009883a 	mov	r4,r16
  8044f0:	a80b883a 	mov	r5,r21
  8044f4:	b80f883a 	mov	r7,r23
  8044f8:	b00d883a 	mov	r6,r22
  8044fc:	1021883a 	mov	r16,r2
  804500:	1823883a 	mov	r17,r3
  804504:	08067800 	call	806780 <__subdf3>
  804508:	d9000117 	ldw	r4,4(sp)
  80450c:	a00b883a 	mov	r5,r20
  804510:	180f883a 	mov	r7,r3
  804514:	100d883a 	mov	r6,r2
  804518:	08067800 	call	806780 <__subdf3>
  80451c:	d9001617 	ldw	r4,88(sp)
  804520:	d9402717 	ldw	r5,156(sp)
  804524:	180f883a 	mov	r7,r3
  804528:	100d883a 	mov	r6,r2
  80452c:	08068740 	call	806874 <__muldf3>
  804530:	180f883a 	mov	r7,r3
  804534:	880b883a 	mov	r5,r17
  804538:	8009883a 	mov	r4,r16
  80453c:	100d883a 	mov	r6,r2
  804540:	08067800 	call	806780 <__subdf3>
  804544:	d9000f17 	ldw	r4,60(sp)
  804548:	d9402e17 	ldw	r5,184(sp)
  80454c:	180f883a 	mov	r7,r3
  804550:	100d883a 	mov	r6,r2
  804554:	08068740 	call	806874 <__muldf3>
  804558:	d9000317 	ldw	r4,12(sp)
  80455c:	d9403017 	ldw	r5,192(sp)
  804560:	d8803115 	stw	r2,196(sp)
  804564:	200d883a 	mov	r6,r4
  804568:	280f883a 	mov	r7,r5
  80456c:	d8c03215 	stw	r3,200(sp)
  804570:	08068740 	call	806874 <__muldf3>
  804574:	1009883a 	mov	r4,r2
  804578:	180b883a 	mov	r5,r3
  80457c:	100d883a 	mov	r6,r2
  804580:	180f883a 	mov	r7,r3
  804584:	1021883a 	mov	r16,r2
  804588:	1823883a 	mov	r17,r3
  80458c:	08068740 	call	806874 <__muldf3>
  804590:	02129174 	movhi	r8,19013
  804594:	4213bbc4 	addi	r8,r8,20207
  804598:	024ff2b4 	movhi	r9,16330
  80459c:	4a5f8a04 	addi	r9,r9,32296
  8045a0:	480f883a 	mov	r7,r9
  8045a4:	8009883a 	mov	r4,r16
  8045a8:	880b883a 	mov	r5,r17
  8045ac:	400d883a 	mov	r6,r8
  8045b0:	1029883a 	mov	r20,r2
  8045b4:	182b883a 	mov	r21,r3
  8045b8:	08068740 	call	806874 <__muldf3>
  8045bc:	0224f2b4 	movhi	r8,37834
  8045c0:	4236d944 	addi	r8,r8,-9371
  8045c4:	024ff3b4 	movhi	r9,16334
  8045c8:	4a619284 	addi	r9,r9,-31158
  8045cc:	480f883a 	mov	r7,r9
  8045d0:	400d883a 	mov	r6,r8
  8045d4:	180b883a 	mov	r5,r3
  8045d8:	1009883a 	mov	r4,r2
  8045dc:	08068000 	call	806800 <__adddf3>
  8045e0:	180f883a 	mov	r7,r3
  8045e4:	8009883a 	mov	r4,r16
  8045e8:	880b883a 	mov	r5,r17
  8045ec:	100d883a 	mov	r6,r2
  8045f0:	08068740 	call	806874 <__muldf3>
  8045f4:	022a4774 	movhi	r8,43293
  8045f8:	42104044 	addi	r8,r8,16641
  8045fc:	024ff474 	movhi	r9,16337
  804600:	4a5d1804 	addi	r9,r9,29792
  804604:	480f883a 	mov	r7,r9
  804608:	400d883a 	mov	r6,r8
  80460c:	180b883a 	mov	r5,r3
  804610:	1009883a 	mov	r4,r2
  804614:	08068000 	call	806800 <__adddf3>
  804618:	180f883a 	mov	r7,r3
  80461c:	8009883a 	mov	r4,r16
