
capstone_NonVolatile.elf:     file format elf32-littlenios2
capstone_NonVolatile.elf
architecture: nios2, flags 0x00000112:
EXEC_P, HAS_SYMS, D_PAGED
start address 0x00800000

Program Header:
    LOAD off    0x00001000 vaddr 0x00800000 paddr 0x00800000 align 2**12
         filesz 0x00023ce8 memsz 0x001375c4 flags rwx
    LOAD off    0x00025000 vaddr 0x01400000 paddr 0x01400000 align 2**12
         filesz 0x00000000 memsz 0x00000000 flags r-x
    LOAD off    0x00025020 vaddr 0x01904020 paddr 0x01904020 align 2**12
         filesz 0x000001a0 memsz 0x000001a0 flags r-x

Sections:
Idx Name          Size      VMA       LMA       File off  Algn
  0 .entry        00000000  01400000  01400000  00025000  2**5
                  CONTENTS, ALLOC, LOAD, READONLY, CODE
  1 .exceptions   000001a0  01904020  01904020  00025020  2**2
                  CONTENTS, ALLOC, LOAD, READONLY, CODE
  2 .text         00020e1c  00800000  00800000  00001000  2**2
                  CONTENTS, ALLOC, LOAD, READONLY, CODE
  3 .rodata       00001350  00820e1c  00820e1c  00021e1c  2**2
                  CONTENTS, ALLOC, LOAD, READONLY, DATA
  4 .rwdata       00001b7c  0082216c  0082216c  0002316c  2**2
                  CONTENTS, ALLOC, LOAD, DATA, SMALL_DATA
  5 .bss          00113bb6  00823ce8  00823ce8  00024ce8  2**2
                  ALLOC, SMALL_DATA
  6 .comment      00000026  00000000  00000000  000251c0  2**0
                  CONTENTS, READONLY
  7 .debug_aranges 00001150  00000000  00000000  000251e8  2**3
                  CONTENTS, READONLY, DEBUGGING
  8 .debug_pubnames 000038c0  00000000  00000000  00026338  2**0
                  CONTENTS, READONLY, DEBUGGING
  9 .debug_info   00043322  00000000  00000000  00029bf8  2**0
                  CONTENTS, READONLY, DEBUGGING
 10 .debug_abbrev 0000b83e  00000000  00000000  0006cf1a  2**0
                  CONTENTS, READONLY, DEBUGGING
 11 .debug_line   00023d7d  00000000  00000000  00078758  2**0
                  CONTENTS, READONLY, DEBUGGING
 12 .debug_frame  00003e2c  00000000  00000000  0009c4d8  2**2
                  CONTENTS, READONLY, DEBUGGING
 13 .debug_str    00002fe0  00000000  00000000  000a0304  2**0
                  CONTENTS, READONLY, DEBUGGING
 14 .debug_loc    0000fcb1  00000000  00000000  000a32e4  2**0
                  CONTENTS, READONLY, DEBUGGING
 15 .debug_alt_sim_info 00000020  00000000  00000000  000b2f98  2**2
                  CONTENTS, READONLY, DEBUGGING
 16 .debug_ranges 00000988  00000000  00000000  000b2fb8  2**3
                  CONTENTS, READONLY, DEBUGGING
 17 .thread_model 00000006  00000000  00000000  000ba23b  2**0
                  CONTENTS, READONLY
 18 .cpu          0000000c  00000000  00000000  000ba241  2**0
                  CONTENTS, READONLY
 19 .qsys         00000001  00000000  00000000  000ba24d  2**0
                  CONTENTS, READONLY
 20 .simulation_enabled 00000001  00000000  00000000  000ba24e  2**0
                  CONTENTS, READONLY
 21 .sysid_hash   00000004  00000000  00000000  000ba24f  2**0
                  CONTENTS, READONLY
 22 .sysid_base   00000004  00000000  00000000  000ba253  2**0
                  CONTENTS, READONLY
 23 .sysid_time   00000004  00000000  00000000  000ba257  2**0
                  CONTENTS, READONLY
 24 .stderr_dev   0000000b  00000000  00000000  000ba25b  2**0
                  CONTENTS, READONLY
 25 .stdin_dev    0000000b  00000000  00000000  000ba266  2**0
                  CONTENTS, READONLY
 26 .stdout_dev   0000000b  00000000  00000000  000ba271  2**0
                  CONTENTS, READONLY
 27 .sopc_system_name 0000000d  00000000  00000000  000ba27c  2**0
                  CONTENTS, READONLY
 28 .quartus_project_dir 00000043  00000000  00000000  000ba289  2**0
                  CONTENTS, READONLY
 29 .jdi          000051db  00000000  00000000  000ba2cc  2**0
                  CONTENTS, READONLY
 30 .sopcinfo     0008614e  00000000  00000000  000bf4a7  2**0
                  CONTENTS, READONLY
SYMBOL TABLE:
01400000 l    d  .entry	00000000 .entry
01904020 l    d  .exceptions	00000000 .exceptions
00800000 l    d  .text	00000000 .text
00820e1c l    d  .rodata	00000000 .rodata
0082216c l    d  .rwdata	00000000 .rwdata
00823ce8 l    d  .bss	00000000 .bss
00000000 l    d  .comment	00000000 .comment
00000000 l    d  .debug_aranges	00000000 .debug_aranges
00000000 l    d  .debug_pubnames	00000000 .debug_pubnames
00000000 l    d  .debug_info	00000000 .debug_info
00000000 l    d  .debug_abbrev	00000000 .debug_abbrev
00000000 l    d  .debug_line	00000000 .debug_line
00000000 l    d  .debug_frame	00000000 .debug_frame
00000000 l    d  .debug_str	00000000 .debug_str
00000000 l    d  .debug_loc	00000000 .debug_loc
00000000 l    d  .debug_alt_sim_info	00000000 .debug_alt_sim_info
00000000 l    d  .debug_ranges	00000000 .debug_ranges
00800044 l       .text	00000000 alt_after_alt_main
00000000 l    df *ABS*	00000000 alt_irq_handler.c
00000000 l    df *ABS*	00000000 audio.c
00000000 l    df *ABS*	00000000 buttons.c
00000000 l    df *ABS*	00000000 debug.c
00000000 l    df *ABS*	00000000 dir.c
00000000 l    df *ABS*	00000000 disc.c
00000000 l    df *ABS*	00000000 efs.c
00000000 l    df *ABS*	00000000 extract.c
00000000 l    df *ABS*	00000000 fat.c
00000000 l    df *ABS*	00000000 file.c
00000000 l    df *ABS*	00000000 fs.c
00000000 l    df *ABS*	00000000 ioman.c
00000000 l    df *ABS*	00000000 ls.c
00000000 l    df *ABS*	00000000 mkfs.c
00000000 l    df *ABS*	00000000 nios2.c
00000000 l    df *ABS*	00000000 nios2_ramdisk.c
00807e8c l     F .text	00000024 ramdisk_setup
00807eb0 l     F .text	00000074 ramdisk_read
00807f24 l     F .text	00000074 ramdisk_write
0082216c l     O .rwdata	0000000c spifuncs
00000000 l    df *ABS*	00000000 partition.c
00000000 l    df *ABS*	00000000 plibc.c
00000000 l    df *ABS*	00000000 sd.c
00000000 l    df *ABS*	00000000 time.c
00000000 l    df *ABS*	00000000 ui.c
00000000 l    df *ABS*	00000000 main.c
00000000 l    df *ABS*	00000000 sd.c
00000000 l    df *ABS*	00000000 lib2-divmod.c
0080a00c l     F .text	0000007c udivmodsi4
00000000 l    df *ABS*	00000000 malloc.c
00000000 l    df *ABS*	00000000 mallocr.c
00000000 l    df *ABS*	00000000 memcpy.c
00000000 l    df *ABS*	00000000 perror.c
00000000 l    df *ABS*	00000000 printf.c
00000000 l    df *ABS*	00000000 putchar.c
00000000 l    df *ABS*	00000000 puts.c
00000000 l    df *ABS*	00000000 sbrkr.c
00000000 l    df *ABS*	00000000 sprintf.c
00000000 l    df *ABS*	00000000 strerror.c
00000000 l    df *ABS*	00000000 strlen.c
00000000 l    df *ABS*	00000000 u_strerr.c
00000000 l    df *ABS*	00000000 vfprintf.c
0080b364 l     F .text	00000058 __sprint_r
00821d2e l     O .rodata	00000010 blanks.3452
00821d1e l     O .rodata	00000010 zeroes.3453
00000000 l    df *ABS*	00000000 wsetup.c
00000000 l    df *ABS*	00000000 dtoa.c
0080d3c8 l     F .text	00000218 quorem
00000000 l    df *ABS*	00000000 fflush.c
00000000 l    df *ABS*	00000000 findfp.c
0080edc4 l     F .text	00000058 std
0080eed0 l     F .text	00000008 __fp_lock
0080eed8 l     F .text	00000008 __fp_unlock
00000000 l    df *ABS*	00000000 fputc.c
00000000 l    df *ABS*	00000000 fputs.c
00000000 l    df *ABS*	00000000 mallocr.c
00000000 l    df *ABS*	00000000 fvwrite.c
00000000 l    df *ABS*	00000000 fwalk.c
00000000 l    df *ABS*	00000000 impure.c
00822580 l     O .rwdata	00000400 impure_data
00000000 l    df *ABS*	00000000 int_errno.c
00000000 l    df *ABS*	00000000 locale.c
00823c40 l     O .rwdata	00000004 charset
00821d64 l     O .rodata	00000030 lconv
00000000 l    df *ABS*	00000000 makebuf.c
00000000 l    df *ABS*	00000000 memchr.c
00000000 l    df *ABS*	00000000 memmove.c
00000000 l    df *ABS*	00000000 memset.c
00000000 l    df *ABS*	00000000 mprec.c
00821eac l     O .rodata	0000000c p05.2458
00000000 l    df *ABS*	00000000 putc.c
00000000 l    df *ABS*	00000000 mallocr.c
00000000 l    df *ABS*	00000000 s_isinfd.c
00000000 l    df *ABS*	00000000 s_isnand.c
00000000 l    df *ABS*	00000000 stdio.c
00000000 l    df *ABS*	00000000 strcmp.c
00000000 l    df *ABS*	00000000 wbuf.c
00000000 l    df *ABS*	00000000 writer.c
00000000 l    df *ABS*	00000000 mallocr.c
00000000 l    df *ABS*	00000000 closer.c
00000000 l    df *ABS*	00000000 fclose.c
00000000 l    df *ABS*	00000000 fstatr.c
00000000 l    df *ABS*	00000000 isattyr.c
00000000 l    df *ABS*	00000000 lseekr.c
00000000 l    df *ABS*	00000000 readr.c
00000000 l    df *ABS*	00000000 libgcc2.c
00000000 l    df *ABS*	00000000 libgcc2.c
00000000 l    df *ABS*	00000000 dp-bit.c
00812c98 l     F .text	00000410 _fpadd_parts
00000000 l    df *ABS*	00000000 dp-bit.c
00000000 l    df *ABS*	00000000 dp-bit.c
00000000 l    df *ABS*	00000000 dp-bit.c
00000000 l    df *ABS*	00000000 dp-bit.c
00000000 l    df *ABS*	00000000 dp-bit.c
00000000 l    df *ABS*	00000000 dp-bit.c
00000000 l    df *ABS*	00000000 dp-bit.c
00000000 l    df *ABS*	00000000 dp-bit.c
00000000 l    df *ABS*	00000000 dp-bit.c
00000000 l    df *ABS*	00000000 dp-bit.c
00000000 l    df *ABS*	00000000 dp-bit.c
00000000 l    df *ABS*	00000000 libgcc2.c
00000000 l    df *ABS*	00000000 libgcc2.c
00000000 l    df *ABS*	00000000 libgcc2.c
00000000 l    df *ABS*	00000000 dp-bit.c
00000000 l    df *ABS*	00000000 dp-bit.c
00000000 l    df *ABS*	00000000 dp-bit.c
00000000 l    df *ABS*	00000000 alt_close.c
008144ec l     F .text	00000060 alt_get_errno
00000000 l    df *ABS*	00000000 alt_dev.c
0081454c l     F .text	0000002c alt_dev_null_write
00000000 l    df *ABS*	00000000 alt_errno.c
00000000 l    df *ABS*	00000000 alt_fstat.c
0081464c l     F .text	00000060 alt_get_errno
00000000 l    df *ABS*	00000000 alt_irq_register.c
00000000 l    df *ABS*	00000000 alt_irq_vars.c
00000000 l    df *ABS*	00000000 alt_isatty.c
0081492c l     F .text	00000060 alt_get_errno
00000000 l    df *ABS*	00000000 alt_lseek.c
00814a7c l     F .text	00000060 alt_get_errno
00000000 l    df *ABS*	00000000 alt_main.c
00000000 l    df *ABS*	00000000 alt_read.c
00814cc4 l     F .text	00000060 alt_get_errno
00000000 l    df *ABS*	00000000 alt_release_fd.c
00000000 l    df *ABS*	00000000 alt_sbrk.c
00823c60 l     O .rwdata	00000004 heap_end
00000000 l    df *ABS*	00000000 alt_write.c
00814f60 l     F .text	00000060 alt_get_errno
00000000 l    df *ABS*	00000000 alt_env_lock.c
00823c64 l     O .rwdata	00000004 lockid
00823d30 l     O .bss	00000004 locks
00000000 l    df *ABS*	00000000 alt_malloc_lock.c
00823c68 l     O .rwdata	00000004 lockid
00823d38 l     O .bss	00000004 locks
00000000 l    df *ABS*	00000000 os_core.c
00816998 l     F .text	00000044 OS_InitMisc
008169dc l     F .text	0000006c OS_InitRdyList
00816b40 l     F .text	000000e0 OS_InitTCBList
008168bc l     F .text	000000dc OS_InitEventList
00816a48 l     F .text	0000007c OS_InitTaskIdle
00816ac4 l     F .text	0000007c OS_InitTaskStat
00816db4 l     F .text	00000070 OS_SchedNew
00000000 l    df *ABS*	00000000 os_dbg.c
00000000 l    df *ABS*	00000000 os_flag.c
00818cd4 l     F .text	00000110 OS_FlagTaskRdy
00818a2c l     F .text	000001c4 OS_FlagBlock
00000000 l    df *ABS*	00000000 os_mem.c
00000000 l    df *ABS*	00000000 os_q.c
00000000 l    df *ABS*	00000000 os_sem.c
00000000 l    df *ABS*	00000000 os_task.c
00000000 l    df *ABS*	00000000 os_time.c
00000000 l    df *ABS*	00000000 alt_sys_init.c
00822b34 l     O .rwdata	0000106c jtag_uart_0
00823ba0 l     O .rwdata	00000030 audio_and_video_config_0
00823bd0 l     O .rwdata	00000030 audio_0
00823c00 l     O .rwdata	0000002c character_lcd_0
0081d62c l     F .text	00000038 alt_dev_reg
00000000 l    df *ABS*	00000000 altera_avalon_jtag_uart_fd.c
00000000 l    df *ABS*	00000000 altera_avalon_jtag_uart_init.c
0081d8dc l     F .text	000002c8 altera_avalon_jtag_uart_irq
0081dba4 l     F .text	00000114 altera_avalon_jtag_uart_timeout
00000000 l    df *ABS*	00000000 altera_avalon_jtag_uart_ioctl.c
00000000 l    df *ABS*	00000000 altera_avalon_jtag_uart_read.c
00000000 l    df *ABS*	00000000 altera_avalon_jtag_uart_write.c
00000000 l    df *ABS*	00000000 altera_avalon_timer_sc.c
0081e3bc l     F .text	00000074 alt_avalon_timer_sc_irq
00000000 l    df *ABS*	00000000 altera_up_avalon_audio.c
00000000 l    df *ABS*	00000000 altera_up_avalon_audio_and_video_config.c
00000000 l    df *ABS*	00000000 altera_up_avalon_character_lcd.c
00000000 l    df *ABS*	00000000 alt_alarm_start.c
00000000 l    df *ABS*	00000000 alt_dev_llist_insert.c
0081fb84 l     F .text	00000060 alt_get_errno
00000000 l    df *ABS*	00000000 alt_do_ctors.c
00000000 l    df *ABS*	00000000 alt_do_dtors.c
00000000 l    df *ABS*	00000000 alt_find_dev.c
00000000 l    df *ABS*	00000000 alt_io_redirect.c
0081fd40 l     F .text	000000c4 alt_open_fd
00000000 l    df *ABS*	00000000 alt_open.c
0081fe7c l     F .text	000000dc alt_file_locked
008200e0 l     F .text	00000060 alt_get_errno
00000000 l    df *ABS*	00000000 alt_tick.c
00000000 l    df *ABS*	00000000 altera_nios2_qsys_irq.c
00000040 l       *ABS*	00000000 OSCtxSw_SWITCH_PC
00000000 l    df *ABS*	00000000 os_cpu_c.c
00000014 l       *ABS*	00000000 OSTCBNext_OFFSET
00000032 l       *ABS*	00000000 OSTCBPrio_OFFSET
00000000 l       *ABS*	00000000 OSTCBStkPtr_OFFSET
00000000 l    df *ABS*	00000000 alt_find_file.c
00000000 l    df *ABS*	00000000 alt_get_fd.c
00000000 l    df *ABS*	00000000 atexit.c
00000000 l    df *ABS*	00000000 exit.c
00000000 l    df *ABS*	00000000 memcmp.c
00000000 l    df *ABS*	00000000 __atexit.c
00000000 l    df *ABS*	00000000 __call_atexit.c
00820bf8 l     F .text	00000004 register_fini
00000000 l    df *ABS*	00000000 alt_exit.c
00820dac l     F .text	00000040 alt_sim_halt
0081ee18 g     F .text	00000038 alt_up_av_config_reset
0080aa58 g     F .text	0000001c putchar
008104ec g     F .text	00000094 _mprec_log10
0081f2bc g     F .text	00000064 alt_up_av_config_read_D5M_cfg_register
00823cb6 g     O .rwdata	00000002 OSTaskNameSize
00808e24 g     F .text	000001dc sd_getDriveSize
00803134 g     F .text	00000068 file_write
008105d8 g     F .text	00000088 __any_on
00811fac g     F .text	00000070 _isatty_r
00821e84 g     O .rodata	00000028 __mprec_tinytens
0081ee88 g     F .text	00000030 alt_up_av_config_disable_interrupt
008044f8 g     F .text	00000158 fs_countDataSectors
00814adc g     F .text	000000c8 alt_main
0080aa7c g     F .text	000000a0 _puts_r
00937334 g     O .bss	00000100 alt_irq
008013d0 g     F .text	00000048 disc_initDisc
008017bc g     F .text	0000014c ex_getPartitionField
0081201c g     F .text	00000078 _lseek_r
0080068c g     F .text	0000017c interrupt_isr_buttonPress
008195c8 g     F .text	000000d0 OS_MemInit
0081d508 g     F .text	00000064 OSTimeSet
00804220 g     F .text	0000013c fs_loadVolumeId
00806424 g     F .text	000000dc ioman_putSectorInCache
0081f4c8 g     F .text	00000034 alt_up_character_lcd_send_cmd
008137b8 g     F .text	00000088 __eqdf2
00823dc0 g     O .bss	0000001c isPlaying
008025dc g     F .text	000001b0 fat_getNextClusterChain
00815514 g     F .text	000006b4 OSEventPendMulti
0081e730 g     F .text	00000070 alt_up_audio_read_fifo_avail
009375c4 g       *ABS*	00000000 __alt_heap_start
0081ef58 g     F .text	000000ac alt_up_av_config_write_audio_cfg_register
008206e8 g     F .text	00000020 OSTaskCreateHook
00823ddc g     O .bss	00002000 task1_stk
00806614 g     F .text	00000154 ioman_flushRange
0080a9e0 g     F .text	00000044 printf
00823c8e g     O .rwdata	00000002 OSMboxEn
0081e7a0 g     F .text	00000070 alt_up_audio_record_r
00815c1c g     F .text	0000007c OSIntEnter
0081192c g     F .text	00000068 __sseek
0080ee2c g     F .text	000000a4 __sinit
00811b2c g     F .text	00000130 __swbuf_r
00823c9e g     O .rwdata	00000002 OSQEn
00807b70 g     F .text	00000044 if_spiInit
0080fc50 g     F .text	00000084 _setlocale_r
00823ce8 g     O .bss	00000004 sem
0080ef2c g     F .text	00000068 __sfmoreglue
008151d0 g     F .text	000000d0 __malloc_unlock
00805d60 g     F .text	00000068 ioman_getPtr
00820744 g     F .text	0000001c OSTaskStatHook
00823d40 g     O .bss	00000001 OSLockNesting
0080ac74 g     F .text	00000674 strerror
00823cdc g     O .rwdata	00000002 OSDataSize
00823d41 g     O .bss	00000001 OSRunning
0081e6a8 g     F .text	00000088 alt_up_audio_reset_audio_core
00805ba0 g     F .text	000001c0 ioman_push
008060e4 g     F .text	00000084 ioman_findFreeSpot
0080ff68 g     F .text	000000e0 memmove
0082077c g     F .text	0000001c OSInitHookBegin
00808d20 g     F .text	00000104 sd_readSector
00823cd4 g     O .rwdata	00000002 OSTmrSize
0080ef1c g     F .text	00000010 _cleanup
00810660 g     F .text	000000bc _Balloc
00823d44 g     O .bss	00000004 OSIdleCtr
008138c8 g     F .text	00000088 __gtdf2
008088b8 g     F .text	000001d8 sd_Resp8bError
008203b4 g       .text	00000000 OSStartTsk
00000000  w      *UND*	00000000 __errno
0081f44c g     F .text	0000007c get_DDRAM_addr
008170e8 g     F .text	000002e0 OS_TCBInit
00803b70 g     F .text	00000278 file_normalToFatName
01400000 g     F .entry	00000000 __reset
008002c0 g     F .text	00000280 synthesize
00823cec g     O .bss	00000004 edge_capture
00823cda g     O .rwdata	00000002 OSTmrWheelTblSize
00800ba8 g     F .text	00000088 dir_updateDirectoryEntry
00823c7a g     O .rwdata	00000002 OSEventSize
00823d48 g     O .bss	00000001 OSPrioHighRdy
00811f38 g     F .text	00000074 _fstat_r
00820708 g     F .text	00000020 OSTaskDelHook
00823cf0 g     O .bss	00000004 semaphore
00823d0c g     O .bss	00000004 errno
00820394 g       .text	00000000 OSStartHighRdy
00808224 g     F .text	00000060 part_getSect
0081bcdc g     F .text	00000200 OSTaskCreateExt
00808720 g     F .text	000000b4 sd_Command
00818548 g     F .text	00000068 OSFlagPendGetFlagsRdy
00823cba g     O .rwdata	00000002 OSTaskStatStkSize
0081e66c g     F .text	0000003c alt_up_audio_write_interrupt_pending
00817554 g     F .text	00000334 OSFlagAccept
00800f0c g     F .text	00000124 dir_findinCluster
00819d00 g     F .text	000000c8 OSQFlush
008087d4 g     F .text	0000007c sd_Resp8b
008073a4 g     F .text	00000110 ls_getRootAreaEntry
00819698 g     F .text	00000154 OSQAccept
00823d28 g     O .bss	00000004 alt_argv
008055ec g     F .text	0000006c ioman_getUseCnt
0082bc2c g       *ABS*	00000000 _gp
00801030 g     F .text	000000f8 dir_findinDir
0081bb08 g     F .text	000001d4 OSTaskCreate
0081b594 g     F .text	00000574 OSTaskChangePrio
00823d3c g     O .bss	00000004 alt_heapsem
008173c8 g     F .text	0000018c OSDebugInit
0081bedc g     F .text	0000040c OSTaskDel
008022f8 g     F .text	000002e4 fat_setNextClusterAddressWBuf
00804894 g     F .text	000000fc fs_sectorToCluster
00801930 g     F .text	00000128 fat_getSectorAddressFatEntry
00807544 g     F .text	000000a4 ls_fileEntryToDirListEntry
008229b4 g     O .rwdata	00000180 alt_fd_list
00934110 g     O .bss	00000370 OSFlagTbl
0080aa74 g     F .text	00000008 _putchar_r
00807118 g     F .text	0000008c ls_getDirEntry
00816698 g     F .text	000000b8 OS_EventTaskRemove
0081fcac g     F .text	00000094 alt_find_dev
0080a8c0 g     F .text	000000a0 memcpy
00823ca4 g     O .rwdata	00000002 OSRdyTblSize
0081f660 g     F .text	0000004c alt_up_character_lcd_write_fd
0080ef10 g     F .text	0000000c _cleanup_r
00813a60 g     F .text	000000f8 __floatsidf
0080a9cc g     F .text	00000014 perror
0081fe04 g     F .text	00000078 alt_io_redirect
008139d8 g     F .text	00000088 __ltdf2
00806ebc g     F .text	000001a4 ioman_printStatus
00800540 g     F .text	0000005c init_button_pio
0080724c g     F .text	00000158 ls_getRealDirEntry
00820e1c g       *ABS*	00000000 __DTOR_END__
0080ab1c g     F .text	00000014 puts
008152a0 g     F .text	00000130 OSEventNameGet
00823c88 g     O .rwdata	00000002 OSFlagMax
0081043c g     F .text	000000b0 __ratio
00815c98 g     F .text	00000100 OSIntExit
00809ef0 g     F .text	0000011c parseWav
00823cc2 g     O .rwdata	00000002 OSTCBSize
0081ec04 g     F .text	00000060 alt_up_audio_read_fifo_head
00823d49 g     O .bss	00000001 OSPrioCur
0081de20 g     F .text	000002c0 altera_avalon_jtag_uart_read
0080a16c g     F .text	00000014 malloc
0080aa24 g     F .text	00000034 _printf_r
00804650 g     F .text	0000007c fs_determineFatType
00800a80 g     F .text	000000a8 dir_setFirstCluster
01904000 g       *ABS*	00000000 __alt_mem_onchip_memory2_0
008040f0 g     F .text	000000bc fs_initFs
0080a148 g     F .text	00000008 __udivsi3
0081486c g     F .text	000000c0 isatty
00803fa0 g     F .text	00000150 file_requiredCluster
00825ddc g     O .bss	000249f0 tom2
00823ca8 g     O .rwdata	00000002 OSStkWidth
00821d94 g     O .rodata	000000c8 __mprec_tens
00823c9c g     O .rwdata	00000002 OSPtrSize
008047c8 g     F .text	000000cc fs_clusterToSector
008015dc g     F .text	00000060 ex_getb16
0084a7cc g     O .bss	00004e20 kick
0080fc2c g     F .text	00000008 __locale_charset
00823c7c g     O .rwdata	00000002 OSEventTblSize
008014b4 g     F .text	00000128 efs_init
00820308 g       .text	00000000 OSCtxSw
00823d00 g     O .bss	00000004 __malloc_top_pad
00823d4c g     O .bss	00000004 OSTCBList
00823d1c g     O .bss	00000004 alt_fd_list_lock
0081ed8c g     F .text	0000008c alt_up_av_config_read_data
00823c3c g     O .rwdata	00000004 __mb_cur_max
0080fc34 g     F .text	0000000c _localeconv_r
00806500 g     F .text	00000114 ioman_flushSector
00810d58 g     F .text	0000003c __i2b
0080f610 g     F .text	0000049c __sfvwrite_r
00934480 g     O .bss	00000c30 OSMemTbl
00823d50 g     O .bss	00000001 OSTickStepState
00823cf4 g     O .bss	00000004 audio_dev
00805e80 g     F .text	0000008c ioman_readSector
0080ab30 g     F .text	00000070 _sbrk_r
008080ec g     F .text	00000070 part_readBuf
0084f5ec g     O .bss	00000040 nextToPlay
0084f62c g     O .bss	00037ab8 tom
00823ca0 g     O .rwdata	00000002 OSQMax
009350b0 g     O .bss	00000800 OSTaskStatStk
008191b0 g     F .text	0000010c OSMemNameGet
00803f5c g     F .text	00000044 file_getAttr
00823c80 g     O .rwdata	00000002 OSFlagEn
00806168 g     F .text	00000170 ioman_findUnusedSpot
00812094 g     F .text	00000078 _read_r
00823cc6 g     O .rwdata	00000002 OSTimeTickHookEn
008081cc g     F .text	00000058 part_getRealLBA
0081a264 g     F .text	00000180 OSQPost
00818de4 g     F .text	000000ac OS_FlagUnlink
00822980 g     O .rwdata	0000000c __lc_ctype
00823c54 g     O .rwdata	00000004 alt_max_fd
00816c74 g     F .text	0000006c OS_MemCopy
0081ec64 g     F .text	00000060 alt_up_audio_write_fifo_head
00816ce0 g     F .text	000000d4 OS_Sched
008141f0 g     F .text	00000138 __unpack_d
00811e14 g     F .text	00000110 _fclose_r
00803de8 g     F .text	000000e8 file_validateChar
008190ac g     F .text	00000104 OSMemGet
00807fc0 g     F .text	000000b0 part_initPartition
0081c610 g     F .text	000001c4 OSTaskNameSet
0080ed90 g     F .text	00000034 fflush
00823d04 g     O .bss	00000004 __malloc_max_sbrked_mem
00823d54 g     O .bss	00000004 OSCtxSwCtr
00820760 g     F .text	0000001c OSTimeTickHook
008146ac g     F .text	000001c0 alt_irq_register
00823c8a g     O .rwdata	00000002 OSFlagNameSize
00816750 g     F .text	00000104 OS_EventTaskRemoveMulti
0080683c g     F .text	0000030c ioman_getSector
00813128 g     F .text	00000074 __adddf3
00816544 g     F .text	00000154 OS_EventTaskWaitMulti
0081031c g     F .text	00000120 __b2d
00800e80 g     F .text	0000008c dir_findinBuf
00823ca2 g     O .rwdata	00000002 OSQSize
00809000 g     F .text	00000020 fs_makeDate
008126e8 g     F .text	000005b0 __umoddi3
0081498c g     F .text	000000f0 lseek
0081ae40 g     F .text	0000027c OSSemPend
00823c38 g     O .rwdata	00000004 _global_impure_ptr
008112c0 g     F .text	000005f4 _realloc_r
00823c8c g     O .rwdata	00000002 OSLowestPrio
009375c4 g       *ABS*	00000000 __bss_end
008001f8 g     F .text	000000c8 audio_isr
008207d0 g     F .text	00000020 OSTCBInitHook
00823cd2 g     O .rwdata	00000002 OSTmrCfgTicksPerSec
008201d8 g     F .text	00000110 alt_tick
0081210c g     F .text	000005dc __udivdi3
00808354 g     F .text	0000006c part_directSectorRead
00806038 g     F .text	000000ac ioman_findSectorInCache
00809020 g     F .text	00000020 fs_makeTime
00823c74 g     O .rwdata	00000002 OSEventEn
00821e5c g     O .rodata	00000028 __mprec_bigtens
00810fb4 g     F .text	00000120 __s2b
00823cce g     O .rwdata	00000002 OSTmrCfgNameSize
00813c30 g     F .text	00000194 __floatunsidf
0081023c g     F .text	00000060 __mcmp
008062d8 g     F .text	0000014c ioman_findOverallocableSpot
008870e4 g     O .bss	000062a4 hihat2
0081e4b8 g     F .text	00000040 alt_up_audio_open_dev
00823cf8 g     O .bss	00000004 button
0080eef8 g     F .text	00000018 __fp_lock_all
00808584 g     F .text	0000005c memSet
00801340 g     F .text	00000090 dir_addCluster
00823cfc g     O .bss	00000004 myLCD
00807b48 g     F .text	00000028 if_setPos
00818bf0 g     F .text	000000e4 OS_FlagInit
008094a0 g     F .text	000002c8 makedir
0081e8f4 g     F .text	00000070 alt_up_audio_play_r
00820140 g     F .text	00000098 alt_alarm_stop
00823cb0 g     O .rwdata	00000002 OSTaskIdleStkSize
00823d20 g     O .bss	00000004 alt_irq_active
0081a9cc g     F .text	000000c0 OSSemAccept
008193dc g     F .text	000000f0 OSMemPut
00804a34 g     F .text	00000240 fs_findFile
00802130 g     F .text	000001c8 fat_getNextClusterAddressWBuf
00818e90 g     F .text	0000021c OSMemCreate
00823d58 g     O .bss	00000004 OSIdleCtrMax
00804c74 g     F .text	00000120 fs_findFreeFile
019040ec g     F .exceptions	000000d4 alt_irq_handler
0082298c g     O .rwdata	00000028 alt_dev_null
00823cc4 g     O .rwdata	00000002 OSTicksPerSec
0080172c g     F .text	00000090 ex_setb32
0081f948 g     F .text	00000034 alt_up_character_lcd_cursor_blink_on
008071a4 g     F .text	000000a8 ls_getNext
00820308 g       .text	00000000 OSIntCtxSw
008052e4 g     F .text	00000170 ioman_reset
00810108 g     F .text	00000070 __hi0bits
00813b58 g     F .text	000000d8 __fixdfsi
008058dc g     F .text	00000094 ioman_decRefCnt
00804f20 g     F .text	00000048 fs_setFirstClusterInDirEntry
00823d5c g     O .bss	00000004 OSTCBFreeList
0081b0bc g     F .text	0000017c OSSemPendAbort
00823c4c g     O .rwdata	00000008 alt_dev_list
0080f0e8 g     F .text	00000058 _fputc_r
00814e40 g     F .text	00000120 write
008111d8 g     F .text	000000e8 _putc_r
00823cc8 g     O .rwdata	00000002 OSVersionNbr
00804e6c g     F .text	00000054 fs_getFirstClusterRootDir
00814578 g     F .text	000000d4 fstat
00823c70 g     O .rwdata	00000004 OSEndiannessTest
00810e94 g     F .text	00000120 __pow5mult
00823d10 g     O .bss	00000004 __nlocale_changed
0080a150 g     F .text	00000008 __umodsi3
0080278c g     F .text	00000130 fat_LogicToDiscCluster
00801c80 g     F .text	00000374 fat_setNextClusterAddress
00823c82 g     O .rwdata	00000002 OSFlagGrpSize
009375c4 g       *ABS*	00000000 end
0081d7ac g     F .text	00000130 altera_avalon_jtag_uart_init
00816f58 g     F .text	000000c8 OS_TaskStat
00802db4 g     F .text	00000080 fat_countFreeClusters
0080353c g     F .text	00000478 file_fopen
00820e18 g       *ABS*	00000000 __CTOR_LIST__
01000000 g       *ABS*	00000000 __alt_stack_pointer
0081e430 g     F .text	00000088 alt_avalon_timer_sc_init
00813e5c g     F .text	00000080 __clzsi2
0081e0e0 g     F .text	000002dc altera_avalon_jtag_uart_write
00801128 g     F .text	00000144 dir_findinRootArea
0080ee1c g     F .text	00000004 __sfp_lock_acquire
0080fe84 g     F .text	000000e4 memchr
00816c20 g     F .text	00000054 OS_MemClr
0081f570 g     F .text	00000078 alt_up_character_lcd_write
0080b3bc g     F .text	00001eac ___vfprintf_internal_r
008203d8 g     F .text	00000310 OSTaskStkInit
0080ac14 g     F .text	00000060 _sprintf_r
0080f2fc g     F .text	00000314 _free_r
008162a0 g     F .text	00000194 OS_EventTaskRdy
00805dc8 g     F .text	000000b8 ioman_getBp
00809d48 g     F .text	00000080 sdInit
00801a58 g     F .text	00000228 fat_getNextClusterAddress
008056ec g     F .text	00000094 ioman_decUseCnt
00820bfc g     F .text	000001b0 __call_exitprocs
008030cc g     F .text	00000068 file_read
00823d60 g     O .bss	00000001 OSCPUUsage
00823d14 g     O .bss	00000004 __mlocale_changed
0080059c g     F .text	00000058 DE2_conn_init
00823c30 g     O .rwdata	00000004 __malloc_sbrk_base
00800000 g     F .text	00000048 _start
00823d90 g     O .bss	00000004 _alt_tick_rate
00819dc8 g     F .text	00000320 OSQPend
00804f68 g     F .text	0000004c fs_flushFs
0080b35c g     F .text	00000008 _user_strerror
0081cfd4 g     F .text	0000014c OSTimeDly
0081ead8 g     F .text	0000012c alt_up_audio_write_fifo
00802d04 g     F .text	000000b0 fat_DiscToLogicCluster
00810a24 g     F .text	0000014c __lshift
0081ed28 g     F .text	00000064 alt_up_av_config_write_data
00823d94 g     O .bss	00000004 _alt_nticks
00814ba4 g     F .text	00000120 read
0081d5a0 g     F .text	0000008c alt_sys_init
0081f7d4 g     F .text	000000b0 alt_up_character_lcd_shift_display
0080094c g     F .text	00000084 dir_createDirectoryEntry
0081e9d4 g     F .text	00000104 alt_up_audio_read_fifo
00808070 g     F .text	0000007c part_isFatPart
00820ac4 g     F .text	00000134 __register_exitproc
00823d61 g     O .bss	00000001 OSTaskCtr
0081f3e8 g     F .text	00000064 alt_up_av_config_write_LTM_cfg_register
0081e5e0 g     F .text	00000050 alt_up_audio_disable_write_interrupt
00807bb4 g     F .text	00000120 if_spiSend
0081d120 g     F .text	00000174 OSTimeDlyHMSM
00810b70 g     F .text	000001e8 __multiply
00805454 g     F .text	0000002c ioman_getBuffer
0081f884 g     F .text	00000090 alt_up_character_lcd_erase_pos
0081dcb8 g     F .text	00000074 altera_avalon_jtag_uart_close
00823d98 g     O .bss	00000028 __malloc_current_mallinfo
00823c76 g     O .rwdata	00000002 OSEventMax
0081071c g     F .text	0000017c __d2b
00804fb4 g     F .text	0000003c fs_umount
0081b238 g     F .text	00000128 OSSemPost
00804a10 g     F .text	00000024 fs_giveFreeClusterHint
00808530 g     F .text	00000054 memClr
00805f0c g     F .text	0000008c ioman_writeSector
00815e24 g     F .text	000000e4 OSSchedUnlock
00804d94 g     F .text	000000d8 fs_getLastCluster
0081d664 g     F .text	00000058 altera_avalon_jtag_uart_read_fd
00820910 g     F .text	000000f4 alt_get_fd
00823d64 g     O .bss	00000004 OSMemFreeList
00815f78 g     F .text	000000ac OSStatInit
00818958 g     F .text	000000d4 OSFlagQuery
00814328 g     F .text	000000c8 __fpcmp_parts_d
00806b48 g     F .text	000000e0 ioman_releaseSector
00823cac g     O .rwdata	00000002 OSTaskCreateExtEn
00811da4 g     F .text	00000070 _close_r
0081e594 g     F .text	0000004c alt_up_audio_enable_write_interrupt
00820a50 g     F .text	00000074 memcmp
00816284 g     F .text	0000001c OS_Dummy
0081d714 g     F .text	00000048 altera_avalon_jtag_uart_close_fd
009375c4 g       *ABS*	00000000 __alt_stack_base
0081d75c g     F .text	00000050 altera_avalon_jtag_uart_ioctl_fd
0088d388 g     O .bss	0003ddb8 crash
008046cc g     F .text	000000c0 fs_findFirstSectorRootDir
0080519c g     F .text	000000d0 fs_setFsInfo
0080d28c g     F .text	0000013c __swsetup_r
009358b0 g     O .bss	000001e0 OSQTbl
00813560 g     F .text	00000258 __divdf3
0081e544 g     F .text	00000050 alt_up_audio_disable_read_interrupt
0080ef94 g     F .text	000000f0 __sfp
00810580 g     F .text	00000058 __copybits
00822178 g     O .rwdata	00000408 __malloc_av_
008009d0 g     F .text	000000b0 dir_createDefaultEntry
0080ee28 g     F .text	00000004 __sinit_lock_release
00823d68 g     O .bss	00000004 OSTCBHighRdy
0081319c g     F .text	000003c4 __muldf3
00811a10 g     F .text	00000060 __sread
00823d6c g     O .bss	00000004 OSQFreeList
008207f0 g     F .text	00000120 alt_find_file
00806d50 g     F .text	0000016c ioman_directSectorWrite
0081fad0 g     F .text	000000b4 alt_dev_llist_insert
008150c8 g     F .text	00000108 __malloc_lock
00814d84 g     F .text	000000bc sbrk
008084c4 g     F .text	0000006c memCpy
0080815c g     F .text	00000070 part_writeBuf
008153d0 g     F .text	00000144 OSEventNameSet
0080eb94 g     F .text	000001fc _fflush_r
00811cf0 g     F .text	000000b4 _calloc_r
00823d70 g     O .bss	00000001 OSRdyGrp
00807afc g     F .text	0000004c if_writeBuf
0080526c g     F .text	00000078 ioman_init
008074b4 g     F .text	00000090 ls_isValidFileEntry
00807060 g     F .text	000000b8 ls_openDir
00823ce8 g       *ABS*	00000000 __bss_start
00806768 g     F .text	000000d4 ioman_flushAll
00810048 g     F .text	00000098 memset
00809768 g     F .text	000005e0 main
0081e880 g     F .text	00000074 alt_up_audio_write_fifo_space
00823d2c g     O .bss	00000004 alt_envp
00823d08 g     O .bss	00000004 __malloc_max_total_mem
0081d6bc g     F .text	00000058 altera_avalon_jtag_uart_write_fd
00811c5c g     F .text	0000001c __swbuf
00821fec g     O .rodata	00000100 OSUnMapTbl
00808c4c g     F .text	000000d4 sd_writeSector
00823ca6 g     O .rwdata	00000002 OSSemEn
0081f724 g     F .text	000000b0 alt_up_character_lcd_shift_cursor
008185b0 g     F .text	000003a8 OSFlagPost
0080163c g     F .text	00000098 ex_getb32
00811924 g     F .text	00000008 __sclose
01000000 g       *ABS*	00000000 __alt_heap_limit
00811f24 g     F .text	00000014 fclose
00816434 g     F .text	00000110 OS_EventTaskWait
008cb140 g     O .bss	00002000 task2_stk
00817020 g     F .text	000000c8 OS_TaskStatStkChk
00937434 g     O .bss	00000190 _atexit0
0081c2e8 g     F .text	00000170 OSTaskDelReq
0080d5e0 g     F .text	000015b4 _dtoa_r
0080a180 g     F .text	00000740 _malloc_r
00823c58 g     O .rwdata	00000004 alt_errno
00815f08 g     F .text	00000070 OSStart
0081506c g     F .text	0000005c __env_unlock
008005f4 g     F .text	00000098 interrupt_isr_de2Poll
0080fb74 g     F .text	000000b8 _fwalk
0081c7d4 g     F .text	00000218 OSTaskResume
008194cc g     F .text	000000fc OSMemQuery
00823cb8 g     O .rwdata	00000002 OSTaskStatEn
00801908 g     F .text	00000028 ex_setPartitionField
00805848 g     F .text	00000094 ioman_incRefCnt
00823c92 g     O .rwdata	00000002 OSMemMax
0081a3e4 g     F .text	00000188 OSQPostFront
008110d4 g     F .text	00000104 putc
0080a088 g     F .text	00000060 __divsi3
00823d71 g     O .bss	00000003 OSRdyTbl
00823c6c g     O .rwdata	00000002 OSDebugEn
00821eb8 g     O .rodata	00000014 __thenan_df
0081f530 g     F .text	00000040 alt_up_character_lcd_open_dev
0080f1d0 g     F .text	0000012c _malloc_trim_r
00820e1c g       *ABS*	00000000 __CTOR_END__
00823c84 g     O .rwdata	00000002 OSFlagNodeSize
00800c30 g     F .text	00000158 dir_findFileinBuf
00823ccc g     O .rwdata	00000002 OSTmrCfgMax
0081f4fc g     F .text	00000034 alt_up_character_lcd_init
00811a70 g     F .text	000000bc strcmp
008197ec g     F .text	00000214 OSQCreate
0081c458 g     F .text	000001b8 OSTaskNameGet
0081a56c g     F .text	00000234 OSQPostOpt
00816024 g     F .text	00000240 OSTimeTick
00823cb4 g     O .rwdata	00000002 OSTaskMax
00820e1c g       *ABS*	00000000 __DTOR_LIST__
0081aa8c g     F .text	00000114 OSSemCreate
00823cd8 g     O .rwdata	00000002 OSTmrWheelSize
00805480 g     F .text	000000e4 ioman_setAttr
00801ff4 g     F .text	000000b4 fat_isEocMarker
00809360 g     F .text	00000140 rmfile
00813840 g     F .text	00000088 __nedf2
008cd140 g     O .bss	0000001c drums
00823cae g     O .rwdata	00000002 OSTaskDelEn
00806c28 g     F .text	00000128 ioman_directSectorRead
01880000 g       *ABS*	00000000 __alt_mem_sram_0
00808284 g     F .text	0000004c part_relSect
0081ecc4 g     F .text	00000064 alt_up_av_config_open_dev
00807f98 g     F .text	00000028 ramdisk_init
008059cc g     F .text	000001d4 ioman_pop
008082d0 g     F .text	00000084 part_flushPart
0081b360 g     F .text	00000130 OSSemQuery
00819a00 g     F .text	00000300 OSQDel
0081a0e8 g     F .text	0000017c OSQPendAbort
0081d56c g     F .text	00000034 alt_irq_init
00814d24 g     F .text	00000060 alt_release_fd
008016d4 g     F .text	00000058 ex_setb16
008028bc g     F .text	000002cc fat_allocClusterChain
008020a8 g     F .text	00000088 fat_giveEocMarker
00809060 g     F .text	00000300 listFiles
00805564 g     F .text	00000088 ioman_getAttr
00805780 g     F .text	0000005c ioman_resetUseCnt
0080aba0 g     F .text	00000074 sprintf
0081f914 g     F .text	00000034 alt_up_character_lcd_cursor_off
00821ecc g     O .rodata	00000100 __clz_tab
00802e34 g     F .text	00000298 file_fread
00823d18 g     O .bss	00000004 _PathLocale
00809040 g     F .text	00000020 fs_hasTimeSupport
01400000 g       *ABS*	00000000 __alt_mem_generic_tristate_controller_0
00820a04 g     F .text	00000014 atexit
00811c78 g     F .text	00000078 _write_r
0081ef20 g     F .text	00000038 alt_up_av_config_read_ready
0080842c g     F .text	00000098 strMatch
00815d98 g     F .text	0000008c OSSchedLock
0080fcd4 g     F .text	0000001c setlocale
00817888 g     F .text	0000013c OSFlagCreate
00823c34 g     O .rwdata	00000004 _impure_ptr
00807cd4 g     F .text	000000d0 if_spi_sendbuf
00823d24 g     O .bss	00000004 alt_argc
00800808 g     F .text	00000088 setDrum
0081fc48 g     F .text	00000064 _do_dtors
00823c7e g     O .rwdata	00000002 OSEventMultiEn
00800048 g     F .text	000001b0 audioInit
008179c4 g     F .text	000002a8 OSFlagDel
00800000 g       *ABS*	00000000 __alt_mem_sdram_0
00823d74 g     O .bss	00000004 OSEventFreeList
01904020 g       .exceptions	00000000 alt_irq_entry
0081029c g     F .text	00000080 __ulp
008118b4 g     F .text	00000040 __isinfd
00817f04 g     F .text	00000644 OSFlagPend
00823cca g     O .rwdata	00000002 OSTmrEn
0080eee0 g     F .text	00000018 __fp_unlock_all
0080f084 g     F .text	00000064 fputc
00823c44 g     O .rwdata	00000008 alt_fs_list
00816e24 g     F .text	00000080 OS_StrCopy
0081e810 g     F .text	00000070 alt_up_audio_record_l
00803ed0 g     F .text	0000008c file_setAttr
00823c94 g     O .rwdata	00000002 OSMemNameSize
00820798 g     F .text	0000001c OSInitHookEnd
00804990 g     F .text	00000080 fs_getNextFreeCluster
00823cc0 g     O .rwdata	00000002 OSTCBPrioTblMax
0080fc40 g     F .text	00000010 localeconv
00823cbc g     O .rwdata	00000002 OSTaskStatStkChkEn
008039b4 g     F .text	00000100 file_fclose
0081ee50 g     F .text	00000038 alt_up_av_config_enable_interrupt
008057dc g     F .text	0000006c ioman_getRefCnt
00823c90 g     O .rwdata	00000002 OSMemEn
00823c9a g     O .rwdata	00000002 OSMutexEn
0081eeb8 g     F .text	00000068 alt_up_av_config_read_acknowledge
00805970 g     F .text	0000005c ioman_resetRefCnt
0081f258 g     F .text	00000064 alt_up_av_config_write_DC2_cfg_register
00823ce8 g       *ABS*	00000000 _edata
00802c60 g     F .text	000000a4 fat_countClustersInChain
009375c4 g       *ABS*	00000000 _end
00800b28 g     F .text	00000080 dir_setFileSize
00823d78 g     O .bss	00000001 OSIntNesting
0080435c g     F .text	0000019c fs_verifySanity
0080126c g     F .text	000000d4 dir_getFatFileName
0081dd2c g     F .text	000000f4 altera_avalon_jtag_uart_ioctl
0080f140 g     F .text	00000074 _fputs_r
008075e8 g     F .text	000003e4 mkfs_makevfat
00801418 g     F .text	0000009c disc_loadMBR
0081d294 g     F .text	00000210 OSTimeDlyResume
00802b88 g     F .text	000000d8 fat_unlinkClusterChain
00817db0 g     F .text	00000154 OSFlagNameSet
008cd15c g     O .bss	0000710c snare
0081e964 g     F .text	00000070 alt_up_audio_play_l
0081c9ec g     F .text	000001fc OSTaskStkChk
00823c96 g     O .rwdata	00000002 OSMemSize
00800890 g     F .text	000000bc dir_getFileStructure
00811994 g     F .text	0000007c __swrite
00823c2c g     O .rwdata	00000004 __malloc_trim_threshold
0080a960 g     F .text	0000006c _perror_r
008202e8 g     F .text	00000020 altera_nios2_qsys_irq_init
00823d7c g     O .bss	00000004 OSTCBCur
00820a18 g     F .text	00000038 exit
00823c98 g     O .rwdata	00000002 OSMemTblSize
0080faac g     F .text	000000c8 _fwalk_reent
00810898 g     F .text	0000018c __mdiff
0081f384 g     F .text	00000064 alt_up_av_config_read_LTM_cfg_register
0080a0e8 g     F .text	00000060 __modsi3
01000000 g       *ABS*	00000000 __alt_data_end
01904020 g     F .exceptions	00000000 alt_exception
0080ee20 g     F .text	00000004 __sfp_lock_release
00815bc8 g     F .text	00000054 OSInit
0081ce14 g     F .text	00000144 OSTaskQuery
00807aac g     F .text	00000050 if_readBuf
00805658 g     F .text	00000094 ioman_incUseCnt
0081f5e8 g     F .text	00000078 alt_up_character_lcd_string
0081a920 g     F .text	000000ac OS_QInit
00816ea4 g     F .text	00000058 OS_StrLen
008192bc g     F .text	00000120 OSMemNameSet
00807da4 g     F .text	000000e8 if_spi_readbuf
00808850 g     F .text	00000068 sd_Resp16b
008050a0 g     F .text	000000fc fs_getFsInfo
00823cb2 g     O .rwdata	00000002 OSTaskProfileEn
00809dc8 g     F .text	00000128 sdRead
00823d80 g     O .bss	00000004 OSTime
00935a90 g     O .bss	00000800 OSTaskIdleStk
00820dec g     F .text	0000002c _exit
008118f4 g     F .text	00000030 __isnand
0081f97c g     F .text	00000154 alt_alarm_start
00817c6c g     F .text	00000144 OSFlagNameGet
0081d4a4 g     F .text	00000064 OSTimeGet
00813dc4 g     F .text	00000098 __muldi3
0080fcf0 g     F .text	00000194 __smakebuf_r
0080319c g     F .text	00000054 file_setpos
00803ab4 g     F .text	000000bc file_initFile
0080b2e8 g     F .text	00000074 strlen
00820728 g     F .text	0000001c OSTaskSwHook
0081ff58 g     F .text	00000188 open
00936290 g     O .bss	00000b40 OSEventTbl
00813950 g     F .text	00000088 __gedf2
00804ec0 g     F .text	00000060 fs_initClusterChain
00936dd0 g     O .bss	00000510 OSTCBTbl
0081b490 g     F .text	00000104 OSSemSet
0081f004 g     F .text	000000f8 alt_up_av_config_read_video_cfg_register
00805f98 g     F .text	000000a0 ioman_resetCacheItem
0080f1b4 g     F .text	0000001c fputs
0081f6ac g     F .text	00000078 alt_up_character_lcd_set_cursor_pos
00823c5c g     O .rwdata	00000004 alt_priority_mask
0080478c g     F .text	0000003c fs_initCurrentDir
0081aba0 g     F .text	000002a0 OSSemDel
00823d84 g     O .bss	00000004 OSFlagFreeList
00823c78 g     O .rwdata	00000002 OSEventNameSize
0080d268 g     F .text	00000024 __vfprintf_internal
00823d88 g     O .bss	00000001 OSStatRdy
0081f320 g     F .text	00000064 alt_up_av_config_write_D5M_cfg_register
009372e0 g     O .bss	00000054 OSTCBPrioTbl
00814fc0 g     F .text	000000ac __env_lock
00823cbe g     O .rwdata	00000002 OSTaskSwHookEn
00804ff0 g     F .text	000000b0 fs_clearCluster
008130a8 g     F .text	00000080 __subdf3
008083c0 g     F .text	0000006c part_directSectorWrite
00808a90 g     F .text	000001bc sd_State
00810178 g     F .text	000000c4 __lo0bits
008085e0 g     F .text	00000140 sd_Init
00823ce0 g     O .rwdata	00000008 alt_alarm_list
00823c86 g     O .rwdata	00000002 OSFlagWidth
0081fbe4 g     F .text	00000064 _do_ctors
00800d88 g     F .text	000000f8 dir_findFreeEntryinBuf
008143f0 g     F .text	000000fc close
00823d34 g     O .bss	00000004 alt_envsem
00823d8c g     O .bss	00000004 OSIdleCtrRun
008079cc g     F .text	000000e0 if_initInterface
00816264 g     F .text	00000020 OSVersion
008031f0 g     F .text	0000034c file_fwrite
00823cd0 g     O .rwdata	00000002 OSTmrCfgWheelSize
0081e4f8 g     F .text	0000004c alt_up_audio_enable_read_interrupt
0081cf58 g     F .text	0000007c OS_TaskStkClr
0081f0fc g     F .text	000000f8 alt_up_av_config_write_video_cfg_register
00813edc g     F .text	00000314 __pack_d
00823caa g     O .rwdata	00000002 OSTaskCreateEn
00816854 g     F .text	00000068 OS_EventWaitListInit
008d4268 g     O .bss	0005fea8 hihat
008207b4 g     F .text	0000001c OSTaskIdleHook
0080a158 g     F .text	00000014 free
0080ee24 g     F .text	00000004 __sinit_lock_acquire
00810d94 g     F .text	00000100 __multadd
0081cbe8 g     F .text	0000022c OSTaskSuspend
008100e0 g     F .text	00000028 _Bfree
008041ac g     F .text	00000074 fs_isValidFat
0081f1f4 g     F .text	00000064 alt_up_av_config_read_DC2_cfg_register
00816efc g     F .text	0000005c OS_TaskIdle
00823cd6 g     O .rwdata	00000002 OSTmrTblSize
0081e630 g     F .text	0000003c alt_up_audio_read_interrupt_pending
0081a7a0 g     F .text	00000180 OSQQuery



Disassembly of section .exceptions:

01904020 <alt_exception>:
         * Process an exception.  For all exceptions we must preserve all
         * caller saved registers on the stack (See the Nios2 ABI
         * documentation for details).
         */

        addi  sp, sp, -76
 1904020:	deffed04 	addi	sp,sp,-76

#endif

#endif

        stw   ra,  0(sp)
 1904024:	dfc00015 	stw	ra,0(sp)
        /*
         * Leave a gap in the stack frame at 4(sp) for the muldiv handler to
         * store zero into.
         */

        stw   r1,   8(sp)
 1904028:	d8400215 	stw	at,8(sp)
        stw   r2,  12(sp)
 190402c:	d8800315 	stw	r2,12(sp)
        stw   r3,  16(sp)
 1904030:	d8c00415 	stw	r3,16(sp)
        stw   r4,  20(sp)
 1904034:	d9000515 	stw	r4,20(sp)
        stw   r5,  24(sp)
 1904038:	d9400615 	stw	r5,24(sp)
        stw   r6,  28(sp)
 190403c:	d9800715 	stw	r6,28(sp)
        stw   r7,  32(sp)
 1904040:	d9c00815 	stw	r7,32(sp)

        rdctl r5, estatus
 1904044:	000b307a 	rdctl	r5,estatus

        stw   r8,  36(sp)
 1904048:	da000915 	stw	r8,36(sp)
        stw   r9,  40(sp)
 190404c:	da400a15 	stw	r9,40(sp)
        stw   r10, 44(sp)
 1904050:	da800b15 	stw	r10,44(sp)
        stw   r11, 48(sp)
 1904054:	dac00c15 	stw	r11,48(sp)
        stw   r12, 52(sp)
 1904058:	db000d15 	stw	r12,52(sp)
        stw   r13, 56(sp)
 190405c:	db400e15 	stw	r13,56(sp)
        stw   r14, 60(sp)
 1904060:	db800f15 	stw	r14,60(sp)
        stw   r15, 64(sp)
 1904064:	dbc01015 	stw	r15,64(sp)
        /*
         * ea-4 contains the address of the instruction being executed
         * when the exception occured. For interrupt exceptions, we will
         * will be re-issue the isntruction. Store it in 72(sp)
         */
        stw   r5,  68(sp)  /* estatus */
 1904068:	d9401115 	stw	r5,68(sp)
        addi  r15, ea, -4  /* instruction that caused exception */
 190406c:	ebffff04 	addi	r15,ea,-4
        stw   r15,  72(sp)
 1904070:	dbc01215 	stw	r15,72(sp)
#else
        /*
         * Test to see if the exception was a software exception or caused 
         * by an external interrupt, and vector accordingly.
         */
        rdctl r4, ipending
 1904074:	0009313a 	rdctl	r4,ipending
        andi  r2, r5, 1
 1904078:	2880004c 	andi	r2,r5,1
        beq   r2, zero, .Lnot_irq
 190407c:	10000326 	beq	r2,zero,190408c <alt_exception+0x6c>
        beq   r4, zero, .Lnot_irq
 1904080:	20000226 	beq	r4,zero,190408c <alt_exception+0x6c>
        /*
         * Now that all necessary registers have been preserved, call 
         * alt_irq_handler() to process the interrupts.
         */

        call alt_irq_handler
 1904084:	19040ec0 	call	19040ec <alt_irq_handler>

        .section .exceptions.irqreturn, "xa"

        br    .Lexception_exit
 1904088:	00000306 	br	1904098 <alt_exception+0x78>
         * upon completion, so we write ea (address of instruction *after*
         * the one where the exception occured) into 72(sp). The actual
         * instruction that caused the exception is written in r2, which these
         * handlers will utilize.
         */
        stw   ea,  72(sp)  /* Don't re-issue */
 190408c:	df401215 	stw	ea,72(sp)
        ldw   r2, -4(ea)   /* Instruction that caused exception */
 1904090:	e8bfff17 	ldw	r2,-4(ea)
#ifdef NIOS2_HAS_DEBUG_STUB
       /*
        *  Either tell the user now (if there is a debugger attached) or go into
        *  the debug monitor which will loop until a debugger is attached.
        */
        break
 1904094:	003da03a 	break	0
        /* 
         * Restore the saved registers, so that all general purpose registers 
         * have been restored to their state at the time the interrupt occured.
         */

        ldw   r5,  68(sp)
 1904098:	d9401117 	ldw	r5,68(sp)
        ldw   ea,  72(sp)  /* This becomes the PC once eret is executed */
 190409c:	df401217 	ldw	ea,72(sp)
        ldw   ra,   0(sp)
 19040a0:	dfc00017 	ldw	ra,0(sp)

        wrctl estatus, r5
 19040a4:	2801707a 	wrctl	estatus,r5

        ldw   r1,   8(sp)
 19040a8:	d8400217 	ldw	at,8(sp)
        ldw   r2,  12(sp)
 19040ac:	d8800317 	ldw	r2,12(sp)
        ldw   r3,  16(sp)
 19040b0:	d8c00417 	ldw	r3,16(sp)
        ldw   r4,  20(sp)
 19040b4:	d9000517 	ldw	r4,20(sp)
        ldw   r5,  24(sp)
 19040b8:	d9400617 	ldw	r5,24(sp)
        ldw   r6,  28(sp)
 19040bc:	d9800717 	ldw	r6,28(sp)
        ldw   r7,  32(sp)
 19040c0:	d9c00817 	ldw	r7,32(sp)
#ifdef ALT_STACK_CHECK
        ldw   et, %gprel(alt_exception_old_stack_limit)(gp)
#endif
#endif

        ldw   r8,  36(sp)
 19040c4:	da000917 	ldw	r8,36(sp)
        ldw   r9,  40(sp)
 19040c8:	da400a17 	ldw	r9,40(sp)
        ldw   r10, 44(sp)
 19040cc:	da800b17 	ldw	r10,44(sp)
        ldw   r11, 48(sp)
 19040d0:	dac00c17 	ldw	r11,48(sp)
        ldw   r12, 52(sp)
 19040d4:	db000d17 	ldw	r12,52(sp)
        ldw   r13, 56(sp)
 19040d8:	db400e17 	ldw	r13,56(sp)
        ldw   r14, 60(sp)
 19040dc:	db800f17 	ldw	r14,60(sp)
        ldw   r15, 64(sp)
 19040e0:	dbc01017 	ldw	r15,64(sp)
#endif

        ldw   sp,  76(sp)

#else
        addi  sp, sp, 76
 19040e4:	dec01304 	addi	sp,sp,76

        /*
         * Return to the interrupted instruction.
         */

        eret
 19040e8:	ef80083a 	eret

019040ec <alt_irq_handler>:
 * instruction is present if the macro ALT_CI_INTERRUPT_VECTOR defined.
 */

void alt_irq_handler (void) __attribute__ ((section (".exceptions")));
void alt_irq_handler (void)
{
 19040ec:	defff904 	addi	sp,sp,-28
 19040f0:	dfc00615 	stw	ra,24(sp)
 19040f4:	df000515 	stw	fp,20(sp)
 19040f8:	df000504 	addi	fp,sp,20
  
  /*
   * Notify the operating system that we are at interrupt level.
   */ 
  
  ALT_OS_INT_ENTER();
 19040fc:	0815c1c0 	call	815c1c <OSIntEnter>
#ifndef NIOS2_EIC_PRESENT
static ALT_INLINE alt_u32 ALT_ALWAYS_INLINE alt_irq_pending (void)
{
  alt_u32 active;

  NIOS2_READ_IPENDING (active);
 1904100:	0005313a 	rdctl	r2,ipending
 1904104:	e0bffc15 	stw	r2,-16(fp)

  return active;
 1904108:	e0bffc17 	ldw	r2,-16(fp)
   * Consider the case where the high priority interupt is asserted during
   * the interrupt entry sequence for a lower priority interrupt to see why
   * this is the case.
   */

  active = alt_irq_pending ();
 190410c:	e0bfff15 	stw	r2,-4(fp)

  do
  {
    i = 0;
 1904110:	e03ffd15 	stw	zero,-12(fp)
    mask = 1;
 1904114:	00800044 	movi	r2,1
 1904118:	e0bffe15 	stw	r2,-8(fp)
     * called to clear the interrupt condition.
     */

    do
    {
      if (active & mask)
 190411c:	e0ffff17 	ldw	r3,-4(fp)
 1904120:	e0bffe17 	ldw	r2,-8(fp)
 1904124:	1884703a 	and	r2,r3,r2
 1904128:	1005003a 	cmpeq	r2,r2,zero
 190412c:	1000171e 	bne	r2,zero,190418c <alt_irq_handler+0xa0>
      { 
#ifdef ALT_ENHANCED_INTERRUPT_API_PRESENT
        alt_irq[i].handler(alt_irq[i].context); 
#else
        alt_irq[i].handler(alt_irq[i].context, i); 
 1904130:	e0bffd17 	ldw	r2,-12(fp)
 1904134:	00c024f4 	movhi	r3,147
 1904138:	18dccd04 	addi	r3,r3,29492
 190413c:	100490fa 	slli	r2,r2,3
 1904140:	10c5883a 	add	r2,r2,r3
 1904144:	11800017 	ldw	r6,0(r2)
 1904148:	e0bffd17 	ldw	r2,-12(fp)
 190414c:	00c024f4 	movhi	r3,147
 1904150:	18dccd04 	addi	r3,r3,29492
 1904154:	100490fa 	slli	r2,r2,3
 1904158:	10c5883a 	add	r2,r2,r3
 190415c:	10800104 	addi	r2,r2,4
 1904160:	11000017 	ldw	r4,0(r2)
 1904164:	e17ffd17 	ldw	r5,-12(fp)
 1904168:	303ee83a 	callr	r6
#ifndef NIOS2_EIC_PRESENT
static ALT_INLINE alt_u32 ALT_ALWAYS_INLINE alt_irq_pending (void)
{
  alt_u32 active;

  NIOS2_READ_IPENDING (active);
 190416c:	0005313a 	rdctl	r2,ipending
 1904170:	e0bffb15 	stw	r2,-20(fp)

  return active;
 1904174:	e0bffb17 	ldw	r2,-20(fp)
      mask <<= 1;
      i++;

    } while (1);

    active = alt_irq_pending ();
 1904178:	e0bfff15 	stw	r2,-4(fp)
    
  } while (active);
 190417c:	e0bfff17 	ldw	r2,-4(fp)
 1904180:	1004c03a 	cmpne	r2,r2,zero
 1904184:	103fe21e 	bne	r2,zero,1904110 <alt_irq_handler+0x24>
 1904188:	00000706 	br	19041a8 <alt_irq_handler+0xbc>
#else
        alt_irq[i].handler(alt_irq[i].context, i); 
#endif
        break;
      }
      mask <<= 1;
 190418c:	e0bffe17 	ldw	r2,-8(fp)
 1904190:	1085883a 	add	r2,r2,r2
 1904194:	e0bffe15 	stw	r2,-8(fp)
      i++;
 1904198:	e0bffd17 	ldw	r2,-12(fp)
 190419c:	10800044 	addi	r2,r2,1
 19041a0:	e0bffd15 	stw	r2,-12(fp)

    } while (1);
 19041a4:	003fdd06 	br	190411c <alt_irq_handler+0x30>

  /*
   * Notify the operating system that interrupt processing is complete.
   */ 

  ALT_OS_INT_EXIT();
 19041a8:	0815c980 	call	815c98 <OSIntExit>
}
 19041ac:	e037883a 	mov	sp,fp
 19041b0:	dfc00117 	ldw	ra,4(sp)
 19041b4:	df000017 	ldw	fp,0(sp)
 19041b8:	dec00204 	addi	sp,sp,8
 19041bc:	f800283a 	ret

Disassembly of section .text:

00800000 <_start>:

    /* Assume the data cache size is always a power of two. */
#if NIOS2_DCACHE_SIZE > 0x8000
    movhi r2, %hi(NIOS2_DCACHE_SIZE)
#else
    movui r2, NIOS2_DCACHE_SIZE
  800000:	00820014 	movui	r2,2048
#endif

0:
    initd 0(r2)
  800004:	10000033 	initd	0(r2)
    addi r2, r2, -NIOS2_DCACHE_LINE_SIZE
  800008:	10bff804 	addi	r2,r2,-32
    bgt r2, zero, 0b
  80000c:	00bffd16 	blt	zero,r2,800004 <_start+0x4>
#if (NIOS2_NUM_OF_SHADOW_REG_SETS == 0)    
    /*
     * Now that the caches are initialized, set up the stack pointer.
     * The value provided by the linker is assumed to be correctly aligned.
     */
    movhi sp, %hi(__alt_stack_pointer)
  800010:	06c04034 	movhi	sp,256
    ori sp, sp, %lo(__alt_stack_pointer)
  800014:	dec00014 	ori	sp,sp,0

    /* Set up the global pointer. */
    movhi gp, %hi(_gp)
  800018:	068020b4 	movhi	gp,130
    ori gp, gp, %lo(_gp)
  80001c:	d6af0b14 	ori	gp,gp,48172
 */
#ifndef ALT_SIM_OPTIMIZE
    /* Log that the BSS is about to be cleared. */
    ALT_LOG_PUTS(alt_log_msg_bss)

    movhi r2, %hi(__bss_start)
  800020:	008020b4 	movhi	r2,130
    ori r2, r2, %lo(__bss_start)
  800024:	108f3a14 	ori	r2,r2,15592

    movhi r3, %hi(__bss_end)
  800028:	00c024f4 	movhi	r3,147
    ori r3, r3, %lo(__bss_end)
  80002c:	18dd7114 	ori	r3,r3,30148

    beq r2, r3, 1f
  800030:	10c00326 	beq	r2,r3,800040 <_start+0x40>

0:
    stw zero, (r2)
  800034:	10000015 	stw	zero,0(r2)
    addi r2, r2, 4
  800038:	10800104 	addi	r2,r2,4
    bltu r2, r3, 0b
  80003c:	10fffd36 	bltu	r2,r3,800034 <_start+0x34>

    /* Log that alt_main is about to be called. */
    ALT_LOG_PUTS(alt_log_msg_alt_main)

    /* Call the C entry point. It should never return. */
    call alt_main
  800040:	0814adc0 	call	814adc <alt_main>

00800044 <alt_after_alt_main>:

    /* Wait in infinite loop in case alt_main does return. */
alt_after_alt_main:
    br alt_after_alt_main
  800044:	003fff06 	br	800044 <alt_after_alt_main>

00800048 <audioInit>:

#include "DrumAnyWhere.h"

// sets our audio codec up, sets the appropriate registers
// set up for sampling rate of 44100
void audioInit(alt_up_av_config_dev * audio_config_dev) {
  800048:	defff904 	addi	sp,sp,-28
  80004c:	dfc00615 	stw	ra,24(sp)
  800050:	df000515 	stw	fp,20(sp)
  800054:	df000504 	addi	fp,sp,20
  800058:	e13fff15 	stw	r4,-4(fp)

	if ( audio_config_dev == NULL)
  80005c:	e0bfff17 	ldw	r2,-4(fp)
  800060:	1004c03a 	cmpne	r2,r2,zero
  800064:	1000041e 	bne	r2,zero,800078 <audioInit+0x30>
		printf("Error: could not open audio config device \n");
  800068:	010020b4 	movhi	r4,130
  80006c:	21038704 	addi	r4,r4,3612
  800070:	080ab1c0 	call	80ab1c <puts>
  800074:	00000306 	br	800084 <audioInit+0x3c>
	else
		printf("Opened audio config device \n");
  800078:	010020b4 	movhi	r4,130
  80007c:	21039204 	addi	r4,r4,3656
  800080:	080ab1c0 	call	80ab1c <puts>

	audio_dev = alt_up_audio_open_dev ("/dev/audio_0");
  800084:	010020b4 	movhi	r4,130
  800088:	21039904 	addi	r4,r4,3684
  80008c:	081e4b80 	call	81e4b8 <alt_up_audio_open_dev>
  800090:	d0a03215 	stw	r2,-32568(gp)
	if ( audio_dev == NULL)
  800094:	d0a03217 	ldw	r2,-32568(gp)
  800098:	1004c03a 	cmpne	r2,r2,zero
  80009c:	1000041e 	bne	r2,zero,8000b0 <audioInit+0x68>
		printf("Error: could not open audio device \n");
  8000a0:	010020b4 	movhi	r4,130
  8000a4:	21039d04 	addi	r4,r4,3700
  8000a8:	080ab1c0 	call	80ab1c <puts>
  8000ac:	00000306 	br	8000bc <audioInit+0x74>
	else
		printf("Opened audio device \n");
  8000b0:	010020b4 	movhi	r4,130
  8000b4:	2103a604 	addi	r4,r4,3736
  8000b8:	080ab1c0 	call	80ab1c <puts>

	alt_up_av_config_reset(audio_config_dev);
  8000bc:	e13fff17 	ldw	r4,-4(fp)
  8000c0:	081ee180 	call	81ee18 <alt_up_av_config_reset>
	alt_up_audio_reset_audio_core(audio_dev);
  8000c4:	d1203217 	ldw	r4,-32568(gp)
  8000c8:	081e6a80 	call	81e6a8 <alt_up_audio_reset_audio_core>

	/* Write to configuration registers in the audio codec; see datasheet for what these values mean */
	alt_up_av_config_write_audio_cfg_register(audio_config_dev, 0x0, 0x17);
  8000cc:	e13fff17 	ldw	r4,-4(fp)
  8000d0:	000b883a 	mov	r5,zero
  8000d4:	018005c4 	movi	r6,23
  8000d8:	081ef580 	call	81ef58 <alt_up_av_config_write_audio_cfg_register>
	alt_up_av_config_write_audio_cfg_register(audio_config_dev, 0x1, 0x17);
  8000dc:	e13fff17 	ldw	r4,-4(fp)
  8000e0:	01400044 	movi	r5,1
  8000e4:	018005c4 	movi	r6,23
  8000e8:	081ef580 	call	81ef58 <alt_up_av_config_write_audio_cfg_register>
	alt_up_av_config_write_audio_cfg_register(audio_config_dev, 0x2, 0x68);
  8000ec:	e13fff17 	ldw	r4,-4(fp)
  8000f0:	01400084 	movi	r5,2
  8000f4:	01801a04 	movi	r6,104
  8000f8:	081ef580 	call	81ef58 <alt_up_av_config_write_audio_cfg_register>
	alt_up_av_config_write_audio_cfg_register(audio_config_dev, 0x3, 0x68);
  8000fc:	e13fff17 	ldw	r4,-4(fp)
  800100:	014000c4 	movi	r5,3
  800104:	01801a04 	movi	r6,104
  800108:	081ef580 	call	81ef58 <alt_up_av_config_write_audio_cfg_register>
	alt_up_av_config_write_audio_cfg_register(audio_config_dev, 0x4, 0x15);
  80010c:	e13fff17 	ldw	r4,-4(fp)
  800110:	01400104 	movi	r5,4
  800114:	01800544 	movi	r6,21
  800118:	081ef580 	call	81ef58 <alt_up_av_config_write_audio_cfg_register>
	alt_up_av_config_write_audio_cfg_register(audio_config_dev, 0x5, 0x06);
  80011c:	e13fff17 	ldw	r4,-4(fp)
  800120:	01400144 	movi	r5,5
  800124:	01800184 	movi	r6,6
  800128:	081ef580 	call	81ef58 <alt_up_av_config_write_audio_cfg_register>
	alt_up_av_config_write_audio_cfg_register(audio_config_dev, 0x6, 0x00);
  80012c:	e13fff17 	ldw	r4,-4(fp)
  800130:	01400184 	movi	r5,6
  800134:	000d883a 	mov	r6,zero
  800138:	081ef580 	call	81ef58 <alt_up_av_config_write_audio_cfg_register>
	alt_up_av_config_write_audio_cfg_register(audio_config_dev, 0x8, 0x22);
  80013c:	e13fff17 	ldw	r4,-4(fp)
  800140:	01400204 	movi	r5,8
  800144:	01800884 	movi	r6,34
  800148:	081ef580 	call	81ef58 <alt_up_av_config_write_audio_cfg_register>

	alt_up_audio_disable_read_interrupt(audio_dev);
  80014c:	d1203217 	ldw	r4,-32568(gp)
  800150:	081e5440 	call	81e544 <alt_up_audio_disable_read_interrupt>
	alt_up_audio_disable_write_interrupt(audio_dev);
  800154:	d1203217 	ldw	r4,-32568(gp)
  800158:	081e5e00 	call	81e5e0 <alt_up_audio_disable_write_interrupt>

	alt_irq_register(AUDIO_0_IRQ, 0x0, audio_isr);
  80015c:	010000c4 	movi	r4,3
  800160:	000b883a 	mov	r5,zero
  800164:	01802034 	movhi	r6,128
  800168:	31807e04 	addi	r6,r6,504
  80016c:	08146ac0 	call	8146ac <alt_irq_register>
  800170:	008000c4 	movi	r2,3
  800174:	e0bffd15 	stw	r2,-12(fp)
static ALT_INLINE alt_irq_context ALT_ALWAYS_INLINE 
       alt_irq_disable_all (void)
{
  alt_irq_context context;

  NIOS2_READ_STATUS (context);
  800178:	0005303a 	rdctl	r2,status
  80017c:	e0bffc15 	stw	r2,-16(fp)

  NIOS2_WRITE_STATUS (context & ~NIOS2_STATUS_PIE_MSK);
  800180:	e0fffc17 	ldw	r3,-16(fp)
  800184:	00bfff84 	movi	r2,-2
  800188:	1884703a 	and	r2,r3,r2
  80018c:	1001703a 	wrctl	status,r2
  
  return context;
  800190:	e0bffc17 	ldw	r2,-16(fp)
static ALT_INLINE int ALT_ALWAYS_INLINE alt_irq_enable (alt_u32 id)
{
  alt_irq_context  status;
  extern volatile alt_u32 alt_irq_active;

  status = alt_irq_disable_all ();
  800194:	e0bffe15 	stw	r2,-8(fp)

  alt_irq_active |= (1 << id);
  800198:	e0fffd17 	ldw	r3,-12(fp)
  80019c:	00800044 	movi	r2,1
  8001a0:	10c4983a 	sll	r2,r2,r3
  8001a4:	1007883a 	mov	r3,r2
  8001a8:	008020b4 	movhi	r2,130
  8001ac:	108f4804 	addi	r2,r2,15648
  8001b0:	10800017 	ldw	r2,0(r2)
  8001b4:	1886b03a 	or	r3,r3,r2
  8001b8:	008020b4 	movhi	r2,130
  8001bc:	108f4804 	addi	r2,r2,15648
  8001c0:	10c00015 	stw	r3,0(r2)
  NIOS2_WRITE_IENABLE (alt_irq_active);
  8001c4:	008020b4 	movhi	r2,130
  8001c8:	108f4804 	addi	r2,r2,15648
  8001cc:	10800017 	ldw	r2,0(r2)
  8001d0:	100170fa 	wrctl	ienable,r2
  8001d4:	e0bffe17 	ldw	r2,-8(fp)
  8001d8:	e0bffb15 	stw	r2,-20(fp)
  status &= ~NIOS2_STATUS_PIE_MSK;
  status |= (context & NIOS2_STATUS_PIE_MSK);
  
  NIOS2_WRITE_STATUS (status);
#else
  NIOS2_WRITE_STATUS (context);
  8001dc:	e0bffb17 	ldw	r2,-20(fp)
  8001e0:	1001703a 	wrctl	status,r2
	alt_irq_enable(AUDIO_0_IRQ);
}
  8001e4:	e037883a 	mov	sp,fp
  8001e8:	dfc00117 	ldw	ra,4(sp)
  8001ec:	df000017 	ldw	fp,0(sp)
  8001f0:	dec00204 	addi	sp,sp,8
  8001f4:	f800283a 	ret

008001f8 <audio_isr>:


// audio interrupt fires upon having FIFO 75% empty
// will try to play from nextToPlay which contains
// sound waves that are to play
void audio_isr(void* context, alt_u32 id) {
  8001f8:	defff904 	addi	sp,sp,-28
  8001fc:	dfc00615 	stw	ra,24(sp)
  800200:	df000515 	stw	fp,20(sp)
  800204:	df000504 	addi	fp,sp,20
  800208:	e13ffe15 	stw	r4,-8(fp)
  80020c:	e17fff15 	stw	r5,-4(fp)
	//FIFO 75% empty
	int i;
	int fifospace = alt_up_audio_write_fifo_space(audio_dev, ALT_UP_AUDIO_RIGHT);
  800210:	d1203217 	ldw	r4,-32568(gp)
  800214:	01400044 	movi	r5,1
  800218:	081e8800 	call	81e880 <alt_up_audio_write_fifo_space>
  80021c:	e0bffc15 	stw	r2,-16(fp)

	if(fifospace >= SAMPLE_SIZE) {
  800220:	e0bffc17 	ldw	r2,-16(fp)
  800224:	10800410 	cmplti	r2,r2,16
  800228:	10001e1e 	bne	r2,zero,8002a4 <audio_isr+0xac>
		alt_up_audio_write_fifo(audio_dev, nextToPlay, SAMPLE_SIZE, ALT_UP_AUDIO_RIGHT);
  80022c:	d1203217 	ldw	r4,-32568(gp)
  800230:	01402174 	movhi	r5,133
  800234:	297d7b04 	addi	r5,r5,-2580
  800238:	01800404 	movi	r6,16
  80023c:	01c00044 	movi	r7,1
  800240:	081ead80 	call	81ead8 <alt_up_audio_write_fifo>
		alt_up_audio_write_fifo(audio_dev, nextToPlay, SAMPLE_SIZE, ALT_UP_AUDIO_LEFT);
  800244:	d1203217 	ldw	r4,-32568(gp)
  800248:	01402174 	movhi	r5,133
  80024c:	297d7b04 	addi	r5,r5,-2580
  800250:	01800404 	movi	r6,16
  800254:	000f883a 	mov	r7,zero
  800258:	081ead80 	call	81ead8 <alt_up_audio_write_fifo>
		for(i = 0; i < SAMPLE_SIZE; i++) {
  80025c:	e03ffd15 	stw	zero,-12(fp)
  800260:	00000a06 	br	80028c <audio_isr+0x94>
			nextToPlay[i] = 0;
  800264:	e0bffd17 	ldw	r2,-12(fp)
  800268:	00c02174 	movhi	r3,133
  80026c:	18fd7b04 	addi	r3,r3,-2580
  800270:	1085883a 	add	r2,r2,r2
  800274:	1085883a 	add	r2,r2,r2
  800278:	10c5883a 	add	r2,r2,r3
  80027c:	10000015 	stw	zero,0(r2)
	int fifospace = alt_up_audio_write_fifo_space(audio_dev, ALT_UP_AUDIO_RIGHT);

	if(fifospace >= SAMPLE_SIZE) {
		alt_up_audio_write_fifo(audio_dev, nextToPlay, SAMPLE_SIZE, ALT_UP_AUDIO_RIGHT);
		alt_up_audio_write_fifo(audio_dev, nextToPlay, SAMPLE_SIZE, ALT_UP_AUDIO_LEFT);
		for(i = 0; i < SAMPLE_SIZE; i++) {
  800280:	e0bffd17 	ldw	r2,-12(fp)
  800284:	10800044 	addi	r2,r2,1
  800288:	e0bffd15 	stw	r2,-12(fp)
  80028c:	e0bffd17 	ldw	r2,-12(fp)
  800290:	10800410 	cmplti	r2,r2,16
  800294:	103ff31e 	bne	r2,zero,800264 <audio_isr+0x6c>
			nextToPlay[i] = 0;
		}
		INT8U error;
		error = OSSemPost(semaphore);
  800298:	d1203117 	ldw	r4,-32572(gp)
  80029c:	081b2380 	call	81b238 <OSSemPost>
  8002a0:	e0bffb05 	stb	r2,-20(fp)
	}
	alt_up_audio_disable_write_interrupt(audio_dev);
  8002a4:	d1203217 	ldw	r4,-32568(gp)
  8002a8:	081e5e00 	call	81e5e0 <alt_up_audio_disable_write_interrupt>
}
  8002ac:	e037883a 	mov	sp,fp
  8002b0:	dfc00117 	ldw	ra,4(sp)
  8002b4:	df000017 	ldw	fp,0(sp)
  8002b8:	dec00204 	addi	sp,sp,8
  8002bc:	f800283a 	ret

008002c0 <synthesize>:

// handles the digital signal processing
// for the DE2, adds the waveforms together, 
// scaling and decay. 
void synthesize(void* pdata) {
  8002c0:	defff904 	addi	sp,sp,-28
  8002c4:	dfc00615 	stw	ra,24(sp)
  8002c8:	df000515 	stw	fp,20(sp)
  8002cc:	df000504 	addi	fp,sp,20
  8002d0:	e13fff15 	stw	r4,-4(fp)
	int k;
	int temp;
	while(1) {

		// check for new sounds
		for(i = 0; i < 7; i++) {
  8002d4:	e03ffd15 	stw	zero,-12(fp)
  8002d8:	00008f06 	br	800518 <synthesize+0x258>
			if(isPlaying[i] == 1) {
  8002dc:	e0bffd17 	ldw	r2,-12(fp)
  8002e0:	00c020b4 	movhi	r3,130
  8002e4:	18cf7004 	addi	r3,r3,15808
  8002e8:	1085883a 	add	r2,r2,r2
  8002ec:	1085883a 	add	r2,r2,r2
  8002f0:	10c5883a 	add	r2,r2,r3
  8002f4:	10800017 	ldw	r2,0(r2)
  8002f8:	10800058 	cmpnei	r2,r2,1
  8002fc:	1000831e 	bne	r2,zero,80050c <synthesize+0x24c>
				// append waveforms if needed
				for(k = 0; k < SAMPLE_SIZE; k++) {
  800300:	e03ffc15 	stw	zero,-16(fp)
  800304:	00004c06 	br	800438 <synthesize+0x178>
					temp = drums[i]->waveform[drums[i]->index + k];
  800308:	e0bffd17 	ldw	r2,-12(fp)
  80030c:	00c02374 	movhi	r3,141
  800310:	18f45004 	addi	r3,r3,-11968
  800314:	1085883a 	add	r2,r2,r2
  800318:	1085883a 	add	r2,r2,r2
  80031c:	10c5883a 	add	r2,r2,r3
  800320:	10800017 	ldw	r2,0(r2)
  800324:	11000017 	ldw	r4,0(r2)
  800328:	e0bffd17 	ldw	r2,-12(fp)
  80032c:	00c02374 	movhi	r3,141
  800330:	18f45004 	addi	r3,r3,-11968
  800334:	1085883a 	add	r2,r2,r2
  800338:	1085883a 	add	r2,r2,r2
  80033c:	10c5883a 	add	r2,r2,r3
  800340:	10800017 	ldw	r2,0(r2)
  800344:	10c00117 	ldw	r3,4(r2)
  800348:	e0bffc17 	ldw	r2,-16(fp)
  80034c:	1885883a 	add	r2,r3,r2
  800350:	1085883a 	add	r2,r2,r2
  800354:	1085883a 	add	r2,r2,r2
  800358:	2085883a 	add	r2,r4,r2
  80035c:	10800017 	ldw	r2,0(r2)
  800360:	e0bffb15 	stw	r2,-20(fp)
					if(temp > 32768) {
  800364:	e0fffb17 	ldw	r3,-20(fp)
  800368:	00a00014 	movui	r2,32768
  80036c:	10c0140e 	bge	r2,r3,8003c0 <synthesize+0x100>
						temp = 65535 - temp;
  800370:	00ffffd4 	movui	r3,65535
  800374:	e0bffb17 	ldw	r2,-20(fp)
  800378:	1885c83a 	sub	r2,r3,r2
  80037c:	e0bffb15 	stw	r2,-20(fp)
						temp *= drums[i]->scale;
  800380:	e0bffd17 	ldw	r2,-12(fp)
  800384:	00c02374 	movhi	r3,141
  800388:	18f45004 	addi	r3,r3,-11968
  80038c:	1085883a 	add	r2,r2,r2
  800390:	1085883a 	add	r2,r2,r2
  800394:	10c5883a 	add	r2,r2,r3
  800398:	10800017 	ldw	r2,0(r2)
  80039c:	10c00217 	ldw	r3,8(r2)
  8003a0:	e0bffb17 	ldw	r2,-20(fp)
  8003a4:	10c5383a 	mul	r2,r2,r3
  8003a8:	e0bffb15 	stw	r2,-20(fp)
						temp = 65535 - temp;
  8003ac:	00ffffd4 	movui	r3,65535
  8003b0:	e0bffb17 	ldw	r2,-20(fp)
  8003b4:	1885c83a 	sub	r2,r3,r2
  8003b8:	e0bffb15 	stw	r2,-20(fp)
  8003bc:	00000b06 	br	8003ec <synthesize+0x12c>
					} else {
						temp *= drums[i]->scale;
  8003c0:	e0bffd17 	ldw	r2,-12(fp)
  8003c4:	00c02374 	movhi	r3,141
  8003c8:	18f45004 	addi	r3,r3,-11968
  8003cc:	1085883a 	add	r2,r2,r2
  8003d0:	1085883a 	add	r2,r2,r2
  8003d4:	10c5883a 	add	r2,r2,r3
  8003d8:	10800017 	ldw	r2,0(r2)
  8003dc:	10c00217 	ldw	r3,8(r2)
  8003e0:	e0bffb17 	ldw	r2,-20(fp)
  8003e4:	10c5383a 	mul	r2,r2,r3
  8003e8:	e0bffb15 	stw	r2,-20(fp)
					}
					nextToPlay[k] += temp;
  8003ec:	e17ffc17 	ldw	r5,-16(fp)
  8003f0:	e0bffc17 	ldw	r2,-16(fp)
  8003f4:	00c02174 	movhi	r3,133
  8003f8:	18fd7b04 	addi	r3,r3,-2580
  8003fc:	1085883a 	add	r2,r2,r2
  800400:	1085883a 	add	r2,r2,r2
  800404:	10c5883a 	add	r2,r2,r3
  800408:	10c00017 	ldw	r3,0(r2)
  80040c:	e0bffb17 	ldw	r2,-20(fp)
  800410:	1889883a 	add	r4,r3,r2
  800414:	00c02174 	movhi	r3,133
  800418:	18fd7b04 	addi	r3,r3,-2580
  80041c:	2945883a 	add	r2,r5,r5
  800420:	1085883a 	add	r2,r2,r2
  800424:	10c5883a 	add	r2,r2,r3
  800428:	11000015 	stw	r4,0(r2)

		// check for new sounds
		for(i = 0; i < 7; i++) {
			if(isPlaying[i] == 1) {
				// append waveforms if needed
				for(k = 0; k < SAMPLE_SIZE; k++) {
  80042c:	e0bffc17 	ldw	r2,-16(fp)
  800430:	10800044 	addi	r2,r2,1
  800434:	e0bffc15 	stw	r2,-16(fp)
  800438:	e0bffc17 	ldw	r2,-16(fp)
  80043c:	10800410 	cmplti	r2,r2,16
  800440:	103fb11e 	bne	r2,zero,800308 <synthesize+0x48>
						temp *= drums[i]->scale;
					}
					nextToPlay[k] += temp;
				}

				drums[i]->index += SAMPLE_SIZE;
  800444:	e0bffd17 	ldw	r2,-12(fp)
  800448:	00c02374 	movhi	r3,141
  80044c:	18f45004 	addi	r3,r3,-11968
  800450:	1085883a 	add	r2,r2,r2
  800454:	1085883a 	add	r2,r2,r2
  800458:	10c5883a 	add	r2,r2,r3
  80045c:	11000017 	ldw	r4,0(r2)
  800460:	e0bffd17 	ldw	r2,-12(fp)
  800464:	00c02374 	movhi	r3,141
  800468:	18f45004 	addi	r3,r3,-11968
  80046c:	1085883a 	add	r2,r2,r2
  800470:	1085883a 	add	r2,r2,r2
  800474:	10c5883a 	add	r2,r2,r3
  800478:	10800017 	ldw	r2,0(r2)
  80047c:	10800117 	ldw	r2,4(r2)
  800480:	10800404 	addi	r2,r2,16
  800484:	20800115 	stw	r2,4(r4)
				if(drums[i]->index >= drums[i]->numberOfSamples - SAMPLE_SIZE) {
  800488:	e0bffd17 	ldw	r2,-12(fp)
  80048c:	00c02374 	movhi	r3,141
  800490:	18f45004 	addi	r3,r3,-11968
  800494:	1085883a 	add	r2,r2,r2
  800498:	1085883a 	add	r2,r2,r2
  80049c:	10c5883a 	add	r2,r2,r3
  8004a0:	10800017 	ldw	r2,0(r2)
  8004a4:	11000117 	ldw	r4,4(r2)
  8004a8:	e0bffd17 	ldw	r2,-12(fp)
  8004ac:	00c02374 	movhi	r3,141
  8004b0:	18f45004 	addi	r3,r3,-11968
  8004b4:	1085883a 	add	r2,r2,r2
  8004b8:	1085883a 	add	r2,r2,r2
  8004bc:	10c5883a 	add	r2,r2,r3
  8004c0:	10800017 	ldw	r2,0(r2)
  8004c4:	10800317 	ldw	r2,12(r2)
  8004c8:	10bffc04 	addi	r2,r2,-16
  8004cc:	20800f16 	blt	r4,r2,80050c <synthesize+0x24c>
					drums[i]->index = 0;
  8004d0:	e0bffd17 	ldw	r2,-12(fp)
  8004d4:	00c02374 	movhi	r3,141
  8004d8:	18f45004 	addi	r3,r3,-11968
  8004dc:	1085883a 	add	r2,r2,r2
  8004e0:	1085883a 	add	r2,r2,r2
  8004e4:	10c5883a 	add	r2,r2,r3
  8004e8:	10800017 	ldw	r2,0(r2)
  8004ec:	10000115 	stw	zero,4(r2)
					isPlaying[i] = 0;
  8004f0:	e0bffd17 	ldw	r2,-12(fp)
  8004f4:	00c020b4 	movhi	r3,130
  8004f8:	18cf7004 	addi	r3,r3,15808
  8004fc:	1085883a 	add	r2,r2,r2
  800500:	1085883a 	add	r2,r2,r2
  800504:	10c5883a 	add	r2,r2,r3
  800508:	10000015 	stw	zero,0(r2)
	int k;
	int temp;
	while(1) {

		// check for new sounds
		for(i = 0; i < 7; i++) {
  80050c:	e0bffd17 	ldw	r2,-12(fp)
  800510:	10800044 	addi	r2,r2,1
  800514:	e0bffd15 	stw	r2,-12(fp)
  800518:	e0bffd17 	ldw	r2,-12(fp)
  80051c:	108001d0 	cmplti	r2,r2,7
  800520:	103f6e1e 	bne	r2,zero,8002dc <synthesize+0x1c>
					drums[i]->index = 0;
					isPlaying[i] = 0;
				}
			}
		}
		alt_up_audio_enable_write_interrupt(audio_dev);
  800524:	d1203217 	ldw	r4,-32568(gp)
  800528:	081e5940 	call	81e594 <alt_up_audio_enable_write_interrupt>
		//PEND SEM
		INT8U err;
		OSSemPend(semaphore, 0, &err);
  80052c:	d1203117 	ldw	r4,-32572(gp)
  800530:	e1bffe04 	addi	r6,fp,-8
  800534:	000b883a 	mov	r5,zero
  800538:	081ae400 	call	81ae40 <OSSemPend>
	}
  80053c:	003f6506 	br	8002d4 <synthesize+0x14>

00800540 <init_button_pio>:
*/

#include "DrumAnyWhere.h"


void init_button_pio() {
  800540:	defffd04 	addi	sp,sp,-12
  800544:	dfc00215 	stw	ra,8(sp)
  800548:	df000115 	stw	fp,4(sp)
  80054c:	df000104 	addi	fp,sp,4
	void* edge_capture_ptr = (void*) &edge_capture;
  800550:	d0a03004 	addi	r2,gp,-32576
  800554:	e0bfff15 	stw	r2,-4(fp)
	/* Enable all 4 button interrupts. */
	IOWR_ALTERA_AVALON_PIO_IRQ_MASK(BUTTONS_BASE, 0xf);
  800558:	00c06474 	movhi	r3,401
  80055c:	18e42204 	addi	r3,r3,-28536
  800560:	008003c4 	movi	r2,15
  800564:	18800035 	stwio	r2,0(r3)
	/* Reset the edge capture register. */
	IOWR_ALTERA_AVALON_PIO_EDGE_CAP(BUTTONS_BASE, 0x0);
  800568:	00806474 	movhi	r2,401
  80056c:	10a42304 	addi	r2,r2,-28532
  800570:	10000035 	stwio	zero,0(r2)
	/* Register the ISR. */
	alt_irq_register(BUTTONS_IRQ, edge_capture_ptr, interrupt_isr_buttonPress);
  800574:	01000144 	movi	r4,5
  800578:	e17fff17 	ldw	r5,-4(fp)
  80057c:	01802034 	movhi	r6,128
  800580:	3181a304 	addi	r6,r6,1676
  800584:	08146ac0 	call	8146ac <alt_irq_register>
}
  800588:	e037883a 	mov	sp,fp
  80058c:	dfc00117 	ldw	ra,4(sp)
  800590:	df000017 	ldw	fp,0(sp)
  800594:	dec00204 	addi	sp,sp,8
  800598:	f800283a 	ret

0080059c <DE2_conn_init>:

void DE2_conn_init() {
  80059c:	defffe04 	addi	sp,sp,-8
  8005a0:	dfc00115 	stw	ra,4(sp)
  8005a4:	df000015 	stw	fp,0(sp)
  8005a8:	d839883a 	mov	fp,sp
	/* Enable interrupt. */
	IOWR_ALTERA_AVALON_PIO_IRQ_MASK(DE2_POLL_BASE, 0x08);
  8005ac:	00c06474 	movhi	r3,401
  8005b0:	18e41e04 	addi	r3,r3,-28552
  8005b4:	00800204 	movi	r2,8
  8005b8:	18800035 	stwio	r2,0(r3)
	/* Reset the edge capture register. */
	IOWR_ALTERA_AVALON_PIO_EDGE_CAP(DE2_POLL_BASE, 0x08);
  8005bc:	00c06474 	movhi	r3,401
  8005c0:	18e41f04 	addi	r3,r3,-28548
  8005c4:	00800204 	movi	r2,8
  8005c8:	18800035 	stwio	r2,0(r3)
	/* Register the ISR. */
	alt_irq_register(DE2_POLL_IRQ, NULL , interrupt_isr_de2Poll);
  8005cc:	01000104 	movi	r4,4
  8005d0:	000b883a 	mov	r5,zero
  8005d4:	01802034 	movhi	r6,128
  8005d8:	31817d04 	addi	r6,r6,1524
  8005dc:	08146ac0 	call	8146ac <alt_irq_register>
}
  8005e0:	e037883a 	mov	sp,fp
  8005e4:	dfc00117 	ldw	ra,4(sp)
  8005e8:	df000017 	ldw	fp,0(sp)
  8005ec:	dec00204 	addi	sp,sp,8
  8005f0:	f800283a 	ret

008005f4 <interrupt_isr_de2Poll>:

void interrupt_isr_de2Poll (void *context, alt_u32 id) {
  8005f4:	defff904 	addi	sp,sp,-28
  8005f8:	dfc00615 	stw	ra,24(sp)
  8005fc:	df000515 	stw	fp,20(sp)
  800600:	df000504 	addi	fp,sp,20
  800604:	e13ffe15 	stw	r4,-8(fp)
  800608:	e17fff15 	stw	r5,-4(fp)
	int drum = IORD_ALTERA_AVALON_PIO_DATA(DE2_POLL_BASE);
  80060c:	00806474 	movhi	r2,401
  800610:	10a41c04 	addi	r2,r2,-28560
  800614:	10800037 	ldwio	r2,0(r2)
  800618:	e0bffb15 	stw	r2,-20(fp)
	drum = drum ^ 0x08;
  80061c:	e0bffb17 	ldw	r2,-20(fp)
  800620:	1080021c 	xori	r2,r2,8
  800624:	e0bffb15 	stw	r2,-20(fp)
	setDrum(drum);
  800628:	e13ffb17 	ldw	r4,-20(fp)
  80062c:	08008080 	call	800808 <setDrum>

	char str[5];
	sprintf(str, "%d", drum);
  800630:	e13ffc04 	addi	r4,fp,-16
  800634:	014020b4 	movhi	r5,130
  800638:	2943ac04 	addi	r5,r5,3760
  80063c:	e1bffb17 	ldw	r6,-20(fp)
  800640:	080aba00 	call	80aba0 <sprintf>

	alt_up_character_lcd_init(myLCD);
  800644:	d1203417 	ldw	r4,-32560(gp)
  800648:	081f4fc0 	call	81f4fc <alt_up_character_lcd_init>
	alt_up_character_lcd_set_cursor_pos(myLCD, 0, 1);
  80064c:	d1203417 	ldw	r4,-32560(gp)
  800650:	000b883a 	mov	r5,zero
  800654:	01800044 	movi	r6,1
  800658:	081f6ac0 	call	81f6ac <alt_up_character_lcd_set_cursor_pos>
	alt_up_character_lcd_string(myLCD, str);
  80065c:	d1203417 	ldw	r4,-32560(gp)
  800660:	e17ffc04 	addi	r5,fp,-16
  800664:	081f5e80 	call	81f5e8 <alt_up_character_lcd_string>

	IOWR_ALTERA_AVALON_PIO_EDGE_CAP(DE2_POLL_BASE, 0x08);
  800668:	00c06474 	movhi	r3,401
  80066c:	18e41f04 	addi	r3,r3,-28548
  800670:	00800204 	movi	r2,8
  800674:	18800035 	stwio	r2,0(r3)

}
  800678:	e037883a 	mov	sp,fp
  80067c:	dfc00117 	ldw	ra,4(sp)
  800680:	df000017 	ldw	fp,0(sp)
  800684:	dec00204 	addi	sp,sp,8
  800688:	f800283a 	ret

0080068c <interrupt_isr_buttonPress>:

void interrupt_isr_buttonPress(void *context, alt_u32 id) {
  80068c:	defffb04 	addi	sp,sp,-20
  800690:	dfc00415 	stw	ra,16(sp)
  800694:	df000315 	stw	fp,12(sp)
  800698:	df000304 	addi	fp,sp,12
  80069c:	e13ffe15 	stw	r4,-8(fp)
  8006a0:	e17fff15 	stw	r5,-4(fp)

	volatile int* edge_capture_ptr = (volatile int*) context;
  8006a4:	e0bffe17 	ldw	r2,-8(fp)
  8006a8:	e0bffd15 	stw	r2,-12(fp)
	*edge_capture_ptr = IORD_ALTERA_AVALON_PIO_EDGE_CAP(BUTTONS_BASE);
  8006ac:	00806474 	movhi	r2,401
  8006b0:	10a42304 	addi	r2,r2,-28532
  8006b4:	10c00037 	ldwio	r3,0(r2)
  8006b8:	e0bffd17 	ldw	r2,-12(fp)
  8006bc:	10c00015 	stw	r3,0(r2)

	button = IORD_ALTERA_AVALON_PIO_DATA(BUTTONS_BASE);
  8006c0:	00806474 	movhi	r2,401
  8006c4:	10a42004 	addi	r2,r2,-28544
  8006c8:	10800037 	ldwio	r2,0(r2)
  8006cc:	d0a03315 	stw	r2,-32564(gp)
	alt_up_audio_enable_write_interrupt(audio_dev);
  8006d0:	d1203217 	ldw	r4,-32568(gp)
  8006d4:	081e5940 	call	81e594 <alt_up_audio_enable_write_interrupt>

	if((button & 0x8) == 0) {
  8006d8:	d0a03317 	ldw	r2,-32564(gp)
  8006dc:	1080020c 	andi	r2,r2,8
  8006e0:	1004c03a 	cmpne	r2,r2,zero
  8006e4:	10000c1e 	bne	r2,zero,800718 <interrupt_isr_buttonPress+0x8c>
		alt_up_character_lcd_init(myLCD);
  8006e8:	d1203417 	ldw	r4,-32560(gp)
  8006ec:	081f4fc0 	call	81f4fc <alt_up_character_lcd_init>
		alt_up_character_lcd_set_cursor_pos(myLCD, 0, 1);
  8006f0:	d1203417 	ldw	r4,-32560(gp)
  8006f4:	000b883a 	mov	r5,zero
  8006f8:	01800044 	movi	r6,1
  8006fc:	081f6ac0 	call	81f6ac <alt_up_character_lcd_set_cursor_pos>
		alt_up_character_lcd_string(myLCD, "kick");
  800700:	d1203417 	ldw	r4,-32560(gp)
  800704:	014020b4 	movhi	r5,130
  800708:	2943ad04 	addi	r5,r5,3764
  80070c:	081f5e80 	call	81f5e8 <alt_up_character_lcd_string>
		setDrum(kickConst);
  800710:	01000184 	movi	r4,6
  800714:	08008080 	call	800808 <setDrum>
	}
	if((button & 0x4) == 0) {
  800718:	d0a03317 	ldw	r2,-32564(gp)
  80071c:	1080010c 	andi	r2,r2,4
  800720:	1004c03a 	cmpne	r2,r2,zero
  800724:	10000c1e 	bne	r2,zero,800758 <interrupt_isr_buttonPress+0xcc>
		alt_up_character_lcd_init(myLCD);
  800728:	d1203417 	ldw	r4,-32560(gp)
  80072c:	081f4fc0 	call	81f4fc <alt_up_character_lcd_init>
		alt_up_character_lcd_set_cursor_pos(myLCD, 0, 1);
  800730:	d1203417 	ldw	r4,-32560(gp)
  800734:	000b883a 	mov	r5,zero
  800738:	01800044 	movi	r6,1
  80073c:	081f6ac0 	call	81f6ac <alt_up_character_lcd_set_cursor_pos>
		alt_up_character_lcd_string(myLCD, "tom");
  800740:	d1203417 	ldw	r4,-32560(gp)
  800744:	014020b4 	movhi	r5,130
  800748:	2943af04 	addi	r5,r5,3772
  80074c:	081f5e80 	call	81f5e8 <alt_up_character_lcd_string>
		setDrum(tomConst);
  800750:	01000044 	movi	r4,1
  800754:	08008080 	call	800808 <setDrum>
	}
	if((button & 0x2) == 0) {
  800758:	d0a03317 	ldw	r2,-32564(gp)
  80075c:	1080008c 	andi	r2,r2,2
  800760:	1004c03a 	cmpne	r2,r2,zero
  800764:	10000c1e 	bne	r2,zero,800798 <interrupt_isr_buttonPress+0x10c>
		alt_up_character_lcd_init(myLCD);
  800768:	d1203417 	ldw	r4,-32560(gp)
  80076c:	081f4fc0 	call	81f4fc <alt_up_character_lcd_init>
		alt_up_character_lcd_set_cursor_pos(myLCD, 0, 1);
  800770:	d1203417 	ldw	r4,-32560(gp)
  800774:	000b883a 	mov	r5,zero
  800778:	01800044 	movi	r6,1
  80077c:	081f6ac0 	call	81f6ac <alt_up_character_lcd_set_cursor_pos>
		alt_up_character_lcd_string(myLCD, "crash");
  800780:	d1203417 	ldw	r4,-32560(gp)
  800784:	014020b4 	movhi	r5,130
  800788:	2943b004 	addi	r5,r5,3776
  80078c:	081f5e80 	call	81f5e8 <alt_up_character_lcd_string>
		setDrum(crashConst);
  800790:	010000c4 	movi	r4,3
  800794:	08008080 	call	800808 <setDrum>
	}
	if((button & 0x1) == 0) {
  800798:	d0a03317 	ldw	r2,-32564(gp)
  80079c:	1080004c 	andi	r2,r2,1
  8007a0:	1004c03a 	cmpne	r2,r2,zero
  8007a4:	10000c1e 	bne	r2,zero,8007d8 <interrupt_isr_buttonPress+0x14c>
		alt_up_character_lcd_init(myLCD);
  8007a8:	d1203417 	ldw	r4,-32560(gp)
  8007ac:	081f4fc0 	call	81f4fc <alt_up_character_lcd_init>
		alt_up_character_lcd_set_cursor_pos(myLCD, 0, 1);
  8007b0:	d1203417 	ldw	r4,-32560(gp)
  8007b4:	000b883a 	mov	r5,zero
  8007b8:	01800044 	movi	r6,1
  8007bc:	081f6ac0 	call	81f6ac <alt_up_character_lcd_set_cursor_pos>
		alt_up_character_lcd_string(myLCD, "snare");
  8007c0:	d1203417 	ldw	r4,-32560(gp)
  8007c4:	014020b4 	movhi	r5,130
  8007c8:	2943b204 	addi	r5,r5,3784
  8007cc:	081f5e80 	call	81f5e8 <alt_up_character_lcd_string>
		setDrum(snareConst);
  8007d0:	0009883a 	mov	r4,zero
  8007d4:	08008080 	call	800808 <setDrum>
	}

	IOWR_ALTERA_AVALON_PIO_EDGE_CAP(BUTTONS_BASE, 0x01);
  8007d8:	00c06474 	movhi	r3,401
  8007dc:	18e42304 	addi	r3,r3,-28532
  8007e0:	00800044 	movi	r2,1
  8007e4:	18800035 	stwio	r2,0(r3)
	IORD_ALTERA_AVALON_PIO_EDGE_CAP(BUTTONS_BASE);
  8007e8:	00806474 	movhi	r2,401
  8007ec:	10a42304 	addi	r2,r2,-28532
  8007f0:	10800037 	ldwio	r2,0(r2)
}
  8007f4:	e037883a 	mov	sp,fp
  8007f8:	dfc00117 	ldw	ra,4(sp)
  8007fc:	df000017 	ldw	fp,0(sp)
  800800:	dec00204 	addi	sp,sp,8
  800804:	f800283a 	ret

00800808 <setDrum>:

void setDrum(int drum) {
  800808:	defffe04 	addi	sp,sp,-8
  80080c:	df000115 	stw	fp,4(sp)
  800810:	df000104 	addi	fp,sp,4
  800814:	e13fff15 	stw	r4,-4(fp)
	if(isPlaying[drum] == 0) {
  800818:	e0bfff17 	ldw	r2,-4(fp)
  80081c:	00c020b4 	movhi	r3,130
  800820:	18cf7004 	addi	r3,r3,15808
  800824:	1085883a 	add	r2,r2,r2
  800828:	1085883a 	add	r2,r2,r2
  80082c:	10c5883a 	add	r2,r2,r3
  800830:	10800017 	ldw	r2,0(r2)
  800834:	1004c03a 	cmpne	r2,r2,zero
  800838:	1000091e 	bne	r2,zero,800860 <setDrum+0x58>
		isPlaying[drum] = 1;
  80083c:	e0bfff17 	ldw	r2,-4(fp)
  800840:	00c020b4 	movhi	r3,130
  800844:	18cf7004 	addi	r3,r3,15808
  800848:	1085883a 	add	r2,r2,r2
  80084c:	1085883a 	add	r2,r2,r2
  800850:	10c7883a 	add	r3,r2,r3
  800854:	00800044 	movi	r2,1
  800858:	18800015 	stw	r2,0(r3)
  80085c:	00000806 	br	800880 <setDrum+0x78>
	} else {
		drums[drum]->index = 0;
  800860:	e0bfff17 	ldw	r2,-4(fp)
  800864:	00c02374 	movhi	r3,141
  800868:	18f45004 	addi	r3,r3,-11968
  80086c:	1085883a 	add	r2,r2,r2
  800870:	1085883a 	add	r2,r2,r2
  800874:	10c5883a 	add	r2,r2,r3
  800878:	10800017 	ldw	r2,0(r2)
  80087c:	10000115 	stw	zero,4(r2)
	}
}
  800880:	e037883a 	mov	sp,fp
  800884:	df000017 	ldw	fp,0(sp)
  800888:	dec00104 	addi	sp,sp,4
  80088c:	f800283a 	ret

00800890 <dir_getFileStructure>:
 * Description: This function stores the filerecord located at loc in filerec.
 * It fetches the required sector for this.
 * Return value: void
*/
void dir_getFileStructure(FileSystem *fs,FileRecord *filerec,FileLocation *loc)
{
  800890:	defffa04 	addi	sp,sp,-24
  800894:	dfc00515 	stw	ra,20(sp)
  800898:	df000415 	stw	fp,16(sp)
  80089c:	df000404 	addi	fp,sp,16
  8008a0:	e13ffd15 	stw	r4,-12(fp)
  8008a4:	e17ffe15 	stw	r5,-8(fp)
  8008a8:	e1bfff15 	stw	r6,-4(fp)
	euint8 *buf;

	buf=part_getSect(fs->part,loc->Sector,IOM_MODE_READONLY);
  8008ac:	e0bffd17 	ldw	r2,-12(fp)
  8008b0:	11000017 	ldw	r4,0(r2)
  8008b4:	e0bfff17 	ldw	r2,-4(fp)
  8008b8:	11400017 	ldw	r5,0(r2)
  8008bc:	01800044 	movi	r6,1
  8008c0:	08082240 	call	808224 <part_getSect>
  8008c4:	e0bffc15 	stw	r2,-16(fp)
	*filerec=*(((FileRecord*)buf)+loc->Offset);
  8008c8:	e0bfff17 	ldw	r2,-4(fp)
  8008cc:	10800103 	ldbu	r2,4(r2)
  8008d0:	10803fcc 	andi	r2,r2,255
  8008d4:	1004917a 	slli	r2,r2,5
  8008d8:	1007883a 	mov	r3,r2
  8008dc:	e0bffc17 	ldw	r2,-16(fp)
  8008e0:	1887883a 	add	r3,r3,r2
  8008e4:	e13ffe17 	ldw	r4,-8(fp)
  8008e8:	18800017 	ldw	r2,0(r3)
  8008ec:	20800015 	stw	r2,0(r4)
  8008f0:	18800117 	ldw	r2,4(r3)
  8008f4:	20800115 	stw	r2,4(r4)
  8008f8:	18800217 	ldw	r2,8(r3)
  8008fc:	20800215 	stw	r2,8(r4)
  800900:	18800317 	ldw	r2,12(r3)
  800904:	20800315 	stw	r2,12(r4)
  800908:	18800417 	ldw	r2,16(r3)
  80090c:	20800415 	stw	r2,16(r4)
  800910:	18800517 	ldw	r2,20(r3)
  800914:	20800515 	stw	r2,20(r4)
  800918:	18800617 	ldw	r2,24(r3)
  80091c:	20800615 	stw	r2,24(r4)
  800920:	18800717 	ldw	r2,28(r3)
  800924:	20800715 	stw	r2,28(r4)
	part_relSect(fs->part,buf);
  800928:	e0bffd17 	ldw	r2,-12(fp)
  80092c:	11000017 	ldw	r4,0(r2)
  800930:	e17ffc17 	ldw	r5,-16(fp)
  800934:	08082840 	call	808284 <part_relSect>
}	
  800938:	e037883a 	mov	sp,fp
  80093c:	dfc00117 	ldw	ra,4(sp)
  800940:	df000017 	ldw	fp,0(sp)
  800944:	dec00204 	addi	sp,sp,8
  800948:	f800283a 	ret

0080094c <dir_createDirectoryEntry>:
 * Description: This function writes the filerecord stored in filerec to disc at
 * location loc. 
 * Return value: void
*/
void dir_createDirectoryEntry(FileSystem *fs,FileRecord *filerec,FileLocation *loc)
{
  80094c:	defffa04 	addi	sp,sp,-24
  800950:	dfc00515 	stw	ra,20(sp)
  800954:	df000415 	stw	fp,16(sp)
  800958:	df000404 	addi	fp,sp,16
  80095c:	e13ffd15 	stw	r4,-12(fp)
  800960:	e17ffe15 	stw	r5,-8(fp)
  800964:	e1bfff15 	stw	r6,-4(fp)
	euint8 *buf;
	
	buf = part_getSect(fs->part,loc->Sector,IOM_MODE_READWRITE);
  800968:	e0bffd17 	ldw	r2,-12(fp)
  80096c:	11000017 	ldw	r4,0(r2)
  800970:	e0bfff17 	ldw	r2,-4(fp)
  800974:	11400017 	ldw	r5,0(r2)
  800978:	01800084 	movi	r6,2
  80097c:	08082240 	call	808224 <part_getSect>
  800980:	e0bffc15 	stw	r2,-16(fp)
	memCpy(filerec,buf+(loc->Offset*sizeof(*filerec)),sizeof(*filerec));
  800984:	e0bfff17 	ldw	r2,-4(fp)
  800988:	10800103 	ldbu	r2,4(r2)
  80098c:	10803fcc 	andi	r2,r2,255
  800990:	1004917a 	slli	r2,r2,5
  800994:	1007883a 	mov	r3,r2
  800998:	e0bffc17 	ldw	r2,-16(fp)
  80099c:	188b883a 	add	r5,r3,r2
  8009a0:	e13ffe17 	ldw	r4,-8(fp)
  8009a4:	01800804 	movi	r6,32
  8009a8:	08084c40 	call	8084c4 <memCpy>
	part_relSect(fs->part,buf);
  8009ac:	e0bffd17 	ldw	r2,-12(fp)
  8009b0:	11000017 	ldw	r4,0(r2)
  8009b4:	e17ffc17 	ldw	r5,-16(fp)
  8009b8:	08082840 	call	808284 <part_relSect>
}
  8009bc:	e037883a 	mov	sp,fp
  8009c0:	dfc00117 	ldw	ra,4(sp)
  8009c4:	df000017 	ldw	fp,0(sp)
  8009c8:	dec00204 	addi	sp,sp,8
  8009cc:	f800283a 	ret

008009d0 <dir_createDefaultEntry>:
 * a given fatfilename. If your system has a means of knowing time, here is an 
 * excellent place to apply it to the filerecord.  
 * Return value: void
*/
void dir_createDefaultEntry(FileSystem *fs,FileRecord *filerec,eint8* fatfilename)
{
  8009d0:	defffb04 	addi	sp,sp,-20
  8009d4:	dfc00415 	stw	ra,16(sp)
  8009d8:	df000315 	stw	fp,12(sp)
  8009dc:	df000304 	addi	fp,sp,12
  8009e0:	e13ffd15 	stw	r4,-12(fp)
  8009e4:	e17ffe15 	stw	r5,-8(fp)
  8009e8:	e1bfff15 	stw	r6,-4(fp)
	memCpy(fatfilename,filerec->FileName,11);
  8009ec:	e17ffe17 	ldw	r5,-8(fp)
  8009f0:	e13fff17 	ldw	r4,-4(fp)
  8009f4:	018002c4 	movi	r6,11
  8009f8:	08084c40 	call	8084c4 <memCpy>
	filerec->Attribute=0x00;
  8009fc:	e0bffe17 	ldw	r2,-8(fp)
  800a00:	100002c5 	stb	zero,11(r2)
	filerec->NTReserved=0x00;
  800a04:	e0bffe17 	ldw	r2,-8(fp)
  800a08:	10000305 	stb	zero,12(r2)
	filerec->MilliSecTimeStamp=0x00;
  800a0c:	e0bffe17 	ldw	r2,-8(fp)
  800a10:	10000345 	stb	zero,13(r2)
	filerec->CreatedTime=time_getTime();
  800a14:	e0bffe17 	ldw	r2,-8(fp)
  800a18:	1000038d 	sth	zero,14(r2)
	filerec->CreatedDate=time_getDate(); 
  800a1c:	e0bffe17 	ldw	r2,-8(fp)
  800a20:	1000040d 	sth	zero,16(r2)
	filerec->AccessDate=filerec->CreatedDate;
  800a24:	e0bffe17 	ldw	r2,-8(fp)
  800a28:	10c0040b 	ldhu	r3,16(r2)
  800a2c:	e0bffe17 	ldw	r2,-8(fp)
  800a30:	10c0048d 	sth	r3,18(r2)
	filerec->FirstClusterHigh=0x0000;
  800a34:	e0bffe17 	ldw	r2,-8(fp)
  800a38:	1000050d 	sth	zero,20(r2)
	filerec->WriteTime=filerec->CreatedTime;
  800a3c:	e0bffe17 	ldw	r2,-8(fp)
  800a40:	10c0038b 	ldhu	r3,14(r2)
  800a44:	e0bffe17 	ldw	r2,-8(fp)
  800a48:	10c0058d 	sth	r3,22(r2)
	filerec->WriteDate=filerec->CreatedDate;
  800a4c:	e0bffe17 	ldw	r2,-8(fp)
  800a50:	10c0040b 	ldhu	r3,16(r2)
  800a54:	e0bffe17 	ldw	r2,-8(fp)
  800a58:	10c0060d 	sth	r3,24(r2)
	filerec->FirstClusterLow=0x0000;
  800a5c:	e0bffe17 	ldw	r2,-8(fp)
  800a60:	1000068d 	sth	zero,26(r2)
	filerec->FileSize=0x00000000;
  800a64:	e0bffe17 	ldw	r2,-8(fp)
  800a68:	10000715 	stw	zero,28(r2)
}
  800a6c:	e037883a 	mov	sp,fp
  800a70:	dfc00117 	ldw	ra,4(sp)
  800a74:	df000017 	ldw	fp,0(sp)
  800a78:	dec00204 	addi	sp,sp,8
  800a7c:	f800283a 	ret

00800a80 <dir_setFirstCluster>:
 * Description: This function requires modification to release it from
 * depending on the file object.
 * Return value:
*/
void dir_setFirstCluster(FileSystem *fs,FileLocation *loc,euint32 cluster_addr)
{
  800a80:	defffa04 	addi	sp,sp,-24
  800a84:	dfc00515 	stw	ra,20(sp)
  800a88:	df000415 	stw	fp,16(sp)
  800a8c:	df000404 	addi	fp,sp,16
  800a90:	e13ffd15 	stw	r4,-12(fp)
  800a94:	e17ffe15 	stw	r5,-8(fp)
  800a98:	e1bfff15 	stw	r6,-4(fp)
	euint8 *buf;
 	
 	buf = part_getSect(fs->part,loc->Sector,IOM_MODE_READWRITE);
  800a9c:	e0bffd17 	ldw	r2,-12(fp)
  800aa0:	11000017 	ldw	r4,0(r2)
  800aa4:	e0bffe17 	ldw	r2,-8(fp)
  800aa8:	11400017 	ldw	r5,0(r2)
  800aac:	01800084 	movi	r6,2
  800ab0:	08082240 	call	808224 <part_getSect>
  800ab4:	e0bffc15 	stw	r2,-16(fp)
	(((FileRecord*)buf)+loc->Offset)->FirstClusterHigh=cluster_addr>>16;
  800ab8:	e0bffe17 	ldw	r2,-8(fp)
  800abc:	10800103 	ldbu	r2,4(r2)
  800ac0:	10803fcc 	andi	r2,r2,255
  800ac4:	1004917a 	slli	r2,r2,5
  800ac8:	1007883a 	mov	r3,r2
  800acc:	e0bffc17 	ldw	r2,-16(fp)
  800ad0:	1887883a 	add	r3,r3,r2
  800ad4:	e0bfff17 	ldw	r2,-4(fp)
  800ad8:	1004d43a 	srli	r2,r2,16
  800adc:	1880050d 	sth	r2,20(r3)
	(((FileRecord*)buf)+loc->Offset)->FirstClusterLow=cluster_addr&0xFFFF;	
  800ae0:	e0bffe17 	ldw	r2,-8(fp)
  800ae4:	10800103 	ldbu	r2,4(r2)
  800ae8:	10803fcc 	andi	r2,r2,255
  800aec:	1004917a 	slli	r2,r2,5
  800af0:	1007883a 	mov	r3,r2
  800af4:	e0bffc17 	ldw	r2,-16(fp)
  800af8:	1887883a 	add	r3,r3,r2
  800afc:	e0bfff17 	ldw	r2,-4(fp)
  800b00:	1880068d 	sth	r2,26(r3)
	part_relSect(fs->part,buf);
  800b04:	e0bffd17 	ldw	r2,-12(fp)
  800b08:	11000017 	ldw	r4,0(r2)
  800b0c:	e17ffc17 	ldw	r5,-16(fp)
  800b10:	08082840 	call	808284 <part_relSect>
}
  800b14:	e037883a 	mov	sp,fp
  800b18:	dfc00117 	ldw	ra,4(sp)
  800b1c:	df000017 	ldw	fp,0(sp)
  800b20:	dec00204 	addi	sp,sp,8
  800b24:	f800283a 	ret

00800b28 <dir_setFileSize>:
 * Description: This function changes the filesize recorded at loc->Sector
 * to 'numbytes'.
 * Return value: void
*/
void dir_setFileSize(FileSystem *fs, FileLocation *loc,euint32 numbytes)
{
  800b28:	defffa04 	addi	sp,sp,-24
  800b2c:	dfc00515 	stw	ra,20(sp)
  800b30:	df000415 	stw	fp,16(sp)
  800b34:	df000404 	addi	fp,sp,16
  800b38:	e13ffd15 	stw	r4,-12(fp)
  800b3c:	e17ffe15 	stw	r5,-8(fp)
  800b40:	e1bfff15 	stw	r6,-4(fp)
	euint8 *buf;
	
	buf = part_getSect(fs->part,loc->Sector,IOM_MODE_READWRITE);
  800b44:	e0bffd17 	ldw	r2,-12(fp)
  800b48:	11000017 	ldw	r4,0(r2)
  800b4c:	e0bffe17 	ldw	r2,-8(fp)
  800b50:	11400017 	ldw	r5,0(r2)
  800b54:	01800084 	movi	r6,2
  800b58:	08082240 	call	808224 <part_getSect>
  800b5c:	e0bffc15 	stw	r2,-16(fp)
	(((FileRecord*)buf)+loc->Offset)->FileSize=numbytes;
  800b60:	e0bffe17 	ldw	r2,-8(fp)
  800b64:	10800103 	ldbu	r2,4(r2)
  800b68:	10803fcc 	andi	r2,r2,255
  800b6c:	1004917a 	slli	r2,r2,5
  800b70:	1007883a 	mov	r3,r2
  800b74:	e0bffc17 	ldw	r2,-16(fp)
  800b78:	1887883a 	add	r3,r3,r2
  800b7c:	e0bfff17 	ldw	r2,-4(fp)
  800b80:	18800715 	stw	r2,28(r3)
	part_relSect(fs->part,buf);
  800b84:	e0bffd17 	ldw	r2,-12(fp)
  800b88:	11000017 	ldw	r4,0(r2)
  800b8c:	e17ffc17 	ldw	r5,-16(fp)
  800b90:	08082840 	call	808284 <part_relSect>
}
  800b94:	e037883a 	mov	sp,fp
  800b98:	dfc00117 	ldw	ra,4(sp)
  800b9c:	df000017 	ldw	fp,0(sp)
  800ba0:	dec00204 	addi	sp,sp,8
  800ba4:	f800283a 	ret

00800ba8 <dir_updateDirectoryEntry>:
 * This function changes the entire entity stores at loc to the data recorded
 * in entry. This is for custom updates to the directoryentry.
 * Return value: 0 on success, -1 on failure
*/
esint8 dir_updateDirectoryEntry(FileSystem *fs,FileRecord *entry,FileLocation *loc)
{
  800ba8:	defffa04 	addi	sp,sp,-24
  800bac:	dfc00515 	stw	ra,20(sp)
  800bb0:	df000415 	stw	fp,16(sp)
  800bb4:	df000404 	addi	fp,sp,16
  800bb8:	e13ffd15 	stw	r4,-12(fp)
  800bbc:	e17ffe15 	stw	r5,-8(fp)
  800bc0:	e1bfff15 	stw	r6,-4(fp)
	euint8 *buf;
	
	buf = part_getSect(fs->part,loc->Sector,IOM_MODE_READWRITE);
  800bc4:	e0bffd17 	ldw	r2,-12(fp)
  800bc8:	11000017 	ldw	r4,0(r2)
  800bcc:	e0bfff17 	ldw	r2,-4(fp)
  800bd0:	11400017 	ldw	r5,0(r2)
  800bd4:	01800084 	movi	r6,2
  800bd8:	08082240 	call	808224 <part_getSect>
  800bdc:	e0bffc15 	stw	r2,-16(fp)
	memCpy(entry,buf+(loc->Offset*sizeof(*entry)),sizeof(*entry));
  800be0:	e0bfff17 	ldw	r2,-4(fp)
  800be4:	10800103 	ldbu	r2,4(r2)
  800be8:	10803fcc 	andi	r2,r2,255
  800bec:	1004917a 	slli	r2,r2,5
  800bf0:	1007883a 	mov	r3,r2
  800bf4:	e0bffc17 	ldw	r2,-16(fp)
  800bf8:	188b883a 	add	r5,r3,r2
  800bfc:	e13ffe17 	ldw	r4,-8(fp)
  800c00:	01800804 	movi	r6,32
  800c04:	08084c40 	call	8084c4 <memCpy>
	part_relSect(fs->part,buf);
  800c08:	e0bffd17 	ldw	r2,-12(fp)
  800c0c:	11000017 	ldw	r4,0(r2)
  800c10:	e17ffc17 	ldw	r5,-16(fp)
  800c14:	08082840 	call	808284 <part_relSect>
	return(0);
  800c18:	0005883a 	mov	r2,zero
}
  800c1c:	e037883a 	mov	sp,fp
  800c20:	dfc00117 	ldw	ra,4(sp)
  800c24:	df000017 	ldw	fp,0(sp)
  800c28:	dec00204 	addi	sp,sp,8
  800c2c:	f800283a 	ret

00800c30 <dir_findFileinBuf>:
 * If loc is 0, then it's members are not touched.
 * Return value: This function returns 0 when it cannot find the file,
 * if it can find the file it will return the first cluster number.
*/
euint32 dir_findFileinBuf(euint8 *buf, eint8 *fatname, FileLocation *loc)
{
  800c30:	defff104 	addi	sp,sp,-60
  800c34:	dfc00e15 	stw	ra,56(sp)
  800c38:	df000d15 	stw	fp,52(sp)
  800c3c:	df000d04 	addi	fp,sp,52
  800c40:	e13ffc15 	stw	r4,-16(fp)
  800c44:	e17ffd15 	stw	r5,-12(fp)
  800c48:	e1bffe15 	stw	r6,-8(fp)
	FileRecord fileEntry;
	euint8 c;
	
	for(c=0; c<16; c++)
  800c4c:	e03ff305 	stb	zero,-52(fp)
  800c50:	00004306 	br	800d60 <dir_findFileinBuf+0x130>
	{
		fileEntry = *(((FileRecord*)buf) + c);
  800c54:	e0bff303 	ldbu	r2,-52(fp)
  800c58:	1004917a 	slli	r2,r2,5
  800c5c:	1007883a 	mov	r3,r2
  800c60:	e0bffc17 	ldw	r2,-16(fp)
  800c64:	1887883a 	add	r3,r3,r2
  800c68:	18800017 	ldw	r2,0(r3)
  800c6c:	e0bff415 	stw	r2,-48(fp)
  800c70:	18800117 	ldw	r2,4(r3)
  800c74:	e0bff515 	stw	r2,-44(fp)
  800c78:	18800217 	ldw	r2,8(r3)
  800c7c:	e0bff615 	stw	r2,-40(fp)
  800c80:	18800317 	ldw	r2,12(r3)
  800c84:	e0bff715 	stw	r2,-36(fp)
  800c88:	18800417 	ldw	r2,16(r3)
  800c8c:	e0bff815 	stw	r2,-32(fp)
  800c90:	18800517 	ldw	r2,20(r3)
  800c94:	e0bff915 	stw	r2,-28(fp)
  800c98:	18800617 	ldw	r2,24(r3)
  800c9c:	e0bffa15 	stw	r2,-24(fp)
  800ca0:	18800717 	ldw	r2,28(r3)
  800ca4:	e0bffb15 	stw	r2,-20(fp)
		/* Check if the entry is for short filenames */
		if( !( (fileEntry.Attribute & 0x0F) == 0x0F ) )
  800ca8:	e0bff6c3 	ldbu	r2,-37(fp)
  800cac:	10803fcc 	andi	r2,r2,255
  800cb0:	108003cc 	andi	r2,r2,15
  800cb4:	108003e0 	cmpeqi	r2,r2,15
  800cb8:	1000261e 	bne	r2,zero,800d54 <dir_findFileinBuf+0x124>
		{
			if( strMatch((eint8*)fileEntry.FileName,fatname,11) == 0 )
  800cbc:	e13ff404 	addi	r4,fp,-48
  800cc0:	e17ffd17 	ldw	r5,-12(fp)
  800cc4:	018002c4 	movi	r6,11
  800cc8:	080842c0 	call	80842c <strMatch>
  800ccc:	10bfffcc 	andi	r2,r2,65535
  800cd0:	1004c03a 	cmpne	r2,r2,zero
  800cd4:	10001f1e 	bne	r2,zero,800d54 <dir_findFileinBuf+0x124>
			{
				/* The entry has been found, return the location in the dir */
				if(loc)loc->Offset = c;
  800cd8:	e0bffe17 	ldw	r2,-8(fp)
  800cdc:	1005003a 	cmpeq	r2,r2,zero
  800ce0:	1000031e 	bne	r2,zero,800cf0 <dir_findFileinBuf+0xc0>
  800ce4:	e0fffe17 	ldw	r3,-8(fp)
  800ce8:	e0bff303 	ldbu	r2,-52(fp)
  800cec:	18800105 	stb	r2,4(r3)
				if(loc)loc->attrib = fileEntry.Attribute;
  800cf0:	e0bffe17 	ldw	r2,-8(fp)
  800cf4:	1005003a 	cmpeq	r2,r2,zero
  800cf8:	1000031e 	bne	r2,zero,800d08 <dir_findFileinBuf+0xd8>
  800cfc:	e0fff6c3 	ldbu	r3,-37(fp)
  800d00:	e0bffe17 	ldw	r2,-8(fp)
  800d04:	10c00145 	stb	r3,5(r2)
				if((((euint32 )fileEntry.FirstClusterHigh)<<16)+ fileEntry.FirstClusterLow==0){
  800d08:	e0bff90b 	ldhu	r2,-28(fp)
  800d0c:	10bfffcc 	andi	r2,r2,65535
  800d10:	1006943a 	slli	r3,r2,16
  800d14:	e0bffa8b 	ldhu	r2,-22(fp)
  800d18:	10bfffcc 	andi	r2,r2,65535
  800d1c:	1885883a 	add	r2,r3,r2
  800d20:	1004c03a 	cmpne	r2,r2,zero
  800d24:	1000031e 	bne	r2,zero,800d34 <dir_findFileinBuf+0x104>
					return(1); /* Lie about cluster, 0 means not found! */
  800d28:	00800044 	movi	r2,1
  800d2c:	e0bfff15 	stw	r2,-4(fp)
  800d30:	00000f06 	br	800d70 <dir_findFileinBuf+0x140>
				}else{
					return
  800d34:	e0bff90b 	ldhu	r2,-28(fp)
  800d38:	10bfffcc 	andi	r2,r2,65535
  800d3c:	1006943a 	slli	r3,r2,16
  800d40:	e0bffa8b 	ldhu	r2,-22(fp)
  800d44:	10bfffcc 	andi	r2,r2,65535
  800d48:	1887883a 	add	r3,r3,r2
  800d4c:	e0ffff15 	stw	r3,-4(fp)
  800d50:	00000706 	br	800d70 <dir_findFileinBuf+0x140>
euint32 dir_findFileinBuf(euint8 *buf, eint8 *fatname, FileLocation *loc)
{
	FileRecord fileEntry;
	euint8 c;
	
	for(c=0; c<16; c++)
  800d54:	e0bff303 	ldbu	r2,-52(fp)
  800d58:	10800044 	addi	r2,r2,1
  800d5c:	e0bff305 	stb	r2,-52(fp)
  800d60:	e0bff303 	ldbu	r2,-52(fp)
  800d64:	10800430 	cmpltui	r2,r2,16
  800d68:	103fba1e 	bne	r2,zero,800c54 <dir_findFileinBuf+0x24>
							);
				}
			}
		}
	}
	return(0);
  800d6c:	e03fff15 	stw	zero,-4(fp)
  800d70:	e0bfff17 	ldw	r2,-4(fp)
}
  800d74:	e037883a 	mov	sp,fp
  800d78:	dfc00117 	ldw	ra,4(sp)
  800d7c:	df000017 	ldw	fp,0(sp)
  800d80:	dec00204 	addi	sp,sp,8
  800d84:	f800283a 	ret

00800d88 <dir_findFreeEntryinBuf>:
 * This function searches for a free entry in a given sector 'buf'.
 * It will put the offset into the loc->Offset field, given that loc is not 0.
 * Return value: 1 when it found a free spot, 0 if it hasn't.
*/
euint32 dir_findFreeEntryinBuf(euint8* buf, FileLocation *loc)
{
  800d88:	defff304 	addi	sp,sp,-52
  800d8c:	df000c15 	stw	fp,48(sp)
  800d90:	df000c04 	addi	fp,sp,48
  800d94:	e13ffd15 	stw	r4,-12(fp)
  800d98:	e17ffe15 	stw	r5,-8(fp)
	FileRecord fileEntry;
	euint8 c;
	
	for(c=0;c<16;c++){
  800d9c:	e03ff405 	stb	zero,-48(fp)
  800da0:	00002e06 	br	800e5c <dir_findFreeEntryinBuf+0xd4>
		fileEntry = *(((FileRecord*)buf) + c);
  800da4:	e0bff403 	ldbu	r2,-48(fp)
  800da8:	1004917a 	slli	r2,r2,5
  800dac:	1007883a 	mov	r3,r2
  800db0:	e0bffd17 	ldw	r2,-12(fp)
  800db4:	1887883a 	add	r3,r3,r2
  800db8:	18800017 	ldw	r2,0(r3)
  800dbc:	e0bff515 	stw	r2,-44(fp)
  800dc0:	18800117 	ldw	r2,4(r3)
  800dc4:	e0bff615 	stw	r2,-40(fp)
  800dc8:	18800217 	ldw	r2,8(r3)
  800dcc:	e0bff715 	stw	r2,-36(fp)
  800dd0:	18800317 	ldw	r2,12(r3)
  800dd4:	e0bff815 	stw	r2,-32(fp)
  800dd8:	18800417 	ldw	r2,16(r3)
  800ddc:	e0bff915 	stw	r2,-28(fp)
  800de0:	18800517 	ldw	r2,20(r3)
  800de4:	e0bffa15 	stw	r2,-24(fp)
  800de8:	18800617 	ldw	r2,24(r3)
  800dec:	e0bffb15 	stw	r2,-20(fp)
  800df0:	18800717 	ldw	r2,28(r3)
  800df4:	e0bffc15 	stw	r2,-16(fp)
		if( !( (fileEntry.Attribute & 0x0F) == 0x0F ) ){
  800df8:	e0bff7c3 	ldbu	r2,-33(fp)
  800dfc:	10803fcc 	andi	r2,r2,255
  800e00:	108003cc 	andi	r2,r2,15
  800e04:	108003e0 	cmpeqi	r2,r2,15
  800e08:	1000111e 	bne	r2,zero,800e50 <dir_findFreeEntryinBuf+0xc8>
			if(fileEntry.FileName[0] == 0x00 ||
  800e0c:	e0bff503 	ldbu	r2,-44(fp)
  800e10:	10803fcc 	andi	r2,r2,255
  800e14:	1005003a 	cmpeq	r2,r2,zero
  800e18:	1000041e 	bne	r2,zero,800e2c <dir_findFreeEntryinBuf+0xa4>
  800e1c:	e0bff503 	ldbu	r2,-44(fp)
  800e20:	10803fcc 	andi	r2,r2,255
  800e24:	10803958 	cmpnei	r2,r2,229
  800e28:	1000091e 	bne	r2,zero,800e50 <dir_findFreeEntryinBuf+0xc8>
			   fileEntry.FileName[0] == 0xE5 ){
				if(loc)loc->Offset=c;
  800e2c:	e0bffe17 	ldw	r2,-8(fp)
  800e30:	1005003a 	cmpeq	r2,r2,zero
  800e34:	1000031e 	bne	r2,zero,800e44 <dir_findFreeEntryinBuf+0xbc>
  800e38:	e0fffe17 	ldw	r3,-8(fp)
  800e3c:	e0bff403 	ldbu	r2,-48(fp)
  800e40:	18800105 	stb	r2,4(r3)
				return(1);
  800e44:	00800044 	movi	r2,1
  800e48:	e0bfff15 	stw	r2,-4(fp)
  800e4c:	00000706 	br	800e6c <dir_findFreeEntryinBuf+0xe4>
euint32 dir_findFreeEntryinBuf(euint8* buf, FileLocation *loc)
{
	FileRecord fileEntry;
	euint8 c;
	
	for(c=0;c<16;c++){
  800e50:	e0bff403 	ldbu	r2,-48(fp)
  800e54:	10800044 	addi	r2,r2,1
  800e58:	e0bff405 	stb	r2,-48(fp)
  800e5c:	e0bff403 	ldbu	r2,-48(fp)
  800e60:	10800430 	cmpltui	r2,r2,16
  800e64:	103fcf1e 	bne	r2,zero,800da4 <dir_findFreeEntryinBuf+0x1c>
				if(loc)loc->Offset=c;
				return(1);
			}
		}
	}
	return(0);
  800e68:	e03fff15 	stw	zero,-4(fp)
  800e6c:	e0bfff17 	ldw	r2,-4(fp)
}
  800e70:	e037883a 	mov	sp,fp
  800e74:	df000017 	ldw	fp,0(sp)
  800e78:	dec00104 	addi	sp,sp,4
  800e7c:	f800283a 	ret

00800e80 <dir_findinBuf>:
 * euint32  dir_findinBuf(euint8 *buf, eint8 *fatname, FileLocation *loc)
 * Description: This function searches for a given fatfilename in a buffer.
 * Return value: Returns 0 on not found, and the firstcluster when the name is found.
*/
euint32  dir_findinBuf(euint8 *buf, eint8 *fatname, FileLocation *loc, euint8 mode)
{
  800e80:	defff804 	addi	sp,sp,-32
  800e84:	dfc00715 	stw	ra,28(sp)
  800e88:	df000615 	stw	fp,24(sp)
  800e8c:	df000604 	addi	fp,sp,24
  800e90:	e13ffa15 	stw	r4,-24(fp)
  800e94:	e17ffb15 	stw	r5,-20(fp)
  800e98:	e1bffc15 	stw	r6,-16(fp)
  800e9c:	e1fffd05 	stb	r7,-12(fp)
	switch(mode){
  800ea0:	e0bffd03 	ldbu	r2,-12(fp)
  800ea4:	e0bfff15 	stw	r2,-4(fp)
  800ea8:	e0ffff17 	ldw	r3,-4(fp)
  800eac:	1805003a 	cmpeq	r2,r3,zero
  800eb0:	1000041e 	bne	r2,zero,800ec4 <dir_findinBuf+0x44>
  800eb4:	e0ffff17 	ldw	r3,-4(fp)
  800eb8:	18800060 	cmpeqi	r2,r3,1
  800ebc:	1000071e 	bne	r2,zero,800edc <dir_findinBuf+0x5c>
  800ec0:	00000b06 	br	800ef0 <dir_findinBuf+0x70>
		case DIRFIND_FILE:
			return(dir_findFileinBuf(buf,fatname,loc));
  800ec4:	e13ffa17 	ldw	r4,-24(fp)
  800ec8:	e17ffb17 	ldw	r5,-20(fp)
  800ecc:	e1bffc17 	ldw	r6,-16(fp)
  800ed0:	0800c300 	call	800c30 <dir_findFileinBuf>
  800ed4:	e0bffe15 	stw	r2,-8(fp)
  800ed8:	00000606 	br	800ef4 <dir_findinBuf+0x74>
			break;
		case DIRFIND_FREE:
			return(dir_findFreeEntryinBuf(buf,loc));
  800edc:	e13ffa17 	ldw	r4,-24(fp)
  800ee0:	e17ffc17 	ldw	r5,-16(fp)
  800ee4:	0800d880 	call	800d88 <dir_findFreeEntryinBuf>
  800ee8:	e0bffe15 	stw	r2,-8(fp)
  800eec:	00000106 	br	800ef4 <dir_findinBuf+0x74>
			break;
		default:
			return(0);
  800ef0:	e03ffe15 	stw	zero,-8(fp)
  800ef4:	e0bffe17 	ldw	r2,-8(fp)
			break;
	}
	return(0);
}
  800ef8:	e037883a 	mov	sp,fp
  800efc:	dfc00117 	ldw	ra,4(sp)
  800f00:	df000017 	ldw	fp,0(sp)
  800f04:	dec00204 	addi	sp,sp,8
  800f08:	f800283a 	ret

00800f0c <dir_findinCluster>:
 * This function will search for an existing (fatname) or free directory entry
 * in a full cluster.
 * Return value: 0 on failure, firstcluster on finding file, and 1 on finding free spot.
*/
euint32 dir_findinCluster(FileSystem *fs,euint32 cluster,eint8 *fatname, FileLocation *loc, euint8 mode)
{
  800f0c:	defff404 	addi	sp,sp,-48
  800f10:	dfc00b15 	stw	ra,44(sp)
  800f14:	df000a15 	stw	fp,40(sp)
  800f18:	dc000915 	stw	r16,36(sp)
  800f1c:	df000904 	addi	fp,sp,36
  800f20:	e13ffa15 	stw	r4,-24(fp)
  800f24:	e17ffb15 	stw	r5,-20(fp)
  800f28:	e1bffc15 	stw	r6,-16(fp)
  800f2c:	e1fffd15 	stw	r7,-12(fp)
  800f30:	e0800317 	ldw	r2,12(fp)
  800f34:	e0bffe05 	stb	r2,-8(fp)
	euint8 c,*buf=0;
  800f38:	e03ff815 	stw	zero,-32(fp)
	euint32 fclus;
	
	for(c=0;c<fs->volumeId.SectorsPerCluster;c++){
  800f3c:	e03ff905 	stb	zero,-28(fp)
  800f40:	00002e06 	br	800ffc <dir_findinCluster+0xf0>
		buf = part_getSect(fs->part,fs_clusterToSector(fs,cluster)+c,IOM_MODE_READONLY);
  800f44:	e0bffa17 	ldw	r2,-24(fp)
  800f48:	14000017 	ldw	r16,0(r2)
  800f4c:	e13ffa17 	ldw	r4,-24(fp)
  800f50:	e17ffb17 	ldw	r5,-20(fp)
  800f54:	08047c80 	call	8047c8 <fs_clusterToSector>
  800f58:	1007883a 	mov	r3,r2
  800f5c:	e0bff903 	ldbu	r2,-28(fp)
  800f60:	188b883a 	add	r5,r3,r2
  800f64:	8009883a 	mov	r4,r16
  800f68:	01800044 	movi	r6,1
  800f6c:	08082240 	call	808224 <part_getSect>
  800f70:	e0bff815 	stw	r2,-32(fp)
		if((fclus=dir_findinBuf(buf,fatname,loc,mode))){
  800f74:	e1fffe03 	ldbu	r7,-8(fp)
  800f78:	e13ff817 	ldw	r4,-32(fp)
  800f7c:	e17ffc17 	ldw	r5,-16(fp)
  800f80:	e1bffd17 	ldw	r6,-12(fp)
  800f84:	0800e800 	call	800e80 <dir_findinBuf>
  800f88:	e0bff715 	stw	r2,-36(fp)
  800f8c:	e0bff717 	ldw	r2,-36(fp)
  800f90:	1005003a 	cmpeq	r2,r2,zero
  800f94:	1000121e 	bne	r2,zero,800fe0 <dir_findinCluster+0xd4>
			if(loc)loc->Sector=fs_clusterToSector(fs,cluster)+c;
  800f98:	e0bffd17 	ldw	r2,-12(fp)
  800f9c:	1005003a 	cmpeq	r2,r2,zero
  800fa0:	1000081e 	bne	r2,zero,800fc4 <dir_findinCluster+0xb8>
  800fa4:	e13ffa17 	ldw	r4,-24(fp)
  800fa8:	e17ffb17 	ldw	r5,-20(fp)
  800fac:	08047c80 	call	8047c8 <fs_clusterToSector>
  800fb0:	1007883a 	mov	r3,r2
  800fb4:	e0bff903 	ldbu	r2,-28(fp)
  800fb8:	1887883a 	add	r3,r3,r2
  800fbc:	e0bffd17 	ldw	r2,-12(fp)
  800fc0:	10c00015 	stw	r3,0(r2)
			part_relSect(fs->part,buf);
  800fc4:	e0bffa17 	ldw	r2,-24(fp)
  800fc8:	11000017 	ldw	r4,0(r2)
  800fcc:	e17ff817 	ldw	r5,-32(fp)
  800fd0:	08082840 	call	808284 <part_relSect>
			return(fclus);
  800fd4:	e0bff717 	ldw	r2,-36(fp)
  800fd8:	e0bfff15 	stw	r2,-4(fp)
  800fdc:	00000d06 	br	801014 <dir_findinCluster+0x108>
		}
		part_relSect(fs->part,buf); /* Thanks Mike ;) */
  800fe0:	e0bffa17 	ldw	r2,-24(fp)
  800fe4:	11000017 	ldw	r4,0(r2)
  800fe8:	e17ff817 	ldw	r5,-32(fp)
  800fec:	08082840 	call	808284 <part_relSect>
euint32 dir_findinCluster(FileSystem *fs,euint32 cluster,eint8 *fatname, FileLocation *loc, euint8 mode)
{
	euint8 c,*buf=0;
	euint32 fclus;
	
	for(c=0;c<fs->volumeId.SectorsPerCluster;c++){
  800ff0:	e0bff903 	ldbu	r2,-28(fp)
  800ff4:	10800044 	addi	r2,r2,1
  800ff8:	e0bff905 	stb	r2,-28(fp)
  800ffc:	e0bffa17 	ldw	r2,-24(fp)
  801000:	10800183 	ldbu	r2,6(r2)
  801004:	10c03fcc 	andi	r3,r2,255
  801008:	e0bff903 	ldbu	r2,-28(fp)
  80100c:	10ffcd36 	bltu	r2,r3,800f44 <dir_findinCluster+0x38>
			part_relSect(fs->part,buf);
			return(fclus);
		}
		part_relSect(fs->part,buf); /* Thanks Mike ;) */
	}
	return(0);
  801010:	e03fff15 	stw	zero,-4(fp)
  801014:	e0bfff17 	ldw	r2,-4(fp)
}
  801018:	e037883a 	mov	sp,fp
  80101c:	dfc00217 	ldw	ra,8(sp)
  801020:	df000117 	ldw	fp,4(sp)
  801024:	dc000017 	ldw	r16,0(sp)
  801028:	dec00304 	addi	sp,sp,12
  80102c:	f800283a 	ret

00801030 <dir_findinDir>:
 * This function will search for an existing (fatname) or free directory entry
 * in a directory, following the clusterchains.
 * Return value: 0 on failure, firstcluster on finding file, and 1 on finding free spot.
*/
euint32 dir_findinDir(FileSystem *fs, eint8* fatname,euint32 firstcluster, FileLocation *loc, euint8 mode)
{
  801030:	deffef04 	addi	sp,sp,-68
  801034:	dfc01015 	stw	ra,64(sp)
  801038:	df000f15 	stw	fp,60(sp)
  80103c:	df000f04 	addi	fp,sp,60
  801040:	e13ffa15 	stw	r4,-24(fp)
  801044:	e17ffb15 	stw	r5,-20(fp)
  801048:	e1bffc15 	stw	r6,-16(fp)
  80104c:	e1fffd15 	stw	r7,-12(fp)
  801050:	e0800217 	ldw	r2,8(fp)
  801054:	e0bffe05 	stb	r2,-8(fp)
	euint32 c=0,cluster;
  801058:	e03ff315 	stw	zero,-52(fp)
	ClusterChain Cache;
	
	Cache.DiscCluster = Cache.FirstCluster = firstcluster;
  80105c:	e0bffc17 	ldw	r2,-16(fp)
  801060:	e0bff715 	stw	r2,-36(fp)
  801064:	e0bff717 	ldw	r2,-36(fp)
  801068:	e0bff615 	stw	r2,-40(fp)
	Cache.LogicCluster = Cache.LastCluster = Cache.Linear = 0;
  80106c:	e03ff405 	stb	zero,-48(fp)
  801070:	e03ff815 	stw	zero,-32(fp)
  801074:	e0bff817 	ldw	r2,-32(fp)
  801078:	e0bff515 	stw	r2,-44(fp)
	
	if(firstcluster <= 1){
  80107c:	e0bffc17 	ldw	r2,-16(fp)
  801080:	108000a8 	cmpgeui	r2,r2,2
  801084:	1000151e 	bne	r2,zero,8010dc <dir_findinDir+0xac>
		return(dir_findinRootArea(fs,fatname,loc,mode));	
  801088:	e1fffe03 	ldbu	r7,-8(fp)
  80108c:	e13ffa17 	ldw	r4,-24(fp)
  801090:	e17ffb17 	ldw	r5,-20(fp)
  801094:	e1bffd17 	ldw	r6,-12(fp)
  801098:	08011280 	call	801128 <dir_findinRootArea>
  80109c:	e0bfff15 	stw	r2,-4(fp)
  8010a0:	00001b06 	br	801110 <dir_findinDir+0xe0>
	}
	
	while(!fat_LogicToDiscCluster(fs,&Cache,c++)){
		if((cluster=dir_findinCluster(fs,Cache.DiscCluster,fatname,loc,mode))){
  8010a4:	e17ff617 	ldw	r5,-40(fp)
  8010a8:	e0bffe03 	ldbu	r2,-8(fp)
  8010ac:	d8800015 	stw	r2,0(sp)
  8010b0:	e13ffa17 	ldw	r4,-24(fp)
  8010b4:	e1bffb17 	ldw	r6,-20(fp)
  8010b8:	e1fffd17 	ldw	r7,-12(fp)
  8010bc:	0800f0c0 	call	800f0c <dir_findinCluster>
  8010c0:	e0bff215 	stw	r2,-56(fp)
  8010c4:	e0bff217 	ldw	r2,-56(fp)
  8010c8:	1005003a 	cmpeq	r2,r2,zero
  8010cc:	1000031e 	bne	r2,zero,8010dc <dir_findinDir+0xac>
			return(cluster);
  8010d0:	e0bff217 	ldw	r2,-56(fp)
  8010d4:	e0bfff15 	stw	r2,-4(fp)
  8010d8:	00000d06 	br	801110 <dir_findinDir+0xe0>
	
	if(firstcluster <= 1){
		return(dir_findinRootArea(fs,fatname,loc,mode));	
	}
	
	while(!fat_LogicToDiscCluster(fs,&Cache,c++)){
  8010dc:	e1bff317 	ldw	r6,-52(fp)
  8010e0:	e0bff317 	ldw	r2,-52(fp)
  8010e4:	10800044 	addi	r2,r2,1
  8010e8:	e0bff315 	stw	r2,-52(fp)
  8010ec:	e17ff404 	addi	r5,fp,-48
  8010f0:	e13ffa17 	ldw	r4,-24(fp)
  8010f4:	080278c0 	call	80278c <fat_LogicToDiscCluster>
  8010f8:	10bfffcc 	andi	r2,r2,65535
  8010fc:	10a0001c 	xori	r2,r2,32768
  801100:	10a00004 	addi	r2,r2,-32768
  801104:	1005003a 	cmpeq	r2,r2,zero
  801108:	103fe61e 	bne	r2,zero,8010a4 <dir_findinDir+0x74>
		if((cluster=dir_findinCluster(fs,Cache.DiscCluster,fatname,loc,mode))){
			return(cluster);
		}
	}
	return(0);
  80110c:	e03fff15 	stw	zero,-4(fp)
  801110:	e0bfff17 	ldw	r2,-4(fp)
}
  801114:	e037883a 	mov	sp,fp
  801118:	dfc00117 	ldw	ra,4(sp)
  80111c:	df000017 	ldw	fp,0(sp)
  801120:	dec00204 	addi	sp,sp,8
  801124:	f800283a 	ret

00801128 <dir_findinRootArea>:
 * This function will search for an existing (fatname) or free directory entry
 * in the rootdirectory-area of a FAT12/FAT16 filesystem.
 * Return value: 0 on failure, firstcluster on finding file, and 1 on finding free spot.
*/
euint32 dir_findinRootArea(FileSystem *fs,eint8* fatname, FileLocation *loc, euint8 mode)
{
  801128:	defff604 	addi	sp,sp,-40
  80112c:	dfc00915 	stw	ra,36(sp)
  801130:	df000815 	stw	fp,32(sp)
  801134:	df000804 	addi	fp,sp,32
  801138:	e13ffb15 	stw	r4,-20(fp)
  80113c:	e17ffc15 	stw	r5,-16(fp)
  801140:	e1bffd15 	stw	r6,-12(fp)
  801144:	e1fffe05 	stb	r7,-8(fp)
	euint32 c,fclus;
	euint8 *buf=0;
  801148:	e03ff815 	stw	zero,-32(fp)
	
	if((fs->type != FAT12) && (fs->type != FAT16))return(0);
  80114c:	e0bffb17 	ldw	r2,-20(fp)
  801150:	10800f03 	ldbu	r2,60(r2)
  801154:	10803fcc 	andi	r2,r2,255
  801158:	10800060 	cmpeqi	r2,r2,1
  80115c:	1000071e 	bne	r2,zero,80117c <dir_findinRootArea+0x54>
  801160:	e0bffb17 	ldw	r2,-20(fp)
  801164:	10800f03 	ldbu	r2,60(r2)
  801168:	10803fcc 	andi	r2,r2,255
  80116c:	108000a0 	cmpeqi	r2,r2,2
  801170:	1000021e 	bne	r2,zero,80117c <dir_findinRootArea+0x54>
  801174:	e03fff15 	stw	zero,-4(fp)
  801178:	00003606 	br	801254 <dir_findinRootArea+0x12c>
	
	for(c=fs->FirstSectorRootDir;c<(fs->FirstSectorRootDir+fs->volumeId.RootEntryCount/32);c++){
  80117c:	e0bffb17 	ldw	r2,-20(fp)
  801180:	10800b17 	ldw	r2,44(r2)
  801184:	e0bffa15 	stw	r2,-24(fp)
  801188:	00002306 	br	801218 <dir_findinRootArea+0xf0>
		buf = part_getSect(fs->part,c,IOM_MODE_READONLY);
  80118c:	e0bffb17 	ldw	r2,-20(fp)
  801190:	11000017 	ldw	r4,0(r2)
  801194:	e17ffa17 	ldw	r5,-24(fp)
  801198:	01800044 	movi	r6,1
  80119c:	08082240 	call	808224 <part_getSect>
  8011a0:	e0bff815 	stw	r2,-32(fp)
		if((fclus=dir_findinBuf(buf,fatname,loc,mode))){
  8011a4:	e1fffe03 	ldbu	r7,-8(fp)
  8011a8:	e13ff817 	ldw	r4,-32(fp)
  8011ac:	e17ffc17 	ldw	r5,-16(fp)
  8011b0:	e1bffd17 	ldw	r6,-12(fp)
  8011b4:	0800e800 	call	800e80 <dir_findinBuf>
  8011b8:	e0bff915 	stw	r2,-28(fp)
  8011bc:	e0bff917 	ldw	r2,-28(fp)
  8011c0:	1005003a 	cmpeq	r2,r2,zero
  8011c4:	10000d1e 	bne	r2,zero,8011fc <dir_findinRootArea+0xd4>
			if(loc)loc->Sector=c;
  8011c8:	e0bffd17 	ldw	r2,-12(fp)
  8011cc:	1005003a 	cmpeq	r2,r2,zero
  8011d0:	1000031e 	bne	r2,zero,8011e0 <dir_findinRootArea+0xb8>
  8011d4:	e0fffd17 	ldw	r3,-12(fp)
  8011d8:	e0bffa17 	ldw	r2,-24(fp)
  8011dc:	18800015 	stw	r2,0(r3)
			part_relSect(fs->part,buf);
  8011e0:	e0bffb17 	ldw	r2,-20(fp)
  8011e4:	11000017 	ldw	r4,0(r2)
  8011e8:	e17ff817 	ldw	r5,-32(fp)
  8011ec:	08082840 	call	808284 <part_relSect>
			return(fclus);
  8011f0:	e0bff917 	ldw	r2,-28(fp)
  8011f4:	e0bfff15 	stw	r2,-4(fp)
  8011f8:	00001606 	br	801254 <dir_findinRootArea+0x12c>
		}	
		part_relSect(fs->part,buf);	
  8011fc:	e0bffb17 	ldw	r2,-20(fp)
  801200:	11000017 	ldw	r4,0(r2)
  801204:	e17ff817 	ldw	r5,-32(fp)
  801208:	08082840 	call	808284 <part_relSect>
	euint32 c,fclus;
	euint8 *buf=0;
	
	if((fs->type != FAT12) && (fs->type != FAT16))return(0);
	
	for(c=fs->FirstSectorRootDir;c<(fs->FirstSectorRootDir+fs->volumeId.RootEntryCount/32);c++){
  80120c:	e0bffa17 	ldw	r2,-24(fp)
  801210:	10800044 	addi	r2,r2,1
  801214:	e0bffa15 	stw	r2,-24(fp)
  801218:	e0bffb17 	ldw	r2,-20(fp)
  80121c:	10c00b17 	ldw	r3,44(r2)
  801220:	e0bffb17 	ldw	r2,-20(fp)
  801224:	1080030b 	ldhu	r2,12(r2)
  801228:	10bfffcc 	andi	r2,r2,65535
  80122c:	1004d17a 	srli	r2,r2,5
  801230:	10bfffcc 	andi	r2,r2,65535
  801234:	1887883a 	add	r3,r3,r2
  801238:	e0bffa17 	ldw	r2,-24(fp)
  80123c:	10ffd336 	bltu	r2,r3,80118c <dir_findinRootArea+0x64>
			part_relSect(fs->part,buf);
			return(fclus);
		}	
		part_relSect(fs->part,buf);	
	}
	part_relSect(fs->part,buf);
  801240:	e0bffb17 	ldw	r2,-20(fp)
  801244:	11000017 	ldw	r4,0(r2)
  801248:	e17ff817 	ldw	r5,-32(fp)
  80124c:	08082840 	call	808284 <part_relSect>
	return(0);
  801250:	e03fff15 	stw	zero,-4(fp)
  801254:	e0bfff17 	ldw	r2,-4(fp)
}
  801258:	e037883a 	mov	sp,fp
  80125c:	dfc00117 	ldw	ra,4(sp)
  801260:	df000017 	ldw	fp,0(sp)
  801264:	dec00204 	addi	sp,sp,8
  801268:	f800283a 	ret

0080126c <dir_getFatFileName>:
 * This function will take a full directory path, and strip off all leading
 * dirs and characters, leaving you with the MS-DOS notation of the actual filename.
 * Return value: 1 on success, 0 on not being able to produca a filename
*/
esint8 dir_getFatFileName(eint8* filename, eint8* fatfilename)
{
  80126c:	defff604 	addi	sp,sp,-40
  801270:	dfc00915 	stw	ra,36(sp)
  801274:	df000815 	stw	fp,32(sp)
  801278:	df000804 	addi	fp,sp,32
  80127c:	e13ffd15 	stw	r4,-12(fp)
  801280:	e17ffe15 	stw	r5,-8(fp)
	eint8 ffnamec[11],*next,nn=0;
  801284:	e03ff805 	stb	zero,-32(fp)
	
	memClr(ffnamec,11); memClr(fatfilename,11);
  801288:	e13ffa04 	addi	r4,fp,-24
  80128c:	014002c4 	movi	r5,11
  801290:	08085300 	call	808530 <memClr>
  801294:	e13ffe17 	ldw	r4,-8(fp)
  801298:	014002c4 	movi	r5,11
  80129c:	08085300 	call	808530 <memClr>
	next = filename;
  8012a0:	e0bffd17 	ldw	r2,-12(fp)
  8012a4:	e0bff915 	stw	r2,-28(fp)
	
	if(*filename=='/')next++;
  8012a8:	e0bffd17 	ldw	r2,-12(fp)
  8012ac:	10800003 	ldbu	r2,0(r2)
  8012b0:	10803fcc 	andi	r2,r2,255
  8012b4:	1080201c 	xori	r2,r2,128
  8012b8:	10bfe004 	addi	r2,r2,-128
  8012bc:	10800bd8 	cmpnei	r2,r2,47
  8012c0:	10000b1e 	bne	r2,zero,8012f0 <dir_getFatFileName+0x84>
  8012c4:	e0bff917 	ldw	r2,-28(fp)
  8012c8:	10800044 	addi	r2,r2,1
  8012cc:	e0bff915 	stw	r2,-28(fp)
	
	while((next=file_normalToFatName(next,ffnamec))){
  8012d0:	00000706 	br	8012f0 <dir_getFatFileName+0x84>
		memCpy(ffnamec,fatfilename,11);	
  8012d4:	e13ffa04 	addi	r4,fp,-24
  8012d8:	e17ffe17 	ldw	r5,-8(fp)
  8012dc:	018002c4 	movi	r6,11
  8012e0:	08084c40 	call	8084c4 <memCpy>
		nn++;
  8012e4:	e0bff803 	ldbu	r2,-32(fp)
  8012e8:	10800044 	addi	r2,r2,1
  8012ec:	e0bff805 	stb	r2,-32(fp)
	memClr(ffnamec,11); memClr(fatfilename,11);
	next = filename;
	
	if(*filename=='/')next++;
	
	while((next=file_normalToFatName(next,ffnamec))){
  8012f0:	e17ffa04 	addi	r5,fp,-24
  8012f4:	e13ff917 	ldw	r4,-28(fp)
  8012f8:	0803b700 	call	803b70 <file_normalToFatName>
  8012fc:	e0bff915 	stw	r2,-28(fp)
  801300:	e0bff917 	ldw	r2,-28(fp)
  801304:	1004c03a 	cmpne	r2,r2,zero
  801308:	103ff21e 	bne	r2,zero,8012d4 <dir_getFatFileName+0x68>
		memCpy(ffnamec,fatfilename,11);	
		nn++;
	}
	if(nn)return(1);
  80130c:	e0bff807 	ldb	r2,-32(fp)
  801310:	1005003a 	cmpeq	r2,r2,zero
  801314:	1000031e 	bne	r2,zero,801324 <dir_getFatFileName+0xb8>
  801318:	00800044 	movi	r2,1
  80131c:	e0bfff15 	stw	r2,-4(fp)
  801320:	00000106 	br	801328 <dir_getFatFileName+0xbc>
	return(0);
  801324:	e03fff15 	stw	zero,-4(fp)
  801328:	e0bfff17 	ldw	r2,-4(fp)
}
  80132c:	e037883a 	mov	sp,fp
  801330:	dfc00117 	ldw	ra,4(sp)
  801334:	df000017 	ldw	fp,0(sp)
  801338:	dec00204 	addi	sp,sp,8
  80133c:	f800283a 	ret

00801340 <dir_addCluster>:
 * clusters you want pre-allocated. It will also delete the contents of that
 * cluster. (or clusters)
 * Return value: 0 on success, -1 on fail
*/
esint8 dir_addCluster(FileSystem *fs,euint32 firstCluster)
{
  801340:	defff304 	addi	sp,sp,-52
  801344:	dfc00c15 	stw	ra,48(sp)
  801348:	df000b15 	stw	fp,44(sp)
  80134c:	df000b04 	addi	fp,sp,44
  801350:	e13ffd15 	stw	r4,-12(fp)
  801354:	e17ffe15 	stw	r5,-8(fp)
	euint32 lastc,logicalc;
	ClusterChain cache;
		
	fs_initClusterChain(fs,&cache,firstCluster);
  801358:	e17ff704 	addi	r5,fp,-36
  80135c:	e13ffd17 	ldw	r4,-12(fp)
  801360:	e1bffe17 	ldw	r6,-8(fp)
  801364:	0804ec00 	call	804ec0 <fs_initClusterChain>
	if(fat_allocClusterChain(fs,&cache,1)){
  801368:	e17ff704 	addi	r5,fp,-36
  80136c:	e13ffd17 	ldw	r4,-12(fp)
  801370:	01800044 	movi	r6,1
  801374:	08028bc0 	call	8028bc <fat_allocClusterChain>
  801378:	10bfffcc 	andi	r2,r2,65535
  80137c:	10a0001c 	xori	r2,r2,32768
  801380:	10a00004 	addi	r2,r2,-32768
  801384:	1005003a 	cmpeq	r2,r2,zero
  801388:	1000031e 	bne	r2,zero,801398 <dir_addCluster+0x58>
		return(-1);
  80138c:	00bfffc4 	movi	r2,-1
  801390:	e0bfff15 	stw	r2,-4(fp)
  801394:	00000806 	br	8013b8 <dir_addCluster+0x78>
	}
	lastc = fs_getLastCluster(fs,&cache);
  801398:	e17ff704 	addi	r5,fp,-36
  80139c:	e13ffd17 	ldw	r4,-12(fp)
  8013a0:	0804d940 	call	804d94 <fs_getLastCluster>
  8013a4:	e0bff615 	stw	r2,-40(fp)
		logicalc = fat_DiscToLogicCluster(fs,firstCluster,lastc);
		while(!fat_LogicToDiscCluster(fs,&cache,++logicalc)){
			fs_clearCluster(fs,cache.DiscCluster);
		}
	}else{
			fs_clearCluster(fs,lastc);
  8013a8:	e13ffd17 	ldw	r4,-12(fp)
  8013ac:	e17ff617 	ldw	r5,-40(fp)
  8013b0:	0804ff00 	call	804ff0 <fs_clearCluster>
	}
	return(0);
  8013b4:	e03fff15 	stw	zero,-4(fp)
  8013b8:	e0bfff17 	ldw	r2,-4(fp)
}
  8013bc:	e037883a 	mov	sp,fp
  8013c0:	dfc00117 	ldw	ra,4(sp)
  8013c4:	df000017 	ldw	fp,0(sp)
  8013c8:	dec00204 	addi	sp,sp,8
  8013cc:	f800283a 	ret

008013d0 <disc_initDisc>:
 * void disc_initDisc(Disc *disc,hcInterface* source)
 * Description: This initialises the disc by loading the MBR and setting the
 * pointer to the hardware object.
*/
void disc_initDisc(Disc *disc,IOManager* ioman)
{
  8013d0:	defffc04 	addi	sp,sp,-16
  8013d4:	dfc00315 	stw	ra,12(sp)
  8013d8:	df000215 	stw	fp,8(sp)
  8013dc:	df000204 	addi	fp,sp,8
  8013e0:	e13ffe15 	stw	r4,-8(fp)
  8013e4:	e17fff15 	stw	r5,-4(fp)
	disc->ioman=ioman;
  8013e8:	e0bffe17 	ldw	r2,-8(fp)
  8013ec:	e0ffff17 	ldw	r3,-4(fp)
  8013f0:	10c00015 	stw	r3,0(r2)
	disc_setError(disc,DISC_NOERROR);
  8013f4:	e0bffe17 	ldw	r2,-8(fp)
  8013f8:	10000105 	stb	zero,4(r2)
	disc_loadMBR(disc);
  8013fc:	e13ffe17 	ldw	r4,-8(fp)
  801400:	08014180 	call	801418 <disc_loadMBR>
}
  801404:	e037883a 	mov	sp,fp
  801408:	dfc00117 	ldw	ra,4(sp)
  80140c:	df000017 	ldw	fp,0(sp)
  801410:	dec00204 	addi	sp,sp,8
  801414:	f800283a 	ret

00801418 <disc_loadMBR>:
/* ****************************************************************************  
 * void disc_loadMBR(Disc *disc)
 * Description: This functions copies the partitiontable to the partitions field.
*/
void disc_loadMBR(Disc *disc)
{
  801418:	defffb04 	addi	sp,sp,-20
  80141c:	dfc00415 	stw	ra,16(sp)
  801420:	df000315 	stw	fp,12(sp)
  801424:	df000304 	addi	fp,sp,12
  801428:	e13fff15 	stw	r4,-4(fp)
	euint8 x;
	euint8 *buf;
	
	buf=ioman_getSector(disc->ioman,LBA_ADDR_MBR,IOM_MODE_READONLY|IOM_MODE_EXP_REQ);
  80142c:	e0bfff17 	ldw	r2,-4(fp)
  801430:	11000017 	ldw	r4,0(r2)
  801434:	000b883a 	mov	r5,zero
  801438:	01800144 	movi	r6,5
  80143c:	080683c0 	call	80683c <ioman_getSector>
  801440:	e0bffd15 	stw	r2,-12(fp)
	for(x=0;x<4;x++){
  801444:	e03ffe05 	stb	zero,-8(fp)
  801448:	00000e06 	br	801484 <disc_loadMBR+0x6c>
		ex_getPartitionField(buf,&(disc->partitions[x]),PARTITION_TABLE_OFFSET+(x*SIZE_PARTITION_FIELD));
  80144c:	e0bfff17 	ldw	r2,-4(fp)
  801450:	10c00204 	addi	r3,r2,8
  801454:	e0bffe03 	ldbu	r2,-8(fp)
  801458:	1004913a 	slli	r2,r2,4
  80145c:	188b883a 	add	r5,r3,r2
  801460:	e0bffe03 	ldbu	r2,-8(fp)
  801464:	1004913a 	slli	r2,r2,4
  801468:	10806f84 	addi	r2,r2,446
  80146c:	100d883a 	mov	r6,r2
  801470:	e13ffd17 	ldw	r4,-12(fp)
  801474:	08017bc0 	call	8017bc <ex_getPartitionField>
{
	euint8 x;
	euint8 *buf;
	
	buf=ioman_getSector(disc->ioman,LBA_ADDR_MBR,IOM_MODE_READONLY|IOM_MODE_EXP_REQ);
	for(x=0;x<4;x++){
  801478:	e0bffe03 	ldbu	r2,-8(fp)
  80147c:	10800044 	addi	r2,r2,1
  801480:	e0bffe05 	stb	r2,-8(fp)
  801484:	e0bffe03 	ldbu	r2,-8(fp)
  801488:	10800130 	cmpltui	r2,r2,4
  80148c:	103fef1e 	bne	r2,zero,80144c <disc_loadMBR+0x34>
		ex_getPartitionField(buf,&(disc->partitions[x]),PARTITION_TABLE_OFFSET+(x*SIZE_PARTITION_FIELD));
	}
	ioman_releaseSector(disc->ioman,buf);
  801490:	e0bfff17 	ldw	r2,-4(fp)
  801494:	11000017 	ldw	r4,0(r2)
  801498:	e17ffd17 	ldw	r5,-12(fp)
  80149c:	0806b480 	call	806b48 <ioman_releaseSector>
}
  8014a0:	e037883a 	mov	sp,fp
  8014a4:	dfc00117 	ldw	ra,4(sp)
  8014a8:	df000017 	ldw	fp,0(sp)
  8014ac:	dec00204 	addi	sp,sp,8
  8014b0:	f800283a 	ret

008014b4 <efs_init>:
 * Description: This function initialises all subelements of a filesystem.
 * It sets the pointerchain and verifies each step.
 * Return value: 0 on success and -1 on failure.
*/
esint8 efs_init(EmbeddedFileSystem * efs,eint8* opts)
{
  8014b4:	defffb04 	addi	sp,sp,-20
  8014b8:	dfc00415 	stw	ra,16(sp)
  8014bc:	df000315 	stw	fp,12(sp)
  8014c0:	df000304 	addi	fp,sp,12
  8014c4:	e13ffd15 	stw	r4,-12(fp)
  8014c8:	e17ffe15 	stw	r5,-8(fp)
	if(if_initInterface(&efs->myCard, opts)==0)
  8014cc:	e13ffd17 	ldw	r4,-12(fp)
  8014d0:	e17ffe17 	ldw	r5,-8(fp)
  8014d4:	08079cc0 	call	8079cc <if_initInterface>
  8014d8:	10803fcc 	andi	r2,r2,255
  8014dc:	1080201c 	xori	r2,r2,128
  8014e0:	10bfe004 	addi	r2,r2,-128
  8014e4:	1004c03a 	cmpne	r2,r2,zero
  8014e8:	1000341e 	bne	r2,zero,8015bc <efs_init+0x108>
	{
		ioman_init(&efs->myIOman,&efs->myCard,0);
  8014ec:	e0bffd17 	ldw	r2,-12(fp)
  8014f0:	11000104 	addi	r4,r2,4
  8014f4:	e17ffd17 	ldw	r5,-12(fp)
  8014f8:	000d883a 	mov	r6,zero
  8014fc:	080526c0 	call	80526c <ioman_init>
		disc_initDisc(&efs->myDisc, &efs->myIOman);
  801500:	e0bffd17 	ldw	r2,-12(fp)
  801504:	11022504 	addi	r4,r2,2196
  801508:	e0bffd17 	ldw	r2,-12(fp)
  80150c:	11400104 	addi	r5,r2,4
  801510:	08013d00 	call	8013d0 <disc_initDisc>
		part_initPartition(&efs->myPart, &efs->myDisc);
  801514:	e0bffd17 	ldw	r2,-12(fp)
  801518:	11023704 	addi	r4,r2,2268
  80151c:	e0bffd17 	ldw	r2,-12(fp)
  801520:	11422504 	addi	r5,r2,2196
  801524:	0807fc00 	call	807fc0 <part_initPartition>
		if(efs->myPart.activePartition==-1){
  801528:	e0bffd17 	ldw	r2,-12(fp)
  80152c:	10823803 	ldbu	r2,2272(r2)
  801530:	10803fcc 	andi	r2,r2,255
  801534:	1080201c 	xori	r2,r2,128
  801538:	10bfe004 	addi	r2,r2,-128
  80153c:	10bfffd8 	cmpnei	r2,r2,-1
  801540:	10000f1e 	bne	r2,zero,801580 <efs_init+0xcc>
			efs->myDisc.partitions[0].type=0x0B;
  801544:	e0fffd17 	ldw	r3,-12(fp)
  801548:	008002c4 	movi	r2,11
  80154c:	18822805 	stb	r2,2208(r3)
			efs->myDisc.partitions[0].LBA_begin=0;
  801550:	e0bffd17 	ldw	r2,-12(fp)
  801554:	10022915 	stw	zero,2212(r2)
			efs->myDisc.partitions[0].numSectors=efs->myCard.sectorCount;	
  801558:	e0bffd17 	ldw	r2,-12(fp)
  80155c:	10800017 	ldw	r2,0(r2)
  801560:	1007883a 	mov	r3,r2
  801564:	e0bffd17 	ldw	r2,-12(fp)
  801568:	10c22a15 	stw	r3,2216(r2)
			/*efs->myPart.activePartition = 0;*/
			/*efs->myPart.disc = &(efs->myDisc);*/
			part_initPartition(&efs->myPart, &efs->myDisc);
  80156c:	e0bffd17 	ldw	r2,-12(fp)
  801570:	11023704 	addi	r4,r2,2268
  801574:	e0bffd17 	ldw	r2,-12(fp)
  801578:	11422504 	addi	r5,r2,2196
  80157c:	0807fc00 	call	807fc0 <part_initPartition>
		}
		/*part_initPartition(&efs->myPart, &efs->myDisc);*/
		if(fs_initFs(&efs->myFs, &efs->myPart))
  801580:	e0bffd17 	ldw	r2,-12(fp)
  801584:	11023904 	addi	r4,r2,2276
  801588:	e0bffd17 	ldw	r2,-12(fp)
  80158c:	11423704 	addi	r5,r2,2268
  801590:	08040f00 	call	8040f0 <fs_initFs>
  801594:	10bfffcc 	andi	r2,r2,65535
  801598:	10a0001c 	xori	r2,r2,32768
  80159c:	10a00004 	addi	r2,r2,-32768
  8015a0:	1005003a 	cmpeq	r2,r2,zero
  8015a4:	1000031e 	bne	r2,zero,8015b4 <efs_init+0x100>
			return(-2);
  8015a8:	00bfff84 	movi	r2,-2
  8015ac:	e0bfff15 	stw	r2,-4(fp)
  8015b0:	00000406 	br	8015c4 <efs_init+0x110>
		return(0);
  8015b4:	e03fff15 	stw	zero,-4(fp)
  8015b8:	00000206 	br	8015c4 <efs_init+0x110>
	}
	return(-1);
  8015bc:	00bfffc4 	movi	r2,-1
  8015c0:	e0bfff15 	stw	r2,-4(fp)
  8015c4:	e0bfff17 	ldw	r2,-4(fp)
}
  8015c8:	e037883a 	mov	sp,fp
  8015cc:	dfc00117 	ldw	ra,4(sp)
  8015d0:	df000017 	ldw	fp,0(sp)
  8015d4:	dec00204 	addi	sp,sp,8
  8015d8:	f800283a 	ret

008015dc <ex_getb16>:
/*****************************************************************************/



euint16 ex_getb16(euint8* buf,euint32 offset)
{
  8015dc:	defffd04 	addi	sp,sp,-12
  8015e0:	df000215 	stw	fp,8(sp)
  8015e4:	df000204 	addi	fp,sp,8
  8015e8:	e13ffe15 	stw	r4,-8(fp)
  8015ec:	e17fff15 	stw	r5,-4(fp)
	return(ltb_end16(((*(buf+offset+1))<<8) + ((*(buf+offset+0))<<0)));
  8015f0:	e0ffff17 	ldw	r3,-4(fp)
  8015f4:	e0bffe17 	ldw	r2,-8(fp)
  8015f8:	1885883a 	add	r2,r3,r2
  8015fc:	10800044 	addi	r2,r2,1
  801600:	10800003 	ldbu	r2,0(r2)
  801604:	10803fcc 	andi	r2,r2,255
  801608:	1004923a 	slli	r2,r2,8
  80160c:	1009883a 	mov	r4,r2
  801610:	e0ffff17 	ldw	r3,-4(fp)
  801614:	e0bffe17 	ldw	r2,-8(fp)
  801618:	1885883a 	add	r2,r3,r2
  80161c:	10800003 	ldbu	r2,0(r2)
  801620:	10803fcc 	andi	r2,r2,255
  801624:	2085883a 	add	r2,r4,r2
  801628:	10bfffcc 	andi	r2,r2,65535
}
  80162c:	e037883a 	mov	sp,fp
  801630:	df000017 	ldw	fp,0(sp)
  801634:	dec00104 	addi	sp,sp,4
  801638:	f800283a 	ret

0080163c <ex_getb32>:
/*****************************************************************************/

euint32 ex_getb32(euint8* buf,euint32 offset)
{
  80163c:	defffd04 	addi	sp,sp,-12
  801640:	df000215 	stw	fp,8(sp)
  801644:	df000204 	addi	fp,sp,8
  801648:	e13ffe15 	stw	r4,-8(fp)
  80164c:	e17fff15 	stw	r5,-4(fp)
	return(ltb_end32(((euint32)buf[offset+3]<<24)+
  801650:	e0ffff17 	ldw	r3,-4(fp)
  801654:	e0bffe17 	ldw	r2,-8(fp)
  801658:	1885883a 	add	r2,r3,r2
  80165c:	108000c4 	addi	r2,r2,3
  801660:	10800003 	ldbu	r2,0(r2)
  801664:	10803fcc 	andi	r2,r2,255
  801668:	1008963a 	slli	r4,r2,24
  80166c:	e0ffff17 	ldw	r3,-4(fp)
  801670:	e0bffe17 	ldw	r2,-8(fp)
  801674:	1885883a 	add	r2,r3,r2
  801678:	10800084 	addi	r2,r2,2
  80167c:	10800003 	ldbu	r2,0(r2)
  801680:	10803fcc 	andi	r2,r2,255
  801684:	1004943a 	slli	r2,r2,16
  801688:	2089883a 	add	r4,r4,r2
  80168c:	e0ffff17 	ldw	r3,-4(fp)
  801690:	e0bffe17 	ldw	r2,-8(fp)
  801694:	1885883a 	add	r2,r3,r2
  801698:	10800044 	addi	r2,r2,1
  80169c:	10800003 	ldbu	r2,0(r2)
  8016a0:	10803fcc 	andi	r2,r2,255
  8016a4:	1004923a 	slli	r2,r2,8
  8016a8:	2089883a 	add	r4,r4,r2
  8016ac:	e0ffff17 	ldw	r3,-4(fp)
  8016b0:	e0bffe17 	ldw	r2,-8(fp)
  8016b4:	1885883a 	add	r2,r3,r2
  8016b8:	10800003 	ldbu	r2,0(r2)
  8016bc:	10803fcc 	andi	r2,r2,255
  8016c0:	2085883a 	add	r2,r4,r2
	      ((euint32)buf[offset+2]<<16)+
	      ((euint32)buf[offset+1]<<8)+
	      ((euint32)buf[offset+0]<<0)));
}
  8016c4:	e037883a 	mov	sp,fp
  8016c8:	df000017 	ldw	fp,0(sp)
  8016cc:	dec00104 	addi	sp,sp,4
  8016d0:	f800283a 	ret

008016d4 <ex_setb16>:
/*****************************************************************************/

void ex_setb16(euint8* buf,euint32 offset,euint16 data)
{
  8016d4:	defffc04 	addi	sp,sp,-16
  8016d8:	df000315 	stw	fp,12(sp)
  8016dc:	df000304 	addi	fp,sp,12
  8016e0:	e13ffd15 	stw	r4,-12(fp)
  8016e4:	e17ffe15 	stw	r5,-8(fp)
  8016e8:	e1bfff0d 	sth	r6,-4(fp)
#ifdef BIG_ENDIAN
	*(buf+offset+1) = data>>0;
	*(buf+offset+0) = data>>8;
#else
	*(buf+offset+0) = data>>0;
  8016ec:	e0fffe17 	ldw	r3,-8(fp)
  8016f0:	e0bffd17 	ldw	r2,-12(fp)
  8016f4:	1887883a 	add	r3,r3,r2
  8016f8:	e0bfff0b 	ldhu	r2,-4(fp)
  8016fc:	18800005 	stb	r2,0(r3)
	*(buf+offset+1) = data>>8;
  801700:	e0fffe17 	ldw	r3,-8(fp)
  801704:	e0bffd17 	ldw	r2,-12(fp)
  801708:	1885883a 	add	r2,r3,r2
  80170c:	10c00044 	addi	r3,r2,1
  801710:	e0bfff0b 	ldhu	r2,-4(fp)
  801714:	1004d23a 	srli	r2,r2,8
  801718:	18800005 	stb	r2,0(r3)
#endif
}
  80171c:	e037883a 	mov	sp,fp
  801720:	df000017 	ldw	fp,0(sp)
  801724:	dec00104 	addi	sp,sp,4
  801728:	f800283a 	ret

0080172c <ex_setb32>:
/*****************************************************************************/

void ex_setb32(euint8* buf,euint32 offset,euint32 data)
{
  80172c:	defffc04 	addi	sp,sp,-16
  801730:	df000315 	stw	fp,12(sp)
  801734:	df000304 	addi	fp,sp,12
  801738:	e13ffd15 	stw	r4,-12(fp)
  80173c:	e17ffe15 	stw	r5,-8(fp)
  801740:	e1bfff15 	stw	r6,-4(fp)
	*(buf+offset+3) = data>> 0;
	*(buf+offset+2) = data>> 8;
	*(buf+offset+1) = data>>16;
	*(buf+offset+0) = data>>24;
#else
	*(buf+offset+0) = data>> 0;
  801744:	e0fffe17 	ldw	r3,-8(fp)
  801748:	e0bffd17 	ldw	r2,-12(fp)
  80174c:	1887883a 	add	r3,r3,r2
  801750:	e0bfff17 	ldw	r2,-4(fp)
  801754:	18800005 	stb	r2,0(r3)
	*(buf+offset+1) = data>> 8;
  801758:	e0fffe17 	ldw	r3,-8(fp)
  80175c:	e0bffd17 	ldw	r2,-12(fp)
  801760:	1885883a 	add	r2,r3,r2
  801764:	10c00044 	addi	r3,r2,1
  801768:	e0bfff17 	ldw	r2,-4(fp)
  80176c:	1004d23a 	srli	r2,r2,8
  801770:	18800005 	stb	r2,0(r3)
	*(buf+offset+2) = data>>16;
  801774:	e0fffe17 	ldw	r3,-8(fp)
  801778:	e0bffd17 	ldw	r2,-12(fp)
  80177c:	1885883a 	add	r2,r3,r2
  801780:	10c00084 	addi	r3,r2,2
  801784:	e0bfff17 	ldw	r2,-4(fp)
  801788:	1004d43a 	srli	r2,r2,16
  80178c:	18800005 	stb	r2,0(r3)
	*(buf+offset+3) = data>>24;
  801790:	e0fffe17 	ldw	r3,-8(fp)
  801794:	e0bffd17 	ldw	r2,-12(fp)
  801798:	1885883a 	add	r2,r3,r2
  80179c:	10c000c4 	addi	r3,r2,3
  8017a0:	e0bfff17 	ldw	r2,-4(fp)
  8017a4:	1004d63a 	srli	r2,r2,24
  8017a8:	18800005 	stb	r2,0(r3)
#endif
}
  8017ac:	e037883a 	mov	sp,fp
  8017b0:	df000017 	ldw	fp,0(sp)
  8017b4:	dec00104 	addi	sp,sp,4
  8017b8:	f800283a 	ret

008017bc <ex_getPartitionField>:
/*****************************************************************************/

void ex_getPartitionField(euint8* buf,PartitionField* pf, euint32 offset)
{
  8017bc:	defffb04 	addi	sp,sp,-20
  8017c0:	dfc00415 	stw	ra,16(sp)
  8017c4:	df000315 	stw	fp,12(sp)
  8017c8:	df000304 	addi	fp,sp,12
  8017cc:	e13ffd15 	stw	r4,-12(fp)
  8017d0:	e17ffe15 	stw	r5,-8(fp)
  8017d4:	e1bfff15 	stw	r6,-4(fp)
	pf->bootFlag       = *(buf + offset);
  8017d8:	e0ffff17 	ldw	r3,-4(fp)
  8017dc:	e0bffd17 	ldw	r2,-12(fp)
  8017e0:	1885883a 	add	r2,r3,r2
  8017e4:	10c00003 	ldbu	r3,0(r2)
  8017e8:	e0bffe17 	ldw	r2,-8(fp)
  8017ec:	10c00005 	stb	r3,0(r2)
	pf->CHS_begin[0]   = *(buf + offset + 1);
  8017f0:	e0ffff17 	ldw	r3,-4(fp)
  8017f4:	e0bffd17 	ldw	r2,-12(fp)
  8017f8:	1885883a 	add	r2,r3,r2
  8017fc:	10800044 	addi	r2,r2,1
  801800:	10c00003 	ldbu	r3,0(r2)
  801804:	e0bffe17 	ldw	r2,-8(fp)
  801808:	10c00045 	stb	r3,1(r2)
	pf->CHS_begin[1]   = *(buf + offset + 2);
  80180c:	e0ffff17 	ldw	r3,-4(fp)
  801810:	e0bffd17 	ldw	r2,-12(fp)
  801814:	1885883a 	add	r2,r3,r2
  801818:	10800084 	addi	r2,r2,2
  80181c:	10c00003 	ldbu	r3,0(r2)
  801820:	e0bffe17 	ldw	r2,-8(fp)
  801824:	10c00085 	stb	r3,2(r2)
	pf->CHS_begin[2]   = *(buf + offset + 3);
  801828:	e0ffff17 	ldw	r3,-4(fp)
  80182c:	e0bffd17 	ldw	r2,-12(fp)
  801830:	1885883a 	add	r2,r3,r2
  801834:	108000c4 	addi	r2,r2,3
  801838:	10c00003 	ldbu	r3,0(r2)
  80183c:	e0bffe17 	ldw	r2,-8(fp)
  801840:	10c000c5 	stb	r3,3(r2)
	pf->type           = *(buf + offset + 4);
  801844:	e0ffff17 	ldw	r3,-4(fp)
  801848:	e0bffd17 	ldw	r2,-12(fp)
  80184c:	1885883a 	add	r2,r3,r2
  801850:	10800104 	addi	r2,r2,4
  801854:	10c00003 	ldbu	r3,0(r2)
  801858:	e0bffe17 	ldw	r2,-8(fp)
  80185c:	10c00105 	stb	r3,4(r2)
	pf->CHS_end[0]     = *(buf + offset + 5);
  801860:	e0ffff17 	ldw	r3,-4(fp)
  801864:	e0bffd17 	ldw	r2,-12(fp)
  801868:	1885883a 	add	r2,r3,r2
  80186c:	10800144 	addi	r2,r2,5
  801870:	10c00003 	ldbu	r3,0(r2)
  801874:	e0bffe17 	ldw	r2,-8(fp)
  801878:	10c00145 	stb	r3,5(r2)
	pf->CHS_end[1]     = *(buf + offset + 6);
  80187c:	e0ffff17 	ldw	r3,-4(fp)
  801880:	e0bffd17 	ldw	r2,-12(fp)
  801884:	1885883a 	add	r2,r3,r2
  801888:	10800184 	addi	r2,r2,6
  80188c:	10c00003 	ldbu	r3,0(r2)
  801890:	e0bffe17 	ldw	r2,-8(fp)
  801894:	10c00185 	stb	r3,6(r2)
	pf->CHS_end[2]     = *(buf + offset + 7);
  801898:	e0ffff17 	ldw	r3,-4(fp)
  80189c:	e0bffd17 	ldw	r2,-12(fp)
  8018a0:	1885883a 	add	r2,r3,r2
  8018a4:	108001c4 	addi	r2,r2,7
  8018a8:	10c00003 	ldbu	r3,0(r2)
  8018ac:	e0bffe17 	ldw	r2,-8(fp)
  8018b0:	10c001c5 	stb	r3,7(r2)
	pf->LBA_begin      = ex_getb32(buf + offset,8);
  8018b4:	e0ffff17 	ldw	r3,-4(fp)
  8018b8:	e0bffd17 	ldw	r2,-12(fp)
  8018bc:	1889883a 	add	r4,r3,r2
  8018c0:	01400204 	movi	r5,8
  8018c4:	080163c0 	call	80163c <ex_getb32>
  8018c8:	1007883a 	mov	r3,r2
  8018cc:	e0bffe17 	ldw	r2,-8(fp)
  8018d0:	10c00215 	stw	r3,8(r2)
	pf->numSectors     = ex_getb32(buf + offset,12);
  8018d4:	e0ffff17 	ldw	r3,-4(fp)
  8018d8:	e0bffd17 	ldw	r2,-12(fp)
  8018dc:	1889883a 	add	r4,r3,r2
  8018e0:	01400304 	movi	r5,12
  8018e4:	080163c0 	call	80163c <ex_getb32>
  8018e8:	1007883a 	mov	r3,r2
  8018ec:	e0bffe17 	ldw	r2,-8(fp)
  8018f0:	10c00315 	stw	r3,12(r2)
}
  8018f4:	e037883a 	mov	sp,fp
  8018f8:	dfc00117 	ldw	ra,4(sp)
  8018fc:	df000017 	ldw	fp,0(sp)
  801900:	dec00204 	addi	sp,sp,8
  801904:	f800283a 	ret

00801908 <ex_setPartitionField>:
/*****************************************************************************/

void ex_setPartitionField(euint8* buf,PartitionField* pf, euint32 offset)
{
  801908:	defffc04 	addi	sp,sp,-16
  80190c:	df000315 	stw	fp,12(sp)
  801910:	df000304 	addi	fp,sp,12
  801914:	e13ffd15 	stw	r4,-12(fp)
  801918:	e17ffe15 	stw	r5,-8(fp)
  80191c:	e1bfff15 	stw	r6,-4(fp)

}
  801920:	e037883a 	mov	sp,fp
  801924:	df000017 	ldw	fp,0(sp)
  801928:	dec00104 	addi	sp,sp,4
  80192c:	f800283a 	ret

00801930 <fat_getSectorAddressFatEntry>:
 * Description: Returns the sectornumber that holds the fat entry for cluster cluster_addr.
 * This works for all FAT types.
 * Return value: Sectornumber, or 0. Warning, no boundary check.
*/
euint32 fat_getSectorAddressFatEntry(FileSystem *fs,euint32 cluster_addr)
{ 
  801930:	defff904 	addi	sp,sp,-28
  801934:	df000615 	stw	fp,24(sp)
  801938:	df000604 	addi	fp,sp,24
  80193c:	e13ffc15 	stw	r4,-16(fp)
  801940:	e17ffd15 	stw	r5,-12(fp)
	euint32 base = fs->volumeId.ReservedSectorCount,res;
  801944:	e0bffc17 	ldw	r2,-16(fp)
  801948:	1080020b 	ldhu	r2,8(r2)
  80194c:	10bfffcc 	andi	r2,r2,65535
  801950:	e0bffb15 	stw	r2,-20(fp)
	
	switch(fs->type){
  801954:	e0bffc17 	ldw	r2,-16(fp)
  801958:	10800f03 	ldbu	r2,60(r2)
  80195c:	10803fcc 	andi	r2,r2,255
  801960:	e0bfff15 	stw	r2,-4(fp)
  801964:	e0ffff17 	ldw	r3,-4(fp)
  801968:	188000a0 	cmpeqi	r2,r3,2
  80196c:	1000181e 	bne	r2,zero,8019d0 <fat_getSectorAddressFatEntry+0xa0>
  801970:	e0ffff17 	ldw	r3,-4(fp)
  801974:	188000e0 	cmpeqi	r2,r3,3
  801978:	1000231e 	bne	r2,zero,801a08 <fat_getSectorAddressFatEntry+0xd8>
  80197c:	e0ffff17 	ldw	r3,-4(fp)
  801980:	18800060 	cmpeqi	r2,r3,1
  801984:	1000011e 	bne	r2,zero,80198c <fat_getSectorAddressFatEntry+0x5c>
  801988:	00002d06 	br	801a40 <fat_getSectorAddressFatEntry+0x110>
		case FAT12:
			res=(cluster_addr*3/1024);
  80198c:	e0fffd17 	ldw	r3,-12(fp)
  801990:	1805883a 	mov	r2,r3
  801994:	1085883a 	add	r2,r2,r2
  801998:	10c5883a 	add	r2,r2,r3
  80199c:	1004d2ba 	srli	r2,r2,10
  8019a0:	e0bffa15 	stw	r2,-24(fp)
			if(res>=fs->FatSectorCount){
  8019a4:	e0bffc17 	ldw	r2,-16(fp)
  8019a8:	10c00917 	ldw	r3,36(r2)
  8019ac:	e0bffa17 	ldw	r2,-24(fp)
  8019b0:	10c00236 	bltu	r2,r3,8019bc <fat_getSectorAddressFatEntry+0x8c>
				return(0);
  8019b4:	e03ffe15 	stw	zero,-8(fp)
  8019b8:	00002206 	br	801a44 <fat_getSectorAddressFatEntry+0x114>
			}else{
				return(base+res);
  8019bc:	e0fffb17 	ldw	r3,-20(fp)
  8019c0:	e0bffa17 	ldw	r2,-24(fp)
  8019c4:	1887883a 	add	r3,r3,r2
  8019c8:	e0fffe15 	stw	r3,-8(fp)
  8019cc:	00001d06 	br	801a44 <fat_getSectorAddressFatEntry+0x114>
			}
			break;
		case FAT16:
			res=cluster_addr/256;
  8019d0:	e0bffd17 	ldw	r2,-12(fp)
  8019d4:	1004d23a 	srli	r2,r2,8
  8019d8:	e0bffa15 	stw	r2,-24(fp)
			if(res>=fs->FatSectorCount){
  8019dc:	e0bffc17 	ldw	r2,-16(fp)
  8019e0:	10c00917 	ldw	r3,36(r2)
  8019e4:	e0bffa17 	ldw	r2,-24(fp)
  8019e8:	10c00236 	bltu	r2,r3,8019f4 <fat_getSectorAddressFatEntry+0xc4>
				return(0);
  8019ec:	e03ffe15 	stw	zero,-8(fp)
  8019f0:	00001406 	br	801a44 <fat_getSectorAddressFatEntry+0x114>
			}else{
				return(base+res);
  8019f4:	e0fffb17 	ldw	r3,-20(fp)
  8019f8:	e0bffa17 	ldw	r2,-24(fp)
  8019fc:	1887883a 	add	r3,r3,r2
  801a00:	e0fffe15 	stw	r3,-8(fp)
  801a04:	00000f06 	br	801a44 <fat_getSectorAddressFatEntry+0x114>
			}
			break;
		case FAT32:
			res=cluster_addr/128;
  801a08:	e0bffd17 	ldw	r2,-12(fp)
  801a0c:	1004d1fa 	srli	r2,r2,7
  801a10:	e0bffa15 	stw	r2,-24(fp)
			if(res>=fs->FatSectorCount){
  801a14:	e0bffc17 	ldw	r2,-16(fp)
  801a18:	10c00917 	ldw	r3,36(r2)
  801a1c:	e0bffa17 	ldw	r2,-24(fp)
  801a20:	10c00236 	bltu	r2,r3,801a2c <fat_getSectorAddressFatEntry+0xfc>
				return(0);
  801a24:	e03ffe15 	stw	zero,-8(fp)
  801a28:	00000606 	br	801a44 <fat_getSectorAddressFatEntry+0x114>
			}else{
				return(base+res);
  801a2c:	e0fffb17 	ldw	r3,-20(fp)
  801a30:	e0bffa17 	ldw	r2,-24(fp)
  801a34:	1887883a 	add	r3,r3,r2
  801a38:	e0fffe15 	stw	r3,-8(fp)
  801a3c:	00000106 	br	801a44 <fat_getSectorAddressFatEntry+0x114>
			}
			break; 
	}
	return(0);
  801a40:	e03ffe15 	stw	zero,-8(fp)
  801a44:	e0bffe17 	ldw	r2,-8(fp)
}
  801a48:	e037883a 	mov	sp,fp
  801a4c:	df000017 	ldw	fp,0(sp)
  801a50:	dec00104 	addi	sp,sp,4
  801a54:	f800283a 	ret

00801a58 <fat_getNextClusterAddress>:
 * for cluster_addr. It then fetches and (if required) calculates it's value.
 * This value is the EoC marker -or- the number of the next cluster in the chain.
 * Return value: Clusternumber or EoC
*/
euint32 fat_getNextClusterAddress(FileSystem *fs,euint32 cluster_addr,euint16 *linear)
{
  801a58:	defff504 	addi	sp,sp,-44
  801a5c:	dfc00a15 	stw	ra,40(sp)
  801a60:	df000915 	stw	fp,36(sp)
  801a64:	df000904 	addi	fp,sp,36
  801a68:	e13ffb15 	stw	r4,-20(fp)
  801a6c:	e17ffc15 	stw	r5,-16(fp)
  801a70:	e1bffd15 	stw	r6,-12(fp)
	euint8 *buf; 
	euint8 hb,lb;
	euint16 offset;
	euint32 sector;
	euint32 nextcluster=0;
  801a74:	e03ff715 	stw	zero,-36(fp)
	
	sector=fat_getSectorAddressFatEntry(fs,cluster_addr);
  801a78:	e13ffb17 	ldw	r4,-20(fp)
  801a7c:	e17ffc17 	ldw	r5,-16(fp)
  801a80:	08019300 	call	801930 <fat_getSectorAddressFatEntry>
  801a84:	e0bff815 	stw	r2,-32(fp)
	if( (fs->FatSectorCount <= (sector-fs->volumeId.ReservedSectorCount)) || sector==0 )
  801a88:	e0bffb17 	ldw	r2,-20(fp)
  801a8c:	11000917 	ldw	r4,36(r2)
  801a90:	e0bffb17 	ldw	r2,-20(fp)
  801a94:	1080020b 	ldhu	r2,8(r2)
  801a98:	10ffffcc 	andi	r3,r2,65535
  801a9c:	e0bff817 	ldw	r2,-32(fp)
  801aa0:	10c5c83a 	sub	r2,r2,r3
  801aa4:	1100032e 	bgeu	r2,r4,801ab4 <fat_getNextClusterAddress+0x5c>
  801aa8:	e0bff817 	ldw	r2,-32(fp)
  801aac:	1004c03a 	cmpne	r2,r2,zero
  801ab0:	1000021e 	bne	r2,zero,801abc <fat_getNextClusterAddress+0x64>
	{
		return(0);
  801ab4:	e03fff15 	stw	zero,-4(fp)
  801ab8:	00006b06 	br	801c68 <fat_getNextClusterAddress+0x210>
	}
	
	buf=part_getSect(fs->part,sector,IOM_MODE_READONLY);
  801abc:	e0bffb17 	ldw	r2,-20(fp)
  801ac0:	11000017 	ldw	r4,0(r2)
  801ac4:	e17ff817 	ldw	r5,-32(fp)
  801ac8:	01800044 	movi	r6,1
  801acc:	08082240 	call	808224 <part_getSect>
  801ad0:	e0bffa15 	stw	r2,-24(fp)
		
	switch(fs->type)
  801ad4:	e0bffb17 	ldw	r2,-20(fp)
  801ad8:	10800f03 	ldbu	r2,60(r2)
  801adc:	10803fcc 	andi	r2,r2,255
  801ae0:	e0bffe15 	stw	r2,-8(fp)
  801ae4:	e0fffe17 	ldw	r3,-8(fp)
  801ae8:	188000a0 	cmpeqi	r2,r3,2
  801aec:	1000411e 	bne	r2,zero,801bf4 <fat_getNextClusterAddress+0x19c>
  801af0:	e0fffe17 	ldw	r3,-8(fp)
  801af4:	188000e0 	cmpeqi	r2,r3,3
  801af8:	10004a1e 	bne	r2,zero,801c24 <fat_getNextClusterAddress+0x1cc>
  801afc:	e0fffe17 	ldw	r3,-8(fp)
  801b00:	18800060 	cmpeqi	r2,r3,1
  801b04:	1000011e 	bne	r2,zero,801b0c <fat_getNextClusterAddress+0xb4>
  801b08:	00005106 	br	801c50 <fat_getNextClusterAddress+0x1f8>
	{
		case FAT12:
			offset = ((cluster_addr%1024)*3/2)%512;
  801b0c:	e0bffc17 	ldw	r2,-16(fp)
  801b10:	10c0ffcc 	andi	r3,r2,1023
  801b14:	1805883a 	mov	r2,r3
  801b18:	1085883a 	add	r2,r2,r2
  801b1c:	10c5883a 	add	r2,r2,r3
  801b20:	1004d07a 	srli	r2,r2,1
  801b24:	10807fcc 	andi	r2,r2,511
  801b28:	e0bff90d 	sth	r2,-28(fp)
			hb = buf[offset];
  801b2c:	e0bff90b 	ldhu	r2,-28(fp)
  801b30:	1007883a 	mov	r3,r2
  801b34:	e0bffa17 	ldw	r2,-24(fp)
  801b38:	1885883a 	add	r2,r3,r2
  801b3c:	10800003 	ldbu	r2,0(r2)
  801b40:	e0bff9c5 	stb	r2,-25(fp)
			if(offset == 511){
  801b44:	e0bff90b 	ldhu	r2,-28(fp)
  801b48:	10807fd8 	cmpnei	r2,r2,511
  801b4c:	10000f1e 	bne	r2,zero,801b8c <fat_getNextClusterAddress+0x134>
				part_relSect(fs->part,buf);
  801b50:	e0bffb17 	ldw	r2,-20(fp)
  801b54:	11000017 	ldw	r4,0(r2)
  801b58:	e17ffa17 	ldw	r5,-24(fp)
  801b5c:	08082840 	call	808284 <part_relSect>
				buf=part_getSect(fs->part,sector+1,IOM_MODE_READONLY);
  801b60:	e0bffb17 	ldw	r2,-20(fp)
  801b64:	11000017 	ldw	r4,0(r2)
  801b68:	e0bff817 	ldw	r2,-32(fp)
  801b6c:	11400044 	addi	r5,r2,1
  801b70:	01800044 	movi	r6,1
  801b74:	08082240 	call	808224 <part_getSect>
  801b78:	e0bffa15 	stw	r2,-24(fp)
				lb = buf[0];
  801b7c:	e0bffa17 	ldw	r2,-24(fp)
  801b80:	10800003 	ldbu	r2,0(r2)
  801b84:	e0bff985 	stb	r2,-26(fp)
  801b88:	00000706 	br	801ba8 <fat_getNextClusterAddress+0x150>
			}else{
				lb = buf[offset + 1];
  801b8c:	e0bff90b 	ldhu	r2,-28(fp)
  801b90:	1007883a 	mov	r3,r2
  801b94:	e0bffa17 	ldw	r2,-24(fp)
  801b98:	1885883a 	add	r2,r3,r2
  801b9c:	10800044 	addi	r2,r2,1
  801ba0:	10800003 	ldbu	r2,0(r2)
  801ba4:	e0bff985 	stb	r2,-26(fp)
			}
			if(cluster_addr%2==0){
  801ba8:	e0bffc17 	ldw	r2,-16(fp)
  801bac:	1080004c 	andi	r2,r2,1
  801bb0:	1004c03a 	cmpne	r2,r2,zero
  801bb4:	1000071e 	bne	r2,zero,801bd4 <fat_getNextClusterAddress+0x17c>
				nextcluster = ( ((lb&0x0F)<<8) + (hb) );
  801bb8:	e0bff983 	ldbu	r2,-26(fp)
  801bbc:	108003cc 	andi	r2,r2,15
  801bc0:	1006923a 	slli	r3,r2,8
  801bc4:	e0bff9c3 	ldbu	r2,-25(fp)
  801bc8:	1885883a 	add	r2,r3,r2
  801bcc:	e0bff715 	stw	r2,-36(fp)
  801bd0:	00001f06 	br	801c50 <fat_getNextClusterAddress+0x1f8>
			}else{
				nextcluster = ( (lb<<4) + (hb>>4) );
  801bd4:	e0bff983 	ldbu	r2,-26(fp)
  801bd8:	1006913a 	slli	r3,r2,4
  801bdc:	e0bff9c3 	ldbu	r2,-25(fp)
  801be0:	1004d13a 	srli	r2,r2,4
  801be4:	10803fcc 	andi	r2,r2,255
  801be8:	1885883a 	add	r2,r3,r2
  801bec:	e0bff715 	stw	r2,-36(fp)
			}
			break;
  801bf0:	00001706 	br	801c50 <fat_getNextClusterAddress+0x1f8>
		case FAT16:
			offset=cluster_addr%256;
  801bf4:	e0bffc17 	ldw	r2,-16(fp)
  801bf8:	10803fcc 	andi	r2,r2,255
  801bfc:	e0bff90d 	sth	r2,-28(fp)
			nextcluster = *((euint16 *)buf + offset);
  801c00:	e0bff90b 	ldhu	r2,-28(fp)
  801c04:	1085883a 	add	r2,r2,r2
  801c08:	1007883a 	mov	r3,r2
  801c0c:	e0bffa17 	ldw	r2,-24(fp)
  801c10:	1885883a 	add	r2,r3,r2
  801c14:	1080000b 	ldhu	r2,0(r2)
  801c18:	10bfffcc 	andi	r2,r2,65535
  801c1c:	e0bff715 	stw	r2,-36(fp)
			break;
  801c20:	00000b06 	br	801c50 <fat_getNextClusterAddress+0x1f8>
		case FAT32:
			offset=cluster_addr%128;
  801c24:	e0bffc17 	ldw	r2,-16(fp)
  801c28:	10801fcc 	andi	r2,r2,127
  801c2c:	e0bff90d 	sth	r2,-28(fp)
			nextcluster = *((euint32 *)buf + offset);
  801c30:	e0bff90b 	ldhu	r2,-28(fp)
  801c34:	1085883a 	add	r2,r2,r2
  801c38:	1085883a 	add	r2,r2,r2
  801c3c:	1007883a 	mov	r3,r2
  801c40:	e0bffa17 	ldw	r2,-24(fp)
  801c44:	1885883a 	add	r2,r3,r2
  801c48:	10800017 	ldw	r2,0(r2)
  801c4c:	e0bff715 	stw	r2,-36(fp)
			break;
	}
	
	part_relSect(fs->part,buf);
  801c50:	e0bffb17 	ldw	r2,-20(fp)
  801c54:	11000017 	ldw	r4,0(r2)
  801c58:	e17ffa17 	ldw	r5,-24(fp)
  801c5c:	08082840 	call	808284 <part_relSect>
	
	return(nextcluster);
  801c60:	e0bff717 	ldw	r2,-36(fp)
  801c64:	e0bfff15 	stw	r2,-4(fp)
  801c68:	e0bfff17 	ldw	r2,-4(fp)
}
  801c6c:	e037883a 	mov	sp,fp
  801c70:	dfc00117 	ldw	ra,4(sp)
  801c74:	df000017 	ldw	fp,0(sp)
  801c78:	dec00204 	addi	sp,sp,8
  801c7c:	f800283a 	ret

00801c80 <fat_setNextClusterAddress>:
 * void fat_setNextClusterAddress(FileSystem *fs,unsigned long cluster_addr,unsigned long next_cluster_addr)
 * Description: This function makes an entry in the fattable for cluster_addr. The value it puts there
 * is next_cluster_addr. 
*/
void fat_setNextClusterAddress(FileSystem *fs,euint32 cluster_addr,euint32 next_cluster_addr)
{
  801c80:	defff504 	addi	sp,sp,-44
  801c84:	dfc00a15 	stw	ra,40(sp)
  801c88:	df000915 	stw	fp,36(sp)
  801c8c:	dc000815 	stw	r16,32(sp)
  801c90:	df000804 	addi	fp,sp,32
  801c94:	e13ffc15 	stw	r4,-16(fp)
  801c98:	e17ffd15 	stw	r5,-12(fp)
  801c9c:	e1bffe15 	stw	r6,-8(fp)
	euint8 *buf,*buf2; 
	euint16 offset;
	euint32 sector;
	
	sector=fat_getSectorAddressFatEntry(fs,cluster_addr);
  801ca0:	e13ffc17 	ldw	r4,-16(fp)
  801ca4:	e17ffd17 	ldw	r5,-12(fp)
  801ca8:	08019300 	call	801930 <fat_getSectorAddressFatEntry>
  801cac:	e0bff815 	stw	r2,-32(fp)
	
	if(( fs->FatSectorCount <= (sector - fs->volumeId.ReservedSectorCount )||(sector==0))){
  801cb0:	e0bffc17 	ldw	r2,-16(fp)
  801cb4:	11000917 	ldw	r4,36(r2)
  801cb8:	e0bffc17 	ldw	r2,-16(fp)
  801cbc:	1080020b 	ldhu	r2,8(r2)
  801cc0:	10ffffcc 	andi	r3,r2,65535
  801cc4:	e0bff817 	ldw	r2,-32(fp)
  801cc8:	10c5c83a 	sub	r2,r2,r3
  801ccc:	1100032e 	bgeu	r2,r4,801cdc <fat_setNextClusterAddress+0x5c>
  801cd0:	e0bff817 	ldw	r2,-32(fp)
  801cd4:	1004c03a 	cmpne	r2,r2,zero
  801cd8:	1000041e 	bne	r2,zero,801cec <fat_setNextClusterAddress+0x6c>
	    DBG((TXT("HARDERROR:::fat_getNextClusterAddress READ PAST FAT BOUNDARY\n")));
  801cdc:	010020b4 	movhi	r4,130
  801ce0:	2103b404 	addi	r4,r4,3792
  801ce4:	080ab1c0 	call	80ab1c <puts>
	    return;
  801ce8:	0000bc06 	br	801fdc <fat_setNextClusterAddress+0x35c>
	}
	
	buf=part_getSect(fs->part,sector,IOM_MODE_READWRITE);
  801cec:	e0bffc17 	ldw	r2,-16(fp)
  801cf0:	11000017 	ldw	r4,0(r2)
  801cf4:	e17ff817 	ldw	r5,-32(fp)
  801cf8:	01800084 	movi	r6,2
  801cfc:	08082240 	call	808224 <part_getSect>
  801d00:	e0bffb15 	stw	r2,-20(fp)
		
	switch(fs->type){
  801d04:	e0bffc17 	ldw	r2,-16(fp)
  801d08:	10800f03 	ldbu	r2,60(r2)
  801d0c:	10803fcc 	andi	r2,r2,255
  801d10:	e0bfff15 	stw	r2,-4(fp)
  801d14:	e0ffff17 	ldw	r3,-4(fp)
  801d18:	188000a0 	cmpeqi	r2,r3,2
  801d1c:	1000911e 	bne	r2,zero,801f64 <fat_setNextClusterAddress+0x2e4>
  801d20:	e0ffff17 	ldw	r3,-4(fp)
  801d24:	188000e0 	cmpeqi	r2,r3,3
  801d28:	10009d1e 	bne	r2,zero,801fa0 <fat_setNextClusterAddress+0x320>
  801d2c:	e0ffff17 	ldw	r3,-4(fp)
  801d30:	18800060 	cmpeqi	r2,r3,1
  801d34:	1000011e 	bne	r2,zero,801d3c <fat_setNextClusterAddress+0xbc>
  801d38:	0000a806 	br	801fdc <fat_setNextClusterAddress+0x35c>
		case FAT12:
			offset = ((cluster_addr%1024)*3/2)%512;
  801d3c:	e0bffd17 	ldw	r2,-12(fp)
  801d40:	10c0ffcc 	andi	r3,r2,1023
  801d44:	1805883a 	mov	r2,r3
  801d48:	1085883a 	add	r2,r2,r2
  801d4c:	10c5883a 	add	r2,r2,r3
  801d50:	1004d07a 	srli	r2,r2,1
  801d54:	10807fcc 	andi	r2,r2,511
  801d58:	e0bff90d 	sth	r2,-28(fp)
			if(offset == 511){
  801d5c:	e0bff90b 	ldhu	r2,-28(fp)
  801d60:	10807fd8 	cmpnei	r2,r2,511
  801d64:	1000421e 	bne	r2,zero,801e70 <fat_setNextClusterAddress+0x1f0>
				if(cluster_addr%2==0){
  801d68:	e0bffd17 	ldw	r2,-12(fp)
  801d6c:	1080004c 	andi	r2,r2,1
  801d70:	1004c03a 	cmpne	r2,r2,zero
  801d74:	1000071e 	bne	r2,zero,801d94 <fat_setNextClusterAddress+0x114>
					buf[offset]=next_cluster_addr&0xFF;
  801d78:	e0bff90b 	ldhu	r2,-28(fp)
  801d7c:	1007883a 	mov	r3,r2
  801d80:	e0bffb17 	ldw	r2,-20(fp)
  801d84:	1887883a 	add	r3,r3,r2
  801d88:	e0bffe17 	ldw	r2,-8(fp)
  801d8c:	18800005 	stb	r2,0(r3)
  801d90:	00001206 	br	801ddc <fat_setNextClusterAddress+0x15c>
				}else{
					buf[offset]=(buf[offset]&0xF)+((next_cluster_addr<<4)&0xF0);
  801d94:	e0bff90b 	ldhu	r2,-28(fp)
  801d98:	1007883a 	mov	r3,r2
  801d9c:	e0bffb17 	ldw	r2,-20(fp)
  801da0:	188b883a 	add	r5,r3,r2
  801da4:	e0bff90b 	ldhu	r2,-28(fp)
  801da8:	1007883a 	mov	r3,r2
  801dac:	e0bffb17 	ldw	r2,-20(fp)
  801db0:	1885883a 	add	r2,r3,r2
  801db4:	10800003 	ldbu	r2,0(r2)
  801db8:	108003cc 	andi	r2,r2,15
  801dbc:	1009883a 	mov	r4,r2
  801dc0:	e0bffe17 	ldw	r2,-8(fp)
  801dc4:	1004913a 	slli	r2,r2,4
  801dc8:	1007883a 	mov	r3,r2
  801dcc:	00bffc04 	movi	r2,-16
  801dd0:	1884703a 	and	r2,r3,r2
  801dd4:	2085883a 	add	r2,r4,r2
  801dd8:	28800005 	stb	r2,0(r5)
				}
				buf2=part_getSect(fs->part,fat_getSectorAddressFatEntry(fs,cluster_addr)+1,IOM_MODE_READWRITE);
  801ddc:	e0bffc17 	ldw	r2,-16(fp)
  801de0:	14000017 	ldw	r16,0(r2)
  801de4:	e13ffc17 	ldw	r4,-16(fp)
  801de8:	e17ffd17 	ldw	r5,-12(fp)
  801dec:	08019300 	call	801930 <fat_getSectorAddressFatEntry>
  801df0:	11400044 	addi	r5,r2,1
  801df4:	8009883a 	mov	r4,r16
  801df8:	01800084 	movi	r6,2
  801dfc:	08082240 	call	808224 <part_getSect>
  801e00:	e0bffa15 	stw	r2,-24(fp)
				if(cluster_addr%2==0){
  801e04:	e0bffd17 	ldw	r2,-12(fp)
  801e08:	1080004c 	andi	r2,r2,1
  801e0c:	1004c03a 	cmpne	r2,r2,zero
  801e10:	10000d1e 	bne	r2,zero,801e48 <fat_setNextClusterAddress+0x1c8>
					buf2[0]=(buf2[0]&0xF0)+((next_cluster_addr>>8)&0xF);
  801e14:	e0bffa17 	ldw	r2,-24(fp)
  801e18:	10c00003 	ldbu	r3,0(r2)
  801e1c:	00bffc04 	movi	r2,-16
  801e20:	1884703a 	and	r2,r3,r2
  801e24:	1007883a 	mov	r3,r2
  801e28:	e0bffe17 	ldw	r2,-8(fp)
  801e2c:	1004d23a 	srli	r2,r2,8
  801e30:	108003cc 	andi	r2,r2,15
  801e34:	1885883a 	add	r2,r3,r2
  801e38:	1007883a 	mov	r3,r2
  801e3c:	e0bffa17 	ldw	r2,-24(fp)
  801e40:	10c00005 	stb	r3,0(r2)
  801e44:	00000506 	br	801e5c <fat_setNextClusterAddress+0x1dc>
				}else{
					buf2[0]=(next_cluster_addr>>4)&0xFF;
  801e48:	e0bffe17 	ldw	r2,-8(fp)
  801e4c:	1004d13a 	srli	r2,r2,4
  801e50:	1007883a 	mov	r3,r2
  801e54:	e0bffa17 	ldw	r2,-24(fp)
  801e58:	10c00005 	stb	r3,0(r2)
				}
				part_relSect(fs->part,buf2);
  801e5c:	e0bffc17 	ldw	r2,-16(fp)
  801e60:	11000017 	ldw	r4,0(r2)
  801e64:	e17ffa17 	ldw	r5,-24(fp)
  801e68:	08082840 	call	808284 <part_relSect>
  801e6c:	00003806 	br	801f50 <fat_setNextClusterAddress+0x2d0>
			}else{
				if(cluster_addr%2==0){
  801e70:	e0bffd17 	ldw	r2,-12(fp)
  801e74:	1080004c 	andi	r2,r2,1
  801e78:	1004c03a 	cmpne	r2,r2,zero
  801e7c:	10001a1e 	bne	r2,zero,801ee8 <fat_setNextClusterAddress+0x268>
					buf[offset]=next_cluster_addr&0xFF;
  801e80:	e0bff90b 	ldhu	r2,-28(fp)
  801e84:	1007883a 	mov	r3,r2
  801e88:	e0bffb17 	ldw	r2,-20(fp)
  801e8c:	1887883a 	add	r3,r3,r2
  801e90:	e0bffe17 	ldw	r2,-8(fp)
  801e94:	18800005 	stb	r2,0(r3)
					buf[offset+1]=(buf[offset+1]&0xF0)+((next_cluster_addr>>8)&0xF);
  801e98:	e0bff90b 	ldhu	r2,-28(fp)
  801e9c:	1007883a 	mov	r3,r2
  801ea0:	e0bffb17 	ldw	r2,-20(fp)
  801ea4:	1885883a 	add	r2,r3,r2
  801ea8:	11000044 	addi	r4,r2,1
  801eac:	e0bff90b 	ldhu	r2,-28(fp)
  801eb0:	1007883a 	mov	r3,r2
  801eb4:	e0bffb17 	ldw	r2,-20(fp)
  801eb8:	1885883a 	add	r2,r3,r2
  801ebc:	10800044 	addi	r2,r2,1
  801ec0:	10c00003 	ldbu	r3,0(r2)
  801ec4:	00bffc04 	movi	r2,-16
  801ec8:	1884703a 	and	r2,r3,r2
  801ecc:	1007883a 	mov	r3,r2
  801ed0:	e0bffe17 	ldw	r2,-8(fp)
  801ed4:	1004d23a 	srli	r2,r2,8
  801ed8:	108003cc 	andi	r2,r2,15
  801edc:	1885883a 	add	r2,r3,r2
  801ee0:	20800005 	stb	r2,0(r4)
  801ee4:	00001a06 	br	801f50 <fat_setNextClusterAddress+0x2d0>
				}else{
					buf[offset]=(buf[offset]&0xF)+((next_cluster_addr<<4)&0xF0);
  801ee8:	e0bff90b 	ldhu	r2,-28(fp)
  801eec:	1007883a 	mov	r3,r2
  801ef0:	e0bffb17 	ldw	r2,-20(fp)
  801ef4:	188b883a 	add	r5,r3,r2
  801ef8:	e0bff90b 	ldhu	r2,-28(fp)
  801efc:	1007883a 	mov	r3,r2
  801f00:	e0bffb17 	ldw	r2,-20(fp)
  801f04:	1885883a 	add	r2,r3,r2
  801f08:	10800003 	ldbu	r2,0(r2)
  801f0c:	108003cc 	andi	r2,r2,15
  801f10:	1009883a 	mov	r4,r2
  801f14:	e0bffe17 	ldw	r2,-8(fp)
  801f18:	1004913a 	slli	r2,r2,4
  801f1c:	1007883a 	mov	r3,r2
  801f20:	00bffc04 	movi	r2,-16
  801f24:	1884703a 	and	r2,r3,r2
  801f28:	2085883a 	add	r2,r4,r2
  801f2c:	28800005 	stb	r2,0(r5)
					buf[offset+1]=(next_cluster_addr>>4)&0xFF;
  801f30:	e0bff90b 	ldhu	r2,-28(fp)
  801f34:	1007883a 	mov	r3,r2
  801f38:	e0bffb17 	ldw	r2,-20(fp)
  801f3c:	1885883a 	add	r2,r3,r2
  801f40:	10c00044 	addi	r3,r2,1
  801f44:	e0bffe17 	ldw	r2,-8(fp)
  801f48:	1004d13a 	srli	r2,r2,4
  801f4c:	18800005 	stb	r2,0(r3)
				}
			}
			part_relSect(fs->part,buf);
  801f50:	e0bffc17 	ldw	r2,-16(fp)
  801f54:	11000017 	ldw	r4,0(r2)
  801f58:	e17ffb17 	ldw	r5,-20(fp)
  801f5c:	08082840 	call	808284 <part_relSect>
			break;
  801f60:	00001e06 	br	801fdc <fat_setNextClusterAddress+0x35c>
		case FAT16:
			offset=cluster_addr%256;
  801f64:	e0bffd17 	ldw	r2,-12(fp)
  801f68:	10803fcc 	andi	r2,r2,255
  801f6c:	e0bff90d 	sth	r2,-28(fp)
			*((euint16*)buf+offset)=next_cluster_addr;
  801f70:	e0bff90b 	ldhu	r2,-28(fp)
  801f74:	1085883a 	add	r2,r2,r2
  801f78:	1007883a 	mov	r3,r2
  801f7c:	e0bffb17 	ldw	r2,-20(fp)
  801f80:	1887883a 	add	r3,r3,r2
  801f84:	e0bffe17 	ldw	r2,-8(fp)
  801f88:	1880000d 	sth	r2,0(r3)
			part_relSect(fs->part,buf);
  801f8c:	e0bffc17 	ldw	r2,-16(fp)
  801f90:	11000017 	ldw	r4,0(r2)
  801f94:	e17ffb17 	ldw	r5,-20(fp)
  801f98:	08082840 	call	808284 <part_relSect>
			break;
  801f9c:	00000f06 	br	801fdc <fat_setNextClusterAddress+0x35c>
		case FAT32:
			offset=cluster_addr%128;
  801fa0:	e0bffd17 	ldw	r2,-12(fp)
  801fa4:	10801fcc 	andi	r2,r2,127
  801fa8:	e0bff90d 	sth	r2,-28(fp)
			*((euint32*)buf+offset)=next_cluster_addr;
  801fac:	e0bff90b 	ldhu	r2,-28(fp)
  801fb0:	1085883a 	add	r2,r2,r2
  801fb4:	1085883a 	add	r2,r2,r2
  801fb8:	1007883a 	mov	r3,r2
  801fbc:	e0bffb17 	ldw	r2,-20(fp)
  801fc0:	1887883a 	add	r3,r3,r2
  801fc4:	e0bffe17 	ldw	r2,-8(fp)
  801fc8:	18800015 	stw	r2,0(r3)
			part_relSect(fs->part,buf);
  801fcc:	e0bffc17 	ldw	r2,-16(fp)
  801fd0:	11000017 	ldw	r4,0(r2)
  801fd4:	e17ffb17 	ldw	r5,-20(fp)
  801fd8:	08082840 	call	808284 <part_relSect>
			break;
	}
	
}
  801fdc:	e037883a 	mov	sp,fp
  801fe0:	dfc00217 	ldw	ra,8(sp)
  801fe4:	df000117 	ldw	fp,4(sp)
  801fe8:	dc000017 	ldw	r16,0(sp)
  801fec:	dec00304 	addi	sp,sp,12
  801ff0:	f800283a 	ret

00801ff4 <fat_isEocMarker>:
 * Description: Checks if a certain value is the EoC marker for the filesystem
 * noted in fs->type.
 * Return value: Returns 0 when it is the EoC marker, and 1 otherwise.
*/
eint16 fat_isEocMarker(FileSystem *fs,euint32 fat_entry)
{
  801ff4:	defffb04 	addi	sp,sp,-20
  801ff8:	df000415 	stw	fp,16(sp)
  801ffc:	df000404 	addi	fp,sp,16
  802000:	e13ffc15 	stw	r4,-16(fp)
  802004:	e17ffd15 	stw	r5,-12(fp)
	switch(fs->type){
  802008:	e0bffc17 	ldw	r2,-16(fp)
  80200c:	10800f03 	ldbu	r2,60(r2)
  802010:	10803fcc 	andi	r2,r2,255
  802014:	e0bfff15 	stw	r2,-4(fp)
  802018:	e0ffff17 	ldw	r3,-4(fp)
  80201c:	188000a0 	cmpeqi	r2,r3,2
  802020:	10000c1e 	bne	r2,zero,802054 <fat_isEocMarker+0x60>
  802024:	e0ffff17 	ldw	r3,-4(fp)
  802028:	188000e0 	cmpeqi	r2,r3,3
  80202c:	10000e1e 	bne	r2,zero,802068 <fat_isEocMarker+0x74>
  802030:	e0ffff17 	ldw	r3,-4(fp)
  802034:	18800060 	cmpeqi	r2,r3,1
  802038:	1000011e 	bne	r2,zero,802040 <fat_isEocMarker+0x4c>
  80203c:	00001306 	br	80208c <fat_isEocMarker+0x98>
		case FAT12:
			if(fat_entry<0xFF8){
  802040:	e0bffd17 	ldw	r2,-12(fp)
  802044:	1083fe28 	cmpgeui	r2,r2,4088
  802048:	1000101e 	bne	r2,zero,80208c <fat_isEocMarker+0x98>
				return(0);
  80204c:	e03ffe15 	stw	zero,-8(fp)
  802050:	00001006 	br	802094 <fat_isEocMarker+0xa0>
			}
			break;
		case FAT16:
			if(fat_entry<0xFFF8){
  802054:	e0fffd17 	ldw	r3,-12(fp)
  802058:	00bffdd4 	movui	r2,65527
  80205c:	10c00b36 	bltu	r2,r3,80208c <fat_isEocMarker+0x98>
				return(0);
  802060:	e03ffe15 	stw	zero,-8(fp)
  802064:	00000b06 	br	802094 <fat_isEocMarker+0xa0>
			}
			break;
		case FAT32:
			if((fat_entry&0x0FFFFFFF)<0xFFFFFF8){
  802068:	e0fffd17 	ldw	r3,-12(fp)
  80206c:	00840034 	movhi	r2,4096
  802070:	10bfffc4 	addi	r2,r2,-1
  802074:	1886703a 	and	r3,r3,r2
  802078:	00840034 	movhi	r2,4096
  80207c:	10bffdc4 	addi	r2,r2,-9
  802080:	10c00236 	bltu	r2,r3,80208c <fat_isEocMarker+0x98>
				return(0);
  802084:	e03ffe15 	stw	zero,-8(fp)
  802088:	00000206 	br	802094 <fat_isEocMarker+0xa0>
			}
			break;
	}
	return(1);
  80208c:	00800044 	movi	r2,1
  802090:	e0bffe15 	stw	r2,-8(fp)
  802094:	e0bffe17 	ldw	r2,-8(fp)
}
  802098:	e037883a 	mov	sp,fp
  80209c:	df000017 	ldw	fp,0(sp)
  8020a0:	dec00104 	addi	sp,sp,4
  8020a4:	f800283a 	ret

008020a8 <fat_giveEocMarker>:
 * Note, for FAT32, the upper 4 bits are set to zero, although they should be un
 * touched according to MicroSoft specifications. I didn't care.
 * Return value: The EoC marker cast to an ulong.
*/
euint32 fat_giveEocMarker(FileSystem *fs)
{
  8020a8:	defffc04 	addi	sp,sp,-16
  8020ac:	df000315 	stw	fp,12(sp)
  8020b0:	df000304 	addi	fp,sp,12
  8020b4:	e13ffd15 	stw	r4,-12(fp)
	switch(fs->type)
  8020b8:	e0bffd17 	ldw	r2,-12(fp)
  8020bc:	10800f03 	ldbu	r2,60(r2)
  8020c0:	10803fcc 	andi	r2,r2,255
  8020c4:	e0bfff15 	stw	r2,-4(fp)
  8020c8:	e0ffff17 	ldw	r3,-4(fp)
  8020cc:	188000a0 	cmpeqi	r2,r3,2
  8020d0:	10000a1e 	bne	r2,zero,8020fc <fat_giveEocMarker+0x54>
  8020d4:	e0ffff17 	ldw	r3,-4(fp)
  8020d8:	188000e0 	cmpeqi	r2,r3,3
  8020dc:	10000a1e 	bne	r2,zero,802108 <fat_giveEocMarker+0x60>
  8020e0:	e0ffff17 	ldw	r3,-4(fp)
  8020e4:	18800060 	cmpeqi	r2,r3,1
  8020e8:	1000011e 	bne	r2,zero,8020f0 <fat_giveEocMarker+0x48>
  8020ec:	00000a06 	br	802118 <fat_giveEocMarker+0x70>
	{
		case FAT12:
			return(0xFFF);
  8020f0:	0083ffc4 	movi	r2,4095
  8020f4:	e0bffe15 	stw	r2,-8(fp)
  8020f8:	00000806 	br	80211c <fat_giveEocMarker+0x74>
			break;
		case FAT16:
			return(0xFFFF);
  8020fc:	00ffffd4 	movui	r3,65535
  802100:	e0fffe15 	stw	r3,-8(fp)
  802104:	00000506 	br	80211c <fat_giveEocMarker+0x74>
			break;
		case FAT32:
			return(0x0FFFFFFF);
  802108:	00840034 	movhi	r2,4096
  80210c:	10bfffc4 	addi	r2,r2,-1
  802110:	e0bffe15 	stw	r2,-8(fp)
  802114:	00000106 	br	80211c <fat_giveEocMarker+0x74>
			break;
	}
	return(0);
  802118:	e03ffe15 	stw	zero,-8(fp)
  80211c:	e0bffe17 	ldw	r2,-8(fp)
}
  802120:	e037883a 	mov	sp,fp
  802124:	df000017 	ldw	fp,0(sp)
  802128:	dec00104 	addi	sp,sp,4
  80212c:	f800283a 	ret

00802130 <fat_getNextClusterAddressWBuf>:
 * it's own buffer, it is given as a parameter. (ioman makes this function rather obsolete)
 * Only in the case of a FAT12 crosssector data entry a sector is retrieved here.
 * Return value: The value of the clusterfield is returned.
*/
euint32 fat_getNextClusterAddressWBuf(FileSystem *fs,euint32 cluster_addr, euint8* buf)
{
  802130:	defff604 	addi	sp,sp,-40
  802134:	dfc00915 	stw	ra,36(sp)
  802138:	df000815 	stw	fp,32(sp)
  80213c:	dc000715 	stw	r16,28(sp)
  802140:	df000704 	addi	fp,sp,28
  802144:	e13ffc15 	stw	r4,-16(fp)
  802148:	e17ffd15 	stw	r5,-12(fp)
  80214c:	e1bffe15 	stw	r6,-8(fp)
	euint8  *buf2; /* For FAT12 fallover only */
	euint8 hb,lb;
	euint16 offset;
	euint32 nextcluster=0;
  802150:	e03ff915 	stw	zero,-28(fp)
	
	switch(fs->type)
  802154:	e0bffc17 	ldw	r2,-16(fp)
  802158:	10800f03 	ldbu	r2,60(r2)
  80215c:	10803fcc 	andi	r2,r2,255
  802160:	e0bfff15 	stw	r2,-4(fp)
  802164:	e0ffff17 	ldw	r3,-4(fp)
  802168:	188000a0 	cmpeqi	r2,r3,2
  80216c:	1000441e 	bne	r2,zero,802280 <fat_getNextClusterAddressWBuf+0x150>
  802170:	e0ffff17 	ldw	r3,-4(fp)
  802174:	188000e0 	cmpeqi	r2,r3,3
  802178:	10004d1e 	bne	r2,zero,8022b0 <fat_getNextClusterAddressWBuf+0x180>
  80217c:	e0ffff17 	ldw	r3,-4(fp)
  802180:	18800060 	cmpeqi	r2,r3,1
  802184:	1000011e 	bne	r2,zero,80218c <fat_getNextClusterAddressWBuf+0x5c>
  802188:	00005406 	br	8022dc <fat_getNextClusterAddressWBuf+0x1ac>
	{
		case FAT12:
			offset = ((cluster_addr%1024)*3/2)%512;
  80218c:	e0bffd17 	ldw	r2,-12(fp)
  802190:	10c0ffcc 	andi	r3,r2,1023
  802194:	1805883a 	mov	r2,r3
  802198:	1085883a 	add	r2,r2,r2
  80219c:	10c5883a 	add	r2,r2,r3
  8021a0:	1004d07a 	srli	r2,r2,1
  8021a4:	10807fcc 	andi	r2,r2,511
  8021a8:	e0bffa0d 	sth	r2,-24(fp)
			hb = buf[offset];
  8021ac:	e0bffa0b 	ldhu	r2,-24(fp)
  8021b0:	1007883a 	mov	r3,r2
  8021b4:	e0bffe17 	ldw	r2,-8(fp)
  8021b8:	1885883a 	add	r2,r3,r2
  8021bc:	10800003 	ldbu	r2,0(r2)
  8021c0:	e0bffac5 	stb	r2,-21(fp)
			if(offset == 511){
  8021c4:	e0bffa0b 	ldhu	r2,-24(fp)
  8021c8:	10807fd8 	cmpnei	r2,r2,511
  8021cc:	1000121e 	bne	r2,zero,802218 <fat_getNextClusterAddressWBuf+0xe8>
				buf2=part_getSect(fs->part,fat_getSectorAddressFatEntry(fs,cluster_addr)+1,IOM_MODE_READONLY);
  8021d0:	e0bffc17 	ldw	r2,-16(fp)
  8021d4:	14000017 	ldw	r16,0(r2)
  8021d8:	e13ffc17 	ldw	r4,-16(fp)
  8021dc:	e17ffd17 	ldw	r5,-12(fp)
  8021e0:	08019300 	call	801930 <fat_getSectorAddressFatEntry>
  8021e4:	11400044 	addi	r5,r2,1
  8021e8:	8009883a 	mov	r4,r16
  8021ec:	01800044 	movi	r6,1
  8021f0:	08082240 	call	808224 <part_getSect>
  8021f4:	e0bffb15 	stw	r2,-20(fp)
				lb = buf2[0];
  8021f8:	e0bffb17 	ldw	r2,-20(fp)
  8021fc:	10800003 	ldbu	r2,0(r2)
  802200:	e0bffa85 	stb	r2,-22(fp)
				part_relSect(fs->part,buf2);
  802204:	e0bffc17 	ldw	r2,-16(fp)
  802208:	11000017 	ldw	r4,0(r2)
  80220c:	e17ffb17 	ldw	r5,-20(fp)
  802210:	08082840 	call	808284 <part_relSect>
  802214:	00000706 	br	802234 <fat_getNextClusterAddressWBuf+0x104>
			}else{
				lb = buf[offset + 1];
  802218:	e0bffa0b 	ldhu	r2,-24(fp)
  80221c:	1007883a 	mov	r3,r2
  802220:	e0bffe17 	ldw	r2,-8(fp)
  802224:	1885883a 	add	r2,r3,r2
  802228:	10800044 	addi	r2,r2,1
  80222c:	10800003 	ldbu	r2,0(r2)
  802230:	e0bffa85 	stb	r2,-22(fp)
			}
			if(cluster_addr%2==0){
  802234:	e0bffd17 	ldw	r2,-12(fp)
  802238:	1080004c 	andi	r2,r2,1
  80223c:	1004c03a 	cmpne	r2,r2,zero
  802240:	1000071e 	bne	r2,zero,802260 <fat_getNextClusterAddressWBuf+0x130>
				nextcluster = ( ((lb&0x0F)<<8) + (hb) );
  802244:	e0bffa83 	ldbu	r2,-22(fp)
  802248:	108003cc 	andi	r2,r2,15
  80224c:	1006923a 	slli	r3,r2,8
  802250:	e0bffac3 	ldbu	r2,-21(fp)
  802254:	1885883a 	add	r2,r3,r2
  802258:	e0bff915 	stw	r2,-28(fp)
  80225c:	00001f06 	br	8022dc <fat_getNextClusterAddressWBuf+0x1ac>
			}else{
				nextcluster = ( (lb<<4) + (hb>>4) );
  802260:	e0bffa83 	ldbu	r2,-22(fp)
  802264:	1006913a 	slli	r3,r2,4
  802268:	e0bffac3 	ldbu	r2,-21(fp)
  80226c:	1004d13a 	srli	r2,r2,4
  802270:	10803fcc 	andi	r2,r2,255
  802274:	1885883a 	add	r2,r3,r2
  802278:	e0bff915 	stw	r2,-28(fp)
			}
			break;
  80227c:	00001706 	br	8022dc <fat_getNextClusterAddressWBuf+0x1ac>
		case FAT16:
			offset=cluster_addr%256;
  802280:	e0bffd17 	ldw	r2,-12(fp)
  802284:	10803fcc 	andi	r2,r2,255
  802288:	e0bffa0d 	sth	r2,-24(fp)
			nextcluster = *((euint16*)buf + offset);
  80228c:	e0bffa0b 	ldhu	r2,-24(fp)
  802290:	1085883a 	add	r2,r2,r2
  802294:	1007883a 	mov	r3,r2
  802298:	e0bffe17 	ldw	r2,-8(fp)
  80229c:	1885883a 	add	r2,r3,r2
  8022a0:	1080000b 	ldhu	r2,0(r2)
  8022a4:	10bfffcc 	andi	r2,r2,65535
  8022a8:	e0bff915 	stw	r2,-28(fp)
			break;
  8022ac:	00000b06 	br	8022dc <fat_getNextClusterAddressWBuf+0x1ac>
		case FAT32:
			offset=cluster_addr%128;
  8022b0:	e0bffd17 	ldw	r2,-12(fp)
  8022b4:	10801fcc 	andi	r2,r2,127
  8022b8:	e0bffa0d 	sth	r2,-24(fp)
			nextcluster = *((euint32*)buf + offset);
  8022bc:	e0bffa0b 	ldhu	r2,-24(fp)
  8022c0:	1085883a 	add	r2,r2,r2
  8022c4:	1085883a 	add	r2,r2,r2
  8022c8:	1007883a 	mov	r3,r2
  8022cc:	e0bffe17 	ldw	r2,-8(fp)
  8022d0:	1885883a 	add	r2,r3,r2
  8022d4:	10800017 	ldw	r2,0(r2)
  8022d8:	e0bff915 	stw	r2,-28(fp)
			break;
	}
	return(nextcluster);
  8022dc:	e0bff917 	ldw	r2,-28(fp)
}
  8022e0:	e037883a 	mov	sp,fp
  8022e4:	dfc00217 	ldw	ra,8(sp)
  8022e8:	df000117 	ldw	fp,4(sp)
  8022ec:	dc000017 	ldw	r16,0(sp)
  8022f0:	dec00304 	addi	sp,sp,12
  8022f4:	f800283a 	ret

008022f8 <fat_setNextClusterAddressWBuf>:
 * not write the data itself, except in the case of FAT 12 cross sector data, where
 * the second sector is handled by this function.
 * Return value:
*/
void fat_setNextClusterAddressWBuf(FileSystem *fs,euint32 cluster_addr,euint32 next_cluster_addr,euint8* buf)
{
  8022f8:	defff604 	addi	sp,sp,-40
  8022fc:	dfc00915 	stw	ra,36(sp)
  802300:	df000815 	stw	fp,32(sp)
  802304:	dc000715 	stw	r16,28(sp)
  802308:	df000704 	addi	fp,sp,28
  80230c:	e13ffb15 	stw	r4,-20(fp)
  802310:	e17ffc15 	stw	r5,-16(fp)
  802314:	e1bffd15 	stw	r6,-12(fp)
  802318:	e1fffe15 	stw	r7,-8(fp)
	euint16 offset;
	euint8 *buf2;
		
	switch(fs->type)
  80231c:	e0bffb17 	ldw	r2,-20(fp)
  802320:	10800f03 	ldbu	r2,60(r2)
  802324:	10803fcc 	andi	r2,r2,255
  802328:	e0bfff15 	stw	r2,-4(fp)
  80232c:	e0ffff17 	ldw	r3,-4(fp)
  802330:	188000a0 	cmpeqi	r2,r3,2
  802334:	10008d1e 	bne	r2,zero,80256c <fat_setNextClusterAddressWBuf+0x274>
  802338:	e0ffff17 	ldw	r3,-4(fp)
  80233c:	188000e0 	cmpeqi	r2,r3,3
  802340:	1000951e 	bne	r2,zero,802598 <fat_setNextClusterAddressWBuf+0x2a0>
  802344:	e0ffff17 	ldw	r3,-4(fp)
  802348:	18800060 	cmpeqi	r2,r3,1
  80234c:	1000011e 	bne	r2,zero,802354 <fat_setNextClusterAddressWBuf+0x5c>
  802350:	00009c06 	br	8025c4 <fat_setNextClusterAddressWBuf+0x2cc>
	{
		case FAT12:
			offset = ((cluster_addr%1024)*3/2)%512;
  802354:	e0bffc17 	ldw	r2,-16(fp)
  802358:	10c0ffcc 	andi	r3,r2,1023
  80235c:	1805883a 	mov	r2,r3
  802360:	1085883a 	add	r2,r2,r2
  802364:	10c5883a 	add	r2,r2,r3
  802368:	1004d07a 	srli	r2,r2,1
  80236c:	10807fcc 	andi	r2,r2,511
  802370:	e0bffa0d 	sth	r2,-24(fp)
			if(offset == 511){
  802374:	e0bffa0b 	ldhu	r2,-24(fp)
  802378:	10807fd8 	cmpnei	r2,r2,511
  80237c:	1000421e 	bne	r2,zero,802488 <fat_setNextClusterAddressWBuf+0x190>
				if(cluster_addr%2==0){
  802380:	e0bffc17 	ldw	r2,-16(fp)
  802384:	1080004c 	andi	r2,r2,1
  802388:	1004c03a 	cmpne	r2,r2,zero
  80238c:	1000071e 	bne	r2,zero,8023ac <fat_setNextClusterAddressWBuf+0xb4>
					buf[offset]=next_cluster_addr&0xFF;
  802390:	e0bffa0b 	ldhu	r2,-24(fp)
  802394:	1007883a 	mov	r3,r2
  802398:	e0bffe17 	ldw	r2,-8(fp)
  80239c:	1887883a 	add	r3,r3,r2
  8023a0:	e0bffd17 	ldw	r2,-12(fp)
  8023a4:	18800005 	stb	r2,0(r3)
  8023a8:	00001206 	br	8023f4 <fat_setNextClusterAddressWBuf+0xfc>
				}else{
					buf[offset]=(buf[offset]&0xF)+((next_cluster_addr<<4)&0xF0);
  8023ac:	e0bffa0b 	ldhu	r2,-24(fp)
  8023b0:	1007883a 	mov	r3,r2
  8023b4:	e0bffe17 	ldw	r2,-8(fp)
  8023b8:	188b883a 	add	r5,r3,r2
  8023bc:	e0bffa0b 	ldhu	r2,-24(fp)
  8023c0:	1007883a 	mov	r3,r2
  8023c4:	e0bffe17 	ldw	r2,-8(fp)
  8023c8:	1885883a 	add	r2,r3,r2
  8023cc:	10800003 	ldbu	r2,0(r2)
  8023d0:	108003cc 	andi	r2,r2,15
  8023d4:	1009883a 	mov	r4,r2
  8023d8:	e0bffd17 	ldw	r2,-12(fp)
  8023dc:	1004913a 	slli	r2,r2,4
  8023e0:	1007883a 	mov	r3,r2
  8023e4:	00bffc04 	movi	r2,-16
  8023e8:	1884703a 	and	r2,r3,r2
  8023ec:	2085883a 	add	r2,r4,r2
  8023f0:	28800005 	stb	r2,0(r5)
				}
				buf2=part_getSect(fs->part,fat_getSectorAddressFatEntry(fs,cluster_addr)+1,IOM_MODE_READWRITE);
  8023f4:	e0bffb17 	ldw	r2,-20(fp)
  8023f8:	14000017 	ldw	r16,0(r2)
  8023fc:	e13ffb17 	ldw	r4,-20(fp)
  802400:	e17ffc17 	ldw	r5,-16(fp)
  802404:	08019300 	call	801930 <fat_getSectorAddressFatEntry>
  802408:	11400044 	addi	r5,r2,1
  80240c:	8009883a 	mov	r4,r16
  802410:	01800084 	movi	r6,2
  802414:	08082240 	call	808224 <part_getSect>
  802418:	e0bff915 	stw	r2,-28(fp)
				if(cluster_addr%2==0){
  80241c:	e0bffc17 	ldw	r2,-16(fp)
  802420:	1080004c 	andi	r2,r2,1
  802424:	1004c03a 	cmpne	r2,r2,zero
  802428:	10000d1e 	bne	r2,zero,802460 <fat_setNextClusterAddressWBuf+0x168>
					buf2[0]=(buf2[0]&0xF0)+((next_cluster_addr>>8)&0xF);
  80242c:	e0bff917 	ldw	r2,-28(fp)
  802430:	10c00003 	ldbu	r3,0(r2)
  802434:	00bffc04 	movi	r2,-16
  802438:	1884703a 	and	r2,r3,r2
  80243c:	1007883a 	mov	r3,r2
  802440:	e0bffd17 	ldw	r2,-12(fp)
  802444:	1004d23a 	srli	r2,r2,8
  802448:	108003cc 	andi	r2,r2,15
  80244c:	1885883a 	add	r2,r3,r2
  802450:	1007883a 	mov	r3,r2
  802454:	e0bff917 	ldw	r2,-28(fp)
  802458:	10c00005 	stb	r3,0(r2)
  80245c:	00000506 	br	802474 <fat_setNextClusterAddressWBuf+0x17c>
				}else{
					buf2[0]=(next_cluster_addr>>4)&0xFF;
  802460:	e0bffd17 	ldw	r2,-12(fp)
  802464:	1004d13a 	srli	r2,r2,4
  802468:	1007883a 	mov	r3,r2
  80246c:	e0bff917 	ldw	r2,-28(fp)
  802470:	10c00005 	stb	r3,0(r2)
				}
				part_relSect(fs->part,buf2);
  802474:	e0bffb17 	ldw	r2,-20(fp)
  802478:	11000017 	ldw	r4,0(r2)
  80247c:	e17ff917 	ldw	r5,-28(fp)
  802480:	08082840 	call	808284 <part_relSect>
  802484:	00004f06 	br	8025c4 <fat_setNextClusterAddressWBuf+0x2cc>
			}else{
				if(cluster_addr%2==0){
  802488:	e0bffc17 	ldw	r2,-16(fp)
  80248c:	1080004c 	andi	r2,r2,1
  802490:	1004c03a 	cmpne	r2,r2,zero
  802494:	10001a1e 	bne	r2,zero,802500 <fat_setNextClusterAddressWBuf+0x208>
					buf[offset]=next_cluster_addr&0xFF;
  802498:	e0bffa0b 	ldhu	r2,-24(fp)
  80249c:	1007883a 	mov	r3,r2
  8024a0:	e0bffe17 	ldw	r2,-8(fp)
  8024a4:	1887883a 	add	r3,r3,r2
  8024a8:	e0bffd17 	ldw	r2,-12(fp)
  8024ac:	18800005 	stb	r2,0(r3)
					buf[offset+1]=(buf[offset+1]&0xF0)+((next_cluster_addr>>8)&0xF);
  8024b0:	e0bffa0b 	ldhu	r2,-24(fp)
  8024b4:	1007883a 	mov	r3,r2
  8024b8:	e0bffe17 	ldw	r2,-8(fp)
  8024bc:	1885883a 	add	r2,r3,r2
  8024c0:	11000044 	addi	r4,r2,1
  8024c4:	e0bffa0b 	ldhu	r2,-24(fp)
  8024c8:	1007883a 	mov	r3,r2
  8024cc:	e0bffe17 	ldw	r2,-8(fp)
  8024d0:	1885883a 	add	r2,r3,r2
  8024d4:	10800044 	addi	r2,r2,1
  8024d8:	10c00003 	ldbu	r3,0(r2)
  8024dc:	00bffc04 	movi	r2,-16
  8024e0:	1884703a 	and	r2,r3,r2
  8024e4:	1007883a 	mov	r3,r2
  8024e8:	e0bffd17 	ldw	r2,-12(fp)
  8024ec:	1004d23a 	srli	r2,r2,8
  8024f0:	108003cc 	andi	r2,r2,15
  8024f4:	1885883a 	add	r2,r3,r2
  8024f8:	20800005 	stb	r2,0(r4)
  8024fc:	00003106 	br	8025c4 <fat_setNextClusterAddressWBuf+0x2cc>
				}else{
					buf[offset]=(buf[offset]&0xF)+((next_cluster_addr<<4)&0xF0);
  802500:	e0bffa0b 	ldhu	r2,-24(fp)
  802504:	1007883a 	mov	r3,r2
  802508:	e0bffe17 	ldw	r2,-8(fp)
  80250c:	188b883a 	add	r5,r3,r2
  802510:	e0bffa0b 	ldhu	r2,-24(fp)
  802514:	1007883a 	mov	r3,r2
  802518:	e0bffe17 	ldw	r2,-8(fp)
  80251c:	1885883a 	add	r2,r3,r2
  802520:	10800003 	ldbu	r2,0(r2)
  802524:	108003cc 	andi	r2,r2,15
  802528:	1009883a 	mov	r4,r2
  80252c:	e0bffd17 	ldw	r2,-12(fp)
  802530:	1004913a 	slli	r2,r2,4
  802534:	1007883a 	mov	r3,r2
  802538:	00bffc04 	movi	r2,-16
  80253c:	1884703a 	and	r2,r3,r2
  802540:	2085883a 	add	r2,r4,r2
  802544:	28800005 	stb	r2,0(r5)
					buf[offset+1]=(next_cluster_addr>>4)&0xFF;
  802548:	e0bffa0b 	ldhu	r2,-24(fp)
  80254c:	1007883a 	mov	r3,r2
  802550:	e0bffe17 	ldw	r2,-8(fp)
  802554:	1885883a 	add	r2,r3,r2
  802558:	10c00044 	addi	r3,r2,1
  80255c:	e0bffd17 	ldw	r2,-12(fp)
  802560:	1004d13a 	srli	r2,r2,4
  802564:	18800005 	stb	r2,0(r3)
				}
			}
			break;
  802568:	00001606 	br	8025c4 <fat_setNextClusterAddressWBuf+0x2cc>
		case FAT16:
			offset=cluster_addr%256;
  80256c:	e0bffc17 	ldw	r2,-16(fp)
  802570:	10803fcc 	andi	r2,r2,255
  802574:	e0bffa0d 	sth	r2,-24(fp)
			*((euint16*)buf+offset)=next_cluster_addr;
  802578:	e0bffa0b 	ldhu	r2,-24(fp)
  80257c:	1085883a 	add	r2,r2,r2
  802580:	1007883a 	mov	r3,r2
  802584:	e0bffe17 	ldw	r2,-8(fp)
  802588:	1887883a 	add	r3,r3,r2
  80258c:	e0bffd17 	ldw	r2,-12(fp)
  802590:	1880000d 	sth	r2,0(r3)
			break;
  802594:	00000b06 	br	8025c4 <fat_setNextClusterAddressWBuf+0x2cc>
		case FAT32:
			offset=cluster_addr%128;
  802598:	e0bffc17 	ldw	r2,-16(fp)
  80259c:	10801fcc 	andi	r2,r2,127
  8025a0:	e0bffa0d 	sth	r2,-24(fp)
			*((euint32*)buf+offset)=next_cluster_addr;
  8025a4:	e0bffa0b 	ldhu	r2,-24(fp)
  8025a8:	1085883a 	add	r2,r2,r2
  8025ac:	1085883a 	add	r2,r2,r2
  8025b0:	1007883a 	mov	r3,r2
  8025b4:	e0bffe17 	ldw	r2,-8(fp)
  8025b8:	1887883a 	add	r3,r3,r2
  8025bc:	e0bffd17 	ldw	r2,-12(fp)
  8025c0:	18800015 	stw	r2,0(r3)
			break;
	}
}
  8025c4:	e037883a 	mov	sp,fp
  8025c8:	dfc00217 	ldw	ra,8(sp)
  8025cc:	df000117 	ldw	fp,4(sp)
  8025d0:	dc000017 	ldw	r16,0(sp)
  8025d4:	dec00304 	addi	sp,sp,12
  8025d8:	f800283a 	ret

008025dc <fat_getNextClusterChain>:
 * With lineair is meant that logical cluster n+1 should be 1 more than logical cluster n
 * at the disc level.
 * Return value: 0 on success, or -1 when EoC.
*/
esint16 fat_getNextClusterChain(FileSystem *fs, ClusterChain *Cache)
{
  8025dc:	defff404 	addi	sp,sp,-48
  8025e0:	dfc00b15 	stw	ra,44(sp)
  8025e4:	df000a15 	stw	fp,40(sp)
  8025e8:	df000a04 	addi	fp,sp,40
  8025ec:	e13ffc15 	stw	r4,-16(fp)
  8025f0:	e17ffd15 	stw	r5,-12(fp)
	euint32 sect,lr,nlr,dc;
	esint16 lin=0;
  8025f4:	e03ff70d 	sth	zero,-36(fp)
	euint8 *buf;

	if(Cache->DiscCluster==0)
  8025f8:	e0bffd17 	ldw	r2,-12(fp)
  8025fc:	10800217 	ldw	r2,8(r2)
  802600:	1004c03a 	cmpne	r2,r2,zero
  802604:	1000031e 	bne	r2,zero,802614 <fat_getNextClusterChain+0x38>
	{
		return(-1);
  802608:	00bfffc4 	movi	r2,-1
  80260c:	e0bfff15 	stw	r2,-4(fp)
  802610:	00005806 	br	802774 <fat_getNextClusterChain+0x198>
	}

	sect=fat_getSectorAddressFatEntry(fs,Cache->DiscCluster);
  802614:	e0bffd17 	ldw	r2,-12(fp)
  802618:	11400217 	ldw	r5,8(r2)
  80261c:	e13ffc17 	ldw	r4,-16(fp)
  802620:	08019300 	call	801930 <fat_getSectorAddressFatEntry>
  802624:	e0bffb15 	stw	r2,-20(fp)
	buf=part_getSect(fs->part,sect,IOM_MODE_READONLY);
  802628:	e0bffc17 	ldw	r2,-16(fp)
  80262c:	11000017 	ldw	r4,0(r2)
  802630:	e17ffb17 	ldw	r5,-20(fp)
  802634:	01800044 	movi	r6,1
  802638:	08082240 	call	808224 <part_getSect>
  80263c:	e0bff615 	stw	r2,-40(fp)
	dc=fat_getNextClusterAddressWBuf(fs,Cache->DiscCluster,buf);
  802640:	e0bffd17 	ldw	r2,-12(fp)
  802644:	11400217 	ldw	r5,8(r2)
  802648:	e13ffc17 	ldw	r4,-16(fp)
  80264c:	e1bff617 	ldw	r6,-40(fp)
  802650:	08021300 	call	802130 <fat_getNextClusterAddressWBuf>
  802654:	e0bff815 	stw	r2,-32(fp)
	if(fat_isEocMarker(fs,dc))
  802658:	e13ffc17 	ldw	r4,-16(fp)
  80265c:	e17ff817 	ldw	r5,-32(fp)
  802660:	0801ff40 	call	801ff4 <fat_isEocMarker>
  802664:	10bfffcc 	andi	r2,r2,65535
  802668:	10a0001c 	xori	r2,r2,32768
  80266c:	10a00004 	addi	r2,r2,-32768
  802670:	1005003a 	cmpeq	r2,r2,zero
  802674:	10000b1e 	bne	r2,zero,8026a4 <fat_getNextClusterChain+0xc8>
	{
		Cache->LastCluster=Cache->DiscCluster;
  802678:	e0bffd17 	ldw	r2,-12(fp)
  80267c:	10c00217 	ldw	r3,8(r2)
  802680:	e0bffd17 	ldw	r2,-12(fp)
  802684:	10c00415 	stw	r3,16(r2)
		part_relSect(fs->part,buf);
  802688:	e0bffc17 	ldw	r2,-16(fp)
  80268c:	11000017 	ldw	r4,0(r2)
  802690:	e17ff617 	ldw	r5,-40(fp)
  802694:	08082840 	call	808284 <part_relSect>
		return(-1);
  802698:	00ffffc4 	movi	r3,-1
  80269c:	e0ffff15 	stw	r3,-4(fp)
  8026a0:	00003406 	br	802774 <fat_getNextClusterChain+0x198>
	}
	
	Cache->DiscCluster=dc;
  8026a4:	e0fffd17 	ldw	r3,-12(fp)
  8026a8:	e0bff817 	ldw	r2,-32(fp)
  8026ac:	18800215 	stw	r2,8(r3)
	Cache->LogicCluster++;
  8026b0:	e0bffd17 	ldw	r2,-12(fp)
  8026b4:	10800117 	ldw	r2,4(r2)
  8026b8:	10c00044 	addi	r3,r2,1
  8026bc:	e0bffd17 	ldw	r2,-12(fp)
  8026c0:	10c00115 	stw	r3,4(r2)
		
	lr=Cache->DiscCluster-1;
  8026c4:	e0bffd17 	ldw	r2,-12(fp)
  8026c8:	10800217 	ldw	r2,8(r2)
  8026cc:	10bfffc4 	addi	r2,r2,-1
  8026d0:	e0bffa15 	stw	r2,-24(fp)
	nlr=lr+1;
  8026d4:	e0bffa17 	ldw	r2,-24(fp)
  8026d8:	10800044 	addi	r2,r2,1
  8026dc:	e0bff915 	stw	r2,-28(fp)
	
	while(nlr-1==lr && fat_getSectorAddressFatEntry(fs,nlr)==sect)
  8026e0:	00000a06 	br	80270c <fat_getNextClusterChain+0x130>
	{
		lr=nlr;
  8026e4:	e0bff917 	ldw	r2,-28(fp)
  8026e8:	e0bffa15 	stw	r2,-24(fp)
		nlr=fat_getNextClusterAddressWBuf(fs,lr,buf);
  8026ec:	e13ffc17 	ldw	r4,-16(fp)
  8026f0:	e17ffa17 	ldw	r5,-24(fp)
  8026f4:	e1bff617 	ldw	r6,-40(fp)
  8026f8:	08021300 	call	802130 <fat_getNextClusterAddressWBuf>
  8026fc:	e0bff915 	stw	r2,-28(fp)
		lin++;	
  802700:	e0bff70b 	ldhu	r2,-36(fp)
  802704:	10800044 	addi	r2,r2,1
  802708:	e0bff70d 	sth	r2,-36(fp)
	Cache->LogicCluster++;
		
	lr=Cache->DiscCluster-1;
	nlr=lr+1;
	
	while(nlr-1==lr && fat_getSectorAddressFatEntry(fs,nlr)==sect)
  80270c:	e0bff917 	ldw	r2,-28(fp)
  802710:	10ffffc4 	addi	r3,r2,-1
  802714:	e0bffa17 	ldw	r2,-24(fp)
  802718:	1880061e 	bne	r3,r2,802734 <fat_getNextClusterChain+0x158>
  80271c:	e13ffc17 	ldw	r4,-16(fp)
  802720:	e17ff917 	ldw	r5,-28(fp)
  802724:	08019300 	call	801930 <fat_getSectorAddressFatEntry>
  802728:	1007883a 	mov	r3,r2
  80272c:	e0bffb17 	ldw	r2,-20(fp)
  802730:	18bfec26 	beq	r3,r2,8026e4 <fat_getNextClusterChain+0x108>
		lr=nlr;
		nlr=fat_getNextClusterAddressWBuf(fs,lr,buf);
		lin++;	
	}
	
	Cache->Linear=lin-1<0?0:lin-1;
  802734:	e0bff70f 	ldh	r2,-36(fp)
  802738:	10800050 	cmplti	r2,r2,1
  80273c:	1000041e 	bne	r2,zero,802750 <fat_getNextClusterChain+0x174>
  802740:	e0bff70b 	ldhu	r2,-36(fp)
  802744:	10bfffc4 	addi	r2,r2,-1
  802748:	e0bffe05 	stb	r2,-8(fp)
  80274c:	00000106 	br	802754 <fat_getNextClusterChain+0x178>
  802750:	e03ffe05 	stb	zero,-8(fp)
  802754:	e0bffd17 	ldw	r2,-12(fp)
  802758:	e0fffe03 	ldbu	r3,-8(fp)
  80275c:	10c00005 	stb	r3,0(r2)
	
	part_relSect(fs->part,buf);
  802760:	e0bffc17 	ldw	r2,-16(fp)
  802764:	11000017 	ldw	r4,0(r2)
  802768:	e17ff617 	ldw	r5,-40(fp)
  80276c:	08082840 	call	808284 <part_relSect>
	return(0);
  802770:	e03fff15 	stw	zero,-4(fp)
  802774:	e0bfff17 	ldw	r2,-4(fp)
}
  802778:	e037883a 	mov	sp,fp
  80277c:	dfc00117 	ldw	ra,4(sp)
  802780:	df000017 	ldw	fp,0(sp)
  802784:	dec00204 	addi	sp,sp,8
  802788:	f800283a 	ret

0080278c <fat_LogicToDiscCluster>:
 * It is NOT recommended to go backwards in clusterchains, since this will require
 * scanning the entire chain every time.
 * Return value: 0 on success and -1 on failure (meaning out of bounds).
*/
esint16 fat_LogicToDiscCluster(FileSystem *fs, ClusterChain *Cache,euint32 logiccluster)
{
  80278c:	defffa04 	addi	sp,sp,-24
  802790:	dfc00515 	stw	ra,20(sp)
  802794:	df000415 	stw	fp,16(sp)
  802798:	df000404 	addi	fp,sp,16
  80279c:	e13ffc15 	stw	r4,-16(fp)
  8027a0:	e17ffd15 	stw	r5,-12(fp)
  8027a4:	e1bffe15 	stw	r6,-8(fp)
	if(logiccluster<Cache->LogicCluster || Cache->DiscCluster==0){
  8027a8:	e0bffd17 	ldw	r2,-12(fp)
  8027ac:	10800117 	ldw	r2,4(r2)
  8027b0:	1007883a 	mov	r3,r2
  8027b4:	e0bffe17 	ldw	r2,-8(fp)
  8027b8:	10c00436 	bltu	r2,r3,8027cc <fat_LogicToDiscCluster+0x40>
  8027bc:	e0bffd17 	ldw	r2,-12(fp)
  8027c0:	10800217 	ldw	r2,8(r2)
  8027c4:	1004c03a 	cmpne	r2,r2,zero
  8027c8:	1000081e 	bne	r2,zero,8027ec <fat_LogicToDiscCluster+0x60>
		Cache->LogicCluster=0;
  8027cc:	e0bffd17 	ldw	r2,-12(fp)
  8027d0:	10000115 	stw	zero,4(r2)
		Cache->DiscCluster=Cache->FirstCluster;
  8027d4:	e0bffd17 	ldw	r2,-12(fp)
  8027d8:	10c00317 	ldw	r3,12(r2)
  8027dc:	e0bffd17 	ldw	r2,-12(fp)
  8027e0:	10c00215 	stw	r3,8(r2)
		Cache->Linear=0;
  8027e4:	e0bffd17 	ldw	r2,-12(fp)
  8027e8:	10000005 	stb	zero,0(r2)
	}
	
	if(Cache->LogicCluster==logiccluster){
  8027ec:	e0bffd17 	ldw	r2,-12(fp)
  8027f0:	10800117 	ldw	r2,4(r2)
  8027f4:	1007883a 	mov	r3,r2
  8027f8:	e0bffe17 	ldw	r2,-8(fp)
  8027fc:	1880231e 	bne	r3,r2,80288c <fat_LogicToDiscCluster+0x100>
		return(0);
  802800:	e03fff15 	stw	zero,-4(fp)
  802804:	00002706 	br	8028a4 <fat_LogicToDiscCluster+0x118>
	}
	
	while(Cache->LogicCluster!=logiccluster)
	{
		if(Cache->Linear!=0)
  802808:	e0bffd17 	ldw	r2,-12(fp)
  80280c:	10800003 	ldbu	r2,0(r2)
  802810:	10803fcc 	andi	r2,r2,255
  802814:	1005003a 	cmpeq	r2,r2,zero
  802818:	1000111e 	bne	r2,zero,802860 <fat_LogicToDiscCluster+0xd4>
		{
			Cache->Linear--;
  80281c:	e0bffd17 	ldw	r2,-12(fp)
  802820:	10800003 	ldbu	r2,0(r2)
  802824:	10bfffc4 	addi	r2,r2,-1
  802828:	1007883a 	mov	r3,r2
  80282c:	e0bffd17 	ldw	r2,-12(fp)
  802830:	10c00005 	stb	r3,0(r2)
			Cache->LogicCluster++;
  802834:	e0bffd17 	ldw	r2,-12(fp)
  802838:	10800117 	ldw	r2,4(r2)
  80283c:	10c00044 	addi	r3,r2,1
  802840:	e0bffd17 	ldw	r2,-12(fp)
  802844:	10c00115 	stw	r3,4(r2)
			Cache->DiscCluster++;
  802848:	e0bffd17 	ldw	r2,-12(fp)
  80284c:	10800217 	ldw	r2,8(r2)
  802850:	10c00044 	addi	r3,r2,1
  802854:	e0bffd17 	ldw	r2,-12(fp)
  802858:	10c00215 	stw	r3,8(r2)
  80285c:	00000b06 	br	80288c <fat_LogicToDiscCluster+0x100>
		}
		else
		{
			if((fat_getNextClusterChain(fs,Cache))!=0){
  802860:	e13ffc17 	ldw	r4,-16(fp)
  802864:	e17ffd17 	ldw	r5,-12(fp)
  802868:	08025dc0 	call	8025dc <fat_getNextClusterChain>
  80286c:	10bfffcc 	andi	r2,r2,65535
  802870:	10a0001c 	xori	r2,r2,32768
  802874:	10a00004 	addi	r2,r2,-32768
  802878:	1005003a 	cmpeq	r2,r2,zero
  80287c:	1000031e 	bne	r2,zero,80288c <fat_LogicToDiscCluster+0x100>
				return(-1);
  802880:	00bfffc4 	movi	r2,-1
  802884:	e0bfff15 	stw	r2,-4(fp)
  802888:	00000606 	br	8028a4 <fat_LogicToDiscCluster+0x118>
	
	if(Cache->LogicCluster==logiccluster){
		return(0);
	}
	
	while(Cache->LogicCluster!=logiccluster)
  80288c:	e0bffd17 	ldw	r2,-12(fp)
  802890:	10800117 	ldw	r2,4(r2)
  802894:	1007883a 	mov	r3,r2
  802898:	e0bffe17 	ldw	r2,-8(fp)
  80289c:	18bfda1e 	bne	r3,r2,802808 <fat_LogicToDiscCluster+0x7c>
			if((fat_getNextClusterChain(fs,Cache))!=0){
				return(-1);
			}
		}
	}
	return(0);
  8028a0:	e03fff15 	stw	zero,-4(fp)
  8028a4:	e0bfff17 	ldw	r2,-4(fp)
}
  8028a8:	e037883a 	mov	sp,fp
  8028ac:	dfc00117 	ldw	ra,4(sp)
  8028b0:	df000017 	ldw	fp,0(sp)
  8028b4:	dec00204 	addi	sp,sp,8
  8028b8:	f800283a 	ret

008028bc <fat_allocClusterChain>:
 * number of clusters it *failed* to allocate. 
 * Return value: 0 on success, all other values are the number of clusters it could
 * not allocate.
*/
eint16 fat_allocClusterChain(FileSystem *fs,ClusterChain *Cache,euint32 num_clusters)
{
  8028bc:	defff304 	addi	sp,sp,-52
  8028c0:	dfc00c15 	stw	ra,48(sp)
  8028c4:	df000b15 	stw	fp,44(sp)
  8028c8:	dc000a15 	stw	r16,40(sp)
  8028cc:	df000a04 	addi	fp,sp,40
  8028d0:	e13ffc15 	stw	r4,-16(fp)
  8028d4:	e17ffd15 	stw	r5,-12(fp)
  8028d8:	e1bffe15 	stw	r6,-8(fp)
	euint32 cc,ncl=num_clusters,lc;
  8028dc:	e0bffe17 	ldw	r2,-8(fp)
  8028e0:	e0bffa15 	stw	r2,-24(fp)
	euint8 *bufa=0,*bufb=0;
  8028e4:	e03ff815 	stw	zero,-32(fp)
  8028e8:	e03ff715 	stw	zero,-36(fp)
	euint8  overflow=0;
  8028ec:	e03ff605 	stb	zero,-40(fp)

	if(Cache->FirstCluster<=1)return(num_clusters);
  8028f0:	e0bffd17 	ldw	r2,-12(fp)
  8028f4:	10800317 	ldw	r2,12(r2)
  8028f8:	108000a8 	cmpgeui	r2,r2,2
  8028fc:	1000061e 	bne	r2,zero,802918 <fat_allocClusterChain+0x5c>
  802900:	e0bffe17 	ldw	r2,-8(fp)
  802904:	10bfffcc 	andi	r2,r2,65535
  802908:	10a0001c 	xori	r2,r2,32768
  80290c:	10a00004 	addi	r2,r2,-32768
  802910:	e0bfff15 	stw	r2,-4(fp)
  802914:	00009506 	br	802b6c <fat_allocClusterChain+0x2b0>
	
	lc=fs_getLastCluster(fs,Cache);
  802918:	e13ffc17 	ldw	r4,-16(fp)
  80291c:	e17ffd17 	ldw	r5,-12(fp)
  802920:	0804d940 	call	804d94 <fs_getLastCluster>
  802924:	e0bff915 	stw	r2,-28(fp)
	cc=lc;
  802928:	e0bff917 	ldw	r2,-28(fp)
  80292c:	e0bffb15 	stw	r2,-20(fp)
	
	while(ncl > 0){
  802930:	00008006 	br	802b34 <fat_allocClusterChain+0x278>
		cc++;
  802934:	e0bffb17 	ldw	r2,-20(fp)
  802938:	10800044 	addi	r2,r2,1
  80293c:	e0bffb15 	stw	r2,-20(fp)
		if(cc>=fs->DataClusterCount+1){
  802940:	e0bffc17 	ldw	r2,-16(fp)
  802944:	10800817 	ldw	r2,32(r2)
  802948:	10c00044 	addi	r3,r2,1
  80294c:	e0bffb17 	ldw	r2,-20(fp)
  802950:	10c03136 	bltu	r2,r3,802a18 <fat_allocClusterChain+0x15c>
			if(overflow){
  802954:	e0bff603 	ldbu	r2,-40(fp)
  802958:	1005003a 	cmpeq	r2,r2,zero
  80295c:	1000291e 	bne	r2,zero,802a04 <fat_allocClusterChain+0x148>
				bufa=part_getSect(fs->part,fat_getSectorAddressFatEntry(fs,lc),IOM_MODE_READWRITE);
  802960:	e0bffc17 	ldw	r2,-16(fp)
  802964:	14000017 	ldw	r16,0(r2)
  802968:	e13ffc17 	ldw	r4,-16(fp)
  80296c:	e17ff917 	ldw	r5,-28(fp)
  802970:	08019300 	call	801930 <fat_getSectorAddressFatEntry>
  802974:	100b883a 	mov	r5,r2
  802978:	8009883a 	mov	r4,r16
  80297c:	01800084 	movi	r6,2
  802980:	08082240 	call	808224 <part_getSect>
  802984:	e0bff815 	stw	r2,-32(fp)
				fat_setNextClusterAddressWBuf(fs,lc,fat_giveEocMarker(fs),bufa);
  802988:	e13ffc17 	ldw	r4,-16(fp)
  80298c:	08020a80 	call	8020a8 <fat_giveEocMarker>
  802990:	100d883a 	mov	r6,r2
  802994:	e13ffc17 	ldw	r4,-16(fp)
  802998:	e17ff917 	ldw	r5,-28(fp)
  80299c:	e1fff817 	ldw	r7,-32(fp)
  8029a0:	08022f80 	call	8022f8 <fat_setNextClusterAddressWBuf>
				Cache->LastCluster=lc;
  8029a4:	e0fffd17 	ldw	r3,-12(fp)
  8029a8:	e0bff917 	ldw	r2,-28(fp)
  8029ac:	18800415 	stw	r2,16(r3)
				part_relSect(fs->part,bufa);
  8029b0:	e0bffc17 	ldw	r2,-16(fp)
  8029b4:	11000017 	ldw	r4,0(r2)
  8029b8:	e17ff817 	ldw	r5,-32(fp)
  8029bc:	08082840 	call	808284 <part_relSect>
				fs->FreeClusterCount-=num_clusters-ncl;
  8029c0:	e0bffc17 	ldw	r2,-16(fp)
  8029c4:	11000d17 	ldw	r4,52(r2)
  8029c8:	e0fffe17 	ldw	r3,-8(fp)
  8029cc:	e0bffa17 	ldw	r2,-24(fp)
  8029d0:	1885c83a 	sub	r2,r3,r2
  8029d4:	2087c83a 	sub	r3,r4,r2
  8029d8:	e0bffc17 	ldw	r2,-16(fp)
  8029dc:	10c00d15 	stw	r3,52(r2)
				return(num_clusters-ncl);
  8029e0:	e0bffe17 	ldw	r2,-8(fp)
  8029e4:	1007883a 	mov	r3,r2
  8029e8:	e0bffa17 	ldw	r2,-24(fp)
  8029ec:	1885c83a 	sub	r2,r3,r2
  8029f0:	10bfffcc 	andi	r2,r2,65535
  8029f4:	10a0001c 	xori	r2,r2,32768
  8029f8:	10a00004 	addi	r2,r2,-32768
  8029fc:	e0bfff15 	stw	r2,-4(fp)
  802a00:	00005a06 	br	802b6c <fat_allocClusterChain+0x2b0>
			}
			cc=2;
  802a04:	00800084 	movi	r2,2
  802a08:	e0bffb15 	stw	r2,-20(fp)
			overflow++;
  802a0c:	e0bff603 	ldbu	r2,-40(fp)
  802a10:	10800044 	addi	r2,r2,1
  802a14:	e0bff605 	stb	r2,-40(fp)
		}
		bufa=part_getSect(fs->part,fat_getSectorAddressFatEntry(fs,cc),IOM_MODE_READONLY);
  802a18:	e0bffc17 	ldw	r2,-16(fp)
  802a1c:	14000017 	ldw	r16,0(r2)
  802a20:	e13ffc17 	ldw	r4,-16(fp)
  802a24:	e17ffb17 	ldw	r5,-20(fp)
  802a28:	08019300 	call	801930 <fat_getSectorAddressFatEntry>
  802a2c:	100b883a 	mov	r5,r2
  802a30:	8009883a 	mov	r4,r16
  802a34:	01800044 	movi	r6,1
  802a38:	08082240 	call	808224 <part_getSect>
  802a3c:	e0bff815 	stw	r2,-32(fp)
		if(fat_getNextClusterAddressWBuf(fs,cc,bufa)==0){
  802a40:	e13ffc17 	ldw	r4,-16(fp)
  802a44:	e17ffb17 	ldw	r5,-20(fp)
  802a48:	e1bff817 	ldw	r6,-32(fp)
  802a4c:	08021300 	call	802130 <fat_getNextClusterAddressWBuf>
  802a50:	1004c03a 	cmpne	r2,r2,zero
  802a54:	1000181e 	bne	r2,zero,802ab8 <fat_allocClusterChain+0x1fc>
			bufb=part_getSect(fs->part,fat_getSectorAddressFatEntry(fs,lc),IOM_MODE_READWRITE);
  802a58:	e0bffc17 	ldw	r2,-16(fp)
  802a5c:	14000017 	ldw	r16,0(r2)
  802a60:	e13ffc17 	ldw	r4,-16(fp)
  802a64:	e17ff917 	ldw	r5,-28(fp)
  802a68:	08019300 	call	801930 <fat_getSectorAddressFatEntry>
  802a6c:	100b883a 	mov	r5,r2
  802a70:	8009883a 	mov	r4,r16
  802a74:	01800084 	movi	r6,2
  802a78:	08082240 	call	808224 <part_getSect>
  802a7c:	e0bff715 	stw	r2,-36(fp)
			fat_setNextClusterAddressWBuf(fs,lc,cc,bufb);
  802a80:	e13ffc17 	ldw	r4,-16(fp)
  802a84:	e17ff917 	ldw	r5,-28(fp)
  802a88:	e1bffb17 	ldw	r6,-20(fp)
  802a8c:	e1fff717 	ldw	r7,-36(fp)
  802a90:	08022f80 	call	8022f8 <fat_setNextClusterAddressWBuf>
			part_relSect(fs->part,bufb);
  802a94:	e0bffc17 	ldw	r2,-16(fp)
  802a98:	11000017 	ldw	r4,0(r2)
  802a9c:	e17ff717 	ldw	r5,-36(fp)
  802aa0:	08082840 	call	808284 <part_relSect>
			ncl--;
  802aa4:	e0bffa17 	ldw	r2,-24(fp)
  802aa8:	10bfffc4 	addi	r2,r2,-1
  802aac:	e0bffa15 	stw	r2,-24(fp)
			lc=cc;
  802ab0:	e0bffb17 	ldw	r2,-20(fp)
  802ab4:	e0bff915 	stw	r2,-28(fp)
		}
		part_relSect(fs->part,bufa);
  802ab8:	e0bffc17 	ldw	r2,-16(fp)
  802abc:	11000017 	ldw	r4,0(r2)
  802ac0:	e17ff817 	ldw	r5,-32(fp)
  802ac4:	08082840 	call	808284 <part_relSect>
		if(ncl==0){
  802ac8:	e0bffa17 	ldw	r2,-24(fp)
  802acc:	1004c03a 	cmpne	r2,r2,zero
  802ad0:	1000181e 	bne	r2,zero,802b34 <fat_allocClusterChain+0x278>
			bufa=part_getSect(fs->part,fat_getSectorAddressFatEntry(fs,lc),IOM_MODE_READWRITE);
  802ad4:	e0bffc17 	ldw	r2,-16(fp)
  802ad8:	14000017 	ldw	r16,0(r2)
  802adc:	e13ffc17 	ldw	r4,-16(fp)
  802ae0:	e17ff917 	ldw	r5,-28(fp)
  802ae4:	08019300 	call	801930 <fat_getSectorAddressFatEntry>
  802ae8:	100b883a 	mov	r5,r2
  802aec:	8009883a 	mov	r4,r16
  802af0:	01800084 	movi	r6,2
  802af4:	08082240 	call	808224 <part_getSect>
  802af8:	e0bff815 	stw	r2,-32(fp)
			fat_setNextClusterAddressWBuf(fs,lc,fat_giveEocMarker(fs),bufa);
  802afc:	e13ffc17 	ldw	r4,-16(fp)
  802b00:	08020a80 	call	8020a8 <fat_giveEocMarker>
  802b04:	100d883a 	mov	r6,r2
  802b08:	e13ffc17 	ldw	r4,-16(fp)
  802b0c:	e17ff917 	ldw	r5,-28(fp)
  802b10:	e1fff817 	ldw	r7,-32(fp)
  802b14:	08022f80 	call	8022f8 <fat_setNextClusterAddressWBuf>
			Cache->LastCluster=lc;
  802b18:	e0fffd17 	ldw	r3,-12(fp)
  802b1c:	e0bff917 	ldw	r2,-28(fp)
  802b20:	18800415 	stw	r2,16(r3)
			part_relSect(fs->part,bufa);
  802b24:	e0bffc17 	ldw	r2,-16(fp)
  802b28:	11000017 	ldw	r4,0(r2)
  802b2c:	e17ff817 	ldw	r5,-32(fp)
  802b30:	08082840 	call	808284 <part_relSect>
	if(Cache->FirstCluster<=1)return(num_clusters);
	
	lc=fs_getLastCluster(fs,Cache);
	cc=lc;
	
	while(ncl > 0){
  802b34:	e0bffa17 	ldw	r2,-24(fp)
  802b38:	1004c03a 	cmpne	r2,r2,zero
  802b3c:	103f7d1e 	bne	r2,zero,802934 <fat_allocClusterChain+0x78>
			fat_setNextClusterAddressWBuf(fs,lc,fat_giveEocMarker(fs),bufa);
			Cache->LastCluster=lc;
			part_relSect(fs->part,bufa);
		}
	}
	if(Cache->ClusterCount)Cache->ClusterCount+=num_clusters;
  802b40:	e0bffd17 	ldw	r2,-12(fp)
  802b44:	10800517 	ldw	r2,20(r2)
  802b48:	1005003a 	cmpeq	r2,r2,zero
  802b4c:	1000061e 	bne	r2,zero,802b68 <fat_allocClusterChain+0x2ac>
  802b50:	e0bffd17 	ldw	r2,-12(fp)
  802b54:	10c00517 	ldw	r3,20(r2)
  802b58:	e0bffe17 	ldw	r2,-8(fp)
  802b5c:	1887883a 	add	r3,r3,r2
  802b60:	e0bffd17 	ldw	r2,-12(fp)
  802b64:	10c00515 	stw	r3,20(r2)
	return(0);
  802b68:	e03fff15 	stw	zero,-4(fp)
  802b6c:	e0bfff17 	ldw	r2,-4(fp)
}
  802b70:	e037883a 	mov	sp,fp
  802b74:	dfc00217 	ldw	ra,8(sp)
  802b78:	df000117 	ldw	fp,4(sp)
  802b7c:	dc000017 	ldw	r16,0(sp)
  802b80:	dec00304 	addi	sp,sp,12
  802b84:	f800283a 	ret

00802b88 <fat_unlinkClusterChain>:
 * Description: This function removes a clusterchain. Starting at FirstCluster
 * it follows the chain until the end, resetting all values to 0.
 * Return value: 0 on success.
*/
eint16 fat_unlinkClusterChain(FileSystem *fs,ClusterChain *Cache)
{
  802b88:	defffa04 	addi	sp,sp,-24
  802b8c:	dfc00515 	stw	ra,20(sp)
  802b90:	df000415 	stw	fp,16(sp)
  802b94:	df000404 	addi	fp,sp,16
  802b98:	e13ffe15 	stw	r4,-8(fp)
  802b9c:	e17fff15 	stw	r5,-4(fp)
	euint32 c,tbd=0;
  802ba0:	e03ffc15 	stw	zero,-16(fp)
	
	Cache->LogicCluster=0;
  802ba4:	e0bfff17 	ldw	r2,-4(fp)
  802ba8:	10000115 	stw	zero,4(r2)
	Cache->DiscCluster=Cache->FirstCluster;
  802bac:	e0bfff17 	ldw	r2,-4(fp)
  802bb0:	10c00317 	ldw	r3,12(r2)
  802bb4:	e0bfff17 	ldw	r2,-4(fp)
  802bb8:	10c00215 	stw	r3,8(r2)
	
	c=0;
  802bbc:	e03ffd15 	stw	zero,-12(fp)
	
	while(!fat_LogicToDiscCluster(fs,Cache,c++)){
  802bc0:	00000a06 	br	802bec <fat_unlinkClusterChain+0x64>
		if(tbd!=0){
  802bc4:	e0bffc17 	ldw	r2,-16(fp)
  802bc8:	1005003a 	cmpeq	r2,r2,zero
  802bcc:	1000041e 	bne	r2,zero,802be0 <fat_unlinkClusterChain+0x58>
			fat_setNextClusterAddress(fs,tbd,0);
  802bd0:	e13ffe17 	ldw	r4,-8(fp)
  802bd4:	e17ffc17 	ldw	r5,-16(fp)
  802bd8:	000d883a 	mov	r6,zero
  802bdc:	0801c800 	call	801c80 <fat_setNextClusterAddress>
		}
		tbd=Cache->DiscCluster;
  802be0:	e0bfff17 	ldw	r2,-4(fp)
  802be4:	10800217 	ldw	r2,8(r2)
  802be8:	e0bffc15 	stw	r2,-16(fp)
	Cache->LogicCluster=0;
	Cache->DiscCluster=Cache->FirstCluster;
	
	c=0;
	
	while(!fat_LogicToDiscCluster(fs,Cache,c++)){
  802bec:	e1bffd17 	ldw	r6,-12(fp)
  802bf0:	e0bffd17 	ldw	r2,-12(fp)
  802bf4:	10800044 	addi	r2,r2,1
  802bf8:	e0bffd15 	stw	r2,-12(fp)
  802bfc:	e13ffe17 	ldw	r4,-8(fp)
  802c00:	e17fff17 	ldw	r5,-4(fp)
  802c04:	080278c0 	call	80278c <fat_LogicToDiscCluster>
  802c08:	10bfffcc 	andi	r2,r2,65535
  802c0c:	10a0001c 	xori	r2,r2,32768
  802c10:	10a00004 	addi	r2,r2,-32768
  802c14:	1005003a 	cmpeq	r2,r2,zero
  802c18:	103fea1e 	bne	r2,zero,802bc4 <fat_unlinkClusterChain+0x3c>
		if(tbd!=0){
			fat_setNextClusterAddress(fs,tbd,0);
		}
		tbd=Cache->DiscCluster;
	}
	fat_setNextClusterAddress(fs,Cache->DiscCluster,0);
  802c1c:	e0bfff17 	ldw	r2,-4(fp)
  802c20:	11400217 	ldw	r5,8(r2)
  802c24:	e13ffe17 	ldw	r4,-8(fp)
  802c28:	000d883a 	mov	r6,zero
  802c2c:	0801c800 	call	801c80 <fat_setNextClusterAddress>
	fs->FreeClusterCount+=c;	
  802c30:	e0bffe17 	ldw	r2,-8(fp)
  802c34:	10c00d17 	ldw	r3,52(r2)
  802c38:	e0bffd17 	ldw	r2,-12(fp)
  802c3c:	1887883a 	add	r3,r3,r2
  802c40:	e0bffe17 	ldw	r2,-8(fp)
  802c44:	10c00d15 	stw	r3,52(r2)
 	return(0);
  802c48:	0005883a 	mov	r2,zero
}
  802c4c:	e037883a 	mov	sp,fp
  802c50:	dfc00117 	ldw	ra,4(sp)
  802c54:	df000017 	ldw	fp,0(sp)
  802c58:	dec00204 	addi	sp,sp,8
  802c5c:	f800283a 	ret

00802c60 <fat_countClustersInChain>:

euint32 fat_countClustersInChain(FileSystem *fs,euint32 firstcluster)
{
  802c60:	defff404 	addi	sp,sp,-48
  802c64:	dfc00b15 	stw	ra,44(sp)
  802c68:	df000a15 	stw	fp,40(sp)
  802c6c:	df000a04 	addi	fp,sp,40
  802c70:	e13ffd15 	stw	r4,-12(fp)
  802c74:	e17ffe15 	stw	r5,-8(fp)
	ClusterChain cache;
	euint32 c=0;
  802c78:	e03ff615 	stw	zero,-40(fp)
	
	if(firstcluster<=1)return(0);
  802c7c:	e0bffe17 	ldw	r2,-8(fp)
  802c80:	108000a8 	cmpgeui	r2,r2,2
  802c84:	1000021e 	bne	r2,zero,802c90 <fat_countClustersInChain+0x30>
  802c88:	e03fff15 	stw	zero,-4(fp)
  802c8c:	00001706 	br	802cec <fat_countClustersInChain+0x8c>
	
	cache.DiscCluster = cache.LogicCluster = cache.LastCluster = cache.Linear = 0;
  802c90:	e03ff705 	stb	zero,-36(fp)
  802c94:	e03ffb15 	stw	zero,-20(fp)
  802c98:	e0bffb17 	ldw	r2,-20(fp)
  802c9c:	e0bff815 	stw	r2,-32(fp)
  802ca0:	e0bff817 	ldw	r2,-32(fp)
  802ca4:	e0bff915 	stw	r2,-28(fp)
	cache.FirstCluster = firstcluster;
  802ca8:	e0bffe17 	ldw	r2,-8(fp)
  802cac:	e0bffa15 	stw	r2,-24(fp)
	
	while(!(fat_LogicToDiscCluster(fs,&cache,c++)));
  802cb0:	e1bff617 	ldw	r6,-40(fp)
  802cb4:	e0bff617 	ldw	r2,-40(fp)
  802cb8:	10800044 	addi	r2,r2,1
  802cbc:	e0bff615 	stw	r2,-40(fp)
  802cc0:	e17ff704 	addi	r5,fp,-36
  802cc4:	e13ffd17 	ldw	r4,-12(fp)
  802cc8:	080278c0 	call	80278c <fat_LogicToDiscCluster>
  802ccc:	10bfffcc 	andi	r2,r2,65535
  802cd0:	10a0001c 	xori	r2,r2,32768
  802cd4:	10a00004 	addi	r2,r2,-32768
  802cd8:	1005003a 	cmpeq	r2,r2,zero
  802cdc:	103ff41e 	bne	r2,zero,802cb0 <fat_countClustersInChain+0x50>
	
	return(c-1);
  802ce0:	e0bff617 	ldw	r2,-40(fp)
  802ce4:	10bfffc4 	addi	r2,r2,-1
  802ce8:	e0bfff15 	stw	r2,-4(fp)
  802cec:	e0bfff17 	ldw	r2,-4(fp)
}
  802cf0:	e037883a 	mov	sp,fp
  802cf4:	dfc00117 	ldw	ra,4(sp)
  802cf8:	df000017 	ldw	fp,0(sp)
  802cfc:	dec00204 	addi	sp,sp,8
  802d00:	f800283a 	ret

00802d04 <fat_DiscToLogicCluster>:

euint32 fat_DiscToLogicCluster(FileSystem *fs,euint32 firstcluster,euint32 disccluster)
{
  802d04:	defff304 	addi	sp,sp,-52
  802d08:	dfc00c15 	stw	ra,48(sp)
  802d0c:	df000b15 	stw	fp,44(sp)
  802d10:	df000b04 	addi	fp,sp,44
  802d14:	e13ffd15 	stw	r4,-12(fp)
  802d18:	e17ffe15 	stw	r5,-8(fp)
  802d1c:	e1bfff15 	stw	r6,-4(fp)
	ClusterChain cache;
	euint32 c=0,r=0;
  802d20:	e03ff615 	stw	zero,-40(fp)
  802d24:	e03ff515 	stw	zero,-44(fp)
	
	cache.DiscCluster = cache.LogicCluster = cache.LastCluster = cache.Linear = 0;
  802d28:	e03ff705 	stb	zero,-36(fp)
  802d2c:	e03ffb15 	stw	zero,-20(fp)
  802d30:	e0bffb17 	ldw	r2,-20(fp)
  802d34:	e0bff815 	stw	r2,-32(fp)
  802d38:	e0bff817 	ldw	r2,-32(fp)
  802d3c:	e0bff915 	stw	r2,-28(fp)
	cache.FirstCluster = firstcluster;
  802d40:	e0bffe17 	ldw	r2,-8(fp)
  802d44:	e0bffa15 	stw	r2,-24(fp)
	
	while(!(fat_LogicToDiscCluster(fs,&cache,c++)) && !r){
  802d48:	00000506 	br	802d60 <fat_DiscToLogicCluster+0x5c>
		if(cache.DiscCluster == disccluster){
  802d4c:	e0fff917 	ldw	r3,-28(fp)
  802d50:	e0bfff17 	ldw	r2,-4(fp)
  802d54:	1880021e 	bne	r3,r2,802d60 <fat_DiscToLogicCluster+0x5c>
			r = cache.LogicCluster;
  802d58:	e0bff817 	ldw	r2,-32(fp)
  802d5c:	e0bff515 	stw	r2,-44(fp)
	euint32 c=0,r=0;
	
	cache.DiscCluster = cache.LogicCluster = cache.LastCluster = cache.Linear = 0;
	cache.FirstCluster = firstcluster;
	
	while(!(fat_LogicToDiscCluster(fs,&cache,c++)) && !r){
  802d60:	e1bff617 	ldw	r6,-40(fp)
  802d64:	e0bff617 	ldw	r2,-40(fp)
  802d68:	10800044 	addi	r2,r2,1
  802d6c:	e0bff615 	stw	r2,-40(fp)
  802d70:	e17ff704 	addi	r5,fp,-36
  802d74:	e13ffd17 	ldw	r4,-12(fp)
  802d78:	080278c0 	call	80278c <fat_LogicToDiscCluster>
  802d7c:	10bfffcc 	andi	r2,r2,65535
  802d80:	10a0001c 	xori	r2,r2,32768
  802d84:	10a00004 	addi	r2,r2,-32768
  802d88:	1004c03a 	cmpne	r2,r2,zero
  802d8c:	1000031e 	bne	r2,zero,802d9c <fat_DiscToLogicCluster+0x98>
  802d90:	e0bff517 	ldw	r2,-44(fp)
  802d94:	1005003a 	cmpeq	r2,r2,zero
  802d98:	103fec1e 	bne	r2,zero,802d4c <fat_DiscToLogicCluster+0x48>
		if(cache.DiscCluster == disccluster){
			r = cache.LogicCluster;
		}
	}
	return(r);
  802d9c:	e0bff517 	ldw	r2,-44(fp)
}
  802da0:	e037883a 	mov	sp,fp
  802da4:	dfc00117 	ldw	ra,4(sp)
  802da8:	df000017 	ldw	fp,0(sp)
  802dac:	dec00204 	addi	sp,sp,8
  802db0:	f800283a 	ret

00802db4 <fat_countFreeClusters>:

euint32 fat_countFreeClusters(FileSystem *fs)
{
  802db4:	defffb04 	addi	sp,sp,-20
  802db8:	dfc00415 	stw	ra,16(sp)
  802dbc:	df000315 	stw	fp,12(sp)
  802dc0:	df000304 	addi	fp,sp,12
  802dc4:	e13fff15 	stw	r4,-4(fp)
	euint32 c=2,fc=0;
  802dc8:	00800084 	movi	r2,2
  802dcc:	e0bffe15 	stw	r2,-8(fp)
  802dd0:	e03ffd15 	stw	zero,-12(fp)
	
	while(c<=fs->DataClusterCount+1){
  802dd4:	00000c06 	br	802e08 <fat_countFreeClusters+0x54>
		if(fat_getNextClusterAddress(fs,c,0)==0)fc++;
  802dd8:	e13fff17 	ldw	r4,-4(fp)
  802ddc:	e17ffe17 	ldw	r5,-8(fp)
  802de0:	000d883a 	mov	r6,zero
  802de4:	0801a580 	call	801a58 <fat_getNextClusterAddress>
  802de8:	1004c03a 	cmpne	r2,r2,zero
  802dec:	1000031e 	bne	r2,zero,802dfc <fat_countFreeClusters+0x48>
  802df0:	e0bffd17 	ldw	r2,-12(fp)
  802df4:	10800044 	addi	r2,r2,1
  802df8:	e0bffd15 	stw	r2,-12(fp)
		c++;
  802dfc:	e0bffe17 	ldw	r2,-8(fp)
  802e00:	10800044 	addi	r2,r2,1
  802e04:	e0bffe15 	stw	r2,-8(fp)

euint32 fat_countFreeClusters(FileSystem *fs)
{
	euint32 c=2,fc=0;
	
	while(c<=fs->DataClusterCount+1){
  802e08:	e0bfff17 	ldw	r2,-4(fp)
  802e0c:	10800817 	ldw	r2,32(r2)
  802e10:	10c00044 	addi	r3,r2,1
  802e14:	e0bffe17 	ldw	r2,-8(fp)
  802e18:	18bfef2e 	bgeu	r3,r2,802dd8 <fat_countFreeClusters+0x24>
		if(fat_getNextClusterAddress(fs,c,0)==0)fc++;
		c++;
	}
	return(fc);
  802e1c:	e0bffd17 	ldw	r2,-12(fp)
}
  802e20:	e037883a 	mov	sp,fp
  802e24:	dfc00117 	ldw	ra,4(sp)
  802e28:	df000017 	ldw	fp,0(sp)
  802e2c:	dec00204 	addi	sp,sp,8
  802e30:	f800283a 	ret

00802e34 <file_fread>:
 * 'offset' and puts the result in '*buf'.
 * Return value: amount of bytes actually read (can differ from the given
 * size when the file was smaller
*/
euint32 file_fread(File *file,euint32 offset, euint32 size,euint8 *buf)
{
  802e34:	deffed04 	addi	sp,sp,-76
  802e38:	dfc01215 	stw	ra,72(sp)
  802e3c:	df001115 	stw	fp,68(sp)
  802e40:	df001104 	addi	fp,sp,68
  802e44:	e13ff915 	stw	r4,-28(fp)
  802e48:	e17ffa15 	stw	r5,-24(fp)
  802e4c:	e1bffb15 	stw	r6,-20(fp)
  802e50:	e1fffc15 	stw	r7,-16(fp)
	euint32 bytes_read=0,size_left=size,coffset=offset;
  802e54:	e03ff815 	stw	zero,-32(fp)
  802e58:	e0bffb17 	ldw	r2,-20(fp)
  802e5c:	e0bff715 	stw	r2,-36(fp)
  802e60:	e0bffa17 	ldw	r2,-24(fp)
  802e64:	e0bff615 	stw	r2,-40(fp)
	euint32 cclus,csec,cbyte;
	euint32 rclus,rsec;
	euint32 btr;
	euint8 *tbuf;
		
	if(!file_getAttr(file,FILE_STATUS_OPEN))return(0);
  802e68:	e13ff917 	ldw	r4,-28(fp)
  802e6c:	000b883a 	mov	r5,zero
  802e70:	0803f5c0 	call	803f5c <file_getAttr>
  802e74:	10803fcc 	andi	r2,r2,255
  802e78:	1004c03a 	cmpne	r2,r2,zero
  802e7c:	1000021e 	bne	r2,zero,802e88 <file_fread+0x54>
  802e80:	e03ffd15 	stw	zero,-12(fp)
  802e84:	00008b06 	br	8030b4 <file_fread+0x280>
	
	if(offset>=file->FileSize)
  802e88:	e0bff917 	ldw	r2,-28(fp)
  802e8c:	10c01317 	ldw	r3,76(r2)
  802e90:	e0bffa17 	ldw	r2,-24(fp)
  802e94:	10c00136 	bltu	r2,r3,802e9c <file_fread+0x68>
		size_left=0; /* Offset check */
  802e98:	e03ff715 	stw	zero,-36(fp)
	
	if( (offset+size > file->FileSize) && size_left!=0)
  802e9c:	e0fffa17 	ldw	r3,-24(fp)
  802ea0:	e0bffb17 	ldw	r2,-20(fp)
  802ea4:	1887883a 	add	r3,r3,r2
  802ea8:	e0bff917 	ldw	r2,-28(fp)
  802eac:	10801317 	ldw	r2,76(r2)
  802eb0:	10c07b2e 	bgeu	r2,r3,8030a0 <file_fread+0x26c>
  802eb4:	e0bff717 	ldw	r2,-36(fp)
  802eb8:	1005003a 	cmpeq	r2,r2,zero
  802ebc:	1000781e 	bne	r2,zero,8030a0 <file_fread+0x26c>
		size_left=file->FileSize-offset;
  802ec0:	e0bff917 	ldw	r2,-28(fp)
  802ec4:	10c01317 	ldw	r3,76(r2)
  802ec8:	e0bffa17 	ldw	r2,-24(fp)
  802ecc:	1885c83a 	sub	r2,r3,r2
  802ed0:	e0bff715 	stw	r2,-36(fp)
	
	while(size_left>0){
  802ed4:	00007206 	br	8030a0 <file_fread+0x26c>
        //printf("size_left = %d\n", size_left);
	
		cclus = coffset/(512*file->fs->volumeId.SectorsPerCluster);
  802ed8:	e0bff917 	ldw	r2,-28(fp)
  802edc:	10800a17 	ldw	r2,40(r2)
  802ee0:	10800183 	ldbu	r2,6(r2)
  802ee4:	10803fcc 	andi	r2,r2,255
  802ee8:	1004927a 	slli	r2,r2,9
  802eec:	100b883a 	mov	r5,r2
  802ef0:	e13ff617 	ldw	r4,-40(fp)
  802ef4:	080a1480 	call	80a148 <__udivsi3>
  802ef8:	e0bff515 	stw	r2,-44(fp)
		csec = (coffset/(512))%file->fs->volumeId.SectorsPerCluster;
  802efc:	e0bff617 	ldw	r2,-40(fp)
  802f00:	1008d27a 	srli	r4,r2,9
  802f04:	e0bff917 	ldw	r2,-28(fp)
  802f08:	10800a17 	ldw	r2,40(r2)
  802f0c:	10800183 	ldbu	r2,6(r2)
  802f10:	11403fcc 	andi	r5,r2,255
  802f14:	080a1500 	call	80a150 <__umodsi3>
  802f18:	e0bff415 	stw	r2,-48(fp)
		cbyte = coffset%512;
  802f1c:	e0bff617 	ldw	r2,-40(fp)
  802f20:	10807fcc 	andi	r2,r2,511
  802f24:	e0bff315 	stw	r2,-52(fp)
		
		if(cbyte!=0 || size_left<512){
  802f28:	e0bff317 	ldw	r2,-52(fp)
  802f2c:	1004c03a 	cmpne	r2,r2,zero
  802f30:	1000031e 	bne	r2,zero,802f40 <file_fread+0x10c>
  802f34:	e0bff717 	ldw	r2,-36(fp)
  802f38:	10808028 	cmpgeui	r2,r2,512
  802f3c:	10000f1e 	bne	r2,zero,802f7c <file_fread+0x148>
			btr = 512-(coffset%512)>=size_left?size_left:512-(coffset%512);
  802f40:	e0bff617 	ldw	r2,-40(fp)
  802f44:	10c07fcc 	andi	r3,r2,511
  802f48:	00808004 	movi	r2,512
  802f4c:	10c5c83a 	sub	r2,r2,r3
  802f50:	e0fff717 	ldw	r3,-36(fp)
  802f54:	e0ffff15 	stw	r3,-4(fp)
  802f58:	e0bffe15 	stw	r2,-8(fp)
  802f5c:	e0bfff17 	ldw	r2,-4(fp)
  802f60:	e0fffe17 	ldw	r3,-8(fp)
  802f64:	10c0022e 	bgeu	r2,r3,802f70 <file_fread+0x13c>
  802f68:	e0bfff17 	ldw	r2,-4(fp)
  802f6c:	e0bffe15 	stw	r2,-8(fp)
  802f70:	e0fffe17 	ldw	r3,-8(fp)
  802f74:	e0fff015 	stw	r3,-64(fp)
	
		cclus = coffset/(512*file->fs->volumeId.SectorsPerCluster);
		csec = (coffset/(512))%file->fs->volumeId.SectorsPerCluster;
		cbyte = coffset%512;
		
		if(cbyte!=0 || size_left<512){
  802f78:	00000206 	br	802f84 <file_fread+0x150>
			btr = 512-(coffset%512)>=size_left?size_left:512-(coffset%512);
		}else{
			btr = 512;
  802f7c:	00808004 	movi	r2,512
  802f80:	e0bff015 	stw	r2,-64(fp)
		}

		if((fat_LogicToDiscCluster(file->fs,&(file->Cache),cclus))!=0){
  802f84:	e0bff917 	ldw	r2,-28(fp)
  802f88:	11000a17 	ldw	r4,40(r2)
  802f8c:	e0bff917 	ldw	r2,-28(fp)
  802f90:	11400b04 	addi	r5,r2,44
  802f94:	e1bff517 	ldw	r6,-44(fp)
  802f98:	080278c0 	call	80278c <fat_LogicToDiscCluster>
  802f9c:	10bfffcc 	andi	r2,r2,65535
  802fa0:	10a0001c 	xori	r2,r2,32768
  802fa4:	10a00004 	addi	r2,r2,-32768
  802fa8:	1005003a 	cmpeq	r2,r2,zero
  802fac:	1000021e 	bne	r2,zero,802fb8 <file_fread+0x184>
			return(0);
  802fb0:	e03ffd15 	stw	zero,-12(fp)
  802fb4:	00003f06 	br	8030b4 <file_fread+0x280>
		}
		rclus=file->Cache.DiscCluster;
  802fb8:	e0bff917 	ldw	r2,-28(fp)
  802fbc:	10800d17 	ldw	r2,52(r2)
  802fc0:	e0bff215 	stw	r2,-56(fp)
		rsec=fs_clusterToSector(file->fs,rclus);
  802fc4:	e0bff917 	ldw	r2,-28(fp)
  802fc8:	11000a17 	ldw	r4,40(r2)
  802fcc:	e17ff217 	ldw	r5,-56(fp)
  802fd0:	08047c80 	call	8047c8 <fs_clusterToSector>
  802fd4:	e0bff115 	stw	r2,-60(fp)
		
		
		if(btr==512){
  802fd8:	e0bff017 	ldw	r2,-64(fp)
  802fdc:	10808018 	cmpnei	r2,r2,512
  802fe0:	10000b1e 	bne	r2,zero,803010 <file_fread+0x1dc>
			/*part_readBuf(file->fs->part,rsec+csec,buf+bytes_read);*/
			part_directSectorRead(file->fs->part,rsec+csec,buf+bytes_read);
  802fe4:	e0bff917 	ldw	r2,-28(fp)
  802fe8:	10800a17 	ldw	r2,40(r2)
  802fec:	11000017 	ldw	r4,0(r2)
  802ff0:	e0fff117 	ldw	r3,-60(fp)
  802ff4:	e0bff417 	ldw	r2,-48(fp)
  802ff8:	188b883a 	add	r5,r3,r2
  802ffc:	e0fff817 	ldw	r3,-32(fp)
  803000:	e0bffc17 	ldw	r2,-16(fp)
  803004:	188d883a 	add	r6,r3,r2
  803008:	08083540 	call	808354 <part_directSectorRead>
  80300c:	00001806 	br	803070 <file_fread+0x23c>
		}else{
			/*part_readBuf(file->fs->part,rsec+csec,tbuf);*/
			tbuf = part_getSect(file->fs->part,rsec+csec,IOM_MODE_READONLY);
  803010:	e0bff917 	ldw	r2,-28(fp)
  803014:	10800a17 	ldw	r2,40(r2)
  803018:	11000017 	ldw	r4,0(r2)
  80301c:	e0fff117 	ldw	r3,-60(fp)
  803020:	e0bff417 	ldw	r2,-48(fp)
  803024:	188b883a 	add	r5,r3,r2
  803028:	01800044 	movi	r6,1
  80302c:	08082240 	call	808224 <part_getSect>
  803030:	e0bfef15 	stw	r2,-68(fp)
			memCpy(tbuf+(coffset%512),buf+bytes_read,btr);
  803034:	e0bff617 	ldw	r2,-40(fp)
  803038:	10807fcc 	andi	r2,r2,511
  80303c:	1007883a 	mov	r3,r2
  803040:	e0bfef17 	ldw	r2,-68(fp)
  803044:	1889883a 	add	r4,r3,r2
  803048:	e0fff817 	ldw	r3,-32(fp)
  80304c:	e0bffc17 	ldw	r2,-16(fp)
  803050:	188b883a 	add	r5,r3,r2
  803054:	e1bff017 	ldw	r6,-64(fp)
  803058:	08084c40 	call	8084c4 <memCpy>
			part_relSect(file->fs->part,tbuf);
  80305c:	e0bff917 	ldw	r2,-28(fp)
  803060:	10800a17 	ldw	r2,40(r2)
  803064:	11000017 	ldw	r4,0(r2)
  803068:	e17fef17 	ldw	r5,-68(fp)
  80306c:	08082840 	call	808284 <part_relSect>
		}
		
		coffset+=btr;
  803070:	e0fff617 	ldw	r3,-40(fp)
  803074:	e0bff017 	ldw	r2,-64(fp)
  803078:	1885883a 	add	r2,r3,r2
  80307c:	e0bff615 	stw	r2,-40(fp)
		bytes_read+=btr;
  803080:	e0fff817 	ldw	r3,-32(fp)
  803084:	e0bff017 	ldw	r2,-64(fp)
  803088:	1885883a 	add	r2,r3,r2
  80308c:	e0bff815 	stw	r2,-32(fp)
		size_left-=btr;
  803090:	e0fff717 	ldw	r3,-36(fp)
  803094:	e0bff017 	ldw	r2,-64(fp)
  803098:	1885c83a 	sub	r2,r3,r2
  80309c:	e0bff715 	stw	r2,-36(fp)
		size_left=0; /* Offset check */
	
	if( (offset+size > file->FileSize) && size_left!=0)
		size_left=file->FileSize-offset;
	
	while(size_left>0){
  8030a0:	e0bff717 	ldw	r2,-36(fp)
  8030a4:	1004c03a 	cmpne	r2,r2,zero
  8030a8:	103f8b1e 	bne	r2,zero,802ed8 <file_fread+0xa4>
		coffset+=btr;
		bytes_read+=btr;
		size_left-=btr;
	}
		
	return(bytes_read);
  8030ac:	e0bff817 	ldw	r2,-32(fp)
  8030b0:	e0bffd15 	stw	r2,-12(fp)
  8030b4:	e0bffd17 	ldw	r2,-12(fp)
}
  8030b8:	e037883a 	mov	sp,fp
  8030bc:	dfc00117 	ldw	ra,4(sp)
  8030c0:	df000017 	ldw	fp,0(sp)
  8030c4:	dec00204 	addi	sp,sp,8
  8030c8:	f800283a 	ret

008030cc <file_read>:
 * Description: This function reads from a file, taking the FilePtr into account
 * and advancing it according to the freadcall.
 * Return value: Value obtained from fread
*/
euint32 file_read(File *file,euint32 size,euint8 *buf)
{
  8030cc:	defffa04 	addi	sp,sp,-24
  8030d0:	dfc00515 	stw	ra,20(sp)
  8030d4:	df000415 	stw	fp,16(sp)
  8030d8:	df000404 	addi	fp,sp,16
  8030dc:	e13ffd15 	stw	r4,-12(fp)
  8030e0:	e17ffe15 	stw	r5,-8(fp)
  8030e4:	e1bfff15 	stw	r6,-4(fp)
	euint32 r;
	
	r=file_fread(file,file->FilePtr,size,buf);
  8030e8:	e0bffd17 	ldw	r2,-12(fp)
  8030ec:	11401217 	ldw	r5,72(r2)
  8030f0:	e13ffd17 	ldw	r4,-12(fp)
  8030f4:	e1bffe17 	ldw	r6,-8(fp)
  8030f8:	e1ffff17 	ldw	r7,-4(fp)
  8030fc:	0802e340 	call	802e34 <file_fread>
  803100:	e0bffc15 	stw	r2,-16(fp)
	file->FilePtr+=r;
  803104:	e0bffd17 	ldw	r2,-12(fp)
  803108:	10c01217 	ldw	r3,72(r2)
  80310c:	e0bffc17 	ldw	r2,-16(fp)
  803110:	1887883a 	add	r3,r3,r2
  803114:	e0bffd17 	ldw	r2,-12(fp)
  803118:	10c01215 	stw	r3,72(r2)
	return(r);
  80311c:	e0bffc17 	ldw	r2,-16(fp)
}
  803120:	e037883a 	mov	sp,fp
  803124:	dfc00117 	ldw	ra,4(sp)
  803128:	df000017 	ldw	fp,0(sp)
  80312c:	dec00204 	addi	sp,sp,8
  803130:	f800283a 	ret

00803134 <file_write>:
 * Description: This function writes to a file, taking FilePtr into account
 * and advancing it according to the fwritecall.
 * Return value: Value obtained from fread
*/
euint32 file_write(File *file, euint32 size,euint8 *buf)
{
  803134:	defffa04 	addi	sp,sp,-24
  803138:	dfc00515 	stw	ra,20(sp)
  80313c:	df000415 	stw	fp,16(sp)
  803140:	df000404 	addi	fp,sp,16
  803144:	e13ffd15 	stw	r4,-12(fp)
  803148:	e17ffe15 	stw	r5,-8(fp)
  80314c:	e1bfff15 	stw	r6,-4(fp)
	euint32 r;
	
	r=file_fwrite(file,file->FilePtr,size,buf);
  803150:	e0bffd17 	ldw	r2,-12(fp)
  803154:	11401217 	ldw	r5,72(r2)
  803158:	e13ffd17 	ldw	r4,-12(fp)
  80315c:	e1bffe17 	ldw	r6,-8(fp)
  803160:	e1ffff17 	ldw	r7,-4(fp)
  803164:	08031f00 	call	8031f0 <file_fwrite>
  803168:	e0bffc15 	stw	r2,-16(fp)
	file->FilePtr+=r;
  80316c:	e0bffd17 	ldw	r2,-12(fp)
  803170:	10c01217 	ldw	r3,72(r2)
  803174:	e0bffc17 	ldw	r2,-16(fp)
  803178:	1887883a 	add	r3,r3,r2
  80317c:	e0bffd17 	ldw	r2,-12(fp)
  803180:	10c01215 	stw	r3,72(r2)
	return(r);
  803184:	e0bffc17 	ldw	r2,-16(fp)
}
  803188:	e037883a 	mov	sp,fp
  80318c:	dfc00117 	ldw	ra,4(sp)
  803190:	df000017 	ldw	fp,0(sp)
  803194:	dec00204 	addi	sp,sp,8
  803198:	f800283a 	ret

0080319c <file_setpos>:
 * Description: This function does a sanity check on the requested position
 * and changes the fileptr accordingly.
 * Return value: 0 on success and -1 on failure.
*/
esint16 file_setpos(File *file,euint32 pos)
{
  80319c:	defffc04 	addi	sp,sp,-16
  8031a0:	df000315 	stw	fp,12(sp)
  8031a4:	df000304 	addi	fp,sp,12
  8031a8:	e13ffd15 	stw	r4,-12(fp)
  8031ac:	e17ffe15 	stw	r5,-8(fp)
	if(pos<=file->FileSize){
  8031b0:	e0bffd17 	ldw	r2,-12(fp)
  8031b4:	10c01317 	ldw	r3,76(r2)
  8031b8:	e0bffe17 	ldw	r2,-8(fp)
  8031bc:	18800536 	bltu	r3,r2,8031d4 <file_setpos+0x38>
		file->FilePtr=pos;
  8031c0:	e0fffd17 	ldw	r3,-12(fp)
  8031c4:	e0bffe17 	ldw	r2,-8(fp)
  8031c8:	18801215 	stw	r2,72(r3)
		return(0);
  8031cc:	e03fff15 	stw	zero,-4(fp)
  8031d0:	00000206 	br	8031dc <file_setpos+0x40>
	}
	return(-1);
  8031d4:	00bfffc4 	movi	r2,-1
  8031d8:	e0bfff15 	stw	r2,-4(fp)
  8031dc:	e0bfff17 	ldw	r2,-4(fp)
}
  8031e0:	e037883a 	mov	sp,fp
  8031e4:	df000017 	ldw	fp,0(sp)
  8031e8:	dec00104 	addi	sp,sp,4
  8031ec:	f800283a 	ret

008031f0 <file_fwrite>:
 * Description: This function writes to a file, at offset 'offset' and size 'size'.
 * It also updates the FileSize in the object, and discstructure.
 * Return value: Bytes actually written.
*/
euint32 file_fwrite(File* file,euint32 offset,euint32 size,euint8* buf)
{
  8031f0:	deffec04 	addi	sp,sp,-80
  8031f4:	dfc01315 	stw	ra,76(sp)
  8031f8:	df001215 	stw	fp,72(sp)
  8031fc:	df001204 	addi	fp,sp,72
  803200:	e13ff915 	stw	r4,-28(fp)
  803204:	e17ffa15 	stw	r5,-24(fp)
  803208:	e1bffb15 	stw	r6,-20(fp)
  80320c:	e1fffc15 	stw	r7,-16(fp)
	euint32 need_cluster;
	euint32 cclus,csec,cbyte;
	euint32 size_left=size,bytes_written=0;
  803210:	e0bffb17 	ldw	r2,-20(fp)
  803214:	e0bff415 	stw	r2,-48(fp)
  803218:	e03ff315 	stw	zero,-52(fp)
	euint32 rclus,rsec;
	euint32 coffset=offset;
  80321c:	e0bffa17 	ldw	r2,-24(fp)
  803220:	e0bff015 	stw	r2,-64(fp)
	euint16 btr;
	euint8 *tbuf;

	if(!file_getAttr(file,FILE_STATUS_OPEN) || !file_getAttr(file,FILE_STATUS_WRITE))return(0);
  803224:	e13ff917 	ldw	r4,-28(fp)
  803228:	000b883a 	mov	r5,zero
  80322c:	0803f5c0 	call	803f5c <file_getAttr>
  803230:	10803fcc 	andi	r2,r2,255
  803234:	1005003a 	cmpeq	r2,r2,zero
  803238:	1000061e 	bne	r2,zero,803254 <file_fwrite+0x64>
  80323c:	e13ff917 	ldw	r4,-28(fp)
  803240:	01400044 	movi	r5,1
  803244:	0803f5c0 	call	803f5c <file_getAttr>
  803248:	10803fcc 	andi	r2,r2,255
  80324c:	1004c03a 	cmpne	r2,r2,zero
  803250:	1000021e 	bne	r2,zero,80325c <file_fwrite+0x6c>
  803254:	e03ffe15 	stw	zero,-8(fp)
  803258:	0000b206 	br	803524 <file_fwrite+0x334>
	
	if(offset>file->FileSize){
  80325c:	e0bff917 	ldw	r2,-28(fp)
  803260:	10c01317 	ldw	r3,76(r2)
  803264:	e0bffa17 	ldw	r2,-24(fp)
  803268:	1880032e 	bgeu	r3,r2,803278 <file_fwrite+0x88>
		offset=file->FileSize;
  80326c:	e0bff917 	ldw	r2,-28(fp)
  803270:	10801317 	ldw	r2,76(r2)
  803274:	e0bffa15 	stw	r2,-24(fp)
	}
	
	need_cluster = file_requiredCluster(file,offset,size);
  803278:	e13ff917 	ldw	r4,-28(fp)
  80327c:	e17ffa17 	ldw	r5,-24(fp)
  803280:	e1bffb17 	ldw	r6,-20(fp)
  803284:	0803fa00 	call	803fa0 <file_requiredCluster>
  803288:	e0bff815 	stw	r2,-32(fp)
	
	if(need_cluster){
  80328c:	e0bff817 	ldw	r2,-32(fp)
  803290:	1005003a 	cmpeq	r2,r2,zero
  803294:	10008d1e 	bne	r2,zero,8034cc <file_fwrite+0x2dc>
		if(fat_allocClusterChain(file->fs,&(file->Cache),need_cluster+CLUSTER_PREALLOC_FILE)!=0){
  803298:	e0bff917 	ldw	r2,-28(fp)
  80329c:	11000a17 	ldw	r4,40(r2)
  8032a0:	e0bff917 	ldw	r2,-28(fp)
  8032a4:	11400b04 	addi	r5,r2,44
  8032a8:	e1bff817 	ldw	r6,-32(fp)
  8032ac:	08028bc0 	call	8028bc <fat_allocClusterChain>
  8032b0:	10bfffcc 	andi	r2,r2,65535
  8032b4:	10a0001c 	xori	r2,r2,32768
  8032b8:	10a00004 	addi	r2,r2,-32768
  8032bc:	1005003a 	cmpeq	r2,r2,zero
  8032c0:	1000821e 	bne	r2,zero,8034cc <file_fwrite+0x2dc>
			return(0);
  8032c4:	e03ffe15 	stw	zero,-8(fp)
  8032c8:	00009606 	br	803524 <file_fwrite+0x334>
		}
	}
	
	while(size_left>0){
	
		cclus = coffset/(512*file->fs->volumeId.SectorsPerCluster);
  8032cc:	e0bff917 	ldw	r2,-28(fp)
  8032d0:	10800a17 	ldw	r2,40(r2)
  8032d4:	10800183 	ldbu	r2,6(r2)
  8032d8:	10803fcc 	andi	r2,r2,255
  8032dc:	1004927a 	slli	r2,r2,9
  8032e0:	100b883a 	mov	r5,r2
  8032e4:	e13ff017 	ldw	r4,-64(fp)
  8032e8:	080a1480 	call	80a148 <__udivsi3>
  8032ec:	e0bff715 	stw	r2,-36(fp)
		csec = (coffset/(512))%file->fs->volumeId.SectorsPerCluster;
  8032f0:	e0bff017 	ldw	r2,-64(fp)
  8032f4:	1008d27a 	srli	r4,r2,9
  8032f8:	e0bff917 	ldw	r2,-28(fp)
  8032fc:	10800a17 	ldw	r2,40(r2)
  803300:	10800183 	ldbu	r2,6(r2)
  803304:	11403fcc 	andi	r5,r2,255
  803308:	080a1500 	call	80a150 <__umodsi3>
  80330c:	e0bff615 	stw	r2,-40(fp)
		cbyte = coffset%512;
  803310:	e0bff017 	ldw	r2,-64(fp)
  803314:	10807fcc 	andi	r2,r2,511
  803318:	e0bff515 	stw	r2,-44(fp)
		
		if(cbyte!=0 || size_left<512){
  80331c:	e0bff517 	ldw	r2,-44(fp)
  803320:	1004c03a 	cmpne	r2,r2,zero
  803324:	1000031e 	bne	r2,zero,803334 <file_fwrite+0x144>
  803328:	e0bff417 	ldw	r2,-48(fp)
  80332c:	10808028 	cmpgeui	r2,r2,512
  803330:	10000f1e 	bne	r2,zero,803370 <file_fwrite+0x180>
			btr = 512-(coffset%512)>=size_left?size_left:512-(coffset%512);
  803334:	e0bff017 	ldw	r2,-64(fp)
  803338:	10c07fcc 	andi	r3,r2,511
  80333c:	00808004 	movi	r2,512
  803340:	10c5c83a 	sub	r2,r2,r3
  803344:	e0fff417 	ldw	r3,-48(fp)
  803348:	e0ffff15 	stw	r3,-4(fp)
  80334c:	e0bffd15 	stw	r2,-12(fp)
  803350:	e0bfff17 	ldw	r2,-4(fp)
  803354:	e0fffd17 	ldw	r3,-12(fp)
  803358:	10c0022e 	bgeu	r2,r3,803364 <file_fwrite+0x174>
  80335c:	e0bfff17 	ldw	r2,-4(fp)
  803360:	e0bffd15 	stw	r2,-12(fp)
  803364:	e0fffd17 	ldw	r3,-12(fp)
  803368:	e0ffef0d 	sth	r3,-68(fp)
	
		cclus = coffset/(512*file->fs->volumeId.SectorsPerCluster);
		csec = (coffset/(512))%file->fs->volumeId.SectorsPerCluster;
		cbyte = coffset%512;
		
		if(cbyte!=0 || size_left<512){
  80336c:	00000206 	br	803378 <file_fwrite+0x188>
			btr = 512-(coffset%512)>=size_left?size_left:512-(coffset%512);
		}else{
			btr = 512;
  803370:	00808004 	movi	r2,512
  803374:	e0bfef0d 	sth	r2,-68(fp)
		}

		if((fat_LogicToDiscCluster(file->fs,&(file->Cache),cclus))!=0){
  803378:	e0bff917 	ldw	r2,-28(fp)
  80337c:	11000a17 	ldw	r4,40(r2)
  803380:	e0bff917 	ldw	r2,-28(fp)
  803384:	11400b04 	addi	r5,r2,44
  803388:	e1bff717 	ldw	r6,-36(fp)
  80338c:	080278c0 	call	80278c <fat_LogicToDiscCluster>
  803390:	10bfffcc 	andi	r2,r2,65535
  803394:	10a0001c 	xori	r2,r2,32768
  803398:	10a00004 	addi	r2,r2,-32768
  80339c:	1005003a 	cmpeq	r2,r2,zero
  8033a0:	1000101e 	bne	r2,zero,8033e4 <file_fwrite+0x1f4>
			file->FileSize+=bytes_written;
  8033a4:	e0bff917 	ldw	r2,-28(fp)
  8033a8:	10c01317 	ldw	r3,76(r2)
  8033ac:	e0bff317 	ldw	r2,-52(fp)
  8033b0:	1887883a 	add	r3,r3,r2
  8033b4:	e0bff917 	ldw	r2,-28(fp)
  8033b8:	10c01315 	stw	r3,76(r2)
			dir_setFileSize(file->fs,&(file->Location),file->FileSize);
  8033bc:	e0bff917 	ldw	r2,-28(fp)
  8033c0:	11000a17 	ldw	r4,40(r2)
  8033c4:	e0bff917 	ldw	r2,-28(fp)
  8033c8:	11400804 	addi	r5,r2,32
  8033cc:	e0bff917 	ldw	r2,-28(fp)
  8033d0:	11801317 	ldw	r6,76(r2)
  8033d4:	0800b280 	call	800b28 <dir_setFileSize>
			return(bytes_written);
  8033d8:	e0bff317 	ldw	r2,-52(fp)
  8033dc:	e0bffe15 	stw	r2,-8(fp)
  8033e0:	00005006 	br	803524 <file_fwrite+0x334>
		}
		rclus=file->Cache.DiscCluster;
  8033e4:	e0bff917 	ldw	r2,-28(fp)
  8033e8:	10800d17 	ldw	r2,52(r2)
  8033ec:	e0bff215 	stw	r2,-56(fp)
		rsec=fs_clusterToSector(file->fs,rclus);
  8033f0:	e0bff917 	ldw	r2,-28(fp)
  8033f4:	11000a17 	ldw	r4,40(r2)
  8033f8:	e17ff217 	ldw	r5,-56(fp)
  8033fc:	08047c80 	call	8047c8 <fs_clusterToSector>
  803400:	e0bff115 	stw	r2,-60(fp)
		
		if(btr==512){
  803404:	e0bfef0b 	ldhu	r2,-68(fp)
  803408:	10808018 	cmpnei	r2,r2,512
  80340c:	10000b1e 	bne	r2,zero,80343c <file_fwrite+0x24c>
			/*part_writeBuf(file->fs->part,rsec+csec,buf+bytes_written);*/
			part_directSectorWrite(file->fs->part,rsec+csec,buf+bytes_written);
  803410:	e0bff917 	ldw	r2,-28(fp)
  803414:	10800a17 	ldw	r2,40(r2)
  803418:	11000017 	ldw	r4,0(r2)
  80341c:	e0fff117 	ldw	r3,-60(fp)
  803420:	e0bff617 	ldw	r2,-40(fp)
  803424:	188b883a 	add	r5,r3,r2
  803428:	e0fff317 	ldw	r3,-52(fp)
  80342c:	e0bffc17 	ldw	r2,-16(fp)
  803430:	188d883a 	add	r6,r3,r2
  803434:	08083c00 	call	8083c0 <part_directSectorWrite>
  803438:	00001806 	br	80349c <file_fwrite+0x2ac>
		}else{
			/*part_readBuf(file->fs->part,rsec+csec,tbuf);*/
			tbuf = part_getSect(file->fs->part,rsec+csec,IOM_MODE_READWRITE);
  80343c:	e0bff917 	ldw	r2,-28(fp)
  803440:	10800a17 	ldw	r2,40(r2)
  803444:	11000017 	ldw	r4,0(r2)
  803448:	e0fff117 	ldw	r3,-60(fp)
  80344c:	e0bff617 	ldw	r2,-40(fp)
  803450:	188b883a 	add	r5,r3,r2
  803454:	01800084 	movi	r6,2
  803458:	08082240 	call	808224 <part_getSect>
  80345c:	e0bfee15 	stw	r2,-72(fp)
			memCpy(buf+bytes_written,tbuf+(coffset%512),btr);
  803460:	e0fff317 	ldw	r3,-52(fp)
  803464:	e0bffc17 	ldw	r2,-16(fp)
  803468:	1889883a 	add	r4,r3,r2
  80346c:	e0bff017 	ldw	r2,-64(fp)
  803470:	10807fcc 	andi	r2,r2,511
  803474:	1007883a 	mov	r3,r2
  803478:	e0bfee17 	ldw	r2,-72(fp)
  80347c:	188b883a 	add	r5,r3,r2
  803480:	e1bfef0b 	ldhu	r6,-68(fp)
  803484:	08084c40 	call	8084c4 <memCpy>
			/*part_writeBuf(file->fs->part,rsec+csec,tbuf);*/
			part_relSect(file->fs->part,tbuf);
  803488:	e0bff917 	ldw	r2,-28(fp)
  80348c:	10800a17 	ldw	r2,40(r2)
  803490:	11000017 	ldw	r4,0(r2)
  803494:	e17fee17 	ldw	r5,-72(fp)
  803498:	08082840 	call	808284 <part_relSect>
		}
		
		coffset+=btr;
  80349c:	e0ffef0b 	ldhu	r3,-68(fp)
  8034a0:	e0bff017 	ldw	r2,-64(fp)
  8034a4:	10c5883a 	add	r2,r2,r3
  8034a8:	e0bff015 	stw	r2,-64(fp)
		bytes_written+=btr;
  8034ac:	e0ffef0b 	ldhu	r3,-68(fp)
  8034b0:	e0bff317 	ldw	r2,-52(fp)
  8034b4:	10c5883a 	add	r2,r2,r3
  8034b8:	e0bff315 	stw	r2,-52(fp)
		size_left-=btr;
  8034bc:	e0ffef0b 	ldhu	r3,-68(fp)
  8034c0:	e0bff417 	ldw	r2,-48(fp)
  8034c4:	10c5c83a 	sub	r2,r2,r3
  8034c8:	e0bff415 	stw	r2,-48(fp)
		if(fat_allocClusterChain(file->fs,&(file->Cache),need_cluster+CLUSTER_PREALLOC_FILE)!=0){
			return(0);
		}
	}
	
	while(size_left>0){
  8034cc:	e0bff417 	ldw	r2,-48(fp)
  8034d0:	1004c03a 	cmpne	r2,r2,zero
  8034d4:	103f7d1e 	bne	r2,zero,8032cc <file_fwrite+0xdc>
		coffset+=btr;
		bytes_written+=btr;
		size_left-=btr;
	}
	
	if(bytes_written>file->FileSize-offset){
  8034d8:	e0bff917 	ldw	r2,-28(fp)
  8034dc:	10c01317 	ldw	r3,76(r2)
  8034e0:	e0bffa17 	ldw	r2,-24(fp)
  8034e4:	1887c83a 	sub	r3,r3,r2
  8034e8:	e0bff317 	ldw	r2,-52(fp)
  8034ec:	18800b2e 	bgeu	r3,r2,80351c <file_fwrite+0x32c>
		file->FileSize+=bytes_written-(file->FileSize-offset);
  8034f0:	e0bff917 	ldw	r2,-28(fp)
  8034f4:	11001317 	ldw	r4,76(r2)
  8034f8:	e0bff917 	ldw	r2,-28(fp)
  8034fc:	10c01317 	ldw	r3,76(r2)
  803500:	e0bffa17 	ldw	r2,-24(fp)
  803504:	1887c83a 	sub	r3,r3,r2
  803508:	e0bff317 	ldw	r2,-52(fp)
  80350c:	10c5c83a 	sub	r2,r2,r3
  803510:	2087883a 	add	r3,r4,r2
  803514:	e0bff917 	ldw	r2,-28(fp)
  803518:	10c01315 	stw	r3,76(r2)
    }
	
	return(bytes_written);	
  80351c:	e0fff317 	ldw	r3,-52(fp)
  803520:	e0fffe15 	stw	r3,-8(fp)
  803524:	e0bffe17 	ldw	r2,-8(fp)
}
  803528:	e037883a 	mov	sp,fp
  80352c:	dfc00117 	ldw	ra,4(sp)
  803530:	df000017 	ldw	fp,0(sp)
  803534:	dec00204 	addi	sp,sp,8
  803538:	f800283a 	ret

0080353c <file_fopen>:
 * Description: This functions opens a file.                               
 * This function is about to be redesigned. No Docs.                       
 * Return value:
*/
esint8 file_fopen(File* file,FileSystem *fs,eint8* filename,eint8 mode)
{
  80353c:	deffe904 	addi	sp,sp,-92
  803540:	dfc01615 	stw	ra,88(sp)
  803544:	df001515 	stw	fp,84(sp)
  803548:	dc001415 	stw	r16,80(sp)
  80354c:	df001404 	addi	fp,sp,80
  803550:	e13ffa15 	stw	r4,-24(fp)
  803554:	e17ffb15 	stw	r5,-20(fp)
  803558:	e1bffc15 	stw	r6,-16(fp)
  80355c:	e1fffd05 	stb	r7,-12(fp)
    FileLocation loc;
    FileRecord wtmp;
    eint8 fatfilename[11];
    euint32 sec;

    dir_getFatFileName(filename,fatfilename);
  803560:	e17ff604 	addi	r5,fp,-40
  803564:	e13ffc17 	ldw	r4,-16(fp)
  803568:	080126c0 	call	80126c <dir_getFatFileName>
	
    switch(mode)
  80356c:	e0bffd07 	ldb	r2,-12(fp)
  803570:	e0bfff15 	stw	r2,-4(fp)
  803574:	e0ffff17 	ldw	r3,-4(fp)
  803578:	18801ca0 	cmpeqi	r2,r3,114
  80357c:	1000071e 	bne	r2,zero,80359c <file_fopen+0x60>
  803580:	e0ffff17 	ldw	r3,-4(fp)
  803584:	18801de0 	cmpeqi	r2,r3,119
  803588:	1000231e 	bne	r2,zero,803618 <file_fopen+0xdc>
  80358c:	e0ffff17 	ldw	r3,-4(fp)
  803590:	18801860 	cmpeqi	r2,r3,97
  803594:	1000781e 	bne	r2,zero,803778 <file_fopen+0x23c>
  803598:	0000fd06 	br	803990 <file_fopen+0x454>
	{
        case MODE_READ:
            if(fs_findFile(fs,filename,&loc,0)==1)
  80359c:	e13ffb17 	ldw	r4,-20(fp)
  8035a0:	e17ffc17 	ldw	r5,-16(fp)
  8035a4:	e1bfec04 	addi	r6,fp,-80
  8035a8:	000f883a 	mov	r7,zero
  8035ac:	0804a340 	call	804a34 <fs_findFile>
  8035b0:	10803fcc 	andi	r2,r2,255
  8035b4:	1080201c 	xori	r2,r2,128
  8035b8:	10bfe004 	addi	r2,r2,-128
  8035bc:	10800058 	cmpnei	r2,r2,1
  8035c0:	1000121e 	bne	r2,zero,80360c <file_fopen+0xd0>
			{
                dir_getFileStructure(fs,&(file->DirEntry), &loc);
  8035c4:	e17ffa17 	ldw	r5,-24(fp)
  8035c8:	e13ffb17 	ldw	r4,-20(fp)
  8035cc:	e1bfec04 	addi	r6,fp,-80
  8035d0:	08008900 	call	800890 <dir_getFileStructure>
                file_initFile(file,fs,&loc);
  8035d4:	e13ffa17 	ldw	r4,-24(fp)
  8035d8:	e17ffb17 	ldw	r5,-20(fp)
  8035dc:	e1bfec04 	addi	r6,fp,-80
  8035e0:	0803ab40 	call	803ab4 <file_initFile>
				file_setAttr(file,FILE_STATUS_OPEN,1);
  8035e4:	e13ffa17 	ldw	r4,-24(fp)
  8035e8:	000b883a 	mov	r5,zero
  8035ec:	01800044 	movi	r6,1
  8035f0:	0803ed00 	call	803ed0 <file_setAttr>
				file_setAttr(file,FILE_STATUS_WRITE,0);
  8035f4:	e13ffa17 	ldw	r4,-24(fp)
  8035f8:	01400044 	movi	r5,1
  8035fc:	000d883a 	mov	r6,zero
  803600:	0803ed00 	call	803ed0 <file_setAttr>
                return(0);
  803604:	e03ffe15 	stw	zero,-8(fp)
  803608:	0000e306 	br	803998 <file_fopen+0x45c>
            }
            return(-1);
  80360c:	00bfffc4 	movi	r2,-1
  803610:	e0bffe15 	stw	r2,-8(fp)
  803614:	0000e006 	br	803998 <file_fopen+0x45c>
            break;
        case MODE_WRITE:
            if(fs_findFile(fs,filename,&loc,&sec)) /* File may NOT exist, but parent HAS to exist */
  803618:	e1fff904 	addi	r7,fp,-28
  80361c:	e13ffb17 	ldw	r4,-20(fp)
  803620:	e17ffc17 	ldw	r5,-16(fp)
  803624:	e1bfec04 	addi	r6,fp,-80
  803628:	0804a340 	call	804a34 <fs_findFile>
  80362c:	10803fcc 	andi	r2,r2,255
  803630:	1080201c 	xori	r2,r2,128
  803634:	10bfe004 	addi	r2,r2,-128
  803638:	1005003a 	cmpeq	r2,r2,zero
  80363c:	1000031e 	bne	r2,zero,80364c <file_fopen+0x110>
			{
                return(-2);
  803640:	00ffff84 	movi	r3,-2
  803644:	e0fffe15 	stw	r3,-8(fp)
  803648:	0000d306 	br	803998 <file_fopen+0x45c>
			}
			if(sec==0){ /* Parent dir does not exist */
  80364c:	e0bff917 	ldw	r2,-28(fp)
  803650:	1004c03a 	cmpne	r2,r2,zero
  803654:	1000031e 	bne	r2,zero,803664 <file_fopen+0x128>
 				return(-4);
  803658:	00bfff04 	movi	r2,-4
  80365c:	e0bffe15 	stw	r2,-8(fp)
  803660:	0000cd06 	br	803998 <file_fopen+0x45c>
			}
            if(fs_findFreeFile(fs,filename,&loc,0))
  803664:	e13ffb17 	ldw	r4,-20(fp)
  803668:	e17ffc17 	ldw	r5,-16(fp)
  80366c:	e1bfec04 	addi	r6,fp,-80
  803670:	000f883a 	mov	r7,zero
  803674:	0804c740 	call	804c74 <fs_findFreeFile>
  803678:	10bfffcc 	andi	r2,r2,65535
  80367c:	10a0001c 	xori	r2,r2,32768
  803680:	10a00004 	addi	r2,r2,-32768
  803684:	1005003a 	cmpeq	r2,r2,zero
  803688:	1000381e 	bne	r2,zero,80376c <file_fopen+0x230>
			{
                dir_createDefaultEntry(fs,&wtmp,fatfilename);
  80368c:	e17fee04 	addi	r5,fp,-72
  803690:	e1bff604 	addi	r6,fp,-40
  803694:	e13ffb17 	ldw	r4,-20(fp)
  803698:	08009d00 	call	8009d0 <dir_createDefaultEntry>
                dir_createDirectoryEntry(fs,&wtmp,&loc);
  80369c:	e17fee04 	addi	r5,fp,-72
  8036a0:	e13ffb17 	ldw	r4,-20(fp)
  8036a4:	e1bfec04 	addi	r6,fp,-80
  8036a8:	080094c0 	call	80094c <dir_createDirectoryEntry>
                memCpy(&wtmp,&(file->DirEntry),sizeof(wtmp));
  8036ac:	e17ffa17 	ldw	r5,-24(fp)
  8036b0:	e13fee04 	addi	r4,fp,-72
  8036b4:	01800804 	movi	r6,32
  8036b8:	08084c40 	call	8084c4 <memCpy>
				file_initFile(file,fs,&loc);
  8036bc:	e13ffa17 	ldw	r4,-24(fp)
  8036c0:	e17ffb17 	ldw	r5,-20(fp)
  8036c4:	e1bfec04 	addi	r6,fp,-80
  8036c8:	0803ab40 	call	803ab4 <file_initFile>
                sec=fs_getNextFreeCluster(file->fs,fs_giveFreeClusterHint(file->fs));
  8036cc:	e0bffa17 	ldw	r2,-24(fp)
  8036d0:	14000a17 	ldw	r16,40(r2)
  8036d4:	e0bffa17 	ldw	r2,-24(fp)
  8036d8:	11000a17 	ldw	r4,40(r2)
  8036dc:	0804a100 	call	804a10 <fs_giveFreeClusterHint>
  8036e0:	100b883a 	mov	r5,r2
  8036e4:	8009883a 	mov	r4,r16
  8036e8:	08049900 	call	804990 <fs_getNextFreeCluster>
  8036ec:	e0bff915 	stw	r2,-28(fp)
                dir_setFirstCluster(file->fs,&(file->Location),sec);
  8036f0:	e0bffa17 	ldw	r2,-24(fp)
  8036f4:	11000a17 	ldw	r4,40(r2)
  8036f8:	e0bffa17 	ldw	r2,-24(fp)
  8036fc:	11400804 	addi	r5,r2,32
  803700:	e1bff917 	ldw	r6,-28(fp)
  803704:	0800a800 	call	800a80 <dir_setFirstCluster>
                fs_setFirstClusterInDirEntry(&(file->DirEntry),sec);
  803708:	e13ffa17 	ldw	r4,-24(fp)
  80370c:	e17ff917 	ldw	r5,-28(fp)
  803710:	0804f200 	call	804f20 <fs_setFirstClusterInDirEntry>
                fs_initClusterChain(fs,&(file->Cache),sec);
  803714:	e0bffa17 	ldw	r2,-24(fp)
  803718:	11400b04 	addi	r5,r2,44
  80371c:	e1bff917 	ldw	r6,-28(fp)
  803720:	e13ffb17 	ldw	r4,-20(fp)
  803724:	0804ec00 	call	804ec0 <fs_initClusterChain>
                fat_setNextClusterAddress(fs,sec,fat_giveEocMarker(fs));
  803728:	e43ff917 	ldw	r16,-28(fp)
  80372c:	e13ffb17 	ldw	r4,-20(fp)
  803730:	08020a80 	call	8020a8 <fat_giveEocMarker>
  803734:	100d883a 	mov	r6,r2
  803738:	e13ffb17 	ldw	r4,-20(fp)
  80373c:	800b883a 	mov	r5,r16
  803740:	0801c800 	call	801c80 <fat_setNextClusterAddress>
				file_setAttr(file,FILE_STATUS_OPEN,1);
  803744:	e13ffa17 	ldw	r4,-24(fp)
  803748:	000b883a 	mov	r5,zero
  80374c:	01800044 	movi	r6,1
  803750:	0803ed00 	call	803ed0 <file_setAttr>
				file_setAttr(file,FILE_STATUS_WRITE,1);
  803754:	e13ffa17 	ldw	r4,-24(fp)
  803758:	01400044 	movi	r5,1
  80375c:	01800044 	movi	r6,1
  803760:	0803ed00 	call	803ed0 <file_setAttr>
            	return(0);
  803764:	e03ffe15 	stw	zero,-8(fp)
  803768:	00008b06 	br	803998 <file_fopen+0x45c>
			}
            else
			{
                return(-3);
  80376c:	00ffff44 	movi	r3,-3
  803770:	e0fffe15 	stw	r3,-8(fp)
  803774:	00008806 	br	803998 <file_fopen+0x45c>
			}
            break;
        case MODE_APPEND:
			if(fs_findFile(fs,filename,&loc,0)==1) /* File exists */
  803778:	e13ffb17 	ldw	r4,-20(fp)
  80377c:	e17ffc17 	ldw	r5,-16(fp)
  803780:	e1bfec04 	addi	r6,fp,-80
  803784:	000f883a 	mov	r7,zero
  803788:	0804a340 	call	804a34 <fs_findFile>
  80378c:	10803fcc 	andi	r2,r2,255
  803790:	1080201c 	xori	r2,r2,128
  803794:	10bfe004 	addi	r2,r2,-128
  803798:	10800058 	cmpnei	r2,r2,1
  80379c:	1000361e 	bne	r2,zero,803878 <file_fopen+0x33c>
			{
				dir_getFileStructure(fs,&(file->DirEntry), &loc);
  8037a0:	e17ffa17 	ldw	r5,-24(fp)
  8037a4:	e13ffb17 	ldw	r4,-20(fp)
  8037a8:	e1bfec04 	addi	r6,fp,-80
  8037ac:	08008900 	call	800890 <dir_getFileStructure>
				file_initFile(file,fs,&loc);
  8037b0:	e13ffa17 	ldw	r4,-24(fp)
  8037b4:	e17ffb17 	ldw	r5,-20(fp)
  8037b8:	e1bfec04 	addi	r6,fp,-80
  8037bc:	0803ab40 	call	803ab4 <file_initFile>
				if(file->Cache.FirstCluster==0){
  8037c0:	e0bffa17 	ldw	r2,-24(fp)
  8037c4:	10800e17 	ldw	r2,56(r2)
  8037c8:	1004c03a 	cmpne	r2,r2,zero
  8037cc:	10001d1e 	bne	r2,zero,803844 <file_fopen+0x308>
					sec=fs_getNextFreeCluster(file->fs,fs_giveFreeClusterHint(file->fs));
  8037d0:	e0bffa17 	ldw	r2,-24(fp)
  8037d4:	14000a17 	ldw	r16,40(r2)
  8037d8:	e0bffa17 	ldw	r2,-24(fp)
  8037dc:	11000a17 	ldw	r4,40(r2)
  8037e0:	0804a100 	call	804a10 <fs_giveFreeClusterHint>
  8037e4:	100b883a 	mov	r5,r2
  8037e8:	8009883a 	mov	r4,r16
  8037ec:	08049900 	call	804990 <fs_getNextFreeCluster>
  8037f0:	e0bff915 	stw	r2,-28(fp)
					dir_setFirstCluster(file->fs,&(file->Location),sec);
  8037f4:	e0bffa17 	ldw	r2,-24(fp)
  8037f8:	11000a17 	ldw	r4,40(r2)
  8037fc:	e0bffa17 	ldw	r2,-24(fp)
  803800:	11400804 	addi	r5,r2,32
  803804:	e1bff917 	ldw	r6,-28(fp)
  803808:	0800a800 	call	800a80 <dir_setFirstCluster>
					fs_setFirstClusterInDirEntry(&(file->DirEntry),sec);
  80380c:	e13ffa17 	ldw	r4,-24(fp)
  803810:	e17ff917 	ldw	r5,-28(fp)
  803814:	0804f200 	call	804f20 <fs_setFirstClusterInDirEntry>
					fat_setNextClusterAddress(fs,sec,fat_giveEocMarker(fs));
  803818:	e43ff917 	ldw	r16,-28(fp)
  80381c:	e13ffb17 	ldw	r4,-20(fp)
  803820:	08020a80 	call	8020a8 <fat_giveEocMarker>
  803824:	100d883a 	mov	r6,r2
  803828:	e13ffb17 	ldw	r4,-20(fp)
  80382c:	800b883a 	mov	r5,r16
  803830:	0801c800 	call	801c80 <fat_setNextClusterAddress>
					file_initFile(file,fs,&loc);
  803834:	e13ffa17 	ldw	r4,-24(fp)
  803838:	e17ffb17 	ldw	r5,-20(fp)
  80383c:	e1bfec04 	addi	r6,fp,-80
  803840:	0803ab40 	call	803ab4 <file_initFile>
				}
				file_setpos(file,file->FileSize);
  803844:	e0bffa17 	ldw	r2,-24(fp)
  803848:	11401317 	ldw	r5,76(r2)
  80384c:	e13ffa17 	ldw	r4,-24(fp)
  803850:	080319c0 	call	80319c <file_setpos>
				file_setAttr(file,FILE_STATUS_OPEN,1);
  803854:	e13ffa17 	ldw	r4,-24(fp)
  803858:	000b883a 	mov	r5,zero
  80385c:	01800044 	movi	r6,1
  803860:	0803ed00 	call	803ed0 <file_setAttr>
				file_setAttr(file,FILE_STATUS_WRITE,1);
  803864:	e13ffa17 	ldw	r4,-24(fp)
  803868:	01400044 	movi	r5,1
  80386c:	01800044 	movi	r6,1
  803870:	0803ed00 	call	803ed0 <file_setAttr>
  803874:	00004406 	br	803988 <file_fopen+0x44c>
			}
			else /* File does not excist */
			{
				if(fs_findFreeFile(fs,filename,&loc,0))
  803878:	e13ffb17 	ldw	r4,-20(fp)
  80387c:	e17ffc17 	ldw	r5,-16(fp)
  803880:	e1bfec04 	addi	r6,fp,-80
  803884:	000f883a 	mov	r7,zero
  803888:	0804c740 	call	804c74 <fs_findFreeFile>
  80388c:	10bfffcc 	andi	r2,r2,65535
  803890:	10a0001c 	xori	r2,r2,32768
  803894:	10a00004 	addi	r2,r2,-32768
  803898:	1005003a 	cmpeq	r2,r2,zero
  80389c:	1000371e 	bne	r2,zero,80397c <file_fopen+0x440>
				{
					dir_createDefaultEntry(fs,&wtmp,fatfilename);
  8038a0:	e17fee04 	addi	r5,fp,-72
  8038a4:	e1bff604 	addi	r6,fp,-40
  8038a8:	e13ffb17 	ldw	r4,-20(fp)
  8038ac:	08009d00 	call	8009d0 <dir_createDefaultEntry>
					dir_createDirectoryEntry(fs,&wtmp,&loc);
  8038b0:	e17fee04 	addi	r5,fp,-72
  8038b4:	e13ffb17 	ldw	r4,-20(fp)
  8038b8:	e1bfec04 	addi	r6,fp,-80
  8038bc:	080094c0 	call	80094c <dir_createDirectoryEntry>
					memCpy(&wtmp,&(file->DirEntry),sizeof(wtmp));
  8038c0:	e17ffa17 	ldw	r5,-24(fp)
  8038c4:	e13fee04 	addi	r4,fp,-72
  8038c8:	01800804 	movi	r6,32
  8038cc:	08084c40 	call	8084c4 <memCpy>
					file_initFile(file,fs,&loc);
  8038d0:	e13ffa17 	ldw	r4,-24(fp)
  8038d4:	e17ffb17 	ldw	r5,-20(fp)
  8038d8:	e1bfec04 	addi	r6,fp,-80
  8038dc:	0803ab40 	call	803ab4 <file_initFile>
					sec=fs_getNextFreeCluster(file->fs,fs_giveFreeClusterHint(file->fs));
  8038e0:	e0bffa17 	ldw	r2,-24(fp)
  8038e4:	14000a17 	ldw	r16,40(r2)
  8038e8:	e0bffa17 	ldw	r2,-24(fp)
  8038ec:	11000a17 	ldw	r4,40(r2)
  8038f0:	0804a100 	call	804a10 <fs_giveFreeClusterHint>
  8038f4:	100b883a 	mov	r5,r2
  8038f8:	8009883a 	mov	r4,r16
  8038fc:	08049900 	call	804990 <fs_getNextFreeCluster>
  803900:	e0bff915 	stw	r2,-28(fp)
					dir_setFirstCluster(file->fs,&(file->Location),sec);
  803904:	e0bffa17 	ldw	r2,-24(fp)
  803908:	11000a17 	ldw	r4,40(r2)
  80390c:	e0bffa17 	ldw	r2,-24(fp)
  803910:	11400804 	addi	r5,r2,32
  803914:	e1bff917 	ldw	r6,-28(fp)
  803918:	0800a800 	call	800a80 <dir_setFirstCluster>
	                fs_setFirstClusterInDirEntry(&(file->DirEntry),sec);
  80391c:	e13ffa17 	ldw	r4,-24(fp)
  803920:	e17ff917 	ldw	r5,-28(fp)
  803924:	0804f200 	call	804f20 <fs_setFirstClusterInDirEntry>
    	            fs_initClusterChain(fs,&(file->Cache),sec);
  803928:	e0bffa17 	ldw	r2,-24(fp)
  80392c:	11400b04 	addi	r5,r2,44
  803930:	e1bff917 	ldw	r6,-28(fp)
  803934:	e13ffb17 	ldw	r4,-20(fp)
  803938:	0804ec00 	call	804ec0 <fs_initClusterChain>
					fat_setNextClusterAddress(fs,sec,fat_giveEocMarker(fs));
  80393c:	e43ff917 	ldw	r16,-28(fp)
  803940:	e13ffb17 	ldw	r4,-20(fp)
  803944:	08020a80 	call	8020a8 <fat_giveEocMarker>
  803948:	100d883a 	mov	r6,r2
  80394c:	e13ffb17 	ldw	r4,-20(fp)
  803950:	800b883a 	mov	r5,r16
  803954:	0801c800 	call	801c80 <fat_setNextClusterAddress>
					file_setAttr(file,FILE_STATUS_OPEN,1);
  803958:	e13ffa17 	ldw	r4,-24(fp)
  80395c:	000b883a 	mov	r5,zero
  803960:	01800044 	movi	r6,1
  803964:	0803ed00 	call	803ed0 <file_setAttr>
					file_setAttr(file,FILE_STATUS_WRITE,1);
  803968:	e13ffa17 	ldw	r4,-24(fp)
  80396c:	01400044 	movi	r5,1
  803970:	01800044 	movi	r6,1
  803974:	0803ed00 	call	803ed0 <file_setAttr>
  803978:	00000306 	br	803988 <file_fopen+0x44c>
				}
				else
				{
					return(-3);
  80397c:	00bfff44 	movi	r2,-3
  803980:	e0bffe15 	stw	r2,-8(fp)
  803984:	00000406 	br	803998 <file_fopen+0x45c>
				}
			}
			return(0);
  803988:	e03ffe15 	stw	zero,-8(fp)
  80398c:	00000206 	br	803998 <file_fopen+0x45c>
            break;
        default:
            return(-4);
  803990:	00ffff04 	movi	r3,-4
  803994:	e0fffe15 	stw	r3,-8(fp)
  803998:	e0bffe17 	ldw	r2,-8(fp)
            break;
    }
    return(-5);
}
  80399c:	e037883a 	mov	sp,fp
  8039a0:	dfc00217 	ldw	ra,8(sp)
  8039a4:	df000117 	ldw	fp,4(sp)
  8039a8:	dc000017 	ldw	r16,0(sp)
  8039ac:	dec00304 	addi	sp,sp,12
  8039b0:	f800283a 	ret

008039b4 <file_fclose>:
 * esint8 file_fclose(File *file)
 * Description: This function closes a file, by clearing the object.
 * Return value: 0 on success.
*/
esint8 file_fclose(File *file)
{
  8039b4:	defffd04 	addi	sp,sp,-12
  8039b8:	dfc00215 	stw	ra,8(sp)
  8039bc:	df000115 	stw	fp,4(sp)
  8039c0:	df000104 	addi	fp,sp,4
  8039c4:	e13fff15 	stw	r4,-4(fp)
	if(fs_hasTimeSupport()){
  8039c8:	08090400 	call	809040 <fs_hasTimeSupport>
  8039cc:	10803fcc 	andi	r2,r2,255
  8039d0:	1005003a 	cmpeq	r2,r2,zero
  8039d4:	1000191e 	bne	r2,zero,803a3c <file_fclose+0x88>
		file->DirEntry.AccessDate = time_getDate();
  8039d8:	e0bfff17 	ldw	r2,-4(fp)
  8039dc:	1000048d 	sth	zero,18(r2)
		if(file_getAttr(file,FILE_STATUS_WRITE)){
  8039e0:	e13fff17 	ldw	r4,-4(fp)
  8039e4:	01400044 	movi	r5,1
  8039e8:	0803f5c0 	call	803f5c <file_getAttr>
  8039ec:	10803fcc 	andi	r2,r2,255
  8039f0:	1005003a 	cmpeq	r2,r2,zero
  8039f4:	10000a1e 	bne	r2,zero,803a20 <file_fclose+0x6c>
			file->DirEntry.FileSize = file->FileSize;
  8039f8:	e0bfff17 	ldw	r2,-4(fp)
  8039fc:	10c01317 	ldw	r3,76(r2)
  803a00:	e0bfff17 	ldw	r2,-4(fp)
  803a04:	10c00715 	stw	r3,28(r2)
			file->DirEntry.WriteDate = file->DirEntry.AccessDate;
  803a08:	e0bfff17 	ldw	r2,-4(fp)
  803a0c:	10c0048b 	ldhu	r3,18(r2)
  803a10:	e0bfff17 	ldw	r2,-4(fp)
  803a14:	10c0060d 	sth	r3,24(r2)
			file->DirEntry.WriteTime = time_getTime();
  803a18:	e0bfff17 	ldw	r2,-4(fp)
  803a1c:	1000058d 	sth	zero,22(r2)
		}
		dir_updateDirectoryEntry(file->fs,&(file->DirEntry),&(file->Location));
  803a20:	e0bfff17 	ldw	r2,-4(fp)
  803a24:	11000a17 	ldw	r4,40(r2)
  803a28:	e17fff17 	ldw	r5,-4(fp)
  803a2c:	e0bfff17 	ldw	r2,-4(fp)
  803a30:	11800804 	addi	r6,r2,32
  803a34:	0800ba80 	call	800ba8 <dir_updateDirectoryEntry>
  803a38:	00000d06 	br	803a70 <file_fclose+0xbc>
	}else{
		if(file_getAttr(file,FILE_STATUS_WRITE)){
  803a3c:	e13fff17 	ldw	r4,-4(fp)
  803a40:	01400044 	movi	r5,1
  803a44:	0803f5c0 	call	803f5c <file_getAttr>
  803a48:	10803fcc 	andi	r2,r2,255
  803a4c:	1005003a 	cmpeq	r2,r2,zero
  803a50:	1000071e 	bne	r2,zero,803a70 <file_fclose+0xbc>
			dir_setFileSize(file->fs,&(file->Location),file->FileSize);
  803a54:	e0bfff17 	ldw	r2,-4(fp)
  803a58:	11000a17 	ldw	r4,40(r2)
  803a5c:	e0bfff17 	ldw	r2,-4(fp)
  803a60:	11400804 	addi	r5,r2,32
  803a64:	e0bfff17 	ldw	r2,-4(fp)
  803a68:	11801317 	ldw	r6,76(r2)
  803a6c:	0800b280 	call	800b28 <dir_setFileSize>
		}
	}
	
	memClr(file,sizeof(*file));
  803a70:	e13fff17 	ldw	r4,-4(fp)
  803a74:	01401404 	movi	r5,80
  803a78:	08085300 	call	808530 <memClr>
	file_setAttr(file,FILE_STATUS_OPEN,0);
  803a7c:	e13fff17 	ldw	r4,-4(fp)
  803a80:	000b883a 	mov	r5,zero
  803a84:	000d883a 	mov	r6,zero
  803a88:	0803ed00 	call	803ed0 <file_setAttr>
	file_setAttr(file,FILE_STATUS_WRITE,0);
  803a8c:	e13fff17 	ldw	r4,-4(fp)
  803a90:	01400044 	movi	r5,1
  803a94:	000d883a 	mov	r6,zero
  803a98:	0803ed00 	call	803ed0 <file_setAttr>
	return(0);
  803a9c:	0005883a 	mov	r2,zero
}
  803aa0:	e037883a 	mov	sp,fp
  803aa4:	dfc00117 	ldw	ra,4(sp)
  803aa8:	df000017 	ldw	fp,0(sp)
  803aac:	dec00204 	addi	sp,sp,8
  803ab0:	f800283a 	ret

00803ab4 <file_initFile>:
 * the fs pointer, filesize (note, that DirEntry must already be filled in)
 * and known cache parameters.
 * Return value: void
*/
void file_initFile(File *file, FileSystem *fs, FileLocation *loc)
{
  803ab4:	defffc04 	addi	sp,sp,-16
  803ab8:	df000315 	stw	fp,12(sp)
  803abc:	df000304 	addi	fp,sp,12
  803ac0:	e13ffd15 	stw	r4,-12(fp)
  803ac4:	e17ffe15 	stw	r5,-8(fp)
  803ac8:	e1bfff15 	stw	r6,-4(fp)
	file->fs=fs;
  803acc:	e0fffd17 	ldw	r3,-12(fp)
  803ad0:	e0bffe17 	ldw	r2,-8(fp)
  803ad4:	18800a15 	stw	r2,40(r3)
	file->FileSize=file->DirEntry.FileSize;
  803ad8:	e0bffd17 	ldw	r2,-12(fp)
  803adc:	10c00717 	ldw	r3,28(r2)
  803ae0:	e0bffd17 	ldw	r2,-12(fp)
  803ae4:	10c01315 	stw	r3,76(r2)
	file->FilePtr=0;
  803ae8:	e0bffd17 	ldw	r2,-12(fp)
  803aec:	10001215 	stw	zero,72(r2)
	file->Location.Sector=loc->Sector;
  803af0:	e0bfff17 	ldw	r2,-4(fp)
  803af4:	10c00017 	ldw	r3,0(r2)
  803af8:	e0bffd17 	ldw	r2,-12(fp)
  803afc:	10c00815 	stw	r3,32(r2)
	file->Location.Offset=loc->Offset;
  803b00:	e0bfff17 	ldw	r2,-4(fp)
  803b04:	10c00103 	ldbu	r3,4(r2)
  803b08:	e0bffd17 	ldw	r2,-12(fp)
  803b0c:	10c00905 	stb	r3,36(r2)
	file->Cache.Linear=0;
  803b10:	e0bffd17 	ldw	r2,-12(fp)
  803b14:	10000b05 	stb	zero,44(r2)
	file->Cache.FirstCluster=(((euint32)file->DirEntry.FirstClusterHigh)<<16)+ 
  803b18:	e0bffd17 	ldw	r2,-12(fp)
  803b1c:	1080050b 	ldhu	r2,20(r2)
  803b20:	10bfffcc 	andi	r2,r2,65535
  803b24:	1006943a 	slli	r3,r2,16
  803b28:	e0bffd17 	ldw	r2,-12(fp)
  803b2c:	1080068b 	ldhu	r2,26(r2)
  803b30:	10bfffcc 	andi	r2,r2,65535
  803b34:	1887883a 	add	r3,r3,r2
  803b38:	e0bffd17 	ldw	r2,-12(fp)
  803b3c:	10c00e15 	stw	r3,56(r2)
	                                    file->DirEntry.FirstClusterLow;
	file->Cache.LastCluster=0; 
  803b40:	e0bffd17 	ldw	r2,-12(fp)
  803b44:	10000f15 	stw	zero,60(r2)
	file->Cache.LogicCluster=0;
  803b48:	e0bffd17 	ldw	r2,-12(fp)
  803b4c:	10000c15 	stw	zero,48(r2)
	file->Cache.DiscCluster=file->Cache.FirstCluster;
  803b50:	e0bffd17 	ldw	r2,-12(fp)
  803b54:	10c00e17 	ldw	r3,56(r2)
  803b58:	e0bffd17 	ldw	r2,-12(fp)
  803b5c:	10c00d15 	stw	r3,52(r2)
}
  803b60:	e037883a 	mov	sp,fp
  803b64:	df000017 	ldw	fp,0(sp)
  803b68:	dec00104 	addi	sp,sp,4
  803b6c:	f800283a 	ret

00803b70 <file_normalToFatName>:
 * changed to capital X and only the first 11 characters are used.
 * Furthermore all letters are capitalised.
 * Return value: pointer after the filename
*/
eint8* file_normalToFatName(eint8* filename,eint8* fatfilename)
{
  803b70:	defff904 	addi	sp,sp,-28
  803b74:	dfc00615 	stw	ra,24(sp)
  803b78:	df000515 	stw	fp,20(sp)
  803b7c:	dc000415 	stw	r16,16(sp)
  803b80:	df000404 	addi	fp,sp,16
  803b84:	e13ffd15 	stw	r4,-12(fp)
  803b88:	e17ffe15 	stw	r5,-8(fp)
	euint8 c,dot=0,vc=0;
  803b8c:	e03ffc45 	stb	zero,-15(fp)
  803b90:	e03ffc05 	stb	zero,-16(fp)
	
	for(c=0;c<11;c++)fatfilename[c]=' ';
  803b94:	e03ffc85 	stb	zero,-14(fp)
  803b98:	00000906 	br	803bc0 <file_normalToFatName+0x50>
  803b9c:	e0bffc83 	ldbu	r2,-14(fp)
  803ba0:	1007883a 	mov	r3,r2
  803ba4:	e0bffe17 	ldw	r2,-8(fp)
  803ba8:	1887883a 	add	r3,r3,r2
  803bac:	00800804 	movi	r2,32
  803bb0:	18800005 	stb	r2,0(r3)
  803bb4:	e0bffc83 	ldbu	r2,-14(fp)
  803bb8:	10800044 	addi	r2,r2,1
  803bbc:	e0bffc85 	stb	r2,-14(fp)
  803bc0:	e0bffc83 	ldbu	r2,-14(fp)
  803bc4:	108002f0 	cmpltui	r2,r2,11
  803bc8:	103ff41e 	bne	r2,zero,803b9c <file_normalToFatName+0x2c>
	
	c=0;
  803bcc:	e03ffc85 	stb	zero,-14(fp)
	
	if(*filename == '.'){
  803bd0:	e0bffd17 	ldw	r2,-12(fp)
  803bd4:	10800003 	ldbu	r2,0(r2)
  803bd8:	10803fcc 	andi	r2,r2,255
  803bdc:	1080201c 	xori	r2,r2,128
  803be0:	10bfe004 	addi	r2,r2,-128
  803be4:	10800b98 	cmpnei	r2,r2,46
  803be8:	1000511e 	bne	r2,zero,803d30 <file_normalToFatName+0x1c0>
		fatfilename[0]='.';
  803bec:	e0fffe17 	ldw	r3,-8(fp)
  803bf0:	00800b84 	movi	r2,46
  803bf4:	18800005 	stb	r2,0(r3)
		vc++; 
  803bf8:	e0bffc03 	ldbu	r2,-16(fp)
  803bfc:	10800044 	addi	r2,r2,1
  803c00:	e0bffc05 	stb	r2,-16(fp)
		if(*(filename+1) == '.'){
  803c04:	e0bffd17 	ldw	r2,-12(fp)
  803c08:	10800044 	addi	r2,r2,1
  803c0c:	10800003 	ldbu	r2,0(r2)
  803c10:	10803fcc 	andi	r2,r2,255
  803c14:	1080201c 	xori	r2,r2,128
  803c18:	10bfe004 	addi	r2,r2,-128
  803c1c:	10800b98 	cmpnei	r2,r2,46
  803c20:	1000081e 	bne	r2,zero,803c44 <file_normalToFatName+0xd4>
			fatfilename[1]='.';
  803c24:	e0bffe17 	ldw	r2,-8(fp)
  803c28:	10c00044 	addi	r3,r2,1
  803c2c:	00800b84 	movi	r2,46
  803c30:	18800005 	stb	r2,0(r3)
			filename+=2;
  803c34:	e0bffd17 	ldw	r2,-12(fp)
  803c38:	10800084 	addi	r2,r2,2
  803c3c:	e0bffd15 	stw	r2,-12(fp)
  803c40:	00005006 	br	803d84 <file_normalToFatName+0x214>
		}else{
			filename++;
  803c44:	e0bffd17 	ldw	r2,-12(fp)
  803c48:	10800044 	addi	r2,r2,1
  803c4c:	e0bffd15 	stw	r2,-12(fp)
  803c50:	00004c06 	br	803d84 <file_normalToFatName+0x214>
		}
	}else{
		while(*filename != '\0' && *filename != ' ' && *filename != '/'){
			if(*filename=='.' && !dot){
  803c54:	e0bffd17 	ldw	r2,-12(fp)
  803c58:	10800003 	ldbu	r2,0(r2)
  803c5c:	10803fcc 	andi	r2,r2,255
  803c60:	1080201c 	xori	r2,r2,128
  803c64:	10bfe004 	addi	r2,r2,-128
  803c68:	10800b98 	cmpnei	r2,r2,46
  803c6c:	1000081e 	bne	r2,zero,803c90 <file_normalToFatName+0x120>
  803c70:	e0bffc43 	ldbu	r2,-15(fp)
  803c74:	1004c03a 	cmpne	r2,r2,zero
  803c78:	1000051e 	bne	r2,zero,803c90 <file_normalToFatName+0x120>
				dot=1;
  803c7c:	00800044 	movi	r2,1
  803c80:	e0bffc45 	stb	r2,-15(fp)
				c=8;
  803c84:	00800204 	movi	r2,8
  803c88:	e0bffc85 	stb	r2,-14(fp)
		}else{
			filename++;
		}
	}else{
		while(*filename != '\0' && *filename != ' ' && *filename != '/'){
			if(*filename=='.' && !dot){
  803c8c:	00002506 	br	803d24 <file_normalToFatName+0x1b4>
				dot=1;
				c=8;
			}else{
				if(dot){
  803c90:	e0bffc43 	ldbu	r2,-15(fp)
  803c94:	1005003a 	cmpeq	r2,r2,zero
  803c98:	1000101e 	bne	r2,zero,803cdc <file_normalToFatName+0x16c>
					if(c<=10){
  803c9c:	e0bffc83 	ldbu	r2,-14(fp)
  803ca0:	108002e8 	cmpgeui	r2,r2,11
  803ca4:	10001f1e 	bne	r2,zero,803d24 <file_normalToFatName+0x1b4>
						fatfilename[c]=file_validateChar(*filename);
  803ca8:	e0bffc83 	ldbu	r2,-14(fp)
  803cac:	1007883a 	mov	r3,r2
  803cb0:	e0bffe17 	ldw	r2,-8(fp)
  803cb4:	18a1883a 	add	r16,r3,r2
  803cb8:	e0bffd17 	ldw	r2,-12(fp)
  803cbc:	10800003 	ldbu	r2,0(r2)
  803cc0:	11003fcc 	andi	r4,r2,255
  803cc4:	0803de80 	call	803de8 <file_validateChar>
  803cc8:	80800005 	stb	r2,0(r16)
						c++; 
  803ccc:	e0bffc83 	ldbu	r2,-14(fp)
  803cd0:	10800044 	addi	r2,r2,1
  803cd4:	e0bffc85 	stb	r2,-14(fp)
  803cd8:	00001206 	br	803d24 <file_normalToFatName+0x1b4>
					}
				}else{
					if(c<=7){
  803cdc:	e0bffc83 	ldbu	r2,-14(fp)
  803ce0:	10800228 	cmpgeui	r2,r2,8
  803ce4:	10000f1e 	bne	r2,zero,803d24 <file_normalToFatName+0x1b4>
						fatfilename[c]=file_validateChar(*filename);
  803ce8:	e0bffc83 	ldbu	r2,-14(fp)
  803cec:	1007883a 	mov	r3,r2
  803cf0:	e0bffe17 	ldw	r2,-8(fp)
  803cf4:	18a1883a 	add	r16,r3,r2
  803cf8:	e0bffd17 	ldw	r2,-12(fp)
  803cfc:	10800003 	ldbu	r2,0(r2)
  803d00:	11003fcc 	andi	r4,r2,255
  803d04:	0803de80 	call	803de8 <file_validateChar>
  803d08:	80800005 	stb	r2,0(r16)
						c++; vc++;
  803d0c:	e0bffc83 	ldbu	r2,-14(fp)
  803d10:	10800044 	addi	r2,r2,1
  803d14:	e0bffc85 	stb	r2,-14(fp)
  803d18:	e0bffc03 	ldbu	r2,-16(fp)
  803d1c:	10800044 	addi	r2,r2,1
  803d20:	e0bffc05 	stb	r2,-16(fp)
					}
				}
			}
			filename++;
  803d24:	e0bffd17 	ldw	r2,-12(fp)
  803d28:	10800044 	addi	r2,r2,1
  803d2c:	e0bffd15 	stw	r2,-12(fp)
			filename+=2;
		}else{
			filename++;
		}
	}else{
		while(*filename != '\0' && *filename != ' ' && *filename != '/'){
  803d30:	e0bffd17 	ldw	r2,-12(fp)
  803d34:	10800003 	ldbu	r2,0(r2)
  803d38:	10803fcc 	andi	r2,r2,255
  803d3c:	1080201c 	xori	r2,r2,128
  803d40:	10bfe004 	addi	r2,r2,-128
  803d44:	1005003a 	cmpeq	r2,r2,zero
  803d48:	10000e1e 	bne	r2,zero,803d84 <file_normalToFatName+0x214>
  803d4c:	e0bffd17 	ldw	r2,-12(fp)
  803d50:	10800003 	ldbu	r2,0(r2)
  803d54:	10803fcc 	andi	r2,r2,255
  803d58:	1080201c 	xori	r2,r2,128
  803d5c:	10bfe004 	addi	r2,r2,-128
  803d60:	10800820 	cmpeqi	r2,r2,32
  803d64:	1000071e 	bne	r2,zero,803d84 <file_normalToFatName+0x214>
  803d68:	e0bffd17 	ldw	r2,-12(fp)
  803d6c:	10800003 	ldbu	r2,0(r2)
  803d70:	10803fcc 	andi	r2,r2,255
  803d74:	1080201c 	xori	r2,r2,128
  803d78:	10bfe004 	addi	r2,r2,-128
  803d7c:	10800bd8 	cmpnei	r2,r2,47
  803d80:	103fb41e 	bne	r2,zero,803c54 <file_normalToFatName+0xe4>
			}
			filename++;
		}
	}
	
	if(vc>0){
  803d84:	e0bffc03 	ldbu	r2,-16(fp)
  803d88:	1005003a 	cmpeq	r2,r2,zero
  803d8c:	10000e1e 	bne	r2,zero,803dc8 <file_normalToFatName+0x258>
		if(*filename=='\0'){
  803d90:	e0bffd17 	ldw	r2,-12(fp)
  803d94:	10800003 	ldbu	r2,0(r2)
  803d98:	10803fcc 	andi	r2,r2,255
  803d9c:	1080201c 	xori	r2,r2,128
  803da0:	10bfe004 	addi	r2,r2,-128
  803da4:	1004c03a 	cmpne	r2,r2,zero
  803da8:	1000031e 	bne	r2,zero,803db8 <file_normalToFatName+0x248>
			return(filename);
  803dac:	e0bffd17 	ldw	r2,-12(fp)
  803db0:	e0bfff15 	stw	r2,-4(fp)
  803db4:	00000506 	br	803dcc <file_normalToFatName+0x25c>
		}else{
			return(filename+1);
  803db8:	e0bffd17 	ldw	r2,-12(fp)
  803dbc:	10800044 	addi	r2,r2,1
  803dc0:	e0bfff15 	stw	r2,-4(fp)
  803dc4:	00000106 	br	803dcc <file_normalToFatName+0x25c>
		}
	}else{
		return(0);
  803dc8:	e03fff15 	stw	zero,-4(fp)
  803dcc:	e0bfff17 	ldw	r2,-4(fp)
	}
}
  803dd0:	e037883a 	mov	sp,fp
  803dd4:	dfc00217 	ldw	ra,8(sp)
  803dd8:	df000117 	ldw	fp,4(sp)
  803ddc:	dc000017 	ldw	r16,0(sp)
  803de0:	dec00304 	addi	sp,sp,12
  803de4:	f800283a 	ret

00803de8 <file_validateChar>:
 * uppercase equivalent is returned. The remaining characters are returned    *
 * as they are.      
 * Return value: The validated char
*/
euint8 file_validateChar(euint8 c)
{
  803de8:	defffd04 	addi	sp,sp,-12
  803dec:	df000215 	stw	fp,8(sp)
  803df0:	df000204 	addi	fp,sp,8
  803df4:	e13ffe05 	stb	r4,-8(fp)
    if( (c<0x20) || (c>0x20&&c<0x30&&c!='-') || (c>0x39&&c<0x41) || (c>0x5A&&c<0x61&&c!='_') ||	(c>0x7A&&c!='~') )
  803df8:	e0bffe03 	ldbu	r2,-8(fp)
  803dfc:	10800830 	cmpltui	r2,r2,32
  803e00:	10001e1e 	bne	r2,zero,803e7c <file_validateChar+0x94>
  803e04:	e0bffe03 	ldbu	r2,-8(fp)
  803e08:	10800870 	cmpltui	r2,r2,33
  803e0c:	1000061e 	bne	r2,zero,803e28 <file_validateChar+0x40>
  803e10:	e0bffe03 	ldbu	r2,-8(fp)
  803e14:	10800c28 	cmpgeui	r2,r2,48
  803e18:	1000031e 	bne	r2,zero,803e28 <file_validateChar+0x40>
  803e1c:	e0bffe03 	ldbu	r2,-8(fp)
  803e20:	10800b58 	cmpnei	r2,r2,45
  803e24:	1000151e 	bne	r2,zero,803e7c <file_validateChar+0x94>
  803e28:	e0bffe03 	ldbu	r2,-8(fp)
  803e2c:	10800eb0 	cmpltui	r2,r2,58
  803e30:	1000031e 	bne	r2,zero,803e40 <file_validateChar+0x58>
  803e34:	e0bffe03 	ldbu	r2,-8(fp)
  803e38:	10801070 	cmpltui	r2,r2,65
  803e3c:	10000f1e 	bne	r2,zero,803e7c <file_validateChar+0x94>
  803e40:	e0bffe03 	ldbu	r2,-8(fp)
  803e44:	108016f0 	cmpltui	r2,r2,91
  803e48:	1000061e 	bne	r2,zero,803e64 <file_validateChar+0x7c>
  803e4c:	e0bffe03 	ldbu	r2,-8(fp)
  803e50:	10801868 	cmpgeui	r2,r2,97
  803e54:	1000031e 	bne	r2,zero,803e64 <file_validateChar+0x7c>
  803e58:	e0bffe03 	ldbu	r2,-8(fp)
  803e5c:	108017d8 	cmpnei	r2,r2,95
  803e60:	1000061e 	bne	r2,zero,803e7c <file_validateChar+0x94>
  803e64:	e0bffe03 	ldbu	r2,-8(fp)
  803e68:	10801ef0 	cmpltui	r2,r2,123
  803e6c:	1000061e 	bne	r2,zero,803e88 <file_validateChar+0xa0>
  803e70:	e0bffe03 	ldbu	r2,-8(fp)
  803e74:	10801fa0 	cmpeqi	r2,r2,126
  803e78:	1000031e 	bne	r2,zero,803e88 <file_validateChar+0xa0>
		return(0x58);
  803e7c:	00801604 	movi	r2,88
  803e80:	e0bfff15 	stw	r2,-4(fp)
  803e84:	00000d06 	br	803ebc <file_validateChar+0xd4>
    if( c>=0x61 && c<=0x7A )
  803e88:	e0bffe03 	ldbu	r2,-8(fp)
  803e8c:	10801870 	cmpltui	r2,r2,97
  803e90:	1000081e 	bne	r2,zero,803eb4 <file_validateChar+0xcc>
  803e94:	e0bffe03 	ldbu	r2,-8(fp)
  803e98:	10801ee8 	cmpgeui	r2,r2,123
  803e9c:	1000051e 	bne	r2,zero,803eb4 <file_validateChar+0xcc>
		return(c-32);
  803ea0:	e0bffe03 	ldbu	r2,-8(fp)
  803ea4:	10bff804 	addi	r2,r2,-32
  803ea8:	10803fcc 	andi	r2,r2,255
  803eac:	e0bfff15 	stw	r2,-4(fp)
  803eb0:	00000206 	br	803ebc <file_validateChar+0xd4>

	return(c);
  803eb4:	e0bffe03 	ldbu	r2,-8(fp)
  803eb8:	e0bfff15 	stw	r2,-4(fp)
  803ebc:	e0bfff17 	ldw	r2,-4(fp)
}
  803ec0:	e037883a 	mov	sp,fp
  803ec4:	df000017 	ldw	fp,0(sp)
  803ec8:	dec00104 	addi	sp,sp,4
  803ecc:	f800283a 	ret

00803ed0 <file_setAttr>:
 * Description: This sets the attribute of 'bufplace' to the given value (binary).
 *
 * Return value: void
*/
void file_setAttr(File* file,euint8 attribute,euint8 val)
{
  803ed0:	defffc04 	addi	sp,sp,-16
  803ed4:	df000315 	stw	fp,12(sp)
  803ed8:	df000304 	addi	fp,sp,12
  803edc:	e13ffd15 	stw	r4,-12(fp)
  803ee0:	e17ffe05 	stb	r5,-8(fp)
  803ee4:	e1bfff05 	stb	r6,-4(fp)
	if(val){
  803ee8:	e0bfff03 	ldbu	r2,-4(fp)
  803eec:	1005003a 	cmpeq	r2,r2,zero
  803ef0:	10000b1e 	bne	r2,zero,803f20 <file_setAttr+0x50>
		file->FileStatus|=1<<attribute;
  803ef4:	e0bffd17 	ldw	r2,-12(fp)
  803ef8:	10801103 	ldbu	r2,68(r2)
  803efc:	1009883a 	mov	r4,r2
  803f00:	e0fffe03 	ldbu	r3,-8(fp)
  803f04:	00800044 	movi	r2,1
  803f08:	10c4983a 	sll	r2,r2,r3
  803f0c:	2084b03a 	or	r2,r4,r2
  803f10:	1007883a 	mov	r3,r2
  803f14:	e0bffd17 	ldw	r2,-12(fp)
  803f18:	10c01105 	stb	r3,68(r2)
