Archive member included because of file (symbol)

/OPT/altera/12.1/nios2eds/bin/gnu/H-i686-pc-linux-gnu/bin/../lib/gcc/nios2-elf/4.1.2/mno-hw-mul/libgcc.a(lib2-divmod.o)
                              obj/default/efsl/fs.o (__divsi3)
/OPT/altera/12.1/nios2eds/bin/gnu/H-i686-pc-linux-gnu/bin/../lib/gcc/nios2-elf/4.1.2/mno-hw-mul/libgcc.a(lib2-mul.o)
                              obj/default/efsl/file.o (__mulsi3)
/OPT/altera/12.1/nios2eds/bin/gnu/H-i686-pc-linux-gnu/bin/../lib/gcc/nios2-elf/4.1.2/../../../../nios2-elf/lib/mno-hw-mul/libc.a(lib_a-malloc.o)
                              obj/default/sdCardREAD.o (free)
/OPT/altera/12.1/nios2eds/bin/gnu/H-i686-pc-linux-gnu/bin/../lib/gcc/nios2-elf/4.1.2/../../../../nios2-elf/lib/mno-hw-mul/libc.a(lib_a-mallocr.o)
                              /OPT/altera/12.1/nios2eds/bin/gnu/H-i686-pc-linux-gnu/bin/../lib/gcc/nios2-elf/4.1.2/../../../../nios2-elf/lib/mno-hw-mul/libc.a(lib_a-malloc.o) (_malloc_r)
/OPT/altera/12.1/nios2eds/bin/gnu/H-i686-pc-linux-gnu/bin/../lib/gcc/nios2-elf/4.1.2/../../../../nios2-elf/lib/mno-hw-mul/libc.a(lib_a-memcpy.o)
                              obj/default/efsl/nios2_ramdisk.o (memcpy)
/OPT/altera/12.1/nios2eds/bin/gnu/H-i686-pc-linux-gnu/bin/../lib/gcc/nios2-elf/4.1.2/../../../../nios2-elf/lib/mno-hw-mul/libc.a(lib_a-printf.o)
                              obj/default/efsl/ioman.o (printf)
/OPT/altera/12.1/nios2eds/bin/gnu/H-i686-pc-linux-gnu/bin/../lib/gcc/nios2-elf/4.1.2/../../../../nios2-elf/lib/mno-hw-mul/libc.a(lib_a-putchar.o)
                              obj/default/efsl/sd.o (putchar)
/OPT/altera/12.1/nios2eds/bin/gnu/H-i686-pc-linux-gnu/bin/../lib/gcc/nios2-elf/4.1.2/../../../../nios2-elf/lib/mno-hw-mul/libc.a(lib_a-puts.o)
                              obj/default/efsl/fat.o (puts)
/OPT/altera/12.1/nios2eds/bin/gnu/H-i686-pc-linux-gnu/bin/../lib/gcc/nios2-elf/4.1.2/../../../../nios2-elf/lib/mno-hw-mul/libc.a(lib_a-sbrkr.o)
                              /OPT/altera/12.1/nios2eds/bin/gnu/H-i686-pc-linux-gnu/bin/../lib/gcc/nios2-elf/4.1.2/../../../../nios2-elf/lib/mno-hw-mul/libc.a(lib_a-mallocr.o) (_sbrk_r)
/OPT/altera/12.1/nios2eds/bin/gnu/H-i686-pc-linux-gnu/bin/../lib/gcc/nios2-elf/4.1.2/../../../../nios2-elf/lib/mno-hw-mul/libc.a(lib_a-strlen.o)
                              /OPT/altera/12.1/nios2eds/bin/gnu/H-i686-pc-linux-gnu/bin/../lib/gcc/nios2-elf/4.1.2/../../../../nios2-elf/lib/mno-hw-mul/libc.a(lib_a-puts.o) (strlen)
/OPT/altera/12.1/nios2eds/bin/gnu/H-i686-pc-linux-gnu/bin/../lib/gcc/nios2-elf/4.1.2/../../../../nios2-elf/lib/mno-hw-mul/libc.a(lib_a-vfprintf.o)
                              /OPT/altera/12.1/nios2eds/bin/gnu/H-i686-pc-linux-gnu/bin/../lib/gcc/nios2-elf/4.1.2/../../../../nios2-elf/lib/mno-hw-mul/libc.a(lib_a-printf.o) (___vfprintf_internal_r)
/OPT/altera/12.1/nios2eds/bin/gnu/H-i686-pc-linux-gnu/bin/../lib/gcc/nios2-elf/4.1.2/../../../../nios2-elf/lib/mno-hw-mul/libc.a(lib_a-wsetup.o)
                              /OPT/altera/12.1/nios2eds/bin/gnu/H-i686-pc-linux-gnu/bin/../lib/gcc/nios2-elf/4.1.2/../../../../nios2-elf/lib/mno-hw-mul/libc.a(lib_a-vfprintf.o) (__swsetup_r)
/OPT/altera/12.1/nios2eds/bin/gnu/H-i686-pc-linux-gnu/bin/../lib/gcc/nios2-elf/4.1.2/../../../../nios2-elf/lib/mno-hw-mul/libc.a(lib_a-dtoa.o)
                              /OPT/altera/12.1/nios2eds/bin/gnu/H-i686-pc-linux-gnu/bin/../lib/gcc/nios2-elf/4.1.2/../../../../nios2-elf/lib/mno-hw-mul/libc.a(lib_a-vfprintf.o) (_dtoa_r)
/OPT/altera/12.1/nios2eds/bin/gnu/H-i686-pc-linux-gnu/bin/../lib/gcc/nios2-elf/4.1.2/../../../../nios2-elf/lib/mno-hw-mul/libc.a(lib_a-fflush.o)
                              /OPT/altera/12.1/nios2eds/bin/gnu/H-i686-pc-linux-gnu/bin/../lib/gcc/nios2-elf/4.1.2/../../../../nios2-elf/lib/mno-hw-mul/libc.a(lib_a-vfprintf.o) (_fflush_r)
/OPT/altera/12.1/nios2eds/bin/gnu/H-i686-pc-linux-gnu/bin/../lib/gcc/nios2-elf/4.1.2/../../../../nios2-elf/lib/mno-hw-mul/libc.a(lib_a-findfp.o)
                              /OPT/altera/12.1/nios2eds/bin/gnu/H-i686-pc-linux-gnu/bin/../lib/gcc/nios2-elf/4.1.2/../../../../nios2-elf/lib/mno-hw-mul/libc.a(lib_a-vfprintf.o) (__sinit)
/OPT/altera/12.1/nios2eds/bin/gnu/H-i686-pc-linux-gnu/bin/../lib/gcc/nios2-elf/4.1.2/../../../../nios2-elf/lib/mno-hw-mul/libc.a(lib_a-freer.o)
                              /OPT/altera/12.1/nios2eds/bin/gnu/H-i686-pc-linux-gnu/bin/../lib/gcc/nios2-elf/4.1.2/../../../../nios2-elf/lib/mno-hw-mul/libc.a(lib_a-malloc.o) (_free_r)
/OPT/altera/12.1/nios2eds/bin/gnu/H-i686-pc-linux-gnu/bin/../lib/gcc/nios2-elf/4.1.2/../../../../nios2-elf/lib/mno-hw-mul/libc.a(lib_a-fvwrite.o)
                              /OPT/altera/12.1/nios2eds/bin/gnu/H-i686-pc-linux-gnu/bin/../lib/gcc/nios2-elf/4.1.2/../../../../nios2-elf/lib/mno-hw-mul/libc.a(lib_a-puts.o) (__sfvwrite_r)
/OPT/altera/12.1/nios2eds/bin/gnu/H-i686-pc-linux-gnu/bin/../lib/gcc/nios2-elf/4.1.2/../../../../nios2-elf/lib/mno-hw-mul/libc.a(lib_a-fwalk.o)
                              /OPT/altera/12.1/nios2eds/bin/gnu/H-i686-pc-linux-gnu/bin/../lib/gcc/nios2-elf/4.1.2/../../../../nios2-elf/lib/mno-hw-mul/libc.a(lib_a-fflush.o) (_fwalk_reent)
/OPT/altera/12.1/nios2eds/bin/gnu/H-i686-pc-linux-gnu/bin/../lib/gcc/nios2-elf/4.1.2/../../../../nios2-elf/lib/mno-hw-mul/libc.a(lib_a-impure.o)
                              /OPT/altera/12.1/nios2eds/bin/gnu/H-i686-pc-linux-gnu/bin/../lib/gcc/nios2-elf/4.1.2/../../../../nios2-elf/lib/mno-hw-mul/libc.a(lib_a-malloc.o) (_impure_ptr)
/OPT/altera/12.1/nios2eds/bin/gnu/H-i686-pc-linux-gnu/bin/../lib/gcc/nios2-elf/4.1.2/../../../../nios2-elf/lib/mno-hw-mul/libc.a(lib_a-int_errno.o)
                              /OPT/altera/12.1/nios2eds/bin/gnu/H-i686-pc-linux-gnu/bin/../lib/gcc/nios2-elf/4.1.2/../../../../nios2-elf/lib/mno-hw-mul/libc.a(lib_a-sbrkr.o) (errno)
/OPT/altera/12.1/nios2eds/bin/gnu/H-i686-pc-linux-gnu/bin/../lib/gcc/nios2-elf/4.1.2/../../../../nios2-elf/lib/mno-hw-mul/libc.a(lib_a-locale.o)
                              /OPT/altera/12.1/nios2eds/bin/gnu/H-i686-pc-linux-gnu/bin/../lib/gcc/nios2-elf/4.1.2/../../../../nios2-elf/lib/mno-hw-mul/libc.a(lib_a-vfprintf.o) (_localeconv_r)
/OPT/altera/12.1/nios2eds/bin/gnu/H-i686-pc-linux-gnu/bin/../lib/gcc/nios2-elf/4.1.2/../../../../nios2-elf/lib/mno-hw-mul/libc.a(lib_a-makebuf.o)
                              /OPT/altera/12.1/nios2eds/bin/gnu/H-i686-pc-linux-gnu/bin/../lib/gcc/nios2-elf/4.1.2/../../../../nios2-elf/lib/mno-hw-mul/libc.a(lib_a-wsetup.o) (__smakebuf_r)
/OPT/altera/12.1/nios2eds/bin/gnu/H-i686-pc-linux-gnu/bin/../lib/gcc/nios2-elf/4.1.2/../../../../nios2-elf/lib/mno-hw-mul/libc.a(lib_a-memchr.o)
                              /OPT/altera/12.1/nios2eds/bin/gnu/H-i686-pc-linux-gnu/bin/../lib/gcc/nios2-elf/4.1.2/../../../../nios2-elf/lib/mno-hw-mul/libc.a(lib_a-vfprintf.o) (memchr)
/OPT/altera/12.1/nios2eds/bin/gnu/H-i686-pc-linux-gnu/bin/../lib/gcc/nios2-elf/4.1.2/../../../../nios2-elf/lib/mno-hw-mul/libc.a(lib_a-memmove.o)
                              /OPT/altera/12.1/nios2eds/bin/gnu/H-i686-pc-linux-gnu/bin/../lib/gcc/nios2-elf/4.1.2/../../../../nios2-elf/lib/mno-hw-mul/libc.a(lib_a-fvwrite.o) (memmove)
/OPT/altera/12.1/nios2eds/bin/gnu/H-i686-pc-linux-gnu/bin/../lib/gcc/nios2-elf/4.1.2/../../../../nios2-elf/lib/mno-hw-mul/libc.a(lib_a-memset.o)
                              /OPT/altera/12.1/nios2eds/bin/gnu/H-i686-pc-linux-gnu/bin/../lib/gcc/nios2-elf/4.1.2/../../../../nios2-elf/lib/mno-hw-mul/libc.a(lib_a-findfp.o) (memset)
/OPT/altera/12.1/nios2eds/bin/gnu/H-i686-pc-linux-gnu/bin/../lib/gcc/nios2-elf/4.1.2/../../../../nios2-elf/lib/mno-hw-mul/libc.a(lib_a-mprec.o)
                              /OPT/altera/12.1/nios2eds/bin/gnu/H-i686-pc-linux-gnu/bin/../lib/gcc/nios2-elf/4.1.2/../../../../nios2-elf/lib/mno-hw-mul/libc.a(lib_a-dtoa.o) (_Bfree)
/OPT/altera/12.1/nios2eds/bin/gnu/H-i686-pc-linux-gnu/bin/../lib/gcc/nios2-elf/4.1.2/../../../../nios2-elf/lib/mno-hw-mul/libc.a(lib_a-putc.o)
                              /OPT/altera/12.1/nios2eds/bin/gnu/H-i686-pc-linux-gnu/bin/../lib/gcc/nios2-elf/4.1.2/../../../../nios2-elf/lib/mno-hw-mul/libc.a(lib_a-putchar.o) (_putc_r)
/OPT/altera/12.1/nios2eds/bin/gnu/H-i686-pc-linux-gnu/bin/../lib/gcc/nios2-elf/4.1.2/../../../../nios2-elf/lib/mno-hw-mul/libc.a(lib_a-reallocr.o)
                              /OPT/altera/12.1/nios2eds/bin/gnu/H-i686-pc-linux-gnu/bin/../lib/gcc/nios2-elf/4.1.2/../../../../nios2-elf/lib/mno-hw-mul/libc.a(lib_a-fvwrite.o) (_realloc_r)
/OPT/altera/12.1/nios2eds/bin/gnu/H-i686-pc-linux-gnu/bin/../lib/gcc/nios2-elf/4.1.2/../../../../nios2-elf/lib/mno-hw-mul/libc.a(lib_a-s_isinfd.o)
                              /OPT/altera/12.1/nios2eds/bin/gnu/H-i686-pc-linux-gnu/bin/../lib/gcc/nios2-elf/4.1.2/../../../../nios2-elf/lib/mno-hw-mul/libc.a(lib_a-vfprintf.o) (__isinfd)
/OPT/altera/12.1/nios2eds/bin/gnu/H-i686-pc-linux-gnu/bin/../lib/gcc/nios2-elf/4.1.2/../../../../nios2-elf/lib/mno-hw-mul/libc.a(lib_a-s_isnand.o)
                              /OPT/altera/12.1/nios2eds/bin/gnu/H-i686-pc-linux-gnu/bin/../lib/gcc/nios2-elf/4.1.2/../../../../nios2-elf/lib/mno-hw-mul/libc.a(lib_a-vfprintf.o) (__isnand)
/OPT/altera/12.1/nios2eds/bin/gnu/H-i686-pc-linux-gnu/bin/../lib/gcc/nios2-elf/4.1.2/../../../../nios2-elf/lib/mno-hw-mul/libc.a(lib_a-stdio.o)
                              /OPT/altera/12.1/nios2eds/bin/gnu/H-i686-pc-linux-gnu/bin/../lib/gcc/nios2-elf/4.1.2/../../../../nios2-elf/lib/mno-hw-mul/libc.a(lib_a-findfp.o) (__sclose)
/OPT/altera/12.1/nios2eds/bin/gnu/H-i686-pc-linux-gnu/bin/../lib/gcc/nios2-elf/4.1.2/../../../../nios2-elf/lib/mno-hw-mul/libc.a(lib_a-strcmp.o)
                              /OPT/altera/12.1/nios2eds/bin/gnu/H-i686-pc-linux-gnu/bin/../lib/gcc/nios2-elf/4.1.2/../../../../nios2-elf/lib/mno-hw-mul/libc.a(lib_a-locale.o) (strcmp)
/OPT/altera/12.1/nios2eds/bin/gnu/H-i686-pc-linux-gnu/bin/../lib/gcc/nios2-elf/4.1.2/../../../../nios2-elf/lib/mno-hw-mul/libc.a(lib_a-wbuf.o)
                              /OPT/altera/12.1/nios2eds/bin/gnu/H-i686-pc-linux-gnu/bin/../lib/gcc/nios2-elf/4.1.2/../../../../nios2-elf/lib/mno-hw-mul/libc.a(lib_a-putc.o) (__swbuf_r)
/OPT/altera/12.1/nios2eds/bin/gnu/H-i686-pc-linux-gnu/bin/../lib/gcc/nios2-elf/4.1.2/../../../../nios2-elf/lib/mno-hw-mul/libc.a(lib_a-writer.o)
                              /OPT/altera/12.1/nios2eds/bin/gnu/H-i686-pc-linux-gnu/bin/../lib/gcc/nios2-elf/4.1.2/../../../../nios2-elf/lib/mno-hw-mul/libc.a(lib_a-stdio.o) (_write_r)
/OPT/altera/12.1/nios2eds/bin/gnu/H-i686-pc-linux-gnu/bin/../lib/gcc/nios2-elf/4.1.2/../../../../nios2-elf/lib/mno-hw-mul/libc.a(lib_a-callocr.o)
                              /OPT/altera/12.1/nios2eds/bin/gnu/H-i686-pc-linux-gnu/bin/../lib/gcc/nios2-elf/4.1.2/../../../../nios2-elf/lib/mno-hw-mul/libc.a(lib_a-mprec.o) (_calloc_r)
/OPT/altera/12.1/nios2eds/bin/gnu/H-i686-pc-linux-gnu/bin/../lib/gcc/nios2-elf/4.1.2/../../../../nios2-elf/lib/mno-hw-mul/libc.a(lib_a-closer.o)
                              /OPT/altera/12.1/nios2eds/bin/gnu/H-i686-pc-linux-gnu/bin/../lib/gcc/nios2-elf/4.1.2/../../../../nios2-elf/lib/mno-hw-mul/libc.a(lib_a-stdio.o) (_close_r)
/OPT/altera/12.1/nios2eds/bin/gnu/H-i686-pc-linux-gnu/bin/../lib/gcc/nios2-elf/4.1.2/../../../../nios2-elf/lib/mno-hw-mul/libc.a(lib_a-fclose.o)
                              /OPT/altera/12.1/nios2eds/bin/gnu/H-i686-pc-linux-gnu/bin/../lib/gcc/nios2-elf/4.1.2/../../../../nios2-elf/lib/mno-hw-mul/libc.a(lib_a-findfp.o) (fclose)
/OPT/altera/12.1/nios2eds/bin/gnu/H-i686-pc-linux-gnu/bin/../lib/gcc/nios2-elf/4.1.2/../../../../nios2-elf/lib/mno-hw-mul/libc.a(lib_a-fstatr.o)
                              /OPT/altera/12.1/nios2eds/bin/gnu/H-i686-pc-linux-gnu/bin/../lib/gcc/nios2-elf/4.1.2/../../../../nios2-elf/lib/mno-hw-mul/libc.a(lib_a-makebuf.o) (_fstat_r)
/OPT/altera/12.1/nios2eds/bin/gnu/H-i686-pc-linux-gnu/bin/../lib/gcc/nios2-elf/4.1.2/../../../../nios2-elf/lib/mno-hw-mul/libc.a(lib_a-isattyr.o)
                              /OPT/altera/12.1/nios2eds/bin/gnu/H-i686-pc-linux-gnu/bin/../lib/gcc/nios2-elf/4.1.2/../../../../nios2-elf/lib/mno-hw-mul/libc.a(lib_a-makebuf.o) (_isatty_r)
/OPT/altera/12.1/nios2eds/bin/gnu/H-i686-pc-linux-gnu/bin/../lib/gcc/nios2-elf/4.1.2/../../../../nios2-elf/lib/mno-hw-mul/libc.a(lib_a-lseekr.o)
                              /OPT/altera/12.1/nios2eds/bin/gnu/H-i686-pc-linux-gnu/bin/../lib/gcc/nios2-elf/4.1.2/../../../../nios2-elf/lib/mno-hw-mul/libc.a(lib_a-stdio.o) (_lseek_r)
/OPT/altera/12.1/nios2eds/bin/gnu/H-i686-pc-linux-gnu/bin/../lib/gcc/nios2-elf/4.1.2/../../../../nios2-elf/lib/mno-hw-mul/libc.a(lib_a-readr.o)
                              /OPT/altera/12.1/nios2eds/bin/gnu/H-i686-pc-linux-gnu/bin/../lib/gcc/nios2-elf/4.1.2/../../../../nios2-elf/lib/mno-hw-mul/libc.a(lib_a-stdio.o) (_read_r)
/OPT/altera/12.1/nios2eds/bin/gnu/H-i686-pc-linux-gnu/bin/../lib/gcc/nios2-elf/4.1.2/mno-hw-mul/libgcc.a(_udivdi3.o)
                              /OPT/altera/12.1/nios2eds/bin/gnu/H-i686-pc-linux-gnu/bin/../lib/gcc/nios2-elf/4.1.2/../../../../nios2-elf/lib/mno-hw-mul/libc.a(lib_a-vfprintf.o) (__udivdi3)
/OPT/altera/12.1/nios2eds/bin/gnu/H-i686-pc-linux-gnu/bin/../lib/gcc/nios2-elf/4.1.2/mno-hw-mul/libgcc.a(_umoddi3.o)
                              /OPT/altera/12.1/nios2eds/bin/gnu/H-i686-pc-linux-gnu/bin/../lib/gcc/nios2-elf/4.1.2/../../../../nios2-elf/lib/mno-hw-mul/libc.a(lib_a-vfprintf.o) (__umoddi3)
/OPT/altera/12.1/nios2eds/bin/gnu/H-i686-pc-linux-gnu/bin/../lib/gcc/nios2-elf/4.1.2/mno-hw-mul/libgcc.a(_addsub_df.o)
                              /OPT/altera/12.1/nios2eds/bin/gnu/H-i686-pc-linux-gnu/bin/../lib/gcc/nios2-elf/4.1.2/../../../../nios2-elf/lib/mno-hw-mul/libc.a(lib_a-dtoa.o) (__subdf3)
/OPT/altera/12.1/nios2eds/bin/gnu/H-i686-pc-linux-gnu/bin/../lib/gcc/nios2-elf/4.1.2/mno-hw-mul/libgcc.a(_mul_df.o)
                              /OPT/altera/12.1/nios2eds/bin/gnu/H-i686-pc-linux-gnu/bin/../lib/gcc/nios2-elf/4.1.2/../../../../nios2-elf/lib/mno-hw-mul/libc.a(lib_a-dtoa.o) (__muldf3)
/OPT/altera/12.1/nios2eds/bin/gnu/H-i686-pc-linux-gnu/bin/../lib/gcc/nios2-elf/4.1.2/mno-hw-mul/libgcc.a(_div_df.o)
                              /OPT/altera/12.1/nios2eds/bin/gnu/H-i686-pc-linux-gnu/bin/../lib/gcc/nios2-elf/4.1.2/../../../../nios2-elf/lib/mno-hw-mul/libc.a(lib_a-dtoa.o) (__divdf3)
/OPT/altera/12.1/nios2eds/bin/gnu/H-i686-pc-linux-gnu/bin/../lib/gcc/nios2-elf/4.1.2/mno-hw-mul/libgcc.a(_eq_df.o)
                              /OPT/altera/12.1/nios2eds/bin/gnu/H-i686-pc-linux-gnu/bin/../lib/gcc/nios2-elf/4.1.2/../../../../nios2-elf/lib/mno-hw-mul/libc.a(lib_a-vfprintf.o) (__eqdf2)
/OPT/altera/12.1/nios2eds/bin/gnu/H-i686-pc-linux-gnu/bin/../lib/gcc/nios2-elf/4.1.2/mno-hw-mul/libgcc.a(_ne_df.o)
                              /OPT/altera/12.1/nios2eds/bin/gnu/H-i686-pc-linux-gnu/bin/../lib/gcc/nios2-elf/4.1.2/../../../../nios2-elf/lib/mno-hw-mul/libc.a(lib_a-vfprintf.o) (__nedf2)
/OPT/altera/12.1/nios2eds/bin/gnu/H-i686-pc-linux-gnu/bin/../lib/gcc/nios2-elf/4.1.2/mno-hw-mul/libgcc.a(_gt_df.o)
                              /OPT/altera/12.1/nios2eds/bin/gnu/H-i686-pc-linux-gnu/bin/../lib/gcc/nios2-elf/4.1.2/../../../../nios2-elf/lib/mno-hw-mul/libc.a(lib_a-dtoa.o) (__gtdf2)
/OPT/altera/12.1/nios2eds/bin/gnu/H-i686-pc-linux-gnu/bin/../lib/gcc/nios2-elf/4.1.2/mno-hw-mul/libgcc.a(_ge_df.o)
                              /OPT/altera/12.1/nios2eds/bin/gnu/H-i686-pc-linux-gnu/bin/../lib/gcc/nios2-elf/4.1.2/../../../../nios2-elf/lib/mno-hw-mul/libc.a(lib_a-dtoa.o) (__gedf2)
/OPT/altera/12.1/nios2eds/bin/gnu/H-i686-pc-linux-gnu/bin/../lib/gcc/nios2-elf/4.1.2/mno-hw-mul/libgcc.a(_lt_df.o)
                              /OPT/altera/12.1/nios2eds/bin/gnu/H-i686-pc-linux-gnu/bin/../lib/gcc/nios2-elf/4.1.2/../../../../nios2-elf/lib/mno-hw-mul/libc.a(lib_a-vfprintf.o) (__ltdf2)
/OPT/altera/12.1/nios2eds/bin/gnu/H-i686-pc-linux-gnu/bin/../lib/gcc/nios2-elf/4.1.2/mno-hw-mul/libgcc.a(_si_to_df.o)
                              /OPT/altera/12.1/nios2eds/bin/gnu/H-i686-pc-linux-gnu/bin/../lib/gcc/nios2-elf/4.1.2/../../../../nios2-elf/lib/mno-hw-mul/libc.a(lib_a-dtoa.o) (__floatsidf)
/OPT/altera/12.1/nios2eds/bin/gnu/H-i686-pc-linux-gnu/bin/../lib/gcc/nios2-elf/4.1.2/mno-hw-mul/libgcc.a(_df_to_si.o)
                              /OPT/altera/12.1/nios2eds/bin/gnu/H-i686-pc-linux-gnu/bin/../lib/gcc/nios2-elf/4.1.2/../../../../nios2-elf/lib/mno-hw-mul/libc.a(lib_a-dtoa.o) (__fixdfsi)
/OPT/altera/12.1/nios2eds/bin/gnu/H-i686-pc-linux-gnu/bin/../lib/gcc/nios2-elf/4.1.2/mno-hw-mul/libgcc.a(_thenan_df.o)
                              /OPT/altera/12.1/nios2eds/bin/gnu/H-i686-pc-linux-gnu/bin/../lib/gcc/nios2-elf/4.1.2/mno-hw-mul/libgcc.a(_addsub_df.o) (__thenan_df)
/OPT/altera/12.1/nios2eds/bin/gnu/H-i686-pc-linux-gnu/bin/../lib/gcc/nios2-elf/4.1.2/mno-hw-mul/libgcc.a(_usi_to_df.o)
                              /OPT/altera/12.1/nios2eds/bin/gnu/H-i686-pc-linux-gnu/bin/../lib/gcc/nios2-elf/4.1.2/../../../../nios2-elf/lib/mno-hw-mul/libc.a(lib_a-dtoa.o) (__floatunsidf)
/OPT/altera/12.1/nios2eds/bin/gnu/H-i686-pc-linux-gnu/bin/../lib/gcc/nios2-elf/4.1.2/mno-hw-mul/libgcc.a(_muldi3.o)
                              /OPT/altera/12.1/nios2eds/bin/gnu/H-i686-pc-linux-gnu/bin/../lib/gcc/nios2-elf/4.1.2/mno-hw-mul/libgcc.a(_mul_df.o) (__muldi3)
/OPT/altera/12.1/nios2eds/bin/gnu/H-i686-pc-linux-gnu/bin/../lib/gcc/nios2-elf/4.1.2/mno-hw-mul/libgcc.a(_clz.o)
                              /OPT/altera/12.1/nios2eds/bin/gnu/H-i686-pc-linux-gnu/bin/../lib/gcc/nios2-elf/4.1.2/mno-hw-mul/libgcc.a(_udivdi3.o) (__clz_tab)
/OPT/altera/12.1/nios2eds/bin/gnu/H-i686-pc-linux-gnu/bin/../lib/gcc/nios2-elf/4.1.2/mno-hw-mul/libgcc.a(_clzsi2.o)
                              /OPT/altera/12.1/nios2eds/bin/gnu/H-i686-pc-linux-gnu/bin/../lib/gcc/nios2-elf/4.1.2/mno-hw-mul/libgcc.a(_si_to_df.o) (__clzsi2)
/OPT/altera/12.1/nios2eds/bin/gnu/H-i686-pc-linux-gnu/bin/../lib/gcc/nios2-elf/4.1.2/mno-hw-mul/libgcc.a(_pack_df.o)
                              /OPT/altera/12.1/nios2eds/bin/gnu/H-i686-pc-linux-gnu/bin/../lib/gcc/nios2-elf/4.1.2/mno-hw-mul/libgcc.a(_addsub_df.o) (__pack_d)
/OPT/altera/12.1/nios2eds/bin/gnu/H-i686-pc-linux-gnu/bin/../lib/gcc/nios2-elf/4.1.2/mno-hw-mul/libgcc.a(_unpack_df.o)
                              /OPT/altera/12.1/nios2eds/bin/gnu/H-i686-pc-linux-gnu/bin/../lib/gcc/nios2-elf/4.1.2/mno-hw-mul/libgcc.a(_addsub_df.o) (__unpack_d)
/OPT/altera/12.1/nios2eds/bin/gnu/H-i686-pc-linux-gnu/bin/../lib/gcc/nios2-elf/4.1.2/mno-hw-mul/libgcc.a(_fpcmp_parts_df.o)
                              /OPT/altera/12.1/nios2eds/bin/gnu/H-i686-pc-linux-gnu/bin/../lib/gcc/nios2-elf/4.1.2/mno-hw-mul/libgcc.a(_eq_df.o) (__fpcmp_parts_d)
../sdcard_bsp//libucosii_bsp.a(alt_close.o)
                              /OPT/altera/12.1/nios2eds/bin/gnu/H-i686-pc-linux-gnu/bin/../lib/gcc/nios2-elf/4.1.2/../../../../nios2-elf/lib/mno-hw-mul/libc.a(lib_a-closer.o) (close)
../sdcard_bsp//libucosii_bsp.a(alt_dev.o)
                              ../sdcard_bsp//libucosii_bsp.a(alt_close.o) (alt_fd_list)
../sdcard_bsp//libucosii_bsp.a(alt_errno.o)
                              ../sdcard_bsp//libucosii_bsp.a(alt_close.o) (alt_errno)
../sdcard_bsp//libucosii_bsp.a(alt_fstat.o)
                              /OPT/altera/12.1/nios2eds/bin/gnu/H-i686-pc-linux-gnu/bin/../lib/gcc/nios2-elf/4.1.2/../../../../nios2-elf/lib/mno-hw-mul/libc.a(lib_a-fstatr.o) (fstat)
../sdcard_bsp//libucosii_bsp.a(alt_isatty.o)
                              /OPT/altera/12.1/nios2eds/bin/gnu/H-i686-pc-linux-gnu/bin/../lib/gcc/nios2-elf/4.1.2/../../../../nios2-elf/lib/mno-hw-mul/libc.a(lib_a-isattyr.o) (isatty)
../sdcard_bsp//libucosii_bsp.a(alt_load.o)
                              ../sdcard_bsp//obj/HAL/src/crt0.o (alt_load)
../sdcard_bsp//libucosii_bsp.a(alt_lseek.o)
                              /OPT/altera/12.1/nios2eds/bin/gnu/H-i686-pc-linux-gnu/bin/../lib/gcc/nios2-elf/4.1.2/../../../../nios2-elf/lib/mno-hw-mul/libc.a(lib_a-lseekr.o) (lseek)
../sdcard_bsp//libucosii_bsp.a(alt_main.o)
                              ../sdcard_bsp//obj/HAL/src/crt0.o (alt_main)
../sdcard_bsp//libucosii_bsp.a(alt_read.o)
                              /OPT/altera/12.1/nios2eds/bin/gnu/H-i686-pc-linux-gnu/bin/../lib/gcc/nios2-elf/4.1.2/../../../../nios2-elf/lib/mno-hw-mul/libc.a(lib_a-readr.o) (read)
../sdcard_bsp//libucosii_bsp.a(alt_release_fd.o)
                              ../sdcard_bsp//libucosii_bsp.a(alt_close.o) (alt_release_fd)
../sdcard_bsp//libucosii_bsp.a(alt_sbrk.o)
                              /OPT/altera/12.1/nios2eds/bin/gnu/H-i686-pc-linux-gnu/bin/../lib/gcc/nios2-elf/4.1.2/../../../../nios2-elf/lib/mno-hw-mul/libc.a(lib_a-sbrkr.o) (sbrk)
../sdcard_bsp//libucosii_bsp.a(alt_write.o)
                              /OPT/altera/12.1/nios2eds/bin/gnu/H-i686-pc-linux-gnu/bin/../lib/gcc/nios2-elf/4.1.2/../../../../nios2-elf/lib/mno-hw-mul/libc.a(lib_a-writer.o) (write)
../sdcard_bsp//libucosii_bsp.a(alt_env_lock.o)
                              ../sdcard_bsp//libucosii_bsp.a(alt_main.o) (alt_envsem)
../sdcard_bsp//libucosii_bsp.a(alt_malloc_lock.o)
                              /OPT/altera/12.1/nios2eds/bin/gnu/H-i686-pc-linux-gnu/bin/../lib/gcc/nios2-elf/4.1.2/../../../../nios2-elf/lib/mno-hw-mul/libc.a(lib_a-mallocr.o) (__malloc_lock)
../sdcard_bsp//libucosii_bsp.a(os_core.o)
                              ../sdcard_bsp//libucosii_bsp.a(alt_main.o) (OSInit)
../sdcard_bsp//libucosii_bsp.a(os_dbg.o)
                              ../sdcard_bsp//libucosii_bsp.a(os_core.o) (OSDebugInit)
../sdcard_bsp//libucosii_bsp.a(os_flag.o)
                              ../sdcard_bsp//libucosii_bsp.a(os_core.o) (OS_FlagInit)
../sdcard_bsp//libucosii_bsp.a(os_mem.o)
                              ../sdcard_bsp//libucosii_bsp.a(os_core.o) (OS_MemInit)
../sdcard_bsp//libucosii_bsp.a(os_q.o)
                              ../sdcard_bsp//libucosii_bsp.a(os_core.o) (OS_QInit)
../sdcard_bsp//libucosii_bsp.a(os_sem.o)
                              ../sdcard_bsp//libucosii_bsp.a(alt_main.o) (OSSemCreate)
../sdcard_bsp//libucosii_bsp.a(os_task.o)
                              ../sdcard_bsp//libucosii_bsp.a(os_core.o) (OSTaskCreateExt)
../sdcard_bsp//libucosii_bsp.a(os_time.o)
                              ../sdcard_bsp//libucosii_bsp.a(os_core.o) (OSTimeDly)
../sdcard_bsp//libucosii_bsp.a(alt_sys_init.o)
                              ../sdcard_bsp//libucosii_bsp.a(alt_main.o) (alt_irq_init)
../sdcard_bsp//libucosii_bsp.a(altera_avalon_jtag_uart_fd.o)
                              ../sdcard_bsp//libucosii_bsp.a(alt_sys_init.o) (altera_avalon_jtag_uart_read_fd)
../sdcard_bsp//libucosii_bsp.a(altera_avalon_jtag_uart_init.o)
                              ../sdcard_bsp//libucosii_bsp.a(alt_sys_init.o) (altera_avalon_jtag_uart_init)
../sdcard_bsp//libucosii_bsp.a(altera_avalon_jtag_uart_ioctl.o)
                              ../sdcard_bsp//libucosii_bsp.a(altera_avalon_jtag_uart_fd.o) (altera_avalon_jtag_uart_ioctl)
../sdcard_bsp//libucosii_bsp.a(altera_avalon_jtag_uart_read.o)
                              ../sdcard_bsp//libucosii_bsp.a(altera_avalon_jtag_uart_fd.o) (altera_avalon_jtag_uart_read)
../sdcard_bsp//libucosii_bsp.a(altera_avalon_jtag_uart_write.o)
                              ../sdcard_bsp//libucosii_bsp.a(altera_avalon_jtag_uart_fd.o) (altera_avalon_jtag_uart_write)
../sdcard_bsp//libucosii_bsp.a(altera_avalon_timer_sc.o)
                              ../sdcard_bsp//libucosii_bsp.a(alt_sys_init.o) (alt_avalon_timer_sc_init)
../sdcard_bsp//libucosii_bsp.a(altera_up_avalon_character_lcd.o)
                              ../sdcard_bsp//libucosii_bsp.a(alt_sys_init.o) (alt_up_character_lcd_init)
../sdcard_bsp//libucosii_bsp.a(alt_alarm_start.o)
                              ../sdcard_bsp//libucosii_bsp.a(altera_avalon_jtag_uart_init.o) (alt_alarm_start)
../sdcard_bsp//libucosii_bsp.a(alt_dcache_flush_all.o)
                              ../sdcard_bsp//libucosii_bsp.a(alt_load.o) (alt_dcache_flush_all)
../sdcard_bsp//libucosii_bsp.a(alt_dev_llist_insert.o)
                              ../sdcard_bsp//libucosii_bsp.a(alt_sys_init.o) (alt_dev_llist_insert)
../sdcard_bsp//libucosii_bsp.a(alt_do_ctors.o)
                              ../sdcard_bsp//libucosii_bsp.a(alt_main.o) (_do_ctors)
../sdcard_bsp//libucosii_bsp.a(alt_do_dtors.o)
                              ../sdcard_bsp//libucosii_bsp.a(alt_main.o) (_do_dtors)
../sdcard_bsp//libucosii_bsp.a(alt_find_dev.o)
                              ../sdcard_bsp//libucosii_bsp.a(altera_up_avalon_character_lcd.o) (alt_find_dev)
../sdcard_bsp//libucosii_bsp.a(alt_icache_flush_all.o)
                              ../sdcard_bsp//libucosii_bsp.a(alt_load.o) (alt_icache_flush_all)
../sdcard_bsp//libucosii_bsp.a(alt_io_redirect.o)
                              ../sdcard_bsp//libucosii_bsp.a(alt_main.o) (alt_io_redirect)
../sdcard_bsp//libucosii_bsp.a(alt_irq_register.o)
                              ../sdcard_bsp//libucosii_bsp.a(altera_avalon_jtag_uart_init.o) (alt_irq_register)
../sdcard_bsp//libucosii_bsp.a(alt_irq_vars.o)
                              ../sdcard_bsp//libucosii_bsp.a(alt_irq_register.o) (alt_irq_active)
../sdcard_bsp//libucosii_bsp.a(alt_open.o)
                              ../sdcard_bsp//libucosii_bsp.a(alt_io_redirect.o) (open)
../sdcard_bsp//libucosii_bsp.a(alt_tick.o)
                              ../sdcard_bsp//libucosii_bsp.a(altera_avalon_jtag_uart_init.o) (_alt_tick_rate)
../sdcard_bsp//libucosii_bsp.a(altera_nios2_qsys_irq.o)
                              ../sdcard_bsp//libucosii_bsp.a(alt_sys_init.o) (altera_nios2_qsys_irq_init)
../sdcard_bsp//libucosii_bsp.a(os_cpu_a.o)
                              ../sdcard_bsp//libucosii_bsp.a(os_core.o) (OSIntCtxSw)
../sdcard_bsp//libucosii_bsp.a(os_cpu_c.o)
                              ../sdcard_bsp//libucosii_bsp.a(os_task.o) (OSTaskStkInit)
../sdcard_bsp//libucosii_bsp.a(alt_find_file.o)
                              ../sdcard_bsp//libucosii_bsp.a(alt_open.o) (alt_find_file)
../sdcard_bsp//libucosii_bsp.a(alt_get_fd.o)
                              ../sdcard_bsp//libucosii_bsp.a(alt_open.o) (alt_get_fd)
../sdcard_bsp//libucosii_bsp.a(alt_irq_entry.o)
                              ../sdcard_bsp//libucosii_bsp.a(alt_irq_register.o) (alt_irq_entry)
../sdcard_bsp//libucosii_bsp.a(alt_irq_handler.o)
                              ../sdcard_bsp//libucosii_bsp.a(alt_irq_register.o) (alt_irq_handler)
../sdcard_bsp//libucosii_bsp.a(alt_exception_entry.o)
                              ../sdcard_bsp//libucosii_bsp.a(alt_irq_entry.o) (alt_exception)
/OPT/altera/12.1/nios2eds/bin/gnu/H-i686-pc-linux-gnu/bin/../lib/gcc/nios2-elf/4.1.2/../../../../nios2-elf/lib/mno-hw-mul/libc.a(lib_a-atexit.o)
                              ../sdcard_bsp//libucosii_bsp.a(alt_main.o) (atexit)
/OPT/altera/12.1/nios2eds/bin/gnu/H-i686-pc-linux-gnu/bin/../lib/gcc/nios2-elf/4.1.2/../../../../nios2-elf/lib/mno-hw-mul/libc.a(lib_a-exit.o)
                              ../sdcard_bsp//libucosii_bsp.a(alt_main.o) (exit)
/OPT/altera/12.1/nios2eds/bin/gnu/H-i686-pc-linux-gnu/bin/../lib/gcc/nios2-elf/4.1.2/../../../../nios2-elf/lib/mno-hw-mul/libc.a(lib_a-memcmp.o)
                              ../sdcard_bsp//libucosii_bsp.a(alt_find_dev.o) (memcmp)
/OPT/altera/12.1/nios2eds/bin/gnu/H-i686-pc-linux-gnu/bin/../lib/gcc/nios2-elf/4.1.2/../../../../nios2-elf/lib/mno-hw-mul/libc.a(lib_a-__atexit.o)
                              /OPT/altera/12.1/nios2eds/bin/gnu/H-i686-pc-linux-gnu/bin/../lib/gcc/nios2-elf/4.1.2/../../../../nios2-elf/lib/mno-hw-mul/libc.a(lib_a-atexit.o) (__register_exitproc)
/OPT/altera/12.1/nios2eds/bin/gnu/H-i686-pc-linux-gnu/bin/../lib/gcc/nios2-elf/4.1.2/../../../../nios2-elf/lib/mno-hw-mul/libc.a(lib_a-__call_atexit.o)
                              /OPT/altera/12.1/nios2eds/bin/gnu/H-i686-pc-linux-gnu/bin/../lib/gcc/nios2-elf/4.1.2/../../../../nios2-elf/lib/mno-hw-mul/libc.a(lib_a-exit.o) (__call_exitprocs)
../sdcard_bsp//libucosii_bsp.a(alt_exit.o)
                              /OPT/altera/12.1/nios2eds/bin/gnu/H-i686-pc-linux-gnu/bin/../lib/gcc/nios2-elf/4.1.2/../../../../nios2-elf/lib/mno-hw-mul/libc.a(lib_a-exit.o) (_exit)

Allocating common symbols
Common symbol       size              file

alt_irq             0x100             ../sdcard_bsp//libucosii_bsp.a(alt_irq_handler.o)
OSLockNesting       0x1               ../sdcard_bsp//libucosii_bsp.a(os_core.o)
OSRunning           0x1               ../sdcard_bsp//libucosii_bsp.a(os_core.o)
OSIdleCtr           0x4               ../sdcard_bsp//libucosii_bsp.a(os_core.o)
OSPrioHighRdy       0x1               ../sdcard_bsp//libucosii_bsp.a(os_core.o)
errno               0x4               /OPT/altera/12.1/nios2eds/bin/gnu/H-i686-pc-linux-gnu/bin/../lib/gcc/nios2-elf/4.1.2/../../../../nios2-elf/lib/mno-hw-mul/libc.a(lib_a-int_errno.o)
alt_heapsem         0x4               ../sdcard_bsp//libucosii_bsp.a(alt_malloc_lock.o)
OSFlagTbl           0x370             ../sdcard_bsp//libucosii_bsp.a(os_core.o)
OSPrioCur           0x1               ../sdcard_bsp//libucosii_bsp.a(os_core.o)
OSTCBList           0x4               ../sdcard_bsp//libucosii_bsp.a(os_core.o)
alt_fd_list_lock    0x4               ../sdcard_bsp//libucosii_bsp.a(alt_dev.o)
OSMemTbl            0xc30             ../sdcard_bsp//libucosii_bsp.a(os_core.o)
OSTickStepState     0x1               ../sdcard_bsp//libucosii_bsp.a(os_core.o)
OSTaskStatStk       0x800             ../sdcard_bsp//libucosii_bsp.a(os_core.o)
OSCtxSwCtr          0x4               ../sdcard_bsp//libucosii_bsp.a(os_core.o)
OSIdleCtrMax        0x4               ../sdcard_bsp//libucosii_bsp.a(os_core.o)
OSTCBFreeList       0x4               ../sdcard_bsp//libucosii_bsp.a(os_core.o)
OSCPUUsage          0x1               ../sdcard_bsp//libucosii_bsp.a(os_core.o)
OSTaskCtr           0x1               ../sdcard_bsp//libucosii_bsp.a(os_core.o)
OSMemFreeList       0x4               ../sdcard_bsp//libucosii_bsp.a(os_core.o)
OSQTbl              0x1e0             ../sdcard_bsp//libucosii_bsp.a(os_core.o)
OSTCBHighRdy        0x4               ../sdcard_bsp//libucosii_bsp.a(os_core.o)
OSQFreeList         0x4               ../sdcard_bsp//libucosii_bsp.a(os_core.o)
OSRdyGrp            0x1               ../sdcard_bsp//libucosii_bsp.a(os_core.o)
_atexit0            0x190             /OPT/altera/12.1/nios2eds/bin/gnu/H-i686-pc-linux-gnu/bin/../lib/gcc/nios2-elf/4.1.2/../../../../nios2-elf/lib/mno-hw-mul/libc.a(lib_a-atexit.o)
OSRdyTbl            0x3               ../sdcard_bsp//libucosii_bsp.a(os_core.o)
OSEventFreeList     0x4               ../sdcard_bsp//libucosii_bsp.a(os_core.o)
OSIntNesting        0x1               ../sdcard_bsp//libucosii_bsp.a(os_core.o)
OSTCBCur            0x4               ../sdcard_bsp//libucosii_bsp.a(os_core.o)
OSTime              0x4               ../sdcard_bsp//libucosii_bsp.a(os_core.o)
OSTaskIdleStk       0x800             ../sdcard_bsp//libucosii_bsp.a(os_core.o)
OSEventTbl          0xb40             ../sdcard_bsp//libucosii_bsp.a(os_core.o)
OSTCBTbl            0x510             ../sdcard_bsp//libucosii_bsp.a(os_core.o)
OSFlagFreeList      0x4               ../sdcard_bsp//libucosii_bsp.a(os_core.o)
OSStatRdy           0x1               ../sdcard_bsp//libucosii_bsp.a(os_core.o)
OSTCBPrioTbl        0x54              ../sdcard_bsp//libucosii_bsp.a(os_core.o)
alt_envsem          0x4               ../sdcard_bsp//libucosii_bsp.a(alt_env_lock.o)
OSIdleCtrRun        0x4               ../sdcard_bsp//libucosii_bsp.a(os_core.o)

Memory Configuration

Name             Origin             Length             Attributes
sdram_0          0x00800000         0x00800000
sram_0           0x01080000         0x00080000
reset            0x01104000         0x00000020
onchip_memory2_0 0x01104020         0x00003fe0
*default*        0x00000000         0xffffffff

Linker script and memory map

LOAD ../sdcard_bsp//obj/HAL/src/crt0.o
LOAD obj/default/efsl/debug.o
LOAD obj/default/efsl/dir.o
LOAD obj/default/efsl/disc.o
LOAD obj/default/efsl/efs.o
LOAD obj/default/efsl/extract.o
LOAD obj/default/efsl/fat.o
LOAD obj/default/efsl/file.o
LOAD obj/default/efsl/fs.o
LOAD obj/default/efsl/ioman.o
LOAD obj/default/efsl/ls.o
LOAD obj/default/efsl/mkfs.o
LOAD obj/default/efsl/nios2.o
LOAD obj/default/efsl/nios2_ramdisk.o
LOAD obj/default/efsl/partition.o
LOAD obj/default/efsl/plibc.o
LOAD obj/default/efsl/sd.o
LOAD obj/default/efsl/time.o
LOAD obj/default/efsl/ui.o
LOAD obj/default/sdCardREAD.o
LOAD /OPT/altera/12.1/nios2eds/bin/gnu/H-i686-pc-linux-gnu/bin/../lib/gcc/nios2-elf/4.1.2/../../../../nios2-elf/lib/mno-hw-mul/libstdc++.a
LOAD /OPT/altera/12.1/nios2eds/bin/gnu/H-i686-pc-linux-gnu/bin/../lib/gcc/nios2-elf/4.1.2/../../../../nios2-elf/lib/mno-hw-mul/libm.a
LOAD /OPT/altera/12.1/nios2eds/bin/gnu/H-i686-pc-linux-gnu/bin/../lib/gcc/nios2-elf/4.1.2/mno-hw-mul/libgcc.a
START GROUP
LOAD /OPT/altera/12.1/nios2eds/bin/gnu/H-i686-pc-linux-gnu/bin/../lib/gcc/nios2-elf/4.1.2/../../../../nios2-elf/lib/mno-hw-mul/libc.a
LOAD /OPT/altera/12.1/nios2eds/bin/gnu/H-i686-pc-linux-gnu/bin/../lib/gcc/nios2-elf/4.1.2/mno-hw-mul/libgcc.a
LOAD ../sdcard_bsp//libucosii_bsp.a
END GROUP
LOAD /OPT/altera/12.1/nios2eds/bin/gnu/H-i686-pc-linux-gnu/bin/../lib/gcc/nios2-elf/4.1.2/mno-hw-mul/libgcc.a
                0x00800000                __alt_mem_sdram_0 = 0x800000
                0x01080000                __alt_mem_sram_0 = 0x1080000
                0x01104000                __alt_mem_onchip_memory2_0 = 0x1104000

.entry          0x01104000       0x20
 *(.entry)
 .entry         0x01104000       0x20 ../sdcard_bsp//obj/HAL/src/crt0.o
                0x01104000                __reset

.exceptions     0x01104020      0x1a0 load address 0x00800000
                0x01104020                PROVIDE (__ram_exceptions_start, ABSOLUTE (.))
                0x01104020                . = ALIGN (0x20)
 *(.irq)
 *(.exceptions.entry.label)
 .exceptions.entry.label
                0x01104020        0x0 ../sdcard_bsp//libucosii_bsp.a(alt_irq_entry.o)
                0x01104020                alt_irq_entry
 .exceptions.entry.label
                0x01104020        0x0 ../sdcard_bsp//libucosii_bsp.a(alt_exception_entry.o)
                0x01104020                alt_exception
 *(.exceptions.entry.user)
 *(.exceptions.entry)
 .exceptions.entry
                0x01104020       0x54 ../sdcard_bsp//libucosii_bsp.a(alt_exception_entry.o)
 *(.exceptions.irqtest.user)
 *(.exceptions.irqtest)
 .exceptions.irqtest
                0x01104074       0x10 ../sdcard_bsp//libucosii_bsp.a(alt_irq_entry.o)
 *(.exceptions.irqhandler.user)
 *(.exceptions.irqhandler)
 .exceptions.irqhandler
                0x01104084        0x4 ../sdcard_bsp//libucosii_bsp.a(alt_irq_entry.o)
 *(.exceptions.irqreturn.user)
 *(.exceptions.irqreturn)
 .exceptions.irqreturn
                0x01104088        0x4 ../sdcard_bsp//libucosii_bsp.a(alt_irq_entry.o)
 *(.exceptions.notirq.label)
 .exceptions.notirq.label
                0x0110408c        0x0 ../sdcard_bsp//libucosii_bsp.a(alt_irq_entry.o)
 *(.exceptions.notirq.user)
 *(.exceptions.notirq)
 .exceptions.notirq
                0x0110408c        0x8 ../sdcard_bsp//libucosii_bsp.a(alt_exception_entry.o)
 *(.exceptions.soft.user)
 *(.exceptions.soft)
 *(.exceptions.unknown.user)
 *(.exceptions.unknown)
 .exceptions.unknown
                0x01104094        0x4 ../sdcard_bsp//libucosii_bsp.a(alt_exception_entry.o)
 *(.exceptions.exit.label)
 .exceptions.exit.label
                0x01104098        0x0 ../sdcard_bsp//libucosii_bsp.a(alt_irq_entry.o)
 .exceptions.exit.label
                0x01104098        0x0 ../sdcard_bsp//libucosii_bsp.a(alt_exception_entry.o)
 *(.exceptions.exit.user)
 *(.exceptions.exit)
 .exceptions.exit
                0x01104098       0x54 ../sdcard_bsp//libucosii_bsp.a(alt_exception_entry.o)
 *(.exceptions)
 .exceptions    0x011040ec       0xd4 ../sdcard_bsp//libucosii_bsp.a(alt_irq_handler.o)
                0x011040ec                alt_irq_handler
                0x011041c0                PROVIDE (__ram_exceptions_end, ABSOLUTE (.))
                0x00800000                PROVIDE (__flash_exceptions_start, LOADADDR (.exceptions))

.text           0x008001a0    0x1eb4c
                0x008001a0                PROVIDE (stext, ABSOLUTE (.))
 *(.interp)
 *(.hash)
 *(.dynsym)
 *(.dynstr)
 *(.gnu.version)
 *(.gnu.version_d)
 *(.gnu.version_r)
 *(.rel.init)
 *(.rela.init)
 *(.rel.text .rel.text.* .rel.gnu.linkonce.t.*)
 *(.rela.text .rela.text.* .rela.gnu.linkonce.t.*)
 *(.rel.fini)
 *(.rela.fini)
 *(.rel.rodata .rel.rodata.* .rel.gnu.linkonce.r.*)
 *(.rela.rodata .rela.rodata.* .rela.gnu.linkonce.r.*)
 *(.rel.data .rel.data.* .rel.gnu.linkonce.d.*)
 *(.rela.data .rela.data.* .rela.gnu.linkonce.d.*)
 *(.rel.tdata .rel.tdata.* .rel.gnu.linkonce.td.*)
 *(.rela.tdata .rela.tdata.* .rela.gnu.linkonce.td.*)
 *(.rel.tbss .rel.tbss.* .rel.gnu.linkonce.tb.*)
 *(.rela.tbss .rela.tbss.* .rela.gnu.linkonce.tb.*)
 *(.rel.ctors)
 *(.rela.ctors)
 *(.rel.dtors)
 *(.rela.dtors)
 *(.rel.got)
 *(.rela.got)
 *(.rel.sdata .rel.sdata.* .rel.gnu.linkonce.s.*)
 *(.rela.sdata .rela.sdata.* .rela.gnu.linkonce.s.*)
 *(.rel.sbss .rel.sbss.* .rel.gnu.linkonce.sb.*)
 *(.rela.sbss .rela.sbss.* .rela.gnu.linkonce.sb.*)
 *(.rel.sdata2 .rel.sdata2.* .rel.gnu.linkonce.s2.*)
 *(.rela.sdata2 .rela.sdata2.* .rela.gnu.linkonce.s2.*)
 *(.rel.sbss2 .rel.sbss2.* .rel.gnu.linkonce.sb2.*)
 *(.rela.sbss2 .rela.sbss2.* .rela.gnu.linkonce.sb2.*)
 *(.rel.bss .rel.bss.* .rel.gnu.linkonce.b.*)
 *(.rela.bss .rela.bss.* .rela.gnu.linkonce.b.*)
 *(.rel.plt)
 *(.rela.plt)
 *(.rel.dyn)
 *(.init)
 *(.plt)
 *(.text .stub .text.* .gnu.linkonce.t.*)
 .text          0x008001a0       0x3c ../sdcard_bsp//obj/HAL/src/crt0.o
                0x008001a0                _start
 .text          0x008001dc        0x0 obj/default/efsl/debug.o
 .text          0x008001dc      0xb40 obj/default/efsl/dir.o
                0x008001dc                dir_getFileStructure
                0x00800298                dir_createDirectoryEntry
                0x0080031c                dir_createDefaultEntry
                0x008003cc                dir_setFirstCluster
                0x00800474                dir_setFileSize
                0x008004f4                dir_updateDirectoryEntry
                0x0080057c                dir_findFileinBuf
                0x008006d4                dir_findFreeEntryinBuf
                0x008007cc                dir_findinBuf
                0x00800858                dir_findinCluster
                0x0080097c                dir_findinDir
                0x00800a74                dir_findinRootArea
                0x00800bb8                dir_getFatFileName
                0x00800c8c                dir_addCluster
 .text          0x00800d1c       0xe4 obj/default/efsl/disc.o
                0x00800d1c                disc_initDisc
                0x00800d64                disc_loadMBR
 .text          0x00800e00      0x128 obj/default/efsl/efs.o
                0x00800e00                efs_init
 .text          0x00800f28      0x354 obj/default/efsl/extract.o
                0x00800f28                ex_getb16
                0x00800f88                ex_getb32
                0x00801020                ex_setb16
                0x00801078                ex_setb32
                0x00801108                ex_getPartitionField
                0x00801254                ex_setPartitionField
 .text          0x0080127c     0x1504 obj/default/efsl/fat.o
                0x0080127c                fat_getSectorAddressFatEntry
                0x008013a4                fat_getNextClusterAddress
                0x008015cc                fat_setNextClusterAddress
                0x00801940                fat_isEocMarker
                0x008019f4                fat_giveEocMarker
                0x00801a7c                fat_getNextClusterAddressWBuf
                0x00801c44                fat_setNextClusterAddressWBuf
                0x00801f28                fat_getNextClusterChain
                0x008020d8                fat_LogicToDiscCluster
                0x00802208                fat_allocClusterChain
                0x008024d4                fat_unlinkClusterChain
                0x008025ac                fat_countClustersInChain
                0x00802650                fat_DiscToLogicCluster
                0x00802700                fat_countFreeClusters
 .text          0x00802780     0x12bc obj/default/efsl/file.o
                0x00802780                file_fread
                0x00802a18                file_read
                0x00802a80                file_write
                0x00802ae8                file_setpos
                0x00802b3c                file_fwrite
                0x00802e88                file_fopen
                0x00803300                file_fclose
                0x00803400                file_initFile
                0x008034bc                file_normalToFatName
                0x00803734                file_validateChar
                0x0080381c                file_setAttr
                0x008038a8                file_getAttr
                0x008038ec                file_requiredCluster
 .text          0x00803a3c     0x11bc obj/default/efsl/fs.o
                0x00803a3c                fs_initFs
                0x00803af8                fs_isValidFat
                0x00803b6c                fs_loadVolumeId
                0x00803ca8                fs_verifySanity
                0x00803e44                fs_countDataSectors
                0x00803fac                fs_determineFatType
                0x00804028                fs_findFirstSectorRootDir
                0x00804104                fs_initCurrentDir
                0x00804140                fs_clusterToSector
                0x00804220                fs_sectorToCluster
                0x0080431c                fs_getNextFreeCluster
                0x0080439c                fs_giveFreeClusterHint
                0x008043c0                fs_findFile
                0x00804600                fs_findFreeFile
                0x00804720                fs_getLastCluster
                0x008047f8                fs_getFirstClusterRootDir
                0x0080484c                fs_initClusterChain
                0x008048ac                fs_setFirstClusterInDirEntry
                0x008048f4                fs_flushFs
                0x00804940                fs_umount
                0x0080497c                fs_clearCluster
                0x00804a2c                fs_getFsInfo
                0x00804b28                fs_setFsInfo
 .text          0x00804bf8     0x1dfc obj/default/efsl/ioman.o
                0x00804bf8                ioman_init
                0x00804c70                ioman_reset
                0x00804de0                ioman_getBuffer
                0x00804e0c                ioman_setAttr
                0x00804ef0                ioman_getAttr
                0x00804f78                ioman_getUseCnt
                0x00804fe4                ioman_incUseCnt
                0x00805078                ioman_decUseCnt
                0x0080510c                ioman_resetUseCnt
                0x00805168                ioman_getRefCnt
                0x008051d4                ioman_incRefCnt
                0x00805268                ioman_decRefCnt
                0x008052fc                ioman_resetRefCnt
                0x00805358                ioman_pop
                0x0080552c                ioman_push
                0x008056ec                ioman_getPtr
                0x00805754                ioman_getBp
                0x0080580c                ioman_readSector
                0x00805898                ioman_writeSector
                0x00805924                ioman_resetCacheItem
                0x008059c4                ioman_findSectorInCache
                0x00805a70                ioman_findFreeSpot
                0x00805af4                ioman_findUnusedSpot
                0x00805c64                ioman_findOverallocableSpot
                0x00805db8                ioman_putSectorInCache
                0x00805e94                ioman_flushSector
                0x00805fa8                ioman_flushRange
                0x008060fc                ioman_flushAll
                0x008061d0                ioman_getSector
                0x008064dc                ioman_releaseSector
                0x008065bc                ioman_directSectorRead
                0x008066e4                ioman_directSectorWrite
                0x00806850                ioman_printStatus
 .text          0x008069f4      0x588 obj/default/efsl/ls.o
                0x008069f4                ls_openDir
                0x00806aac                ls_getDirEntry
                0x00806b38                ls_getNext
                0x00806be0                ls_getRealDirEntry
                0x00806d38                ls_getRootAreaEntry
                0x00806e48                ls_isValidFileEntry
                0x00806ed8                ls_fileEntryToDirListEntry
 .text          0x00806f7c      0x3e4 obj/default/efsl/mkfs.o
                0x00806f7c                mkfs_makevfat
 .text          0x00807360      0x4c0 obj/default/efsl/nios2.o
                0x00807360                if_initInterface
                0x00807440                if_readBuf
                0x00807490                if_writeBuf
                0x008074dc                if_setPos
                0x00807504                if_spiInit
                0x00807548                if_spiSend
                0x00807668                if_spi_sendbuf
                0x00807738                if_spi_readbuf
 .text          0x00807820      0x134 obj/default/efsl/nios2_ramdisk.o
                0x0080792c                ramdisk_init
 .text          0x00807954      0x46c obj/default/efsl/partition.o
                0x00807954                part_initPartition
                0x00807a04                part_isFatPart
                0x00807a80                part_readBuf
                0x00807af0                part_writeBuf
                0x00807b60                part_getRealLBA
                0x00807bb8                part_getSect
                0x00807c18                part_relSect
                0x00807c64                part_flushPart
                0x00807ce8                part_directSectorRead
                0x00807d54                part_directSectorWrite
 .text          0x00807dc0      0x1b4 obj/default/efsl/plibc.o
                0x00807dc0                strMatch
                0x00807e58                memCpy
                0x00807ec4                memClr
                0x00807f18                memSet
 .text          0x00807f74      0xa28 obj/default/efsl/sd.o
                0x00807f74                sd_Init
                0x008080b4                sd_Command
                0x00808168                sd_Resp8b
                0x008081e4                sd_Resp16b
                0x0080824c                sd_Resp8bError
                0x00808424                sd_State
                0x008085e0                sd_writeSector
                0x008086b4                sd_readSector
                0x008087b8                sd_getDriveSize
 .text          0x0080899c       0x60 obj/default/efsl/time.o
                0x0080899c                fs_makeDate
                0x008089bc                fs_makeTime
                0x008089dc                fs_hasTimeSupport
 .text          0x008089fc      0x708 obj/default/efsl/ui.o
                0x008089fc                listFiles
                0x00808cfc                rmfile
                0x00808e3c                makedir
 .text          0x00809104      0x1a8 obj/default/sdCardREAD.o
                0x00809104                main
 .text          0x008092ac      0x14c /OPT/altera/12.1/nios2eds/bin/gnu/H-i686-pc-linux-gnu/bin/../lib/gcc/nios2-elf/4.1.2/mno-hw-mul/libgcc.a(lib2-divmod.o)
                0x00809328                __divsi3
                0x00809388                __modsi3
                0x008093e8                __udivsi3
                0x008093f0                __umodsi3
 .text          0x008093f8       0x38 /OPT/altera/12.1/nios2eds/bin/gnu/H-i686-pc-linux-gnu/bin/../lib/gcc/nios2-elf/4.1.2/mno-hw-mul/libgcc.a(lib2-mul.o)
                0x008093f8                __mulsi3
 .text          0x00809430       0x28 /OPT/altera/12.1/nios2eds/bin/gnu/H-i686-pc-linux-gnu/bin/../lib/gcc/nios2-elf/4.1.2/../../../../nios2-elf/lib/mno-hw-mul/libc.a(lib_a-malloc.o)
                0x00809430                free
                0x00809444                malloc
 .text          0x00809458      0x740 /OPT/altera/12.1/nios2eds/bin/gnu/H-i686-pc-linux-gnu/bin/../lib/gcc/nios2-elf/4.1.2/../../../../nios2-elf/lib/mno-hw-mul/libc.a(lib_a-mallocr.o)
                0x00809458                _malloc_r
 .text          0x00809b98       0xa0 /OPT/altera/12.1/nios2eds/bin/gnu/H-i686-pc-linux-gnu/bin/../lib/gcc/nios2-elf/4.1.2/../../../../nios2-elf/lib/mno-hw-mul/libc.a(lib_a-memcpy.o)
                0x00809b98                memcpy
 .text          0x00809c38       0x78 /OPT/altera/12.1/nios2eds/bin/gnu/H-i686-pc-linux-gnu/bin/../lib/gcc/nios2-elf/4.1.2/../../../../nios2-elf/lib/mno-hw-mul/libc.a(lib_a-printf.o)
                0x00809c38                printf
                0x00809c7c                _printf_r
 .text          0x00809cb0       0x24 /OPT/altera/12.1/nios2eds/bin/gnu/H-i686-pc-linux-gnu/bin/../lib/gcc/nios2-elf/4.1.2/../../../../nios2-elf/lib/mno-hw-mul/libc.a(lib_a-putchar.o)
                0x00809cb0                putchar
                0x00809ccc                _putchar_r
 .text          0x00809cd4       0xb4 /OPT/altera/12.1/nios2eds/bin/gnu/H-i686-pc-linux-gnu/bin/../lib/gcc/nios2-elf/4.1.2/../../../../nios2-elf/lib/mno-hw-mul/libc.a(lib_a-puts.o)
                0x00809cd4                _puts_r
                0x00809d74                puts
 .text          0x00809d88       0x70 /OPT/altera/12.1/nios2eds/bin/gnu/H-i686-pc-linux-gnu/bin/../lib/gcc/nios2-elf/4.1.2/../../../../nios2-elf/lib/mno-hw-mul/libc.a(lib_a-sbrkr.o)
                0x00809d88                _sbrk_r
 .text          0x00809df8       0x74 /OPT/altera/12.1/nios2eds/bin/gnu/H-i686-pc-linux-gnu/bin/../lib/gcc/nios2-elf/4.1.2/../../../../nios2-elf/lib/mno-hw-mul/libc.a(lib_a-strlen.o)
                0x00809df8                strlen
 .text          0x00809e6c     0x1f40 /OPT/altera/12.1/nios2eds/bin/gnu/H-i686-pc-linux-gnu/bin/../lib/gcc/nios2-elf/4.1.2/../../../../nios2-elf/lib/mno-hw-mul/libc.a(lib_a-vfprintf.o)
                0x00809ec4                ___vfprintf_internal_r
                0x0080bd88                __vfprintf_internal
 .text          0x0080bdac      0x13c /OPT/altera/12.1/nios2eds/bin/gnu/H-i686-pc-linux-gnu/bin/../lib/gcc/nios2-elf/4.1.2/../../../../nios2-elf/lib/mno-hw-mul/libc.a(lib_a-wsetup.o)
                0x0080bdac                __swsetup_r
 .text          0x0080bee8     0x17f8 /OPT/altera/12.1/nios2eds/bin/gnu/H-i686-pc-linux-gnu/bin/../lib/gcc/nios2-elf/4.1.2/../../../../nios2-elf/lib/mno-hw-mul/libc.a(lib_a-dtoa.o)
                0x0080c12c                _dtoa_r
 .text          0x0080d6e0      0x230 /OPT/altera/12.1/nios2eds/bin/gnu/H-i686-pc-linux-gnu/bin/../lib/gcc/nios2-elf/4.1.2/../../../../nios2-elf/lib/mno-hw-mul/libc.a(lib_a-fflush.o)
                0x0080d6e0                _fflush_r
                0x0080d8dc                fflush
 .text          0x0080d910      0x2f4 /OPT/altera/12.1/nios2eds/bin/gnu/H-i686-pc-linux-gnu/bin/../lib/gcc/nios2-elf/4.1.2/../../../../nios2-elf/lib/mno-hw-mul/libc.a(lib_a-findfp.o)
                0x0080d968                __sfp_lock_acquire
                0x0080d96c                __sfp_lock_release
                0x0080d970                __sinit_lock_acquire
                0x0080d974                __sinit_lock_release
                0x0080d978                __sinit
                0x0080da2c                __fp_unlock_all
                0x0080da44                __fp_lock_all
                0x0080da5c                _cleanup_r
                0x0080da68                _cleanup
                0x0080da78                __sfmoreglue
                0x0080db14                __sfp
 .text          0x0080dc04      0x440 /OPT/altera/12.1/nios2eds/bin/gnu/H-i686-pc-linux-gnu/bin/../lib/gcc/nios2-elf/4.1.2/../../../../nios2-elf/lib/mno-hw-mul/libc.a(lib_a-freer.o)
                0x0080dc04                _malloc_trim_r
                0x0080dd30                _free_r
 .text          0x0080e044      0x49c /OPT/altera/12.1/nios2eds/bin/gnu/H-i686-pc-linux-gnu/bin/../lib/gcc/nios2-elf/4.1.2/../../../../nios2-elf/lib/mno-hw-mul/libc.a(lib_a-fvwrite.o)
                0x0080e044                __sfvwrite_r
 .text          0x0080e4e0      0x180 /OPT/altera/12.1/nios2eds/bin/gnu/H-i686-pc-linux-gnu/bin/../lib/gcc/nios2-elf/4.1.2/../../../../nios2-elf/lib/mno-hw-mul/libc.a(lib_a-fwalk.o)
                0x0080e4e0                _fwalk_reent
                0x0080e5a8                _fwalk
 .text          0x0080e660        0x0 /OPT/altera/12.1/nios2eds/bin/gnu/H-i686-pc-linux-gnu/bin/../lib/gcc/nios2-elf/4.1.2/../../../../nios2-elf/lib/mno-hw-mul/libc.a(lib_a-impure.o)
 .text          0x0080e660        0x0 /OPT/altera/12.1/nios2eds/bin/gnu/H-i686-pc-linux-gnu/bin/../lib/gcc/nios2-elf/4.1.2/../../../../nios2-elf/lib/mno-hw-mul/libc.a(lib_a-int_errno.o)
 .text          0x0080e660       0xc4 /OPT/altera/12.1/nios2eds/bin/gnu/H-i686-pc-linux-gnu/bin/../lib/gcc/nios2-elf/4.1.2/../../../../nios2-elf/lib/mno-hw-mul/libc.a(lib_a-locale.o)
                0x0080e660                __locale_charset
                0x0080e668                _localeconv_r
                0x0080e674                localeconv
                0x0080e684                _setlocale_r
                0x0080e708                setlocale
 .text          0x0080e724      0x194 /OPT/altera/12.1/nios2eds/bin/gnu/H-i686-pc-linux-gnu/bin/../lib/gcc/nios2-elf/4.1.2/../../../../nios2-elf/lib/mno-hw-mul/libc.a(lib_a-makebuf.o)
                0x0080e724                __smakebuf_r
 .text          0x0080e8b8       0xe4 /OPT/altera/12.1/nios2eds/bin/gnu/H-i686-pc-linux-gnu/bin/../lib/gcc/nios2-elf/4.1.2/../../../../nios2-elf/lib/mno-hw-mul/libc.a(lib_a-memchr.o)
                0x0080e8b8                memchr
 .text          0x0080e99c       0xe0 /OPT/altera/12.1/nios2eds/bin/gnu/H-i686-pc-linux-gnu/bin/../lib/gcc/nios2-elf/4.1.2/../../../../nios2-elf/lib/mno-hw-mul/libc.a(lib_a-memmove.o)
                0x0080e99c                memmove
 .text          0x0080ea7c       0x98 /OPT/altera/12.1/nios2eds/bin/gnu/H-i686-pc-linux-gnu/bin/../lib/gcc/nios2-elf/4.1.2/../../../../nios2-elf/lib/mno-hw-mul/libc.a(lib_a-memset.o)
                0x0080ea7c                memset
 .text          0x0080eb14     0x108c /OPT/altera/12.1/nios2eds/bin/gnu/H-i686-pc-linux-gnu/bin/../lib/gcc/nios2-elf/4.1.2/../../../../nios2-elf/lib/mno-hw-mul/libc.a(lib_a-mprec.o)
                0x0080eb14                _Bfree
                0x0080eb3c                __hi0bits
                0x0080ebac                __lo0bits
                0x0080ec70                __mcmp
                0x0080ecd0                __ulp
                0x0080ed50                __b2d
                0x0080ee70                __ratio
                0x0080ef20                _mprec_log10
                0x0080efb4                __copybits
                0x0080f00c                __any_on
                0x0080f094                _Balloc
                0x0080f150                __d2b
                0x0080f2cc                __mdiff
                0x0080f458                __lshift
                0x0080f5a4                __multiply
                0x0080f7f8                __i2b
                0x0080f834                __multadd
                0x0080f960                __pow5mult
                0x0080fa80                __s2b
 .text          0x0080fba0      0x1ec /OPT/altera/12.1/nios2eds/bin/gnu/H-i686-pc-linux-gnu/bin/../lib/gcc/nios2-elf/4.1.2/../../../../nios2-elf/lib/mno-hw-mul/libc.a(lib_a-putc.o)
                0x0080fba0                putc
                0x0080fca4                _putc_r
 .text          0x0080fd8c      0x5f4 /OPT/altera/12.1/nios2eds/bin/gnu/H-i686-pc-linux-gnu/bin/../lib/gcc/nios2-elf/4.1.2/../../../../nios2-elf/lib/mno-hw-mul/libc.a(lib_a-reallocr.o)
                0x0080fd8c                _realloc_r
 .text          0x00810380       0x40 /OPT/altera/12.1/nios2eds/bin/gnu/H-i686-pc-linux-gnu/bin/../lib/gcc/nios2-elf/4.1.2/../../../../nios2-elf/lib/mno-hw-mul/libc.a(lib_a-s_isinfd.o)
                0x00810380                __isinfd
 .text          0x008103c0       0x30 /OPT/altera/12.1/nios2eds/bin/gnu/H-i686-pc-linux-gnu/bin/../lib/gcc/nios2-elf/4.1.2/../../../../nios2-elf/lib/mno-hw-mul/libc.a(lib_a-s_isnand.o)
                0x008103c0                __isnand
 .text          0x008103f0      0x14c /OPT/altera/12.1/nios2eds/bin/gnu/H-i686-pc-linux-gnu/bin/../lib/gcc/nios2-elf/4.1.2/../../../../nios2-elf/lib/mno-hw-mul/libc.a(lib_a-stdio.o)
                0x008103f0                __sclose
                0x008103f8                __sseek
                0x00810460                __swrite
                0x008104dc                __sread
 .text          0x0081053c       0xbc /OPT/altera/12.1/nios2eds/bin/gnu/H-i686-pc-linux-gnu/bin/../lib/gcc/nios2-elf/4.1.2/../../../../nios2-elf/lib/mno-hw-mul/libc.a(lib_a-strcmp.o)
                0x0081053c                strcmp
 .text          0x008105f8      0x14c /OPT/altera/12.1/nios2eds/bin/gnu/H-i686-pc-linux-gnu/bin/../lib/gcc/nios2-elf/4.1.2/../../../../nios2-elf/lib/mno-hw-mul/libc.a(lib_a-wbuf.o)
                0x008105f8                __swbuf_r
                0x00810728                __swbuf
 .text          0x00810744       0x78 /OPT/altera/12.1/nios2eds/bin/gnu/H-i686-pc-linux-gnu/bin/../lib/gcc/nios2-elf/4.1.2/../../../../nios2-elf/lib/mno-hw-mul/libc.a(lib_a-writer.o)
                0x00810744                _write_r
 .text          0x008107bc       0xc8 /OPT/altera/12.1/nios2eds/bin/gnu/H-i686-pc-linux-gnu/bin/../lib/gcc/nios2-elf/4.1.2/../../../../nios2-elf/lib/mno-hw-mul/libc.a(lib_a-callocr.o)
                0x008107bc                _calloc_r
 .text          0x00810884       0x70 /OPT/altera/12.1/nios2eds/bin/gnu/H-i686-pc-linux-gnu/bin/../lib/gcc/nios2-elf/4.1.2/../../../../nios2-elf/lib/mno-hw-mul/libc.a(lib_a-closer.o)
                0x00810884                _close_r
 .text          0x008108f4      0x124 /OPT/altera/12.1/nios2eds/bin/gnu/H-i686-pc-linux-gnu/bin/../lib/gcc/nios2-elf/4.1.2/../../../../nios2-elf/lib/mno-hw-mul/libc.a(lib_a-fclose.o)
                0x008108f4                _fclose_r
                0x00810a04                fclose
 .text          0x00810a18       0x74 /OPT/altera/12.1/nios2eds/bin/gnu/H-i686-pc-linux-gnu/bin/../lib/gcc/nios2-elf/4.1.2/../../../../nios2-elf/lib/mno-hw-mul/libc.a(lib_a-fstatr.o)
                0x00810a18                _fstat_r
 .text          0x00810a8c       0x70 /OPT/altera/12.1/nios2eds/bin/gnu/H-i686-pc-linux-gnu/bin/../lib/gcc/nios2-elf/4.1.2/../../../../nios2-elf/lib/mno-hw-mul/libc.a(lib_a-isattyr.o)
                0x00810a8c                _isatty_r
 .text          0x00810afc       0x78 /OPT/altera/12.1/nios2eds/bin/gnu/H-i686-pc-linux-gnu/bin/../lib/gcc/nios2-elf/4.1.2/../../../../nios2-elf/lib/mno-hw-mul/libc.a(lib_a-lseekr.o)
                0x00810afc                _lseek_r
 .text          0x00810b74       0x78 /OPT/altera/12.1/nios2eds/bin/gnu/H-i686-pc-linux-gnu/bin/../lib/gcc/nios2-elf/4.1.2/../../../../nios2-elf/lib/mno-hw-mul/libc.a(lib_a-readr.o)
                0x00810b74                _read_r
 .text          0x00810bec      0x66c /OPT/altera/12.1/nios2eds/bin/gnu/H-i686-pc-linux-gnu/bin/../lib/gcc/nios2-elf/4.1.2/mno-hw-mul/libgcc.a(_udivdi3.o)
                0x00810bec                __udivdi3
 .text          0x00811258      0x660 /OPT/altera/12.1/nios2eds/bin/gnu/H-i686-pc-linux-gnu/bin/../lib/gcc/nios2-elf/4.1.2/mno-hw-mul/libgcc.a(_umoddi3.o)
                0x00811258                __umoddi3
 .text          0x008118b8      0x504 /OPT/altera/12.1/nios2eds/bin/gnu/H-i686-pc-linux-gnu/bin/../lib/gcc/nios2-elf/4.1.2/mno-hw-mul/libgcc.a(_addsub_df.o)
                0x00811cc8                __subdf3
                0x00811d48                __adddf3
 .text          0x00811dbc      0x3c4 /OPT/altera/12.1/nios2eds/bin/gnu/H-i686-pc-linux-gnu/bin/../lib/gcc/nios2-elf/4.1.2/mno-hw-mul/libgcc.a(_mul_df.o)
                0x00811dbc                __muldf3
 .text          0x00812180      0x258 /OPT/altera/12.1/nios2eds/bin/gnu/H-i686-pc-linux-gnu/bin/../lib/gcc/nios2-elf/4.1.2/mno-hw-mul/libgcc.a(_div_df.o)
                0x00812180                __divdf3
 .text          0x008123d8       0x88 /OPT/altera/12.1/nios2eds/bin/gnu/H-i686-pc-linux-gnu/bin/../lib/gcc/nios2-elf/4.1.2/mno-hw-mul/libgcc.a(_eq_df.o)
                0x008123d8                __eqdf2
 .text          0x00812460       0x88 /OPT/altera/12.1/nios2eds/bin/gnu/H-i686-pc-linux-gnu/bin/../lib/gcc/nios2-elf/4.1.2/mno-hw-mul/libgcc.a(_ne_df.o)
                0x00812460                __nedf2
 .text          0x008124e8       0x88 /OPT/altera/12.1/nios2eds/bin/gnu/H-i686-pc-linux-gnu/bin/../lib/gcc/nios2-elf/4.1.2/mno-hw-mul/libgcc.a(_gt_df.o)
                0x008124e8                __gtdf2
 .text          0x00812570       0x88 /OPT/altera/12.1/nios2eds/bin/gnu/H-i686-pc-linux-gnu/bin/../lib/gcc/nios2-elf/4.1.2/mno-hw-mul/libgcc.a(_ge_df.o)
                0x00812570                __gedf2
 .text          0x008125f8       0x88 /OPT/altera/12.1/nios2eds/bin/gnu/H-i686-pc-linux-gnu/bin/../lib/gcc/nios2-elf/4.1.2/mno-hw-mul/libgcc.a(_lt_df.o)
                0x008125f8                __ltdf2
 .text          0x00812680       0xf8 /OPT/altera/12.1/nios2eds/bin/gnu/H-i686-pc-linux-gnu/bin/../lib/gcc/nios2-elf/4.1.2/mno-hw-mul/libgcc.a(_si_to_df.o)
                0x00812680                __floatsidf
 .text          0x00812778       0xd8 /OPT/altera/12.1/nios2eds/bin/gnu/H-i686-pc-linux-gnu/bin/../lib/gcc/nios2-elf/4.1.2/mno-hw-mul/libgcc.a(_df_to_si.o)
                0x00812778                __fixdfsi
 .text          0x00812850        0x0 /OPT/altera/12.1/nios2eds/bin/gnu/H-i686-pc-linux-gnu/bin/../lib/gcc/nios2-elf/4.1.2/mno-hw-mul/libgcc.a(_thenan_df.o)
 .text          0x00812850      0x194 /OPT/altera/12.1/nios2eds/bin/gnu/H-i686-pc-linux-gnu/bin/../lib/gcc/nios2-elf/4.1.2/mno-hw-mul/libgcc.a(_usi_to_df.o)
                0x00812850                __floatunsidf
 .text          0x008129e4      0x124 /OPT/altera/12.1/nios2eds/bin/gnu/H-i686-pc-linux-gnu/bin/../lib/gcc/nios2-elf/4.1.2/mno-hw-mul/libgcc.a(_muldi3.o)
                0x008129e4                __muldi3
 .text          0x00812b08        0x0 /OPT/altera/12.1/nios2eds/bin/gnu/H-i686-pc-linux-gnu/bin/../lib/gcc/nios2-elf/4.1.2/mno-hw-mul/libgcc.a(_clz.o)
 .text          0x00812b08       0x80 /OPT/altera/12.1/nios2eds/bin/gnu/H-i686-pc-linux-gnu/bin/../lib/gcc/nios2-elf/4.1.2/mno-hw-mul/libgcc.a(_clzsi2.o)
                0x00812b08                __clzsi2
 .text          0x00812b88      0x314 /OPT/altera/12.1/nios2eds/bin/gnu/H-i686-pc-linux-gnu/bin/../lib/gcc/nios2-elf/4.1.2/mno-hw-mul/libgcc.a(_pack_df.o)
                0x00812b88                __pack_d
 .text          0x00812e9c      0x138 /OPT/altera/12.1/nios2eds/bin/gnu/H-i686-pc-linux-gnu/bin/../lib/gcc/nios2-elf/4.1.2/mno-hw-mul/libgcc.a(_unpack_df.o)
                0x00812e9c                __unpack_d
 .text          0x00812fd4       0xc8 /OPT/altera/12.1/nios2eds/bin/gnu/H-i686-pc-linux-gnu/bin/../lib/gcc/nios2-elf/4.1.2/mno-hw-mul/libgcc.a(_fpcmp_parts_df.o)
                0x00812fd4                __fpcmp_parts_d
 .text          0x0081309c      0x160 ../sdcard_bsp//libucosii_bsp.a(alt_close.o)
                0x0081309c                close
 .text          0x008131fc       0x2c ../sdcard_bsp//libucosii_bsp.a(alt_dev.o)
 .text          0x00813228        0x0 ../sdcard_bsp//libucosii_bsp.a(alt_errno.o)
 .text          0x00813228      0x138 ../sdcard_bsp//libucosii_bsp.a(alt_fstat.o)
                0x00813228                fstat
 .text          0x00813360      0x124 ../sdcard_bsp//libucosii_bsp.a(alt_isatty.o)
                0x00813360                isatty
 .text          0x00813484       0xec ../sdcard_bsp//libucosii_bsp.a(alt_load.o)
                0x00813484                alt_load
 .text          0x00813570      0x154 ../sdcard_bsp//libucosii_bsp.a(alt_lseek.o)
                0x00813570                lseek
 .text          0x008136c4       0xc8 ../sdcard_bsp//libucosii_bsp.a(alt_main.o)
                0x008136c4                alt_main
 .text          0x0081378c      0x184 ../sdcard_bsp//libucosii_bsp.a(alt_read.o)
                0x0081378c                read
 .text          0x00813910       0x78 ../sdcard_bsp//libucosii_bsp.a(alt_release_fd.o)
                0x00813910                alt_release_fd
 .text          0x00813988       0xbc ../sdcard_bsp//libucosii_bsp.a(alt_sbrk.o)
                0x00813988                sbrk
 .text          0x00813a44      0x184 ../sdcard_bsp//libucosii_bsp.a(alt_write.o)
                0x00813a44                write
 .text          0x00813bc8      0x108 ../sdcard_bsp//libucosii_bsp.a(alt_env_lock.o)
                0x00813bc8                __env_lock
                0x00813c74                __env_unlock
 .text          0x00813cd0      0x1d8 ../sdcard_bsp//libucosii_bsp.a(alt_malloc_lock.o)
                0x00813cd0                __malloc_lock
                0x00813dd8                __malloc_unlock
 .text          0x00813ea8     0x2128 ../sdcard_bsp//libucosii_bsp.a(os_core.o)
                0x00813ea8                OSEventNameGet
                0x00813fd8                OSEventNameSet
                0x0081411c                OSEventPendMulti
                0x008147d0                OSInit
                0x00814824                OSIntEnter
                0x008148a0                OSIntExit
                0x008149a0                OSSchedLock
                0x00814a2c                OSSchedUnlock
                0x00814b10                OSStart
                0x00814b80                OSStatInit
                0x00814c2c                OSTimeTick
                0x00814e6c                OSVersion
                0x00814e8c                OS_Dummy
                0x00814ea8                OS_EventTaskRdy
                0x0081503c                OS_EventTaskWait
                0x0081514c                OS_EventTaskWaitMulti
                0x008152a0                OS_EventTaskRemove
                0x00815358                OS_EventTaskRemoveMulti
                0x0081545c                OS_EventWaitListInit
                0x00815828                OS_MemClr
                0x0081587c                OS_MemCopy
                0x008158e8                OS_Sched
                0x00815a2c                OS_StrCopy
                0x00815aac                OS_StrLen
                0x00815b04                OS_TaskIdle
                0x00815b60                OS_TaskStat
                0x00815c28                OS_TaskStatStkChk
                0x00815cf0                OS_TCBInit
 .text          0x00815fd0      0x18c ../sdcard_bsp//libucosii_bsp.a(os_dbg.o)
                0x00815fd0                OSDebugInit
 .text          0x0081615c     0x193c ../sdcard_bsp//libucosii_bsp.a(os_flag.o)
                0x0081615c                OSFlagAccept
                0x00816490                OSFlagCreate
                0x008165cc                OSFlagDel
                0x00816874                OSFlagNameGet
                0x008169b8                OSFlagNameSet
                0x00816b0c                OSFlagPend
                0x00817150                OSFlagPendGetFlagsRdy
                0x008171b8                OSFlagPost
                0x00817560                OSFlagQuery
                0x008177f8                OS_FlagInit
                0x008179ec                OS_FlagUnlink
 .text          0x00817a98      0x80c ../sdcard_bsp//libucosii_bsp.a(os_mem.o)
                0x00817a98                OSMemCreate
                0x00817cb4                OSMemGet
                0x00817db8                OSMemNameGet
                0x00817ec4                OSMemNameSet
                0x00817fe4                OSMemPut
                0x008180d4                OSMemQuery
                0x008181d0                OS_MemInit
 .text          0x008182a4     0x1334 ../sdcard_bsp//libucosii_bsp.a(os_q.o)
                0x008182a4                OSQAccept
                0x008183f8                OSQCreate
                0x0081860c                OSQDel
                0x0081890c                OSQFlush
                0x008189d4                OSQPend
                0x00818cf4                OSQPendAbort
                0x00818e70                OSQPost
                0x00818ff0                OSQPostFront
                0x00819178                OSQPostOpt
                0x008193ac                OSQQuery
                0x0081952c                OS_QInit
 .text          0x008195d8      0xbc8 ../sdcard_bsp//libucosii_bsp.a(os_sem.o)
                0x008195d8                OSSemAccept
                0x00819698                OSSemCreate
                0x008197ac                OSSemDel
                0x00819a4c                OSSemPend
                0x00819cc8                OSSemPendAbort
                0x00819e44                OSSemPost
                0x00819f6c                OSSemQuery
                0x0081a09c                OSSemSet
 .text          0x0081a1a0     0x1a40 ../sdcard_bsp//libucosii_bsp.a(os_task.o)
                0x0081a1a0                OSTaskChangePrio
                0x0081a714                OSTaskCreate
                0x0081a8e8                OSTaskCreateExt
                0x0081aae8                OSTaskDel
                0x0081aef4                OSTaskDelReq
                0x0081b064                OSTaskNameGet
                0x0081b21c                OSTaskNameSet
                0x0081b3e0                OSTaskResume
                0x0081b5f8                OSTaskStkChk
                0x0081b7f4                OSTaskSuspend
                0x0081ba20                OSTaskQuery
                0x0081bb64                OS_TaskStkClr
 .text          0x0081bbe0      0x5b4 ../sdcard_bsp//libucosii_bsp.a(os_time.o)
                0x0081bbe0                OSTimeDly
                0x0081bd2c                OSTimeDlyHMSM
                0x0081bebc                OSTimeDlyResume
                0x0081c0cc                OSTimeGet
                0x0081c130                OSTimeSet
 .text          0x0081c194       0xf8 ../sdcard_bsp//libucosii_bsp.a(alt_sys_init.o)
                0x0081c194                alt_irq_init
                0x0081c1c8                alt_sys_init
 .text          0x0081c28c      0x148 ../sdcard_bsp//libucosii_bsp.a(altera_avalon_jtag_uart_fd.o)
                0x0081c28c                altera_avalon_jtag_uart_read_fd
                0x0081c2e4                altera_avalon_jtag_uart_write_fd
                0x0081c33c                altera_avalon_jtag_uart_close_fd
                0x0081c384                altera_avalon_jtag_uart_ioctl_fd
 .text          0x0081c3d4      0x580 ../sdcard_bsp//libucosii_bsp.a(altera_avalon_jtag_uart_init.o)
                0x0081c3d4                altera_avalon_jtag_uart_init
                0x0081c8e0                altera_avalon_jtag_uart_close
 .text          0x0081c954       0xf4 ../sdcard_bsp//libucosii_bsp.a(altera_avalon_jtag_uart_ioctl.o)
                0x0081c954                altera_avalon_jtag_uart_ioctl
 .text          0x0081ca48      0x2c0 ../sdcard_bsp//libucosii_bsp.a(altera_avalon_jtag_uart_read.o)
                0x0081ca48                altera_avalon_jtag_uart_read
 .text          0x0081cd08      0x2dc ../sdcard_bsp//libucosii_bsp.a(altera_avalon_jtag_uart_write.o)
                0x0081cd08                altera_avalon_jtag_uart_write
 .text          0x0081cfe4       0xfc ../sdcard_bsp//libucosii_bsp.a(altera_avalon_timer_sc.o)
                0x0081d058                alt_avalon_timer_sc_init
 .text          0x0081d0e0      0x530 ../sdcard_bsp//libucosii_bsp.a(altera_up_avalon_character_lcd.o)
                0x0081d0e0                get_DDRAM_addr
                0x0081d15c                alt_up_character_lcd_send_cmd
                0x0081d190                alt_up_character_lcd_init
                0x0081d1c4                alt_up_character_lcd_open_dev
                0x0081d204                alt_up_character_lcd_write
                0x0081d27c                alt_up_character_lcd_string
                0x0081d2f4                alt_up_character_lcd_write_fd
                0x0081d340                alt_up_character_lcd_set_cursor_pos
                0x0081d3b8                alt_up_character_lcd_shift_cursor
                0x0081d468                alt_up_character_lcd_shift_display
                0x0081d518                alt_up_character_lcd_erase_pos
                0x0081d5a8                alt_up_character_lcd_cursor_off
                0x0081d5dc                alt_up_character_lcd_cursor_blink_on
 .text          0x0081d610      0x154 ../sdcard_bsp//libucosii_bsp.a(alt_alarm_start.o)
                0x0081d610                alt_alarm_start
 .text          0x0081d764       0x1c ../sdcard_bsp//libucosii_bsp.a(alt_dcache_flush_all.o)
                0x0081d764                alt_dcache_flush_all
 .text          0x0081d780      0x114 ../sdcard_bsp//libucosii_bsp.a(alt_dev_llist_insert.o)
                0x0081d780                alt_dev_llist_insert
 .text          0x0081d894       0x64 ../sdcard_bsp//libucosii_bsp.a(alt_do_ctors.o)
                0x0081d894                _do_ctors
 .text          0x0081d8f8       0x64 ../sdcard_bsp//libucosii_bsp.a(alt_do_dtors.o)
                0x0081d8f8                _do_dtors
 .text          0x0081d95c       0x94 ../sdcard_bsp//libucosii_bsp.a(alt_find_dev.o)
                0x0081d95c                alt_find_dev
 .text          0x0081d9f0       0x1c ../sdcard_bsp//libucosii_bsp.a(alt_icache_flush_all.o)
                0x0081d9f0                alt_icache_flush_all
 .text          0x0081da0c      0x150 ../sdcard_bsp//libucosii_bsp.a(alt_io_redirect.o)
                0x0081dae4                alt_io_redirect
 .text          0x0081db5c      0x1c0 ../sdcard_bsp//libucosii_bsp.a(alt_irq_register.o)
                0x0081db5c                alt_irq_register
 .text          0x0081dd1c        0x0 ../sdcard_bsp//libucosii_bsp.a(alt_irq_vars.o)
 .text          0x0081dd1c      0x2e4 ../sdcard_bsp//libucosii_bsp.a(alt_open.o)
                0x0081de14                open
 .text          0x0081e000      0x1a8 ../sdcard_bsp//libucosii_bsp.a(alt_tick.o)
                0x0081e000                alt_alarm_stop
                0x0081e098                alt_tick
 .text          0x0081e1a8       0x20 ../sdcard_bsp//libucosii_bsp.a(altera_nios2_qsys_irq.o)
                0x0081e1a8                altera_nios2_qsys_irq_init
 .text          0x0081e1c8       0xd0 ../sdcard_bsp//libucosii_bsp.a(os_cpu_a.o)
                0x0081e1c8                OSCtxSw
                0x0081e1c8                OSIntCtxSw
                0x0081e254                OSStartHighRdy
                0x0081e274                OSStartTsk
 .text          0x0081e298      0x418 ../sdcard_bsp//libucosii_bsp.a(os_cpu_c.o)
                0x0081e298                OSTaskStkInit
                0x0081e5a8                OSTaskCreateHook
                0x0081e5c8                OSTaskDelHook
                0x0081e5e8                OSTaskSwHook
                0x0081e604                OSTaskStatHook
                0x0081e620                OSTimeTickHook
                0x0081e63c                OSInitHookBegin
                0x0081e658                OSInitHookEnd
                0x0081e674                OSTaskIdleHook
                0x0081e690                OSTCBInitHook
 .text          0x0081e6b0      0x120 ../sdcard_bsp//libucosii_bsp.a(alt_find_file.o)
                0x0081e6b0                alt_find_file
 .text          0x0081e7d0      0x104 ../sdcard_bsp//libucosii_bsp.a(alt_get_fd.o)
                0x0081e7d0                alt_get_fd
 .text          0x0081e8d4        0x0 ../sdcard_bsp//libucosii_bsp.a(alt_irq_entry.o)
 .text          0x0081e8d4        0x0 ../sdcard_bsp//libucosii_bsp.a(alt_irq_handler.o)
 .text          0x0081e8d4        0x0 ../sdcard_bsp//libucosii_bsp.a(alt_exception_entry.o)
 .text          0x0081e8d4       0x14 /OPT/altera/12.1/nios2eds/bin/gnu/H-i686-pc-linux-gnu/bin/../lib/gcc/nios2-elf/4.1.2/../../../../nios2-elf/lib/mno-hw-mul/libc.a(lib_a-atexit.o)
                0x0081e8d4                atexit
 .text          0x0081e8e8       0x38 /OPT/altera/12.1/nios2eds/bin/gnu/H-i686-pc-linux-gnu/bin/../lib/gcc/nios2-elf/4.1.2/../../../../nios2-elf/lib/mno-hw-mul/libc.a(lib_a-exit.o)
                0x0081e8e8                exit
 .text          0x0081e920       0x74 /OPT/altera/12.1/nios2eds/bin/gnu/H-i686-pc-linux-gnu/bin/../lib/gcc/nios2-elf/4.1.2/../../../../nios2-elf/lib/mno-hw-mul/libc.a(lib_a-memcmp.o)
                0x0081e920                memcmp
 .text          0x0081e994      0x134 /OPT/altera/12.1/nios2eds/bin/gnu/H-i686-pc-linux-gnu/bin/../lib/gcc/nios2-elf/4.1.2/../../../../nios2-elf/lib/mno-hw-mul/libc.a(lib_a-__atexit.o)
                0x0081e994                __register_exitproc
 .text          0x0081eac8      0x1b4 /OPT/altera/12.1/nios2eds/bin/gnu/H-i686-pc-linux-gnu/bin/../lib/gcc/nios2-elf/4.1.2/../../../../nios2-elf/lib/mno-hw-mul/libc.a(lib_a-__call_atexit.o)
                0x0081eacc                __call_exitprocs
 .text          0x0081ec7c       0x6c ../sdcard_bsp//libucosii_bsp.a(alt_exit.o)
                0x0081ecbc                _exit
 *(.gnu.warning.*)
 *(.fini)
                0x0081ece8                PROVIDE (__etext, ABSOLUTE (.))
                0x0081ece8                PROVIDE (_etext, ABSOLUTE (.))
                0x0081ece8                PROVIDE (etext, ABSOLUTE (.))
 *(.eh_frame_hdr)
                0x0081ece8                . = ALIGN (0x4)
                0x0081ece8                PROVIDE (__preinit_array_start, ABSOLUTE (.))
 *(.preinit_array)
                0x0081ece8                PROVIDE (__preinit_array_end, ABSOLUTE (.))
                0x0081ece8                PROVIDE (__init_array_start, ABSOLUTE (.))
 *(.init_array)
                0x0081ece8                PROVIDE (__init_array_end, ABSOLUTE (.))
                0x0081ece8                PROVIDE (__fini_array_start, ABSOLUTE (.))
 *(.fini_array)
                0x0081ece8                PROVIDE (__fini_array_end, ABSOLUTE (.))
 *(.eh_frame)
 *(.gcc_except_table)
 *(.dynamic)
                0x0081ece8                PROVIDE (__CTOR_LIST__, ABSOLUTE (.))
 *(.ctors)
 *(SORT(.ctors.*))
 .ctors.65535   0x0081ece8        0x4 /OPT/altera/12.1/nios2eds/bin/gnu/H-i686-pc-linux-gnu/bin/../lib/gcc/nios2-elf/4.1.2/../../../../nios2-elf/lib/mno-hw-mul/libc.a(lib_a-__call_atexit.o)
                0x0081ecec                PROVIDE (__CTOR_END__, ABSOLUTE (.))
                0x0081ecec                PROVIDE (__DTOR_LIST__, ABSOLUTE (.))
 *(.dtors)
 *(SORT(.dtors.*))
                0x0081ecec                PROVIDE (__DTOR_END__, ABSOLUTE (.))
 *(.jcr)
                0x0081ecec                . = ALIGN (0x4)

.rodata         0x0081ecec      0xa4c
                0x0081ecec                PROVIDE (__ram_rodata_start, ABSOLUTE (.))
                0x0081ecec                . = ALIGN (0x4)
 *(.rodata .rodata.* .gnu.linkonce.r.*)
 .rodata        0x0081ecec       0x40 obj/default/efsl/fat.o
 .rodata        0x0081ed2c       0xa4 obj/default/efsl/ioman.o
 .rodata        0x0081edd0       0x5c obj/default/efsl/mkfs.o
 .rodata        0x0081ee2c       0xbc obj/default/efsl/nios2.o
 .rodata        0x0081eee8      0x234 obj/default/efsl/sd.o
 .rodata        0x0081f11c       0x54 obj/default/efsl/ui.o
 .rodata        0x0081f170      0x118 obj/default/sdCardREAD.o
 .rodata.str1.4
                0x0081f288        0x2 /OPT/altera/12.1/nios2eds/bin/gnu/H-i686-pc-linux-gnu/bin/../lib/gcc/nios2-elf/4.1.2/../../../../nios2-elf/lib/mno-hw-mul/libc.a(lib_a-puts.o)
                                  0x4 (size before relaxing)
 *fill*         0x0081f28a        0x2 00
 .rodata.str1.4
                0x0081f28c       0x5e /OPT/altera/12.1/nios2eds/bin/gnu/H-i686-pc-linux-gnu/bin/../lib/gcc/nios2-elf/4.1.2/../../../../nios2-elf/lib/mno-hw-mul/libc.a(lib_a-vfprintf.o)
                                 0x60 (size before relaxing)
 .rodata        0x0081f2ea       0x20 /OPT/altera/12.1/nios2eds/bin/gnu/H-i686-pc-linux-gnu/bin/../lib/gcc/nios2-elf/4.1.2/../../../../nios2-elf/lib/mno-hw-mul/libc.a(lib_a-vfprintf.o)
 *fill*         0x0081f30a        0x2 00
 .rodata.str1.4
                0x0081f30c       0x10 /OPT/altera/12.1/nios2eds/bin/gnu/H-i686-pc-linux-gnu/bin/../lib/gcc/nios2-elf/4.1.2/../../../../nios2-elf/lib/mno-hw-mul/libc.a(lib_a-dtoa.o)
                                 0x14 (size before relaxing)
 .rodata.str1.4
                0x0081f31c        0x2 /OPT/altera/12.1/nios2eds/bin/gnu/H-i686-pc-linux-gnu/bin/../lib/gcc/nios2-elf/4.1.2/../../../../nios2-elf/lib/mno-hw-mul/libc.a(lib_a-impure.o)
                                  0x4 (size before relaxing)
 *fill*         0x0081f31e        0x2 00
 .rodata.str1.4
                0x0081f320       0x10 /OPT/altera/12.1/nios2eds/bin/gnu/H-i686-pc-linux-gnu/bin/../lib/gcc/nios2-elf/4.1.2/../../../../nios2-elf/lib/mno-hw-mul/libc.a(lib_a-locale.o)
                                 0x18 (size before relaxing)
 .rodata        0x0081f330       0x30 /OPT/altera/12.1/nios2eds/bin/gnu/H-i686-pc-linux-gnu/bin/../lib/gcc/nios2-elf/4.1.2/../../../../nios2-elf/lib/mno-hw-mul/libc.a(lib_a-locale.o)
 .rodata        0x0081f360      0x124 /OPT/altera/12.1/nios2eds/bin/gnu/H-i686-pc-linux-gnu/bin/../lib/gcc/nios2-elf/4.1.2/../../../../nios2-elf/lib/mno-hw-mul/libc.a(lib_a-mprec.o)
                0x0081f360                __mprec_tens
                0x0081f428                __mprec_bigtens
                0x0081f450                __mprec_tinytens
 .rodata        0x0081f484       0x14 /OPT/altera/12.1/nios2eds/bin/gnu/H-i686-pc-linux-gnu/bin/../lib/gcc/nios2-elf/4.1.2/mno-hw-mul/libgcc.a(_thenan_df.o)
                0x0081f484                __thenan_df
 .rodata        0x0081f498      0x100 /OPT/altera/12.1/nios2eds/bin/gnu/H-i686-pc-linux-gnu/bin/../lib/gcc/nios2-elf/4.1.2/mno-hw-mul/libgcc.a(_clz.o)
                0x0081f498                __clz_tab
 .rodata        0x0081f598        0xc ../sdcard_bsp//libucosii_bsp.a(alt_dev.o)
 .rodata        0x0081f5a4       0x14 ../sdcard_bsp//libucosii_bsp.a(alt_main.o)
 .rodata        0x0081f5b8      0x120 ../sdcard_bsp//libucosii_bsp.a(os_core.o)
                0x0081f5b8                OSUnMapTbl
 .rodata        0x0081f6d8       0x5c ../sdcard_bsp//libucosii_bsp.a(alt_sys_init.o)
 .rodata        0x0081f734        0x4 ../sdcard_bsp//libucosii_bsp.a(os_cpu_c.o)
 *(.rodata1)
                0x0081f738                . = ALIGN (0x4)
                0x0081f738                PROVIDE (__ram_rodata_end, ABSOLUTE (.))
                0x0081ecec                PROVIDE (__flash_rodata_start, LOADADDR (.rodata))

.rwdata         0x0081f738     0x1b7c load address 0x008212b4
                0x0081f738                PROVIDE (__ram_rwdata_start, ABSOLUTE (.))
                0x0081f738                . = ALIGN (0x4)
 *(.got.plt)
 *(.got)
 *(.data1)
 *(.data .data.* .gnu.linkonce.d.*)
 .data          0x0081f738        0x0 ../sdcard_bsp//obj/HAL/src/crt0.o
 .data          0x0081f738        0x0 obj/default/efsl/debug.o
 .data          0x0081f738        0x0 obj/default/efsl/dir.o
 .data          0x0081f738        0x0 obj/default/efsl/disc.o
 .data          0x0081f738        0x0 obj/default/efsl/efs.o
 .data          0x0081f738        0x0 obj/default/efsl/extract.o
 .data          0x0081f738        0x0 obj/default/efsl/fat.o
 .data          0x0081f738        0x0 obj/default/efsl/file.o
 .data          0x0081f738        0x0 obj/default/efsl/fs.o
 .data          0x0081f738        0x0 obj/default/efsl/ioman.o
 .data          0x0081f738        0x0 obj/default/efsl/ls.o
 .data          0x0081f738        0x0 obj/default/efsl/mkfs.o
 .data          0x0081f738        0x0 obj/default/efsl/nios2.o
 .data          0x0081f738        0xc obj/default/efsl/nios2_ramdisk.o
 .data          0x0081f744        0x0 obj/default/efsl/partition.o
 .data          0x0081f744        0x0 obj/default/efsl/plibc.o
 .data          0x0081f744        0x0 obj/default/efsl/sd.o
 .data          0x0081f744        0x0 obj/default/efsl/time.o
 .data          0x0081f744        0x0 obj/default/efsl/ui.o
 .data          0x0081f744        0x0 obj/default/sdCardREAD.o
 .data          0x0081f744        0x0 /OPT/altera/12.1/nios2eds/bin/gnu/H-i686-pc-linux-gnu/bin/../lib/gcc/nios2-elf/4.1.2/mno-hw-mul/libgcc.a(lib2-divmod.o)
 .data          0x0081f744        0x0 /OPT/altera/12.1/nios2eds/bin/gnu/H-i686-pc-linux-gnu/bin/../lib/gcc/nios2-elf/4.1.2/mno-hw-mul/libgcc.a(lib2-mul.o)
 .data          0x0081f744        0x0 /OPT/altera/12.1/nios2eds/bin/gnu/H-i686-pc-linux-gnu/bin/../lib/gcc/nios2-elf/4.1.2/../../../../nios2-elf/lib/mno-hw-mul/libc.a(lib_a-malloc.o)
 .data          0x0081f744      0x408 /OPT/altera/12.1/nios2eds/bin/gnu/H-i686-pc-linux-gnu/bin/../lib/gcc/nios2-elf/4.1.2/../../../../nios2-elf/lib/mno-hw-mul/libc.a(lib_a-mallocr.o)
                0x0081f744                __malloc_av_
 .data          0x0081fb4c        0x0 /OPT/altera/12.1/nios2eds/bin/gnu/H-i686-pc-linux-gnu/bin/../lib/gcc/nios2-elf/4.1.2/../../../../nios2-elf/lib/mno-hw-mul/libc.a(lib_a-memcpy.o)
 .data          0x0081fb4c        0x0 /OPT/altera/12.1/nios2eds/bin/gnu/H-i686-pc-linux-gnu/bin/../lib/gcc/nios2-elf/4.1.2/../../../../nios2-elf/lib/mno-hw-mul/libc.a(lib_a-printf.o)
 .data          0x0081fb4c        0x0 /OPT/altera/12.1/nios2eds/bin/gnu/H-i686-pc-linux-gnu/bin/../lib/gcc/nios2-elf/4.1.2/../../../../nios2-elf/lib/mno-hw-mul/libc.a(lib_a-putchar.o)
 .data          0x0081fb4c        0x0 /OPT/altera/12.1/nios2eds/bin/gnu/H-i686-pc-linux-gnu/bin/../lib/gcc/nios2-elf/4.1.2/../../../../nios2-elf/lib/mno-hw-mul/libc.a(lib_a-puts.o)
 .data          0x0081fb4c        0x0 /OPT/altera/12.1/nios2eds/bin/gnu/H-i686-pc-linux-gnu/bin/../lib/gcc/nios2-elf/4.1.2/../../../../nios2-elf/lib/mno-hw-mul/libc.a(lib_a-sbrkr.o)
 .data          0x0081fb4c        0x0 /OPT/altera/12.1/nios2eds/bin/gnu/H-i686-pc-linux-gnu/bin/../lib/gcc/nios2-elf/4.1.2/../../../../nios2-elf/lib/mno-hw-mul/libc.a(lib_a-strlen.o)
 .data          0x0081fb4c        0x0 /OPT/altera/12.1/nios2eds/bin/gnu/H-i686-pc-linux-gnu/bin/../lib/gcc/nios2-elf/4.1.2/../../../../nios2-elf/lib/mno-hw-mul/libc.a(lib_a-vfprintf.o)
 .data          0x0081fb4c        0x0 /OPT/altera/12.1/nios2eds/bin/gnu/H-i686-pc-linux-gnu/bin/../lib/gcc/nios2-elf/4.1.2/../../../../nios2-elf/lib/mno-hw-mul/libc.a(lib_a-wsetup.o)
 .data          0x0081fb4c        0x0 /OPT/altera/12.1/nios2eds/bin/gnu/H-i686-pc-linux-gnu/bin/../lib/gcc/nios2-elf/4.1.2/../../../../nios2-elf/lib/mno-hw-mul/libc.a(lib_a-dtoa.o)
 .data          0x0081fb4c        0x0 /OPT/altera/12.1/nios2eds/bin/gnu/H-i686-pc-linux-gnu/bin/../lib/gcc/nios2-elf/4.1.2/../../../../nios2-elf/lib/mno-hw-mul/libc.a(lib_a-fflush.o)
 .data          0x0081fb4c        0x0 /OPT/altera/12.1/nios2eds/bin/gnu/H-i686-pc-linux-gnu/bin/../lib/gcc/nios2-elf/4.1.2/../../../../nios2-elf/lib/mno-hw-mul/libc.a(lib_a-findfp.o)
 .data          0x0081fb4c        0x0 /OPT/altera/12.1/nios2eds/bin/gnu/H-i686-pc-linux-gnu/bin/../lib/gcc/nios2-elf/4.1.2/../../../../nios2-elf/lib/mno-hw-mul/libc.a(lib_a-freer.o)
 .data          0x0081fb4c        0x0 /OPT/altera/12.1/nios2eds/bin/gnu/H-i686-pc-linux-gnu/bin/../lib/gcc/nios2-elf/4.1.2/../../../../nios2-elf/lib/mno-hw-mul/libc.a(lib_a-fvwrite.o)
 .data          0x0081fb4c        0x0 /OPT/altera/12.1/nios2eds/bin/gnu/H-i686-pc-linux-gnu/bin/../lib/gcc/nios2-elf/4.1.2/../../../../nios2-elf/lib/mno-hw-mul/libc.a(lib_a-fwalk.o)
 .data          0x0081fb4c      0x400 /OPT/altera/12.1/nios2eds/bin/gnu/H-i686-pc-linux-gnu/bin/../lib/gcc/nios2-elf/4.1.2/../../../../nios2-elf/lib/mno-hw-mul/libc.a(lib_a-impure.o)
 .data          0x0081ff4c        0x0 /OPT/altera/12.1/nios2eds/bin/gnu/H-i686-pc-linux-gnu/bin/../lib/gcc/nios2-elf/4.1.2/../../../../nios2-elf/lib/mno-hw-mul/libc.a(lib_a-int_errno.o)
 .data          0x0081ff4c        0xc /OPT/altera/12.1/nios2eds/bin/gnu/H-i686-pc-linux-gnu/bin/../lib/gcc/nios2-elf/4.1.2/../../../../nios2-elf/lib/mno-hw-mul/libc.a(lib_a-locale.o)
                0x0081ff4c                __lc_ctype
 .data          0x0081ff58        0x0 /OPT/altera/12.1/nios2eds/bin/gnu/H-i686-pc-linux-gnu/bin/../lib/gcc/nios2-elf/4.1.2/../../../../nios2-elf/lib/mno-hw-mul/libc.a(lib_a-makebuf.o)
 .data          0x0081ff58        0x0 /OPT/altera/12.1/nios2eds/bin/gnu/H-i686-pc-linux-gnu/bin/../lib/gcc/nios2-elf/4.1.2/../../../../nios2-elf/lib/mno-hw-mul/libc.a(lib_a-memchr.o)
 .data          0x0081ff58        0x0 /OPT/altera/12.1/nios2eds/bin/gnu/H-i686-pc-linux-gnu/bin/../lib/gcc/nios2-elf/4.1.2/../../../../nios2-elf/lib/mno-hw-mul/libc.a(lib_a-memmove.o)
 .data          0x0081ff58        0x0 /OPT/altera/12.1/nios2eds/bin/gnu/H-i686-pc-linux-gnu/bin/../lib/gcc/nios2-elf/4.1.2/../../../../nios2-elf/lib/mno-hw-mul/libc.a(lib_a-memset.o)
 .data          0x0081ff58        0x0 /OPT/altera/12.1/nios2eds/bin/gnu/H-i686-pc-linux-gnu/bin/../lib/gcc/nios2-elf/4.1.2/../../../../nios2-elf/lib/mno-hw-mul/libc.a(lib_a-mprec.o)
 .data          0x0081ff58        0x0 /OPT/altera/12.1/nios2eds/bin/gnu/H-i686-pc-linux-gnu/bin/../lib/gcc/nios2-elf/4.1.2/../../../../nios2-elf/lib/mno-hw-mul/libc.a(lib_a-putc.o)
 .data          0x0081ff58        0x0 /OPT/altera/12.1/nios2eds/bin/gnu/H-i686-pc-linux-gnu/bin/../lib/gcc/nios2-elf/4.1.2/../../../../nios2-elf/lib/mno-hw-mul/libc.a(lib_a-reallocr.o)
 .data          0x0081ff58        0x0 /OPT/altera/12.1/nios2eds/bin/gnu/H-i686-pc-linux-gnu/bin/../lib/gcc/nios2-elf/4.1.2/../../../../nios2-elf/lib/mno-hw-mul/libc.a(lib_a-s_isinfd.o)
 .data          0x0081ff58        0x0 /OPT/altera/12.1/nios2eds/bin/gnu/H-i686-pc-linux-gnu/bin/../lib/gcc/nios2-elf/4.1.2/../../../../nios2-elf/lib/mno-hw-mul/libc.a(lib_a-s_isnand.o)
 .data          0x0081ff58        0x0 /OPT/altera/12.1/nios2eds/bin/gnu/H-i686-pc-linux-gnu/bin/../lib/gcc/nios2-elf/4.1.2/../../../../nios2-elf/lib/mno-hw-mul/libc.a(lib_a-stdio.o)
 .data          0x0081ff58        0x0 /OPT/altera/12.1/nios2eds/bin/gnu/H-i686-pc-linux-gnu/bin/../lib/gcc/nios2-elf/4.1.2/../../../../nios2-elf/lib/mno-hw-mul/libc.a(lib_a-strcmp.o)
 .data          0x0081ff58        0x0 /OPT/altera/12.1/nios2eds/bin/gnu/H-i686-pc-linux-gnu/bin/../lib/gcc/nios2-elf/4.1.2/../../../../nios2-elf/lib/mno-hw-mul/libc.a(lib_a-wbuf.o)
 .data          0x0081ff58        0x0 /OPT/altera/12.1/nios2eds/bin/gnu/H-i686-pc-linux-gnu/bin/../lib/gcc/nios2-elf/4.1.2/../../../../nios2-elf/lib/mno-hw-mul/libc.a(lib_a-writer.o)
 .data          0x0081ff58        0x0 /OPT/altera/12.1/nios2eds/bin/gnu/H-i686-pc-linux-gnu/bin/../lib/gcc/nios2-elf/4.1.2/../../../../nios2-elf/lib/mno-hw-mul/libc.a(lib_a-callocr.o)
 .data          0x0081ff58        0x0 /OPT/altera/12.1/nios2eds/bin/gnu/H-i686-pc-linux-gnu/bin/../lib/gcc/nios2-elf/4.1.2/../../../../nios2-elf/lib/mno-hw-mul/libc.a(lib_a-closer.o)
 .data          0x0081ff58        0x0 /OPT/altera/12.1/nios2eds/bin/gnu/H-i686-pc-linux-gnu/bin/../lib/gcc/nios2-elf/4.1.2/../../../../nios2-elf/lib/mno-hw-mul/libc.a(lib_a-fclose.o)
 .data          0x0081ff58        0x0 /OPT/altera/12.1/nios2eds/bin/gnu/H-i686-pc-linux-gnu/bin/../lib/gcc/nios2-elf/4.1.2/../../../../nios2-elf/lib/mno-hw-mul/libc.a(lib_a-fstatr.o)
 .data          0x0081ff58        0x0 /OPT/altera/12.1/nios2eds/bin/gnu/H-i686-pc-linux-gnu/bin/../lib/gcc/nios2-elf/4.1.2/../../../../nios2-elf/lib/mno-hw-mul/libc.a(lib_a-isattyr.o)
 .data          0x0081ff58        0x0 /OPT/altera/12.1/nios2eds/bin/gnu/H-i686-pc-linux-gnu/bin/../lib/gcc/nios2-elf/4.1.2/../../../../nios2-elf/lib/mno-hw-mul/libc.a(lib_a-lseekr.o)
 .data          0x0081ff58        0x0 /OPT/altera/12.1/nios2eds/bin/gnu/H-i686-pc-linux-gnu/bin/../lib/gcc/nios2-elf/4.1.2/../../../../nios2-elf/lib/mno-hw-mul/libc.a(lib_a-readr.o)
 .data          0x0081ff58        0x0 /OPT/altera/12.1/nios2eds/bin/gnu/H-i686-pc-linux-gnu/bin/../lib/gcc/nios2-elf/4.1.2/mno-hw-mul/libgcc.a(_udivdi3.o)
 .data          0x0081ff58        0x0 /OPT/altera/12.1/nios2eds/bin/gnu/H-i686-pc-linux-gnu/bin/../lib/gcc/nios2-elf/4.1.2/mno-hw-mul/libgcc.a(_umoddi3.o)
 .data          0x0081ff58        0x0 /OPT/altera/12.1/nios2eds/bin/gnu/H-i686-pc-linux-gnu/bin/../lib/gcc/nios2-elf/4.1.2/mno-hw-mul/libgcc.a(_addsub_df.o)
 .data          0x0081ff58        0x0 /OPT/altera/12.1/nios2eds/bin/gnu/H-i686-pc-linux-gnu/bin/../lib/gcc/nios2-elf/4.1.2/mno-hw-mul/libgcc.a(_mul_df.o)
 .data          0x0081ff58        0x0 /OPT/altera/12.1/nios2eds/bin/gnu/H-i686-pc-linux-gnu/bin/../lib/gcc/nios2-elf/4.1.2/mno-hw-mul/libgcc.a(_div_df.o)
 .data          0x0081ff58        0x0 /OPT/altera/12.1/nios2eds/bin/gnu/H-i686-pc-linux-gnu/bin/../lib/gcc/nios2-elf/4.1.2/mno-hw-mul/libgcc.a(_eq_df.o)
 .data          0x0081ff58        0x0 /OPT/altera/12.1/nios2eds/bin/gnu/H-i686-pc-linux-gnu/bin/../lib/gcc/nios2-elf/4.1.2/mno-hw-mul/libgcc.a(_ne_df.o)
 .data          0x0081ff58        0x0 /OPT/altera/12.1/nios2eds/bin/gnu/H-i686-pc-linux-gnu/bin/../lib/gcc/nios2-elf/4.1.2/mno-hw-mul/libgcc.a(_gt_df.o)
 .data          0x0081ff58        0x0 /OPT/altera/12.1/nios2eds/bin/gnu/H-i686-pc-linux-gnu/bin/../lib/gcc/nios2-elf/4.1.2/mno-hw-mul/libgcc.a(_ge_df.o)
 .data          0x0081ff58        0x0 /OPT/altera/12.1/nios2eds/bin/gnu/H-i686-pc-linux-gnu/bin/../lib/gcc/nios2-elf/4.1.2/mno-hw-mul/libgcc.a(_lt_df.o)
 .data          0x0081ff58        0x0 /OPT/altera/12.1/nios2eds/bin/gnu/H-i686-pc-linux-gnu/bin/../lib/gcc/nios2-elf/4.1.2/mno-hw-mul/libgcc.a(_si_to_df.o)
 .data          0x0081ff58        0x0 /OPT/altera/12.1/nios2eds/bin/gnu/H-i686-pc-linux-gnu/bin/../lib/gcc/nios2-elf/4.1.2/mno-hw-mul/libgcc.a(_df_to_si.o)
 .data          0x0081ff58        0x0 /OPT/altera/12.1/nios2eds/bin/gnu/H-i686-pc-linux-gnu/bin/../lib/gcc/nios2-elf/4.1.2/mno-hw-mul/libgcc.a(_thenan_df.o)
 .data          0x0081ff58        0x0 /OPT/altera/12.1/nios2eds/bin/gnu/H-i686-pc-linux-gnu/bin/../lib/gcc/nios2-elf/4.1.2/mno-hw-mul/libgcc.a(_usi_to_df.o)
 .data          0x0081ff58        0x0 /OPT/altera/12.1/nios2eds/bin/gnu/H-i686-pc-linux-gnu/bin/../lib/gcc/nios2-elf/4.1.2/mno-hw-mul/libgcc.a(_muldi3.o)
 .data          0x0081ff58        0x0 /OPT/altera/12.1/nios2eds/bin/gnu/H-i686-pc-linux-gnu/bin/../lib/gcc/nios2-elf/4.1.2/mno-hw-mul/libgcc.a(_clz.o)
 .data          0x0081ff58        0x0 /OPT/altera/12.1/nios2eds/bin/gnu/H-i686-pc-linux-gnu/bin/../lib/gcc/nios2-elf/4.1.2/mno-hw-mul/libgcc.a(_clzsi2.o)
 .data          0x0081ff58        0x0 /OPT/altera/12.1/nios2eds/bin/gnu/H-i686-pc-linux-gnu/bin/../lib/gcc/nios2-elf/4.1.2/mno-hw-mul/libgcc.a(_pack_df.o)
 .data          0x0081ff58        0x0 /OPT/altera/12.1/nios2eds/bin/gnu/H-i686-pc-linux-gnu/bin/../lib/gcc/nios2-elf/4.1.2/mno-hw-mul/libgcc.a(_unpack_df.o)
 .data          0x0081ff58        0x0 /OPT/altera/12.1/nios2eds/bin/gnu/H-i686-pc-linux-gnu/bin/../lib/gcc/nios2-elf/4.1.2/mno-hw-mul/libgcc.a(_fpcmp_parts_df.o)
 .data          0x0081ff58        0x0 ../sdcard_bsp//libucosii_bsp.a(alt_close.o)
 .data          0x0081ff58      0x1a8 ../sdcard_bsp//libucosii_bsp.a(alt_dev.o)
                0x0081ff58                alt_dev_null
                0x0081ff80                alt_fd_list
 .data          0x00820100        0x0 ../sdcard_bsp//libucosii_bsp.a(alt_errno.o)
 .data          0x00820100        0x0 ../sdcard_bsp//libucosii_bsp.a(alt_fstat.o)
 .data          0x00820100        0x0 ../sdcard_bsp//libucosii_bsp.a(alt_isatty.o)
 .data          0x00820100        0x0 ../sdcard_bsp//libucosii_bsp.a(alt_load.o)
 .data          0x00820100        0x0 ../sdcard_bsp//libucosii_bsp.a(alt_lseek.o)
 .data          0x00820100        0x0 ../sdcard_bsp//libucosii_bsp.a(alt_main.o)
 .data          0x00820100        0x0 ../sdcard_bsp//libucosii_bsp.a(alt_read.o)
 .data          0x00820100        0x0 ../sdcard_bsp//libucosii_bsp.a(alt_release_fd.o)
 .data          0x00820100        0x0 ../sdcard_bsp//libucosii_bsp.a(alt_sbrk.o)
 .data          0x00820100        0x0 ../sdcard_bsp//libucosii_bsp.a(alt_write.o)
 .data          0x00820100        0x0 ../sdcard_bsp//libucosii_bsp.a(alt_env_lock.o)
 .data          0x00820100        0x0 ../sdcard_bsp//libucosii_bsp.a(alt_malloc_lock.o)
 .data          0x00820100        0x0 ../sdcard_bsp//libucosii_bsp.a(os_core.o)
 .data          0x00820100        0x0 ../sdcard_bsp//libucosii_bsp.a(os_dbg.o)
 .data          0x00820100        0x0 ../sdcard_bsp//libucosii_bsp.a(os_flag.o)
 .data          0x00820100        0x0 ../sdcard_bsp//libucosii_bsp.a(os_mem.o)
 .data          0x00820100        0x0 ../sdcard_bsp//libucosii_bsp.a(os_q.o)
 .data          0x00820100        0x0 ../sdcard_bsp//libucosii_bsp.a(os_sem.o)
 .data          0x00820100        0x0 ../sdcard_bsp//libucosii_bsp.a(os_task.o)
 .data          0x00820100        0x0 ../sdcard_bsp//libucosii_bsp.a(os_time.o)
 .data          0x00820100     0x10f8 ../sdcard_bsp//libucosii_bsp.a(alt_sys_init.o)
 .data          0x008211f8        0x0 ../sdcard_bsp//libucosii_bsp.a(altera_avalon_jtag_uart_fd.o)
 .data          0x008211f8        0x0 ../sdcard_bsp//libucosii_bsp.a(altera_avalon_jtag_uart_init.o)
 .data          0x008211f8        0x0 ../sdcard_bsp//libucosii_bsp.a(altera_avalon_jtag_uart_ioctl.o)
 .data          0x008211f8        0x0 ../sdcard_bsp//libucosii_bsp.a(altera_avalon_jtag_uart_read.o)
 .data          0x008211f8        0x0 ../sdcard_bsp//libucosii_bsp.a(altera_avalon_jtag_uart_write.o)
 .data          0x008211f8        0x0 ../sdcard_bsp//libucosii_bsp.a(altera_avalon_timer_sc.o)
 .data          0x008211f8        0x0 ../sdcard_bsp//libucosii_bsp.a(altera_up_avalon_character_lcd.o)
 .data          0x008211f8        0x0 ../sdcard_bsp//libucosii_bsp.a(alt_alarm_start.o)
 .data          0x008211f8        0x0 ../sdcard_bsp//libucosii_bsp.a(alt_dcache_flush_all.o)
 .data          0x008211f8        0x0 ../sdcard_bsp//libucosii_bsp.a(alt_dev_llist_insert.o)
 .data          0x008211f8        0x0 ../sdcard_bsp//libucosii_bsp.a(alt_do_ctors.o)
 .data          0x008211f8        0x0 ../sdcard_bsp//libucosii_bsp.a(alt_do_dtors.o)
 .data          0x008211f8        0x0 ../sdcard_bsp//libucosii_bsp.a(alt_find_dev.o)
 .data          0x008211f8        0x0 ../sdcard_bsp//libucosii_bsp.a(alt_icache_flush_all.o)
 .data          0x008211f8        0x0 ../sdcard_bsp//libucosii_bsp.a(alt_io_redirect.o)
 .data          0x008211f8        0x0 ../sdcard_bsp//libucosii_bsp.a(alt_irq_register.o)
 .data          0x008211f8        0x0 ../sdcard_bsp//libucosii_bsp.a(alt_irq_vars.o)
 .data          0x008211f8        0x0 ../sdcard_bsp//libucosii_bsp.a(alt_open.o)
 .data          0x008211f8        0x0 ../sdcard_bsp//libucosii_bsp.a(alt_tick.o)
 .data          0x008211f8        0x0 ../sdcard_bsp//libucosii_bsp.a(altera_nios2_qsys_irq.o)
 .data          0x008211f8        0x0 ../sdcard_bsp//libucosii_bsp.a(os_cpu_a.o)
 .data          0x008211f8        0x0 ../sdcard_bsp//libucosii_bsp.a(os_cpu_c.o)
 .data          0x008211f8        0x0 ../sdcard_bsp//libucosii_bsp.a(alt_find_file.o)
 .data          0x008211f8        0x0 ../sdcard_bsp//libucosii_bsp.a(alt_get_fd.o)
 .data          0x008211f8        0x0 ../sdcard_bsp//libucosii_bsp.a(alt_irq_entry.o)
 .data          0x008211f8        0x0 ../sdcard_bsp//libucosii_bsp.a(alt_irq_handler.o)
 .data          0x008211f8        0x0 ../sdcard_bsp//libucosii_bsp.a(alt_exception_entry.o)
 .data          0x008211f8        0x0 /OPT/altera/12.1/nios2eds/bin/gnu/H-i686-pc-linux-gnu/bin/../lib/gcc/nios2-elf/4.1.2/../../../../nios2-elf/lib/mno-hw-mul/libc.a(lib_a-atexit.o)
 .data          0x008211f8        0x0 /OPT/altera/12.1/nios2eds/bin/gnu/H-i686-pc-linux-gnu/bin/../lib/gcc/nios2-elf/4.1.2/../../../../nios2-elf/lib/mno-hw-mul/libc.a(lib_a-exit.o)
 .data          0x008211f8        0x0 /OPT/altera/12.1/nios2eds/bin/gnu/H-i686-pc-linux-gnu/bin/../lib/gcc/nios2-elf/4.1.2/../../../../nios2-elf/lib/mno-hw-mul/libc.a(lib_a-memcmp.o)
 .data          0x008211f8        0x0 /OPT/altera/12.1/nios2eds/bin/gnu/H-i686-pc-linux-gnu/bin/../lib/gcc/nios2-elf/4.1.2/../../../../nios2-elf/lib/mno-hw-mul/libc.a(lib_a-__atexit.o)
 .data          0x008211f8        0x0 /OPT/altera/12.1/nios2eds/bin/gnu/H-i686-pc-linux-gnu/bin/../lib/gcc/nios2-elf/4.1.2/../../../../nios2-elf/lib/mno-hw-mul/libc.a(lib_a-__call_atexit.o)
 .data          0x008211f8        0x0 ../sdcard_bsp//libucosii_bsp.a(alt_exit.o)
                0x008291f8                _gp = ABSOLUTE ((. + 0x8000))
                0x008291f8                PROVIDE (gp, _gp)
 *(.rwdata .rwdata.*)
 *(.sdata .sdata.* .gnu.linkonce.s.*)
 .sdata         0x008211f8        0x8 /OPT/altera/12.1/nios2eds/bin/gnu/H-i686-pc-linux-gnu/bin/../lib/gcc/nios2-elf/4.1.2/../../../../nios2-elf/lib/mno-hw-mul/libc.a(lib_a-mallocr.o)
                0x008211f8                __malloc_trim_threshold
                0x008211fc                __malloc_sbrk_base
 .sdata         0x00821200        0x8 /OPT/altera/12.1/nios2eds/bin/gnu/H-i686-pc-linux-gnu/bin/../lib/gcc/nios2-elf/4.1.2/../../../../nios2-elf/lib/mno-hw-mul/libc.a(lib_a-impure.o)
                0x00821200                _impure_ptr
                0x00821204                _global_impure_ptr
 .sdata         0x00821208        0x8 /OPT/altera/12.1/nios2eds/bin/gnu/H-i686-pc-linux-gnu/bin/../lib/gcc/nios2-elf/4.1.2/../../../../nios2-elf/lib/mno-hw-mul/libc.a(lib_a-locale.o)
                0x00821208                __mb_cur_max
 .sdata         0x00821210       0x14 ../sdcard_bsp//libucosii_bsp.a(alt_dev.o)
                0x00821210                alt_fs_list
                0x00821218                alt_dev_list
                0x00821220                alt_max_fd
 .sdata         0x00821224        0x4 ../sdcard_bsp//libucosii_bsp.a(alt_errno.o)
                0x00821224                alt_errno
 .sdata         0x00821228        0x4 ../sdcard_bsp//libucosii_bsp.a(alt_sbrk.o)
 .sdata         0x0082122c        0x4 ../sdcard_bsp//libucosii_bsp.a(alt_env_lock.o)
 .sdata         0x00821230        0x4 ../sdcard_bsp//libucosii_bsp.a(alt_malloc_lock.o)
 .sdata         0x00821234       0x74 ../sdcard_bsp//libucosii_bsp.a(os_dbg.o)
                0x00821234                OSDebugEn
                0x00821238                OSEndiannessTest
                0x0082123c                OSEventEn
                0x0082123e                OSEventMax
                0x00821240                OSEventNameSize
                0x00821242                OSEventSize
                0x00821244                OSEventTblSize
                0x00821246                OSEventMultiEn
                0x00821248                OSFlagEn
                0x0082124a                OSFlagGrpSize
                0x0082124c                OSFlagNodeSize
                0x0082124e                OSFlagWidth
                0x00821250                OSFlagMax
                0x00821252                OSFlagNameSize
                0x00821254                OSLowestPrio
                0x00821256                OSMboxEn
                0x00821258                OSMemEn
                0x0082125a                OSMemMax
                0x0082125c                OSMemNameSize
                0x0082125e                OSMemSize
                0x00821260                OSMemTblSize
                0x00821262                OSMutexEn
                0x00821264                OSPtrSize
                0x00821266                OSQEn
                0x00821268                OSQMax
                0x0082126a                OSQSize
                0x0082126c                OSRdyTblSize
                0x0082126e                OSSemEn
                0x00821270                OSStkWidth
                0x00821272                OSTaskCreateEn
                0x00821274                OSTaskCreateExtEn
                0x00821276                OSTaskDelEn
                0x00821278                OSTaskIdleStkSize
                0x0082127a                OSTaskProfileEn
                0x0082127c                OSTaskMax
                0x0082127e                OSTaskNameSize
                0x00821280                OSTaskStatEn
                0x00821282                OSTaskStatStkSize
                0x00821284                OSTaskStatStkChkEn
                0x00821286                OSTaskSwHookEn
                0x00821288                OSTCBPrioTblMax
                0x0082128a                OSTCBSize
                0x0082128c                OSTicksPerSec
                0x0082128e                OSTimeTickHookEn
                0x00821290                OSVersionNbr
                0x00821292                OSTmrEn
                0x00821294                OSTmrCfgMax
                0x00821296                OSTmrCfgNameSize
                0x00821298                OSTmrCfgWheelSize
                0x0082129a                OSTmrCfgTicksPerSec
                0x0082129c                OSTmrSize
                0x0082129e                OSTmrTblSize
                0x008212a0                OSTmrWheelSize
                0x008212a2                OSTmrWheelTblSize
                0x008212a4                OSDataSize
 .sdata         0x008212a8        0x4 ../sdcard_bsp//libucosii_bsp.a(alt_irq_vars.o)
                0x008212a8                alt_priority_mask
 .sdata         0x008212ac        0x8 ../sdcard_bsp//libucosii_bsp.a(alt_tick.o)
                0x008212ac                alt_alarm_list
 *(.sdata2 .sdata2.* .gnu.linkonce.s2.*)
                0x008212b4                . = ALIGN (0x4)
                0x008212b4                _edata = ABSOLUTE (.)
                0x008212b4                PROVIDE (edata, ABSOLUTE (.))
                0x008212b4                PROVIDE (__ram_rwdata_end, ABSOLUTE (.))
                0x008212b4                PROVIDE (__flash_rwdata_start, LOADADDR (.rwdata))

.bss            0x00822e30     0x3574
                0x00822e30                __bss_start = ABSOLUTE (.)
                0x00822e30                PROVIDE (__sbss_start, ABSOLUTE (.))
                0x00822e30                PROVIDE (___sbss_start, ABSOLUTE (.))
 *(.dynsbss)
 *(.sbss .sbss.* .gnu.linkonce.sb.*)
 .sbss          0x00822e30        0xc /OPT/altera/12.1/nios2eds/bin/gnu/H-i686-pc-linux-gnu/bin/../lib/gcc/nios2-elf/4.1.2/../../../../nios2-elf/lib/mno-hw-mul/libc.a(lib_a-mallocr.o)
                0x00822e30                __malloc_top_pad
                0x00822e34                __malloc_max_sbrked_mem
                0x00822e38                __malloc_max_total_mem
 .sbss          0x00822e3c        0x4 /OPT/altera/12.1/nios2eds/bin/gnu/H-i686-pc-linux-gnu/bin/../lib/gcc/nios2-elf/4.1.2/../../../../nios2-elf/lib/mno-hw-mul/libc.a(lib_a-int_errno.o)
                0x00822e3c                errno
 .sbss          0x00822e40        0xc /OPT/altera/12.1/nios2eds/bin/gnu/H-i686-pc-linux-gnu/bin/../lib/gcc/nios2-elf/4.1.2/../../../../nios2-elf/lib/mno-hw-mul/libc.a(lib_a-locale.o)
                0x00822e40                __nlocale_changed
                0x00822e44                __mlocale_changed
                0x00822e48                _PathLocale
 .sbss          0x00822e4c        0x4 ../sdcard_bsp//libucosii_bsp.a(alt_dev.o)
                0x00822e4c                alt_fd_list_lock
 .sbss          0x00822e50        0xc ../sdcard_bsp//libucosii_bsp.a(alt_main.o)
                0x00822e50                alt_argc
                0x00822e54                alt_argv
                0x00822e58                alt_envp
 .sbss          0x00822e5c        0x8 ../sdcard_bsp//libucosii_bsp.a(alt_env_lock.o)
                0x00822e60                alt_envsem
 .sbss          0x00822e64        0x8 ../sdcard_bsp//libucosii_bsp.a(alt_malloc_lock.o)
                0x00822e68                alt_heapsem
 .sbss          0x00822e6c       0x50 ../sdcard_bsp//libucosii_bsp.a(os_core.o)
                0x00822e6c                OSLockNesting
                0x00822e6d                OSRunning
                0x00822e70                OSIdleCtr
                0x00822e74                OSPrioHighRdy
                0x00822e75                OSPrioCur
                0x00822e78                OSTCBList
                0x00822e7c                OSTickStepState
                0x00822e80                OSCtxSwCtr
                0x00822e84                OSIdleCtrMax
                0x00822e88                OSTCBFreeList
                0x00822e8c                OSCPUUsage
                0x00822e8d                OSTaskCtr
                0x00822e90                OSMemFreeList
                0x00822e94                OSTCBHighRdy
                0x00822e98                OSQFreeList
                0x00822e9c                OSRdyGrp
                0x00822e9d                OSRdyTbl
                0x00822ea0                OSEventFreeList
                0x00822ea4                OSIntNesting
                0x00822ea8                OSTCBCur
                0x00822eac                OSTime
                0x00822eb0                OSFlagFreeList
                0x00822eb4                OSStatRdy
                0x00822eb8                OSIdleCtrRun
 .sbss          0x00822ebc        0x4 ../sdcard_bsp//libucosii_bsp.a(alt_irq_vars.o)
                0x00822ebc                alt_irq_active
 .sbss          0x00822ec0        0x8 ../sdcard_bsp//libucosii_bsp.a(alt_tick.o)
                0x00822ec0                _alt_tick_rate
                0x00822ec4                _alt_nticks
 *(.sbss2 .sbss2.* .gnu.linkonce.sb2.*)
 *(.scommon)
                0x00822ec8                PROVIDE (__sbss_end, ABSOLUTE (.))
                0x00822ec8                PROVIDE (___sbss_end, ABSOLUTE (.))
 *(.dynbss)
 *(.bss .bss.* .gnu.linkonce.b.*)
 .bss           0x00822ec8        0x0 ../sdcard_bsp//obj/HAL/src/crt0.o
 .bss           0x00822ec8        0x0 obj/default/efsl/debug.o
 .bss           0x00822ec8        0x0 obj/default/efsl/dir.o
 .bss           0x00822ec8        0x0 obj/default/efsl/disc.o
 .bss           0x00822ec8        0x0 obj/default/efsl/efs.o
 .bss           0x00822ec8        0x0 obj/default/efsl/extract.o
 .bss           0x00822ec8        0x0 obj/default/efsl/fat.o
 .bss           0x00822ec8        0x0 obj/default/efsl/file.o
 .bss           0x00822ec8        0x0 obj/default/efsl/fs.o
 .bss           0x00822ec8        0x0 obj/default/efsl/ioman.o
 .bss           0x00822ec8        0x0 obj/default/efsl/ls.o
 .bss           0x00822ec8        0x0 obj/default/efsl/mkfs.o
 .bss           0x00822ec8        0x0 obj/default/efsl/nios2.o
 .bss           0x00822ec8        0x0 obj/default/efsl/nios2_ramdisk.o
 .bss           0x00822ec8        0x0 obj/default/efsl/partition.o
 .bss           0x00822ec8        0x0 obj/default/efsl/plibc.o
 .bss           0x00822ec8        0x0 obj/default/efsl/sd.o
 .bss           0x00822ec8        0x0 obj/default/efsl/time.o
 .bss           0x00822ec8        0x0 obj/default/efsl/ui.o
 .bss           0x00822ec8        0x0 obj/default/sdCardREAD.o
 .bss           0x00822ec8        0x0 /OPT/altera/12.1/nios2eds/bin/gnu/H-i686-pc-linux-gnu/bin/../lib/gcc/nios2-elf/4.1.2/mno-hw-mul/libgcc.a(lib2-divmod.o)
 .bss           0x00822ec8        0x0 /OPT/altera/12.1/nios2eds/bin/gnu/H-i686-pc-linux-gnu/bin/../lib/gcc/nios2-elf/4.1.2/mno-hw-mul/libgcc.a(lib2-mul.o)
 .bss           0x00822ec8        0x0 /OPT/altera/12.1/nios2eds/bin/gnu/H-i686-pc-linux-gnu/bin/../lib/gcc/nios2-elf/4.1.2/../../../../nios2-elf/lib/mno-hw-mul/libc.a(lib_a-malloc.o)
 .bss           0x00822ec8       0x28 /OPT/altera/12.1/nios2eds/bin/gnu/H-i686-pc-linux-gnu/bin/../lib/gcc/nios2-elf/4.1.2/../../../../nios2-elf/lib/mno-hw-mul/libc.a(lib_a-mallocr.o)
                0x00822ec8                __malloc_current_mallinfo
 .bss           0x00822ef0        0x0 /OPT/altera/12.1/nios2eds/bin/gnu/H-i686-pc-linux-gnu/bin/../lib/gcc/nios2-elf/4.1.2/../../../../nios2-elf/lib/mno-hw-mul/libc.a(lib_a-memcpy.o)
 .bss           0x00822ef0        0x0 /OPT/altera/12.1/nios2eds/bin/gnu/H-i686-pc-linux-gnu/bin/../lib/gcc/nios2-elf/4.1.2/../../../../nios2-elf/lib/mno-hw-mul/libc.a(lib_a-printf.o)
 .bss           0x00822ef0        0x0 /OPT/altera/12.1/nios2eds/bin/gnu/H-i686-pc-linux-gnu/bin/../lib/gcc/nios2-elf/4.1.2/../../../../nios2-elf/lib/mno-hw-mul/libc.a(lib_a-putchar.o)
 .bss           0x00822ef0        0x0 /OPT/altera/12.1/nios2eds/bin/gnu/H-i686-pc-linux-gnu/bin/../lib/gcc/nios2-elf/4.1.2/../../../../nios2-elf/lib/mno-hw-mul/libc.a(lib_a-puts.o)
 .bss           0x00822ef0        0x0 /OPT/altera/12.1/nios2eds/bin/gnu/H-i686-pc-linux-gnu/bin/../lib/gcc/nios2-elf/4.1.2/../../../../nios2-elf/lib/mno-hw-mul/libc.a(lib_a-sbrkr.o)
 .bss           0x00822ef0        0x0 /OPT/altera/12.1/nios2eds/bin/gnu/H-i686-pc-linux-gnu/bin/../lib/gcc/nios2-elf/4.1.2/../../../../nios2-elf/lib/mno-hw-mul/libc.a(lib_a-strlen.o)
 .bss           0x00822ef0        0x0 /OPT/altera/12.1/nios2eds/bin/gnu/H-i686-pc-linux-gnu/bin/../lib/gcc/nios2-elf/4.1.2/../../../../nios2-elf/lib/mno-hw-mul/libc.a(lib_a-vfprintf.o)
 .bss           0x00822ef0        0x0 /OPT/altera/12.1/nios2eds/bin/gnu/H-i686-pc-linux-gnu/bin/../lib/gcc/nios2-elf/4.1.2/../../../../nios2-elf/lib/mno-hw-mul/libc.a(lib_a-wsetup.o)
 .bss           0x00822ef0        0x0 /OPT/altera/12.1/nios2eds/bin/gnu/H-i686-pc-linux-gnu/bin/../lib/gcc/nios2-elf/4.1.2/../../../../nios2-elf/lib/mno-hw-mul/libc.a(lib_a-dtoa.o)
 .bss           0x00822ef0        0x0 /OPT/altera/12.1/nios2eds/bin/gnu/H-i686-pc-linux-gnu/bin/../lib/gcc/nios2-elf/4.1.2/../../../../nios2-elf/lib/mno-hw-mul/libc.a(lib_a-fflush.o)
 .bss           0x00822ef0        0x0 /OPT/altera/12.1/nios2eds/bin/gnu/H-i686-pc-linux-gnu/bin/../lib/gcc/nios2-elf/4.1.2/../../../../nios2-elf/lib/mno-hw-mul/libc.a(lib_a-findfp.o)
 .bss           0x00822ef0        0x0 /OPT/altera/12.1/nios2eds/bin/gnu/H-i686-pc-linux-gnu/bin/../lib/gcc/nios2-elf/4.1.2/../../../../nios2-elf/lib/mno-hw-mul/libc.a(lib_a-freer.o)
 .bss           0x00822ef0        0x0 /OPT/altera/12.1/nios2eds/bin/gnu/H-i686-pc-linux-gnu/bin/../lib/gcc/nios2-elf/4.1.2/../../../../nios2-elf/lib/mno-hw-mul/libc.a(lib_a-fvwrite.o)
 .bss           0x00822ef0        0x0 /OPT/altera/12.1/nios2eds/bin/gnu/H-i686-pc-linux-gnu/bin/../lib/gcc/nios2-elf/4.1.2/../../../../nios2-elf/lib/mno-hw-mul/libc.a(lib_a-fwalk.o)
 .bss           0x00822ef0        0x0 /OPT/altera/12.1/nios2eds/bin/gnu/H-i686-pc-linux-gnu/bin/../lib/gcc/nios2-elf/4.1.2/../../../../nios2-elf/lib/mno-hw-mul/libc.a(lib_a-impure.o)
 .bss           0x00822ef0        0x0 /OPT/altera/12.1/nios2eds/bin/gnu/H-i686-pc-linux-gnu/bin/../lib/gcc/nios2-elf/4.1.2/../../../../nios2-elf/lib/mno-hw-mul/libc.a(lib_a-int_errno.o)
 .bss           0x00822ef0        0x0 /OPT/altera/12.1/nios2eds/bin/gnu/H-i686-pc-linux-gnu/bin/../lib/gcc/nios2-elf/4.1.2/../../../../nios2-elf/lib/mno-hw-mul/libc.a(lib_a-locale.o)
 .bss           0x00822ef0        0x0 /OPT/altera/12.1/nios2eds/bin/gnu/H-i686-pc-linux-gnu/bin/../lib/gcc/nios2-elf/4.1.2/../../../../nios2-elf/lib/mno-hw-mul/libc.a(lib_a-makebuf.o)
 .bss           0x00822ef0        0x0 /OPT/altera/12.1/nios2eds/bin/gnu/H-i686-pc-linux-gnu/bin/../lib/gcc/nios2-elf/4.1.2/../../../../nios2-elf/lib/mno-hw-mul/libc.a(lib_a-memchr.o)
 .bss           0x00822ef0        0x0 /OPT/altera/12.1/nios2eds/bin/gnu/H-i686-pc-linux-gnu/bin/../lib/gcc/nios2-elf/4.1.2/../../../../nios2-elf/lib/mno-hw-mul/libc.a(lib_a-memmove.o)
 .bss           0x00822ef0        0x0 /OPT/altera/12.1/nios2eds/bin/gnu/H-i686-pc-linux-gnu/bin/../lib/gcc/nios2-elf/4.1.2/../../../../nios2-elf/lib/mno-hw-mul/libc.a(lib_a-memset.o)
 .bss           0x00822ef0        0x0 /OPT/altera/12.1/nios2eds/bin/gnu/H-i686-pc-linux-gnu/bin/../lib/gcc/nios2-elf/4.1.2/../../../../nios2-elf/lib/mno-hw-mul/libc.a(lib_a-mprec.o)
 .bss           0x00822ef0        0x0 /OPT/altera/12.1/nios2eds/bin/gnu/H-i686-pc-linux-gnu/bin/../lib/gcc/nios2-elf/4.1.2/../../../../nios2-elf/lib/mno-hw-mul/libc.a(lib_a-putc.o)
 .bss           0x00822ef0        0x0 /OPT/altera/12.1/nios2eds/bin/gnu/H-i686-pc-linux-gnu/bin/../lib/gcc/nios2-elf/4.1.2/../../../../nios2-elf/lib/mno-hw-mul/libc.a(lib_a-reallocr.o)
 .bss           0x00822ef0        0x0 /OPT/altera/12.1/nios2eds/bin/gnu/H-i686-pc-linux-gnu/bin/../lib/gcc/nios2-elf/4.1.2/../../../../nios2-elf/lib/mno-hw-mul/libc.a(lib_a-s_isinfd.o)
 .bss           0x00822ef0        0x0 /OPT/altera/12.1/nios2eds/bin/gnu/H-i686-pc-linux-gnu/bin/../lib/gcc/nios2-elf/4.1.2/../../../../nios2-elf/lib/mno-hw-mul/libc.a(lib_a-s_isnand.o)
 .bss           0x00822ef0        0x0 /OPT/altera/12.1/nios2eds/bin/gnu/H-i686-pc-linux-gnu/bin/../lib/gcc/nios2-elf/4.1.2/../../../../nios2-elf/lib/mno-hw-mul/libc.a(lib_a-stdio.o)
 .bss           0x00822ef0        0x0 /OPT/altera/12.1/nios2eds/bin/gnu/H-i686-pc-linux-gnu/bin/../lib/gcc/nios2-elf/4.1.2/../../../../nios2-elf/lib/mno-hw-mul/libc.a(lib_a-strcmp.o)
 .bss           0x00822ef0        0x0 /OPT/altera/12.1/nios2eds/bin/gnu/H-i686-pc-linux-gnu/bin/../lib/gcc/nios2-elf/4.1.2/../../../../nios2-elf/lib/mno-hw-mul/libc.a(lib_a-wbuf.o)
 .bss           0x00822ef0        0x0 /OPT/altera/12.1/nios2eds/bin/gnu/H-i686-pc-linux-gnu/bin/../lib/gcc/nios2-elf/4.1.2/../../../../nios2-elf/lib/mno-hw-mul/libc.a(lib_a-writer.o)
 .bss           0x00822ef0        0x0 /OPT/altera/12.1/nios2eds/bin/gnu/H-i686-pc-linux-gnu/bin/../lib/gcc/nios2-elf/4.1.2/../../../../nios2-elf/lib/mno-hw-mul/libc.a(lib_a-callocr.o)
 .bss           0x00822ef0        0x0 /OPT/altera/12.1/nios2eds/bin/gnu/H-i686-pc-linux-gnu/bin/../lib/gcc/nios2-elf/4.1.2/../../../../nios2-elf/lib/mno-hw-mul/libc.a(lib_a-closer.o)
 .bss           0x00822ef0        0x0 /OPT/altera/12.1/nios2eds/bin/gnu/H-i686-pc-linux-gnu/bin/../lib/gcc/nios2-elf/4.1.2/../../../../nios2-elf/lib/mno-hw-mul/libc.a(lib_a-fclose.o)
 .bss           0x00822ef0        0x0 /OPT/altera/12.1/nios2eds/bin/gnu/H-i686-pc-linux-gnu/bin/../lib/gcc/nios2-elf/4.1.2/../../../../nios2-elf/lib/mno-hw-mul/libc.a(lib_a-fstatr.o)
 .bss           0x00822ef0        0x0 /OPT/altera/12.1/nios2eds/bin/gnu/H-i686-pc-linux-gnu/bin/../lib/gcc/nios2-elf/4.1.2/../../../../nios2-elf/lib/mno-hw-mul/libc.a(lib_a-isattyr.o)
 .bss           0x00822ef0        0x0 /OPT/altera/12.1/nios2eds/bin/gnu/H-i686-pc-linux-gnu/bin/../lib/gcc/nios2-elf/4.1.2/../../../../nios2-elf/lib/mno-hw-mul/libc.a(lib_a-lseekr.o)
 .bss           0x00822ef0        0x0 /OPT/altera/12.1/nios2eds/bin/gnu/H-i686-pc-linux-gnu/bin/../lib/gcc/nios2-elf/4.1.2/../../../../nios2-elf/lib/mno-hw-mul/libc.a(lib_a-readr.o)
 .bss           0x00822ef0        0x0 /OPT/altera/12.1/nios2eds/bin/gnu/H-i686-pc-linux-gnu/bin/../lib/gcc/nios2-elf/4.1.2/mno-hw-mul/libgcc.a(_udivdi3.o)
 .bss           0x00822ef0        0x0 /OPT/altera/12.1/nios2eds/bin/gnu/H-i686-pc-linux-gnu/bin/../lib/gcc/nios2-elf/4.1.2/mno-hw-mul/libgcc.a(_umoddi3.o)
 .bss           0x00822ef0        0x0 /OPT/altera/12.1/nios2eds/bin/gnu/H-i686-pc-linux-gnu/bin/../lib/gcc/nios2-elf/4.1.2/mno-hw-mul/libgcc.a(_addsub_df.o)
 .bss           0x00822ef0        0x0 /OPT/altera/12.1/nios2eds/bin/gnu/H-i686-pc-linux-gnu/bin/../lib/gcc/nios2-elf/4.1.2/mno-hw-mul/libgcc.a(_mul_df.o)
 .bss           0x00822ef0        0x0 /OPT/altera/12.1/nios2eds/bin/gnu/H-i686-pc-linux-gnu/bin/../lib/gcc/nios2-elf/4.1.2/mno-hw-mul/libgcc.a(_div_df.o)
 .bss           0x00822ef0        0x0 /OPT/altera/12.1/nios2eds/bin/gnu/H-i686-pc-linux-gnu/bin/../lib/gcc/nios2-elf/4.1.2/mno-hw-mul/libgcc.a(_eq_df.o)
 .bss           0x00822ef0        0x0 /OPT/altera/12.1/nios2eds/bin/gnu/H-i686-pc-linux-gnu/bin/../lib/gcc/nios2-elf/4.1.2/mno-hw-mul/libgcc.a(_ne_df.o)
 .bss           0x00822ef0        0x0 /OPT/altera/12.1/nios2eds/bin/gnu/H-i686-pc-linux-gnu/bin/../lib/gcc/nios2-elf/4.1.2/mno-hw-mul/libgcc.a(_gt_df.o)
 .bss           0x00822ef0        0x0 /OPT/altera/12.1/nios2eds/bin/gnu/H-i686-pc-linux-gnu/bin/../lib/gcc/nios2-elf/4.1.2/mno-hw-mul/libgcc.a(_ge_df.o)
 .bss           0x00822ef0        0x0 /OPT/altera/12.1/nios2eds/bin/gnu/H-i686-pc-linux-gnu/bin/../lib/gcc/nios2-elf/4.1.2/mno-hw-mul/libgcc.a(_lt_df.o)
 .bss           0x00822ef0        0x0 /OPT/altera/12.1/nios2eds/bin/gnu/H-i686-pc-linux-gnu/bin/../lib/gcc/nios2-elf/4.1.2/mno-hw-mul/libgcc.a(_si_to_df.o)
 .bss           0x00822ef0        0x0 /OPT/altera/12.1/nios2eds/bin/gnu/H-i686-pc-linux-gnu/bin/../lib/gcc/nios2-elf/4.1.2/mno-hw-mul/libgcc.a(_df_to_si.o)
 .bss           0x00822ef0        0x0 /OPT/altera/12.1/nios2eds/bin/gnu/H-i686-pc-linux-gnu/bin/../lib/gcc/nios2-elf/4.1.2/mno-hw-mul/libgcc.a(_thenan_df.o)
 .bss           0x00822ef0        0x0 /OPT/altera/12.1/nios2eds/bin/gnu/H-i686-pc-linux-gnu/bin/../lib/gcc/nios2-elf/4.1.2/mno-hw-mul/libgcc.a(_usi_to_df.o)
 .bss           0x00822ef0        0x0 /OPT/altera/12.1/nios2eds/bin/gnu/H-i686-pc-linux-gnu/bin/../lib/gcc/nios2-elf/4.1.2/mno-hw-mul/libgcc.a(_muldi3.o)
 .bss           0x00822ef0        0x0 /OPT/altera/12.1/nios2eds/bin/gnu/H-i686-pc-linux-gnu/bin/../lib/gcc/nios2-elf/4.1.2/mno-hw-mul/libgcc.a(_clz.o)
 .bss           0x00822ef0        0x0 /OPT/altera/12.1/nios2eds/bin/gnu/H-i686-pc-linux-gnu/bin/../lib/gcc/nios2-elf/4.1.2/mno-hw-mul/libgcc.a(_clzsi2.o)
 .bss           0x00822ef0        0x0 /OPT/altera/12.1/nios2eds/bin/gnu/H-i686-pc-linux-gnu/bin/../lib/gcc/nios2-elf/4.1.2/mno-hw-mul/libgcc.a(_pack_df.o)
 .bss           0x00822ef0        0x0 /OPT/altera/12.1/nios2eds/bin/gnu/H-i686-pc-linux-gnu/bin/../lib/gcc/nios2-elf/4.1.2/mno-hw-mul/libgcc.a(_unpack_df.o)
 .bss           0x00822ef0        0x0 /OPT/altera/12.1/nios2eds/bin/gnu/H-i686-pc-linux-gnu/bin/../lib/gcc/nios2-elf/4.1.2/mno-hw-mul/libgcc.a(_fpcmp_parts_df.o)
 .bss           0x00822ef0        0x0 ../sdcard_bsp//libucosii_bsp.a(alt_close.o)
 .bss           0x00822ef0        0x0 ../sdcard_bsp//libucosii_bsp.a(alt_dev.o)
 .bss           0x00822ef0        0x0 ../sdcard_bsp//libucosii_bsp.a(alt_errno.o)
 .bss           0x00822ef0        0x0 ../sdcard_bsp//libucosii_bsp.a(alt_fstat.o)
 .bss           0x00822ef0        0x0 ../sdcard_bsp//libucosii_bsp.a(alt_isatty.o)
 .bss           0x00822ef0        0x0 ../sdcard_bsp//libucosii_bsp.a(alt_load.o)
 .bss           0x00822ef0        0x0 ../sdcard_bsp//libucosii_bsp.a(alt_lseek.o)
 .bss           0x00822ef0        0x0 ../sdcard_bsp//libucosii_bsp.a(alt_main.o)
 .bss           0x00822ef0        0x0 ../sdcard_bsp//libucosii_bsp.a(alt_read.o)
 .bss           0x00822ef0        0x0 ../sdcard_bsp//libucosii_bsp.a(alt_release_fd.o)
 .bss           0x00822ef0        0x0 ../sdcard_bsp//libucosii_bsp.a(alt_sbrk.o)
 .bss           0x00822ef0        0x0 ../sdcard_bsp//libucosii_bsp.a(alt_write.o)
 .bss           0x00822ef0        0x0 ../sdcard_bsp//libucosii_bsp.a(alt_env_lock.o)
 .bss           0x00822ef0        0x0 ../sdcard_bsp//libucosii_bsp.a(alt_malloc_lock.o)
 .bss           0x00822ef0        0x0 ../sdcard_bsp//libucosii_bsp.a(os_core.o)
 .bss           0x00822ef0        0x0 ../sdcard_bsp//libucosii_bsp.a(os_dbg.o)
 .bss           0x00822ef0        0x0 ../sdcard_bsp//libucosii_bsp.a(os_flag.o)
 .bss           0x00822ef0        0x0 ../sdcard_bsp//libucosii_bsp.a(os_mem.o)
 .bss           0x00822ef0        0x0 ../sdcard_bsp//libucosii_bsp.a(os_q.o)
 .bss           0x00822ef0        0x0 ../sdcard_bsp//libucosii_bsp.a(os_sem.o)
 .bss           0x00822ef0        0x0 ../sdcard_bsp//libucosii_bsp.a(os_task.o)
 .bss           0x00822ef0        0x0 ../sdcard_bsp//libucosii_bsp.a(os_time.o)
 .bss           0x00822ef0        0x0 ../sdcard_bsp//libucosii_bsp.a(alt_sys_init.o)
 .bss           0x00822ef0        0x0 ../sdcard_bsp//libucosii_bsp.a(altera_avalon_jtag_uart_fd.o)
 .bss           0x00822ef0        0x0 ../sdcard_bsp//libucosii_bsp.a(altera_avalon_jtag_uart_init.o)
 .bss           0x00822ef0        0x0 ../sdcard_bsp//libucosii_bsp.a(altera_avalon_jtag_uart_ioctl.o)
 .bss           0x00822ef0        0x0 ../sdcard_bsp//libucosii_bsp.a(altera_avalon_jtag_uart_read.o)
 .bss           0x00822ef0        0x0 ../sdcard_bsp//libucosii_bsp.a(altera_avalon_jtag_uart_write.o)
 .bss           0x00822ef0        0x0 ../sdcard_bsp//libucosii_bsp.a(altera_avalon_timer_sc.o)
 .bss           0x00822ef0        0x0 ../sdcard_bsp//libucosii_bsp.a(altera_up_avalon_character_lcd.o)
 .bss           0x00822ef0        0x0 ../sdcard_bsp//libucosii_bsp.a(alt_alarm_start.o)
 .bss           0x00822ef0        0x0 ../sdcard_bsp//libucosii_bsp.a(alt_dcache_flush_all.o)
 .bss           0x00822ef0        0x0 ../sdcard_bsp//libucosii_bsp.a(alt_dev_llist_insert.o)
 .bss           0x00822ef0        0x0 ../sdcard_bsp//libucosii_bsp.a(alt_do_ctors.o)
 .bss           0x00822ef0        0x0 ../sdcard_bsp//libucosii_bsp.a(alt_do_dtors.o)
 .bss           0x00822ef0        0x0 ../sdcard_bsp//libucosii_bsp.a(alt_find_dev.o)
 .bss           0x00822ef0        0x0 ../sdcard_bsp//libucosii_bsp.a(alt_icache_flush_all.o)
 .bss           0x00822ef0        0x0 ../sdcard_bsp//libucosii_bsp.a(alt_io_redirect.o)
 .bss           0x00822ef0        0x0 ../sdcard_bsp//libucosii_bsp.a(alt_irq_register.o)
 .bss           0x00822ef0        0x0 ../sdcard_bsp//libucosii_bsp.a(alt_irq_vars.o)
 .bss           0x00822ef0        0x0 ../sdcard_bsp//libucosii_bsp.a(alt_open.o)
 .bss           0x00822ef0        0x0 ../sdcard_bsp//libucosii_bsp.a(alt_tick.o)
 .bss           0x00822ef0        0x0 ../sdcard_bsp//libucosii_bsp.a(altera_nios2_qsys_irq.o)
 .bss           0x00822ef0        0x0 ../sdcard_bsp//libucosii_bsp.a(os_cpu_a.o)
 .bss           0x00822ef0        0x0 ../sdcard_bsp//libucosii_bsp.a(os_cpu_c.o)
 .bss           0x00822ef0        0x0 ../sdcard_bsp//libucosii_bsp.a(alt_find_file.o)
 .bss           0x00822ef0        0x0 ../sdcard_bsp//libucosii_bsp.a(alt_get_fd.o)
 .bss           0x00822ef0        0x0 ../sdcard_bsp//libucosii_bsp.a(alt_irq_entry.o)
 .bss           0x00822ef0        0x0 ../sdcard_bsp//libucosii_bsp.a(alt_irq_handler.o)
 .bss           0x00822ef0        0x0 ../sdcard_bsp//libucosii_bsp.a(alt_exception_entry.o)
 .bss           0x00822ef0        0x0 /OPT/altera/12.1/nios2eds/bin/gnu/H-i686-pc-linux-gnu/bin/../lib/gcc/nios2-elf/4.1.2/../../../../nios2-elf/lib/mno-hw-mul/libc.a(lib_a-atexit.o)
 .bss           0x00822ef0        0x0 /OPT/altera/12.1/nios2eds/bin/gnu/H-i686-pc-linux-gnu/bin/../lib/gcc/nios2-elf/4.1.2/../../../../nios2-elf/lib/mno-hw-mul/libc.a(lib_a-exit.o)
 .bss           0x00822ef0        0x0 /OPT/altera/12.1/nios2eds/bin/gnu/H-i686-pc-linux-gnu/bin/../lib/gcc/nios2-elf/4.1.2/../../../../nios2-elf/lib/mno-hw-mul/libc.a(lib_a-memcmp.o)
 .bss           0x00822ef0        0x0 /OPT/altera/12.1/nios2eds/bin/gnu/H-i686-pc-linux-gnu/bin/../lib/gcc/nios2-elf/4.1.2/../../../../nios2-elf/lib/mno-hw-mul/libc.a(lib_a-__atexit.o)
 .bss           0x00822ef0        0x0 /OPT/altera/12.1/nios2eds/bin/gnu/H-i686-pc-linux-gnu/bin/../lib/gcc/nios2-elf/4.1.2/../../../../nios2-elf/lib/mno-hw-mul/libc.a(lib_a-__call_atexit.o)
 .bss           0x00822ef0        0x0 ../sdcard_bsp//libucosii_bsp.a(alt_exit.o)
 *(COMMON)
 COMMON         0x00822ef0     0x3224 ../sdcard_bsp//libucosii_bsp.a(os_core.o)
                0x00822ef0                OSFlagTbl
                0x00823260                OSMemTbl
                0x00823e90                OSTaskStatStk
                0x00824690                OSQTbl
                0x00824870                OSTaskIdleStk
                0x00825070                OSEventTbl
                0x00825bb0                OSTCBTbl
                0x008260c0                OSTCBPrioTbl
 COMMON         0x00826114      0x100 ../sdcard_bsp//libucosii_bsp.a(alt_irq_handler.o)
                0x00826114                alt_irq
 COMMON         0x00826214      0x190 /OPT/altera/12.1/nios2eds/bin/gnu/H-i686-pc-linux-gnu/bin/../lib/gcc/nios2-elf/4.1.2/../../../../nios2-elf/lib/mno-hw-mul/libc.a(lib_a-atexit.o)
                0x00826214                _atexit0
                0x008263a4                . = ALIGN (0x4)
                0x008263a4                __bss_end = ABSOLUTE (.)

.sdram_0        0x008263a4        0x0
                0x008263a4                PROVIDE (_alt_partition_sdram_0_start, ABSOLUTE (.))
 *(.sdram_0. sdram_0.*)
                0x008263a4                . = ALIGN (0x4)
                0x008263a4                PROVIDE (_alt_partition_sdram_0_end, ABSOLUTE (.))
                0x008263a4                _end = ABSOLUTE (.)
                0x008263a4                end = ABSOLUTE (.)
                0x008263a4                __alt_stack_base = ABSOLUTE (.)
                0x008263a4                PROVIDE (_alt_partition_sdram_0_load_addr, LOADADDR (.sdram_0))

.sram_0         0x01080000        0x0 load address 0x008263a4
                0x01080000                PROVIDE (_alt_partition_sram_0_start, ABSOLUTE (.))
 *(.sram_0. sram_0.*)
                0x01080000                . = ALIGN (0x4)
                0x01080000                PROVIDE (_alt_partition_sram_0_end, ABSOLUTE (.))
                0x008263a4                PROVIDE (_alt_partition_sram_0_load_addr, LOADADDR (.sram_0))

.onchip_memory2_0
                0x011041c0        0x0 load address 0x008263a4
                0x011041c0                PROVIDE (_alt_partition_onchip_memory2_0_start, ABSOLUTE (.))
 *(.onchip_memory2_0. onchip_memory2_0.*)
                0x011041c0                . = ALIGN (0x4)
                0x011041c0                PROVIDE (_alt_partition_onchip_memory2_0_end, ABSOLUTE (.))
                0x008263a4                PROVIDE (_alt_partition_onchip_memory2_0_load_addr, LOADADDR (.onchip_memory2_0))

.stab
 *(.stab)

.stabstr
 *(.stabstr)

.stab.excl
 *(.stab.excl)

.stab.exclstr
 *(.stab.exclstr)

.stab.index
 *(.stab.index)

.stab.indexstr
 *(.stab.indexstr)

.comment        0x00000000       0x26
 *(.comment)
 .comment       0x00000000       0x26 obj/default/efsl/debug.o
                                 0x27 (size before relaxing)
 .comment       0x00000000       0x27 obj/default/efsl/dir.o
 .comment       0x00000000       0x27 obj/default/efsl/disc.o
 .comment       0x00000000       0x27 obj/default/efsl/efs.o
 .comment       0x00000000       0x27 obj/default/efsl/extract.o
 .comment       0x00000000       0x27 obj/default/efsl/fat.o
 .comment       0x00000000       0x27 obj/default/efsl/file.o
 .comment       0x00000000       0x27 obj/default/efsl/fs.o
 .comment       0x00000000       0x27 obj/default/efsl/ioman.o
 .comment       0x00000000       0x27 obj/default/efsl/ls.o
 .comment       0x00000000       0x27 obj/default/efsl/mkfs.o
 .comment       0x00000000       0x27 obj/default/efsl/nios2.o
 .comment       0x00000000       0x27 obj/default/efsl/nios2_ramdisk.o
 .comment       0x00000000       0x27 obj/default/efsl/partition.o
 .comment       0x00000000       0x27 obj/default/efsl/plibc.o
 .comment       0x00000000       0x27 obj/default/efsl/sd.o
 .comment       0x00000000       0x27 obj/default/efsl/time.o
 .comment       0x00000000       0x27 obj/default/efsl/ui.o
 .comment       0x00000000       0x27 obj/default/sdCardREAD.o
 .comment       0x00000000       0x27 /OPT/altera/12.1/nios2eds/bin/gnu/H-i686-pc-linux-gnu/bin/../lib/gcc/nios2-elf/4.1.2/mno-hw-mul/libgcc.a(lib2-divmod.o)
 .comment       0x00000000       0x27 /OPT/altera/12.1/nios2eds/bin/gnu/H-i686-pc-linux-gnu/bin/../lib/gcc/nios2-elf/4.1.2/mno-hw-mul/libgcc.a(lib2-mul.o)
 .comment       0x00000000       0x27 /OPT/altera/12.1/nios2eds/bin/gnu/H-i686-pc-linux-gnu/bin/../lib/gcc/nios2-elf/4.1.2/../../../../nios2-elf/lib/mno-hw-mul/libc.a(lib_a-malloc.o)
 .comment       0x00000000       0x27 /OPT/altera/12.1/nios2eds/bin/gnu/H-i686-pc-linux-gnu/bin/../lib/gcc/nios2-elf/4.1.2/../../../../nios2-elf/lib/mno-hw-mul/libc.a(lib_a-mallocr.o)
 .comment       0x00000000       0x27 /OPT/altera/12.1/nios2eds/bin/gnu/H-i686-pc-linux-gnu/bin/../lib/gcc/nios2-elf/4.1.2/../../../../nios2-elf/lib/mno-hw-mul/libc.a(lib_a-memcpy.o)
 .comment       0x00000000       0x27 /OPT/altera/12.1/nios2eds/bin/gnu/H-i686-pc-linux-gnu/bin/../lib/gcc/nios2-elf/4.1.2/../../../../nios2-elf/lib/mno-hw-mul/libc.a(lib_a-printf.o)
 .comment       0x00000000       0x27 /OPT/altera/12.1/nios2eds/bin/gnu/H-i686-pc-linux-gnu/bin/../lib/gcc/nios2-elf/4.1.2/../../../../nios2-elf/lib/mno-hw-mul/libc.a(lib_a-putchar.o)
 .comment       0x00000000       0x27 /OPT/altera/12.1/nios2eds/bin/gnu/H-i686-pc-linux-gnu/bin/../lib/gcc/nios2-elf/4.1.2/../../../../nios2-elf/lib/mno-hw-mul/libc.a(lib_a-puts.o)
 .comment       0x00000000       0x27 /OPT/altera/12.1/nios2eds/bin/gnu/H-i686-pc-linux-gnu/bin/../lib/gcc/nios2-elf/4.1.2/../../../../nios2-elf/lib/mno-hw-mul/libc.a(lib_a-sbrkr.o)
 .comment       0x00000000       0x27 /OPT/altera/12.1/nios2eds/bin/gnu/H-i686-pc-linux-gnu/bin/../lib/gcc/nios2-elf/4.1.2/../../../../nios2-elf/lib/mno-hw-mul/libc.a(lib_a-strlen.o)
 .comment       0x00000000       0x27 /OPT/altera/12.1/nios2eds/bin/gnu/H-i686-pc-linux-gnu/bin/../lib/gcc/nios2-elf/4.1.2/../../../../nios2-elf/lib/mno-hw-mul/libc.a(lib_a-vfprintf.o)
 .comment       0x00000000       0x27 /OPT/altera/12.1/nios2eds/bin/gnu/H-i686-pc-linux-gnu/bin/../lib/gcc/nios2-elf/4.1.2/../../../../nios2-elf/lib/mno-hw-mul/libc.a(lib_a-wsetup.o)
 .comment       0x00000000       0x27 /OPT/altera/12.1/nios2eds/bin/gnu/H-i686-pc-linux-gnu/bin/../lib/gcc/nios2-elf/4.1.2/../../../../nios2-elf/lib/mno-hw-mul/libc.a(lib_a-dtoa.o)
 .comment       0x00000000       0x27 /OPT/altera/12.1/nios2eds/bin/gnu/H-i686-pc-linux-gnu/bin/../lib/gcc/nios2-elf/4.1.2/../../../../nios2-elf/lib/mno-hw-mul/libc.a(lib_a-fflush.o)
 .comment       0x00000000       0x27 /OPT/altera/12.1/nios2eds/bin/gnu/H-i686-pc-linux-gnu/bin/../lib/gcc/nios2-elf/4.1.2/../../../../nios2-elf/lib/mno-hw-mul/libc.a(lib_a-findfp.o)
 .comment       0x00000000       0x27 /OPT/altera/12.1/nios2eds/bin/gnu/H-i686-pc-linux-gnu/bin/../lib/gcc/nios2-elf/4.1.2/../../../../nios2-elf/lib/mno-hw-mul/libc.a(lib_a-freer.o)
 .comment       0x00000000       0x27 /OPT/altera/12.1/nios2eds/bin/gnu/H-i686-pc-linux-gnu/bin/../lib/gcc/nios2-elf/4.1.2/../../../../nios2-elf/lib/mno-hw-mul/libc.a(lib_a-fvwrite.o)
 .comment       0x00000000       0x27 /OPT/altera/12.1/nios2eds/bin/gnu/H-i686-pc-linux-gnu/bin/../lib/gcc/nios2-elf/4.1.2/../../../../nios2-elf/lib/mno-hw-mul/libc.a(lib_a-fwalk.o)
 .comment       0x00000000       0x27 /OPT/altera/12.1/nios2eds/bin/gnu/H-i686-pc-linux-gnu/bin/../lib/gcc/nios2-elf/4.1.2/../../../../nios2-elf/lib/mno-hw-mul/libc.a(lib_a-impure.o)
 .comment       0x00000000       0x27 /OPT/altera/12.1/nios2eds/bin/gnu/H-i686-pc-linux-gnu/bin/../lib/gcc/nios2-elf/4.1.2/../../../../nios2-elf/lib/mno-hw-mul/libc.a(lib_a-int_errno.o)
 .comment       0x00000000       0x27 /OPT/altera/12.1/nios2eds/bin/gnu/H-i686-pc-linux-gnu/bin/../lib/gcc/nios2-elf/4.1.2/../../../../nios2-elf/lib/mno-hw-mul/libc.a(lib_a-locale.o)
 .comment       0x00000000       0x27 /OPT/altera/12.1/nios2eds/bin/gnu/H-i686-pc-linux-gnu/bin/../lib/gcc/nios2-elf/4.1.2/../../../../nios2-elf/lib/mno-hw-mul/libc.a(lib_a-makebuf.o)
 .comment       0x00000000       0x27 /OPT/altera/12.1/nios2eds/bin/gnu/H-i686-pc-linux-gnu/bin/../lib/gcc/nios2-elf/4.1.2/../../../../nios2-elf/lib/mno-hw-mul/libc.a(lib_a-memchr.o)
 .comment       0x00000000       0x27 /OPT/altera/12.1/nios2eds/bin/gnu/H-i686-pc-linux-gnu/bin/../lib/gcc/nios2-elf/4.1.2/../../../../nios2-elf/lib/mno-hw-mul/libc.a(lib_a-memmove.o)
 .comment       0x00000000       0x27 /OPT/altera/12.1/nios2eds/bin/gnu/H-i686-pc-linux-gnu/bin/../lib/gcc/nios2-elf/4.1.2/../../../../nios2-elf/lib/mno-hw-mul/libc.a(lib_a-memset.o)
 .comment       0x00000000       0x27 /OPT/altera/12.1/nios2eds/bin/gnu/H-i686-pc-linux-gnu/bin/../lib/gcc/nios2-elf/4.1.2/../../../../nios2-elf/lib/mno-hw-mul/libc.a(lib_a-mprec.o)
 .comment       0x00000000       0x27 /OPT/altera/12.1/nios2eds/bin/gnu/H-i686-pc-linux-gnu/bin/../lib/gcc/nios2-elf/4.1.2/../../../../nios2-elf/lib/mno-hw-mul/libc.a(lib_a-putc.o)
 .comment       0x00000000       0x27 /OPT/altera/12.1/nios2eds/bin/gnu/H-i686-pc-linux-gnu/bin/../lib/gcc/nios2-elf/4.1.2/../../../../nios2-elf/lib/mno-hw-mul/libc.a(lib_a-reallocr.o)
 .comment       0x00000000       0x27 /OPT/altera/12.1/nios2eds/bin/gnu/H-i686-pc-linux-gnu/bin/../lib/gcc/nios2-elf/4.1.2/../../../../nios2-elf/lib/mno-hw-mul/libc.a(lib_a-s_isinfd.o)
 .comment       0x00000000       0x27 /OPT/altera/12.1/nios2eds/bin/gnu/H-i686-pc-linux-gnu/bin/../lib/gcc/nios2-elf/4.1.2/../../../../nios2-elf/lib/mno-hw-mul/libc.a(lib_a-s_isnand.o)
 .comment       0x00000000       0x27 /OPT/altera/12.1/nios2eds/bin/gnu/H-i686-pc-linux-gnu/bin/../lib/gcc/nios2-elf/4.1.2/../../../../nios2-elf/lib/mno-hw-mul/libc.a(lib_a-stdio.o)
 .comment       0x00000000       0x27 /OPT/altera/12.1/nios2eds/bin/gnu/H-i686-pc-linux-gnu/bin/../lib/gcc/nios2-elf/4.1.2/../../../../nios2-elf/lib/mno-hw-mul/libc.a(lib_a-strcmp.o)
 .comment       0x00000000       0x27 /OPT/altera/12.1/nios2eds/bin/gnu/H-i686-pc-linux-gnu/bin/../lib/gcc/nios2-elf/4.1.2/../../../../nios2-elf/lib/mno-hw-mul/libc.a(lib_a-wbuf.o)
 .comment       0x00000000       0x27 /OPT/altera/12.1/nios2eds/bin/gnu/H-i686-pc-linux-gnu/bin/../lib/gcc/nios2-elf/4.1.2/../../../../nios2-elf/lib/mno-hw-mul/libc.a(lib_a-writer.o)
 .comment       0x00000000       0x27 /OPT/altera/12.1/nios2eds/bin/gnu/H-i686-pc-linux-gnu/bin/../lib/gcc/nios2-elf/4.1.2/../../../../nios2-elf/lib/mno-hw-mul/libc.a(lib_a-callocr.o)
 .comment       0x00000000       0x27 /OPT/altera/12.1/nios2eds/bin/gnu/H-i686-pc-linux-gnu/bin/../lib/gcc/nios2-elf/4.1.2/../../../../nios2-elf/lib/mno-hw-mul/libc.a(lib_a-closer.o)
 .comment       0x00000000       0x27 /OPT/altera/12.1/nios2eds/bin/gnu/H-i686-pc-linux-gnu/bin/../lib/gcc/nios2-elf/4.1.2/../../../../nios2-elf/lib/mno-hw-mul/libc.a(lib_a-fclose.o)
 .comment       0x00000000       0x27 /OPT/altera/12.1/nios2eds/bin/gnu/H-i686-pc-linux-gnu/bin/../lib/gcc/nios2-elf/4.1.2/../../../../nios2-elf/lib/mno-hw-mul/libc.a(lib_a-fstatr.o)
 .comment       0x00000000       0x27 /OPT/altera/12.1/nios2eds/bin/gnu/H-i686-pc-linux-gnu/bin/../lib/gcc/nios2-elf/4.1.2/../../../../nios2-elf/lib/mno-hw-mul/libc.a(lib_a-isattyr.o)
 .comment       0x00000000       0x27 /OPT/altera/12.1/nios2eds/bin/gnu/H-i686-pc-linux-gnu/bin/../lib/gcc/nios2-elf/4.1.2/../../../../nios2-elf/lib/mno-hw-mul/libc.a(lib_a-lseekr.o)
 .comment       0x00000000       0x27 /OPT/altera/12.1/nios2eds/bin/gnu/H-i686-pc-linux-gnu/bin/../lib/gcc/nios2-elf/4.1.2/../../../../nios2-elf/lib/mno-hw-mul/libc.a(lib_a-readr.o)
 .comment       0x00000000       0x27 /OPT/altera/12.1/nios2eds/bin/gnu/H-i686-pc-linux-gnu/bin/../lib/gcc/nios2-elf/4.1.2/mno-hw-mul/libgcc.a(_udivdi3.o)
 .comment       0x00000000       0x27 /OPT/altera/12.1/nios2eds/bin/gnu/H-i686-pc-linux-gnu/bin/../lib/gcc/nios2-elf/4.1.2/mno-hw-mul/libgcc.a(_umoddi3.o)
 .comment       0x00000000       0x27 /OPT/altera/12.1/nios2eds/bin/gnu/H-i686-pc-linux-gnu/bin/../lib/gcc/nios2-elf/4.1.2/mno-hw-mul/libgcc.a(_addsub_df.o)
 .comment       0x00000000       0x27 /OPT/altera/12.1/nios2eds/bin/gnu/H-i686-pc-linux-gnu/bin/../lib/gcc/nios2-elf/4.1.2/mno-hw-mul/libgcc.a(_mul_df.o)
 .comment       0x00000000       0x27 /OPT/altera/12.1/nios2eds/bin/gnu/H-i686-pc-linux-gnu/bin/../lib/gcc/nios2-elf/4.1.2/mno-hw-mul/libgcc.a(_div_df.o)
 .comment       0x00000000       0x27 /OPT/altera/12.1/nios2eds/bin/gnu/H-i686-pc-linux-gnu/bin/../lib/gcc/nios2-elf/4.1.2/mno-hw-mul/libgcc.a(_eq_df.o)
 .comment       0x00000000       0x27 /OPT/altera/12.1/nios2eds/bin/gnu/H-i686-pc-linux-gnu/bin/../lib/gcc/nios2-elf/4.1.2/mno-hw-mul/libgcc.a(_ne_df.o)
 .comment       0x00000000       0x27 /OPT/altera/12.1/nios2eds/bin/gnu/H-i686-pc-linux-gnu/bin/../lib/gcc/nios2-elf/4.1.2/mno-hw-mul/libgcc.a(_gt_df.o)
 .comment       0x00000000       0x27 /OPT/altera/12.1/nios2eds/bin/gnu/H-i686-pc-linux-gnu/bin/../lib/gcc/nios2-elf/4.1.2/mno-hw-mul/libgcc.a(_ge_df.o)
 .comment       0x00000000       0x27 /OPT/altera/12.1/nios2eds/bin/gnu/H-i686-pc-linux-gnu/bin/../lib/gcc/nios2-elf/4.1.2/mno-hw-mul/libgcc.a(_lt_df.o)
 .comment       0x00000000       0x27 /OPT/altera/12.1/nios2eds/bin/gnu/H-i686-pc-linux-gnu/bin/../lib/gcc/nios2-elf/4.1.2/mno-hw-mul/libgcc.a(_si_to_df.o)
 .comment       0x00000000       0x27 /OPT/altera/12.1/nios2eds/bin/gnu/H-i686-pc-linux-gnu/bin/../lib/gcc/nios2-elf/4.1.2/mno-hw-mul/libgcc.a(_df_to_si.o)
 .comment       0x00000000       0x27 /OPT/altera/12.1/nios2eds/bin/gnu/H-i686-pc-linux-gnu/bin/../lib/gcc/nios2-elf/4.1.2/mno-hw-mul/libgcc.a(_thenan_df.o)
 .comment       0x00000000       0x27 /OPT/altera/12.1/nios2eds/bin/gnu/H-i686-pc-linux-gnu/bin/../lib/gcc/nios2-elf/4.1.2/mno-hw-mul/libgcc.a(_usi_to_df.o)
 .comment       0x00000000       0x27 /OPT/altera/12.1/nios2eds/bin/gnu/H-i686-pc-linux-gnu/bin/../lib/gcc/nios2-elf/4.1.2/mno-hw-mul/libgcc.a(_muldi3.o)
 .comment       0x00000000       0x27 /OPT/altera/12.1/nios2eds/bin/gnu/H-i686-pc-linux-gnu/bin/../lib/gcc/nios2-elf/4.1.2/mno-hw-mul/libgcc.a(_clz.o)
 .comment       0x00000000       0x27 /OPT/altera/12.1/nios2eds/bin/gnu/H-i686-pc-linux-gnu/bin/../lib/gcc/nios2-elf/4.1.2/mno-hw-mul/libgcc.a(_clzsi2.o)
 .comment       0x00000000       0x27 /OPT/altera/12.1/nios2eds/bin/gnu/H-i686-pc-linux-gnu/bin/../lib/gcc/nios2-elf/4.1.2/mno-hw-mul/libgcc.a(_pack_df.o)
 .comment       0x00000000       0x27 /OPT/altera/12.1/nios2eds/bin/gnu/H-i686-pc-linux-gnu/bin/../lib/gcc/nios2-elf/4.1.2/mno-hw-mul/libgcc.a(_unpack_df.o)
 .comment       0x00000000       0x27 /OPT/altera/12.1/nios2eds/bin/gnu/H-i686-pc-linux-gnu/bin/../lib/gcc/nios2-elf/4.1.2/mno-hw-mul/libgcc.a(_fpcmp_parts_df.o)
 .comment       0x00000000       0x27 ../sdcard_bsp//libucosii_bsp.a(alt_close.o)
 .comment       0x00000000       0x27 ../sdcard_bsp//libucosii_bsp.a(alt_dev.o)
 .comment       0x00000000       0x27 ../sdcard_bsp//libucosii_bsp.a(alt_errno.o)
 .comment       0x00000000       0x27 ../sdcard_bsp//libucosii_bsp.a(alt_fstat.o)
 .comment       0x00000000       0x27 ../sdcard_bsp//libucosii_bsp.a(alt_isatty.o)
 .comment       0x00000000       0x27 ../sdcard_bsp//libucosii_bsp.a(alt_load.o)
 .comment       0x00000000       0x27 ../sdcard_bsp//libucosii_bsp.a(alt_lseek.o)
 .comment       0x00000000       0x27 ../sdcard_bsp//libucosii_bsp.a(alt_main.o)
 .comment       0x00000000       0x27 ../sdcard_bsp//libucosii_bsp.a(alt_read.o)
 .comment       0x00000000       0x27 ../sdcard_bsp//libucosii_bsp.a(alt_release_fd.o)
 .comment       0x00000000       0x27 ../sdcard_bsp//libucosii_bsp.a(alt_sbrk.o)
 .comment       0x00000000       0x27 ../sdcard_bsp//libucosii_bsp.a(alt_write.o)
 .comment       0x00000000       0x27 ../sdcard_bsp//libucosii_bsp.a(alt_env_lock.o)
 .comment       0x00000000       0x27 ../sdcard_bsp//libucosii_bsp.a(alt_malloc_lock.o)
 .comment       0x00000000       0x27 ../sdcard_bsp//libucosii_bsp.a(os_core.o)
 .comment       0x00000000       0x27 ../sdcard_bsp//libucosii_bsp.a(os_dbg.o)
 .comment       0x00000000       0x27 ../sdcard_bsp//libucosii_bsp.a(os_flag.o)
 .comment       0x00000000       0x27 ../sdcard_bsp//libucosii_bsp.a(os_mem.o)
 .comment       0x00000000       0x27 ../sdcard_bsp//libucosii_bsp.a(os_q.o)
 .comment       0x00000000       0x27 ../sdcard_bsp//libucosii_bsp.a(os_sem.o)
 .comment       0x00000000       0x27 ../sdcard_bsp//libucosii_bsp.a(os_task.o)
 .comment       0x00000000       0x27 ../sdcard_bsp//libucosii_bsp.a(os_time.o)
 .comment       0x00000000       0x27 ../sdcard_bsp//libucosii_bsp.a(alt_sys_init.o)
 .comment       0x00000000       0x27 ../sdcard_bsp//libucosii_bsp.a(altera_avalon_jtag_uart_fd.o)
 .comment       0x00000000       0x27 ../sdcard_bsp//libucosii_bsp.a(altera_avalon_jtag_uart_init.o)
 .comment       0x00000000       0x27 ../sdcard_bsp//libucosii_bsp.a(altera_avalon_jtag_uart_ioctl.o)
 .comment       0x00000000       0x27 ../sdcard_bsp//libucosii_bsp.a(altera_avalon_jtag_uart_read.o)
 .comment       0x00000000       0x27 ../sdcard_bsp//libucosii_bsp.a(altera_avalon_jtag_uart_write.o)
 .comment       0x00000000       0x27 ../sdcard_bsp//libucosii_bsp.a(altera_avalon_timer_sc.o)
 .comment       0x00000000       0x27 ../sdcard_bsp//libucosii_bsp.a(altera_up_avalon_character_lcd.o)
 .comment       0x00000000       0x27 ../sdcard_bsp//libucosii_bsp.a(alt_alarm_start.o)
 .comment       0x00000000       0x27 ../sdcard_bsp//libucosii_bsp.a(alt_dcache_flush_all.o)
 .comment       0x00000000       0x27 ../sdcard_bsp//libucosii_bsp.a(alt_dev_llist_insert.o)
 .comment       0x00000000       0x27 ../sdcard_bsp//libucosii_bsp.a(alt_do_ctors.o)
 .comment       0x00000000       0x27 ../sdcard_bsp//libucosii_bsp.a(alt_do_dtors.o)
 .comment       0x00000000       0x27 ../sdcard_bsp//libucosii_bsp.a(alt_find_dev.o)
 .comment       0x00000000       0x27 ../sdcard_bsp//libucosii_bsp.a(alt_icache_flush_all.o)
 .comment       0x00000000       0x27 ../sdcard_bsp//libucosii_bsp.a(alt_io_redirect.o)
 .comment       0x00000000       0x27 ../sdcard_bsp//libucosii_bsp.a(alt_irq_register.o)
 .comment       0x00000000       0x27 ../sdcard_bsp//libucosii_bsp.a(alt_irq_vars.o)
 .comment       0x00000000       0x27 ../sdcard_bsp//libucosii_bsp.a(alt_open.o)
 .comment       0x00000000       0x27 ../sdcard_bsp//libucosii_bsp.a(alt_tick.o)
 .comment       0x00000000       0x27 ../sdcard_bsp//libucosii_bsp.a(altera_nios2_qsys_irq.o)
 .comment       0x00000000       0x27 ../sdcard_bsp//libucosii_bsp.a(os_cpu_c.o)
 .comment       0x00000000       0x27 ../sdcard_bsp//libucosii_bsp.a(alt_find_file.o)
 .comment       0x00000000       0x27 ../sdcard_bsp//libucosii_bsp.a(alt_get_fd.o)
 .comment       0x00000000       0x27 ../sdcard_bsp//libucosii_bsp.a(alt_irq_handler.o)
 .comment       0x00000000       0x27 /OPT/altera/12.1/nios2eds/bin/gnu/H-i686-pc-linux-gnu/bin/../lib/gcc/nios2-elf/4.1.2/../../../../nios2-elf/lib/mno-hw-mul/libc.a(lib_a-atexit.o)
 .comment       0x00000000       0x27 /OPT/altera/12.1/nios2eds/bin/gnu/H-i686-pc-linux-gnu/bin/../lib/gcc/nios2-elf/4.1.2/../../../../nios2-elf/lib/mno-hw-mul/libc.a(lib_a-exit.o)
 .comment       0x00000000       0x27 /OPT/altera/12.1/nios2eds/bin/gnu/H-i686-pc-linux-gnu/bin/../lib/gcc/nios2-elf/4.1.2/../../../../nios2-elf/lib/mno-hw-mul/libc.a(lib_a-memcmp.o)
 .comment       0x00000000       0x27 /OPT/altera/12.1/nios2eds/bin/gnu/H-i686-pc-linux-gnu/bin/../lib/gcc/nios2-elf/4.1.2/../../../../nios2-elf/lib/mno-hw-mul/libc.a(lib_a-__atexit.o)
 .comment       0x00000000       0x27 /OPT/altera/12.1/nios2eds/bin/gnu/H-i686-pc-linux-gnu/bin/../lib/gcc/nios2-elf/4.1.2/../../../../nios2-elf/lib/mno-hw-mul/libc.a(lib_a-__call_atexit.o)
 .comment       0x00000000       0x27 ../sdcard_bsp//libucosii_bsp.a(alt_exit.o)

.debug
 *(.debug)

.line
 *(.line)

.debug_srcinfo
 *(.debug_srcinfo)

.debug_sfnames
 *(.debug_sfnames)

.debug_aranges  0x00000000     0x1078
 *(.debug_aranges)
 .debug_aranges
                0x00000000       0x28 ../sdcard_bsp//obj/HAL/src/crt0.o
 .debug_aranges
                0x00000028       0x20 obj/default/efsl/dir.o
 .debug_aranges
                0x00000048       0x20 obj/default/efsl/disc.o
 .debug_aranges
                0x00000068       0x20 obj/default/efsl/efs.o
 .debug_aranges
                0x00000088       0x20 obj/default/efsl/extract.o
 .debug_aranges
                0x000000a8       0x20 obj/default/efsl/fat.o
 .debug_aranges
                0x000000c8       0x20 obj/default/efsl/file.o
 .debug_aranges
                0x000000e8       0x20 obj/default/efsl/fs.o
 .debug_aranges
                0x00000108       0x20 obj/default/efsl/ioman.o
 .debug_aranges
                0x00000128       0x20 obj/default/efsl/ls.o
 .debug_aranges
                0x00000148       0x20 obj/default/efsl/mkfs.o
 .debug_aranges
                0x00000168       0x20 obj/default/efsl/nios2.o
 .debug_aranges
                0x00000188       0x20 obj/default/efsl/nios2_ramdisk.o
 .debug_aranges
                0x000001a8       0x20 obj/default/efsl/partition.o
 .debug_aranges
                0x000001c8       0x20 obj/default/efsl/plibc.o
 .debug_aranges
                0x000001e8       0x20 obj/default/efsl/sd.o
 .debug_aranges
                0x00000208       0x20 obj/default/efsl/time.o
 .debug_aranges
                0x00000228       0x20 obj/default/efsl/ui.o
 .debug_aranges
                0x00000248       0x20 obj/default/sdCardREAD.o
 .debug_aranges
                0x00000268       0x20 /OPT/altera/12.1/nios2eds/bin/gnu/H-i686-pc-linux-gnu/bin/../lib/gcc/nios2-elf/4.1.2/mno-hw-mul/libgcc.a(lib2-divmod.o)
 .debug_aranges
                0x00000288       0x20 /OPT/altera/12.1/nios2eds/bin/gnu/H-i686-pc-linux-gnu/bin/../lib/gcc/nios2-elf/4.1.2/mno-hw-mul/libgcc.a(lib2-mul.o)
 .debug_aranges
                0x000002a8       0x20 /OPT/altera/12.1/nios2eds/bin/gnu/H-i686-pc-linux-gnu/bin/../lib/gcc/nios2-elf/4.1.2/../../../../nios2-elf/lib/mno-hw-mul/libc.a(lib_a-malloc.o)
 .debug_aranges
                0x000002c8       0x20 /OPT/altera/12.1/nios2eds/bin/gnu/H-i686-pc-linux-gnu/bin/../lib/gcc/nios2-elf/4.1.2/../../../../nios2-elf/lib/mno-hw-mul/libc.a(lib_a-mallocr.o)
 .debug_aranges
                0x000002e8       0x20 /OPT/altera/12.1/nios2eds/bin/gnu/H-i686-pc-linux-gnu/bin/../lib/gcc/nios2-elf/4.1.2/../../../../nios2-elf/lib/mno-hw-mul/libc.a(lib_a-memcpy.o)
 .debug_aranges
                0x00000308       0x20 /OPT/altera/12.1/nios2eds/bin/gnu/H-i686-pc-linux-gnu/bin/../lib/gcc/nios2-elf/4.1.2/../../../../nios2-elf/lib/mno-hw-mul/libc.a(lib_a-printf.o)
 .debug_aranges
                0x00000328       0x20 /OPT/altera/12.1/nios2eds/bin/gnu/H-i686-pc-linux-gnu/bin/../lib/gcc/nios2-elf/4.1.2/../../../../nios2-elf/lib/mno-hw-mul/libc.a(lib_a-putchar.o)
 .debug_aranges
                0x00000348       0x20 /OPT/altera/12.1/nios2eds/bin/gnu/H-i686-pc-linux-gnu/bin/../lib/gcc/nios2-elf/4.1.2/../../../../nios2-elf/lib/mno-hw-mul/libc.a(lib_a-puts.o)
 .debug_aranges
                0x00000368       0x20 /OPT/altera/12.1/nios2eds/bin/gnu/H-i686-pc-linux-gnu/bin/../lib/gcc/nios2-elf/4.1.2/../../../../nios2-elf/lib/mno-hw-mul/libc.a(lib_a-sbrkr.o)
 .debug_aranges
                0x00000388       0x20 /OPT/altera/12.1/nios2eds/bin/gnu/H-i686-pc-linux-gnu/bin/../lib/gcc/nios2-elf/4.1.2/../../../../nios2-elf/lib/mno-hw-mul/libc.a(lib_a-strlen.o)
 .debug_aranges
                0x000003a8       0x20 /OPT/altera/12.1/nios2eds/bin/gnu/H-i686-pc-linux-gnu/bin/../lib/gcc/nios2-elf/4.1.2/../../../../nios2-elf/lib/mno-hw-mul/libc.a(lib_a-vfprintf.o)
 .debug_aranges
                0x000003c8       0x20 /OPT/altera/12.1/nios2eds/bin/gnu/H-i686-pc-linux-gnu/bin/../lib/gcc/nios2-elf/4.1.2/../../../../nios2-elf/lib/mno-hw-mul/libc.a(lib_a-wsetup.o)
 .debug_aranges
                0x000003e8       0x20 /OPT/altera/12.1/nios2eds/bin/gnu/H-i686-pc-linux-gnu/bin/../lib/gcc/nios2-elf/4.1.2/../../../../nios2-elf/lib/mno-hw-mul/libc.a(lib_a-dtoa.o)
 .debug_aranges
                0x00000408       0x20 /OPT/altera/12.1/nios2eds/bin/gnu/H-i686-pc-linux-gnu/bin/../lib/gcc/nios2-elf/4.1.2/../../../../nios2-elf/lib/mno-hw-mul/libc.a(lib_a-fflush.o)
 .debug_aranges
                0x00000428       0x20 /OPT/altera/12.1/nios2eds/bin/gnu/H-i686-pc-linux-gnu/bin/../lib/gcc/nios2-elf/4.1.2/../../../../nios2-elf/lib/mno-hw-mul/libc.a(lib_a-findfp.o)
 .debug_aranges
                0x00000448       0x20 /OPT/altera/12.1/nios2eds/bin/gnu/H-i686-pc-linux-gnu/bin/../lib/gcc/nios2-elf/4.1.2/../../../../nios2-elf/lib/mno-hw-mul/libc.a(lib_a-freer.o)
 .debug_aranges
                0x00000468       0x20 /OPT/altera/12.1/nios2eds/bin/gnu/H-i686-pc-linux-gnu/bin/../lib/gcc/nios2-elf/4.1.2/../../../../nios2-elf/lib/mno-hw-mul/libc.a(lib_a-fvwrite.o)
 .debug_aranges
                0x00000488       0x20 /OPT/altera/12.1/nios2eds/bin/gnu/H-i686-pc-linux-gnu/bin/../lib/gcc/nios2-elf/4.1.2/../../../../nios2-elf/lib/mno-hw-mul/libc.a(lib_a-fwalk.o)
 .debug_aranges
                0x000004a8       0x20 /OPT/altera/12.1/nios2eds/bin/gnu/H-i686-pc-linux-gnu/bin/../lib/gcc/nios2-elf/4.1.2/../../../../nios2-elf/lib/mno-hw-mul/libc.a(lib_a-locale.o)
 .debug_aranges
                0x000004c8       0x20 /OPT/altera/12.1/nios2eds/bin/gnu/H-i686-pc-linux-gnu/bin/../lib/gcc/nios2-elf/4.1.2/../../../../nios2-elf/lib/mno-hw-mul/libc.a(lib_a-makebuf.o)
 .debug_aranges
                0x000004e8       0x20 /OPT/altera/12.1/nios2eds/bin/gnu/H-i686-pc-linux-gnu/bin/../lib/gcc/nios2-elf/4.1.2/../../../../nios2-elf/lib/mno-hw-mul/libc.a(lib_a-memchr.o)
 .debug_aranges
                0x00000508       0x20 /OPT/altera/12.1/nios2eds/bin/gnu/H-i686-pc-linux-gnu/bin/../lib/gcc/nios2-elf/4.1.2/../../../../nios2-elf/lib/mno-hw-mul/libc.a(lib_a-memmove.o)
 .debug_aranges
                0x00000528       0x20 /OPT/altera/12.1/nios2eds/bin/gnu/H-i686-pc-linux-gnu/bin/../lib/gcc/nios2-elf/4.1.2/../../../../nios2-elf/lib/mno-hw-mul/libc.a(lib_a-memset.o)
 .debug_aranges
                0x00000548       0x20 /OPT/altera/12.1/nios2eds/bin/gnu/H-i686-pc-linux-gnu/bin/../lib/gcc/nios2-elf/4.1.2/../../../../nios2-elf/lib/mno-hw-mul/libc.a(lib_a-mprec.o)
 .debug_aranges
                0x00000568       0x20 /OPT/altera/12.1/nios2eds/bin/gnu/H-i686-pc-linux-gnu/bin/../lib/gcc/nios2-elf/4.1.2/../../../../nios2-elf/lib/mno-hw-mul/libc.a(lib_a-putc.o)
 .debug_aranges
                0x00000588       0x20 /OPT/altera/12.1/nios2eds/bin/gnu/H-i686-pc-linux-gnu/bin/../lib/gcc/nios2-elf/4.1.2/../../../../nios2-elf/lib/mno-hw-mul/libc.a(lib_a-reallocr.o)
 .debug_aranges
                0x000005a8       0x20 /OPT/altera/12.1/nios2eds/bin/gnu/H-i686-pc-linux-gnu/bin/../lib/gcc/nios2-elf/4.1.2/../../../../nios2-elf/lib/mno-hw-mul/libc.a(lib_a-s_isinfd.o)
 .debug_aranges
                0x000005c8       0x20 /OPT/altera/12.1/nios2eds/bin/gnu/H-i686-pc-linux-gnu/bin/../lib/gcc/nios2-elf/4.1.2/../../../../nios2-elf/lib/mno-hw-mul/libc.a(lib_a-s_isnand.o)
 .debug_aranges
                0x000005e8       0x20 /OPT/altera/12.1/nios2eds/bin/gnu/H-i686-pc-linux-gnu/bin/../lib/gcc/nios2-elf/4.1.2/../../../../nios2-elf/lib/mno-hw-mul/libc.a(lib_a-stdio.o)
 .debug_aranges
                0x00000608       0x20 /OPT/altera/12.1/nios2eds/bin/gnu/H-i686-pc-linux-gnu/bin/../lib/gcc/nios2-elf/4.1.2/../../../../nios2-elf/lib/mno-hw-mul/libc.a(lib_a-strcmp.o)
 .debug_aranges
                0x00000628       0x20 /OPT/altera/12.1/nios2eds/bin/gnu/H-i686-pc-linux-gnu/bin/../lib/gcc/nios2-elf/4.1.2/../../../../nios2-elf/lib/mno-hw-mul/libc.a(lib_a-wbuf.o)
 .debug_aranges
                0x00000648       0x20 /OPT/altera/12.1/nios2eds/bin/gnu/H-i686-pc-linux-gnu/bin/../lib/gcc/nios2-elf/4.1.2/../../../../nios2-elf/lib/mno-hw-mul/libc.a(lib_a-writer.o)
 .debug_aranges
                0x00000668       0x20 /OPT/altera/12.1/nios2eds/bin/gnu/H-i686-pc-linux-gnu/bin/../lib/gcc/nios2-elf/4.1.2/../../../../nios2-elf/lib/mno-hw-mul/libc.a(lib_a-callocr.o)
 .debug_aranges
                0x00000688       0x20 /OPT/altera/12.1/nios2eds/bin/gnu/H-i686-pc-linux-gnu/bin/../lib/gcc/nios2-elf/4.1.2/../../../../nios2-elf/lib/mno-hw-mul/libc.a(lib_a-closer.o)
 .debug_aranges
                0x000006a8       0x20 /OPT/altera/12.1/nios2eds/bin/gnu/H-i686-pc-linux-gnu/bin/../lib/gcc/nios2-elf/4.1.2/../../../../nios2-elf/lib/mno-hw-mul/libc.a(lib_a-fclose.o)
 .debug_aranges
                0x000006c8       0x20 /OPT/altera/12.1/nios2eds/bin/gnu/H-i686-pc-linux-gnu/bin/../lib/gcc/nios2-elf/4.1.2/../../../../nios2-elf/lib/mno-hw-mul/libc.a(lib_a-fstatr.o)
 .debug_aranges
                0x000006e8       0x20 /OPT/altera/12.1/nios2eds/bin/gnu/H-i686-pc-linux-gnu/bin/../lib/gcc/nios2-elf/4.1.2/../../../../nios2-elf/lib/mno-hw-mul/libc.a(lib_a-isattyr.o)
 .debug_aranges
                0x00000708       0x20 /OPT/altera/12.1/nios2eds/bin/gnu/H-i686-pc-linux-gnu/bin/../lib/gcc/nios2-elf/4.1.2/../../../../nios2-elf/lib/mno-hw-mul/libc.a(lib_a-lseekr.o)
 .debug_aranges
                0x00000728       0x20 /OPT/altera/12.1/nios2eds/bin/gnu/H-i686-pc-linux-gnu/bin/../lib/gcc/nios2-elf/4.1.2/../../../../nios2-elf/lib/mno-hw-mul/libc.a(lib_a-readr.o)
 .debug_aranges
                0x00000748       0x20 /OPT/altera/12.1/nios2eds/bin/gnu/H-i686-pc-linux-gnu/bin/../lib/gcc/nios2-elf/4.1.2/mno-hw-mul/libgcc.a(_udivdi3.o)
 .debug_aranges
                0x00000768       0x20 /OPT/altera/12.1/nios2eds/bin/gnu/H-i686-pc-linux-gnu/bin/../lib/gcc/nios2-elf/4.1.2/mno-hw-mul/libgcc.a(_umoddi3.o)
 .debug_aranges
                0x00000788       0x20 /OPT/altera/12.1/nios2eds/bin/gnu/H-i686-pc-linux-gnu/bin/../lib/gcc/nios2-elf/4.1.2/mno-hw-mul/libgcc.a(_addsub_df.o)
 .debug_aranges
                0x000007a8       0x20 /OPT/altera/12.1/nios2eds/bin/gnu/H-i686-pc-linux-gnu/bin/../lib/gcc/nios2-elf/4.1.2/mno-hw-mul/libgcc.a(_mul_df.o)
 .debug_aranges
                0x000007c8       0x20 /OPT/altera/12.1/nios2eds/bin/gnu/H-i686-pc-linux-gnu/bin/../lib/gcc/nios2-elf/4.1.2/mno-hw-mul/libgcc.a(_div_df.o)
 .debug_aranges
                0x000007e8       0x20 /OPT/altera/12.1/nios2eds/bin/gnu/H-i686-pc-linux-gnu/bin/../lib/gcc/nios2-elf/4.1.2/mno-hw-mul/libgcc.a(_eq_df.o)
 .debug_aranges
                0x00000808       0x20 /OPT/altera/12.1/nios2eds/bin/gnu/H-i686-pc-linux-gnu/bin/../lib/gcc/nios2-elf/4.1.2/mno-hw-mul/libgcc.a(_ne_df.o)
 .debug_aranges
                0x00000828       0x20 /OPT/altera/12.1/nios2eds/bin/gnu/H-i686-pc-linux-gnu/bin/../lib/gcc/nios2-elf/4.1.2/mno-hw-mul/libgcc.a(_gt_df.o)
 .debug_aranges
                0x00000848       0x20 /OPT/altera/12.1/nios2eds/bin/gnu/H-i686-pc-linux-gnu/bin/../lib/gcc/nios2-elf/4.1.2/mno-hw-mul/libgcc.a(_ge_df.o)
 .debug_aranges
                0x00000868       0x20 /OPT/altera/12.1/nios2eds/bin/gnu/H-i686-pc-linux-gnu/bin/../lib/gcc/nios2-elf/4.1.2/mno-hw-mul/libgcc.a(_lt_df.o)
 .debug_aranges
                0x00000888       0x20 /OPT/altera/12.1/nios2eds/bin/gnu/H-i686-pc-linux-gnu/bin/../lib/gcc/nios2-elf/4.1.2/mno-hw-mul/libgcc.a(_si_to_df.o)
 .debug_aranges
                0x000008a8       0x20 /OPT/altera/12.1/nios2eds/bin/gnu/H-i686-pc-linux-gnu/bin/../lib/gcc/nios2-elf/4.1.2/mno-hw-mul/libgcc.a(_df_to_si.o)
 .debug_aranges
                0x000008c8       0x20 /OPT/altera/12.1/nios2eds/bin/gnu/H-i686-pc-linux-gnu/bin/../lib/gcc/nios2-elf/4.1.2/mno-hw-mul/libgcc.a(_usi_to_df.o)
 .debug_aranges
                0x000008e8       0x20 /OPT/altera/12.1/nios2eds/bin/gnu/H-i686-pc-linux-gnu/bin/../lib/gcc/nios2-elf/4.1.2/mno-hw-mul/libgcc.a(_muldi3.o)
 .debug_aranges
                0x00000908       0x20 /OPT/altera/12.1/nios2eds/bin/gnu/H-i686-pc-linux-gnu/bin/../lib/gcc/nios2-elf/4.1.2/mno-hw-mul/libgcc.a(_clzsi2.o)
 .debug_aranges
                0x00000928       0x20 /OPT/altera/12.1/nios2eds/bin/gnu/H-i686-pc-linux-gnu/bin/../lib/gcc/nios2-elf/4.1.2/mno-hw-mul/libgcc.a(_pack_df.o)
 .debug_aranges
                0x00000948       0x20 /OPT/altera/12.1/nios2eds/bin/gnu/H-i686-pc-linux-gnu/bin/../lib/gcc/nios2-elf/4.1.2/mno-hw-mul/libgcc.a(_unpack_df.o)
 .debug_aranges
                0x00000968       0x20 /OPT/altera/12.1/nios2eds/bin/gnu/H-i686-pc-linux-gnu/bin/../lib/gcc/nios2-elf/4.1.2/mno-hw-mul/libgcc.a(_fpcmp_parts_df.o)
 .debug_aranges
                0x00000988       0x20 ../sdcard_bsp//libucosii_bsp.a(alt_close.o)
 .debug_aranges
                0x000009a8       0x20 ../sdcard_bsp//libucosii_bsp.a(alt_dev.o)
 .debug_aranges
                0x000009c8       0x20 ../sdcard_bsp//libucosii_bsp.a(alt_fstat.o)
 .debug_aranges
                0x000009e8       0x20 ../sdcard_bsp//libucosii_bsp.a(alt_isatty.o)
 .debug_aranges
                0x00000a08       0x20 ../sdcard_bsp//libucosii_bsp.a(alt_load.o)
 .debug_aranges
                0x00000a28       0x20 ../sdcard_bsp//libucosii_bsp.a(alt_lseek.o)
 .debug_aranges
                0x00000a48       0x20 ../sdcard_bsp//libucosii_bsp.a(alt_main.o)
 .debug_aranges
                0x00000a68       0x20 ../sdcard_bsp//libucosii_bsp.a(alt_read.o)
 .debug_aranges
                0x00000a88       0x20 ../sdcard_bsp//libucosii_bsp.a(alt_release_fd.o)
 .debug_aranges
                0x00000aa8       0x20 ../sdcard_bsp//libucosii_bsp.a(alt_sbrk.o)
 .debug_aranges
                0x00000ac8       0x20 ../sdcard_bsp//libucosii_bsp.a(alt_write.o)
 .debug_aranges
                0x00000ae8       0x20 ../sdcard_bsp//libucosii_bsp.a(alt_env_lock.o)
 .debug_aranges
                0x00000b08       0x20 ../sdcard_bsp//libucosii_bsp.a(alt_malloc_lock.o)
 .debug_aranges
                0x00000b28       0x20 ../sdcard_bsp//libucosii_bsp.a(os_core.o)
 .debug_aranges
                0x00000b48       0x20 ../sdcard_bsp//libucosii_bsp.a(os_dbg.o)
 .debug_aranges
                0x00000b68       0x20 ../sdcard_bsp//libucosii_bsp.a(os_flag.o)
 .debug_aranges
                0x00000b88       0x20 ../sdcard_bsp//libucosii_bsp.a(os_mem.o)
 .debug_aranges
                0x00000ba8       0x20 ../sdcard_bsp//libucosii_bsp.a(os_q.o)
 .debug_aranges
                0x00000bc8       0x20 ../sdcard_bsp//libucosii_bsp.a(os_sem.o)
 .debug_aranges
                0x00000be8       0x20 ../sdcard_bsp//libucosii_bsp.a(os_task.o)
 .debug_aranges
                0x00000c08       0x20 ../sdcard_bsp//libucosii_bsp.a(os_time.o)
 .debug_aranges
                0x00000c28       0x20 ../sdcard_bsp//libucosii_bsp.a(alt_sys_init.o)
 .debug_aranges
                0x00000c48       0x20 ../sdcard_bsp//libucosii_bsp.a(altera_avalon_jtag_uart_fd.o)
 .debug_aranges
                0x00000c68       0x20 ../sdcard_bsp//libucosii_bsp.a(altera_avalon_jtag_uart_init.o)
 .debug_aranges
                0x00000c88       0x20 ../sdcard_bsp//libucosii_bsp.a(altera_avalon_jtag_uart_ioctl.o)
 .debug_aranges
                0x00000ca8       0x20 ../sdcard_bsp//libucosii_bsp.a(altera_avalon_jtag_uart_read.o)
 .debug_aranges
                0x00000cc8       0x20 ../sdcard_bsp//libucosii_bsp.a(altera_avalon_jtag_uart_write.o)
 .debug_aranges
                0x00000ce8       0x20 ../sdcard_bsp//libucosii_bsp.a(altera_avalon_timer_sc.o)
 .debug_aranges
                0x00000d08       0x20 ../sdcard_bsp//libucosii_bsp.a(altera_up_avalon_character_lcd.o)
 .debug_aranges
                0x00000d28       0x20 ../sdcard_bsp//libucosii_bsp.a(alt_alarm_start.o)
 .debug_aranges
                0x00000d48       0x20 ../sdcard_bsp//libucosii_bsp.a(alt_dcache_flush_all.o)
 .debug_aranges
                0x00000d68       0x20 ../sdcard_bsp//libucosii_bsp.a(alt_dev_llist_insert.o)
 .debug_aranges
                0x00000d88       0x20 ../sdcard_bsp//libucosii_bsp.a(alt_do_ctors.o)
 .debug_aranges
                0x00000da8       0x20 ../sdcard_bsp//libucosii_bsp.a(alt_do_dtors.o)
 .debug_aranges
                0x00000dc8       0x20 ../sdcard_bsp//libucosii_bsp.a(alt_find_dev.o)
 .debug_aranges
                0x00000de8       0x20 ../sdcard_bsp//libucosii_bsp.a(alt_icache_flush_all.o)
 .debug_aranges
                0x00000e08       0x20 ../sdcard_bsp//libucosii_bsp.a(alt_io_redirect.o)
 .debug_aranges
                0x00000e28       0x20 ../sdcard_bsp//libucosii_bsp.a(alt_irq_register.o)
 .debug_aranges
                0x00000e48       0x20 ../sdcard_bsp//libucosii_bsp.a(alt_open.o)
 .debug_aranges
                0x00000e68       0x20 ../sdcard_bsp//libucosii_bsp.a(alt_tick.o)
 .debug_aranges
                0x00000e88       0x20 ../sdcard_bsp//libucosii_bsp.a(altera_nios2_qsys_irq.o)
 .debug_aranges
                0x00000ea8       0x20 ../sdcard_bsp//libucosii_bsp.a(os_cpu_a.o)
 .debug_aranges
                0x00000ec8       0x20 ../sdcard_bsp//libucosii_bsp.a(os_cpu_c.o)
 .debug_aranges
                0x00000ee8       0x20 ../sdcard_bsp//libucosii_bsp.a(alt_find_file.o)
 .debug_aranges
                0x00000f08       0x20 ../sdcard_bsp//libucosii_bsp.a(alt_get_fd.o)
 .debug_aranges
                0x00000f28       0x30 ../sdcard_bsp//libucosii_bsp.a(alt_irq_entry.o)
 .debug_aranges
                0x00000f58       0x28 ../sdcard_bsp//libucosii_bsp.a(alt_irq_handler.o)
 .debug_aranges
                0x00000f80       0x38 ../sdcard_bsp//libucosii_bsp.a(alt_exception_entry.o)
 .debug_aranges
                0x00000fb8       0x20 /OPT/altera/12.1/nios2eds/bin/gnu/H-i686-pc-linux-gnu/bin/../lib/gcc/nios2-elf/4.1.2/../../../../nios2-elf/lib/mno-hw-mul/libc.a(lib_a-atexit.o)
 .debug_aranges
                0x00000fd8       0x20 /OPT/altera/12.1/nios2eds/bin/gnu/H-i686-pc-linux-gnu/bin/../lib/gcc/nios2-elf/4.1.2/../../../../nios2-elf/lib/mno-hw-mul/libc.a(lib_a-exit.o)
 .debug_aranges
                0x00000ff8       0x20 /OPT/altera/12.1/nios2eds/bin/gnu/H-i686-pc-linux-gnu/bin/../lib/gcc/nios2-elf/4.1.2/../../../../nios2-elf/lib/mno-hw-mul/libc.a(lib_a-memcmp.o)
 .debug_aranges
                0x00001018       0x20 /OPT/altera/12.1/nios2eds/bin/gnu/H-i686-pc-linux-gnu/bin/../lib/gcc/nios2-elf/4.1.2/../../../../nios2-elf/lib/mno-hw-mul/libc.a(lib_a-__atexit.o)
 .debug_aranges
                0x00001038       0x20 /OPT/altera/12.1/nios2eds/bin/gnu/H-i686-pc-linux-gnu/bin/../lib/gcc/nios2-elf/4.1.2/../../../../nios2-elf/lib/mno-hw-mul/libc.a(lib_a-__call_atexit.o)
 .debug_aranges
                0x00001058       0x20 ../sdcard_bsp//libucosii_bsp.a(alt_exit.o)

.debug_pubnames
                0x00000000     0x2f2f
 *(.debug_pubnames)
 .debug_pubnames
                0x00000000      0x158 obj/default/efsl/dir.o
 .debug_pubnames
                0x00000158       0x35 obj/default/efsl/disc.o
 .debug_pubnames
                0x0000018d       0x1f obj/default/efsl/efs.o
 .debug_pubnames
                0x000001ac       0x7c obj/default/efsl/extract.o
 .debug_pubnames
                0x00000228      0x19b obj/default/efsl/fat.o
 .debug_pubnames
                0x000003c3       0xf9 obj/default/efsl/file.o
 .debug_pubnames
                0x000004bc      0x205 obj/default/efsl/fs.o
 .debug_pubnames
                0x000006c1      0x2cd obj/default/efsl/ioman.o
 .debug_pubnames
                0x0000098e       0xa9 obj/default/efsl/ls.o
 .debug_pubnames
                0x00000a37       0x24 obj/default/efsl/mkfs.o
 .debug_pubnames
                0x00000a5b       0x98 obj/default/efsl/nios2.o
 .debug_pubnames
                0x00000af3       0x23 obj/default/efsl/nios2_ramdisk.o
 .debug_pubnames
                0x00000b16       0xdd obj/default/efsl/partition.o
 .debug_pubnames
                0x00000bf3       0x40 obj/default/efsl/plibc.o
 .debug_pubnames
                0x00000c33       0xa3 obj/default/efsl/sd.o
 .debug_pubnames
                0x00000cd6       0x48 obj/default/efsl/time.o
 .debug_pubnames
                0x00000d1e       0x37 obj/default/efsl/ui.o
 .debug_pubnames
                0x00000d55       0x1b obj/default/sdCardREAD.o
 .debug_pubnames
                0x00000d70       0x48 /OPT/altera/12.1/nios2eds/bin/gnu/H-i686-pc-linux-gnu/bin/../lib/gcc/nios2-elf/4.1.2/mno-hw-mul/libgcc.a(lib2-divmod.o)
 .debug_pubnames
                0x00000db8       0x1f /OPT/altera/12.1/nios2eds/bin/gnu/H-i686-pc-linux-gnu/bin/../lib/gcc/nios2-elf/4.1.2/mno-hw-mul/libgcc.a(lib2-mul.o)
 .debug_pubnames
                0x00000dd7       0x26 /OPT/altera/12.1/nios2eds/bin/gnu/H-i686-pc-linux-gnu/bin/../lib/gcc/nios2-elf/4.1.2/../../../../nios2-elf/lib/mno-hw-mul/libc.a(lib_a-malloc.o)
 .debug_pubnames
                0x00000dfd       0xce /OPT/altera/12.1/nios2eds/bin/gnu/H-i686-pc-linux-gnu/bin/../lib/gcc/nios2-elf/4.1.2/../../../../nios2-elf/lib/mno-hw-mul/libc.a(lib_a-mallocr.o)
 .debug_pubnames
                0x00000ecb       0x1d /OPT/altera/12.1/nios2eds/bin/gnu/H-i686-pc-linux-gnu/bin/../lib/gcc/nios2-elf/4.1.2/../../../../nios2-elf/lib/mno-hw-mul/libc.a(lib_a-memcpy.o)
 .debug_pubnames
                0x00000ee8       0x2b /OPT/altera/12.1/nios2eds/bin/gnu/H-i686-pc-linux-gnu/bin/../lib/gcc/nios2-elf/4.1.2/../../../../nios2-elf/lib/mno-hw-mul/libc.a(lib_a-printf.o)
 .debug_pubnames
                0x00000f13       0x2d /OPT/altera/12.1/nios2eds/bin/gnu/H-i686-pc-linux-gnu/bin/../lib/gcc/nios2-elf/4.1.2/../../../../nios2-elf/lib/mno-hw-mul/libc.a(lib_a-putchar.o)
 .debug_pubnames
                0x00000f40       0x27 /OPT/altera/12.1/nios2eds/bin/gnu/H-i686-pc-linux-gnu/bin/../lib/gcc/nios2-elf/4.1.2/../../../../nios2-elf/lib/mno-hw-mul/libc.a(lib_a-puts.o)
 .debug_pubnames
                0x00000f67       0x1e /OPT/altera/12.1/nios2eds/bin/gnu/H-i686-pc-linux-gnu/bin/../lib/gcc/nios2-elf/4.1.2/../../../../nios2-elf/lib/mno-hw-mul/libc.a(lib_a-sbrkr.o)
 .debug_pubnames
                0x00000f85       0x1d /OPT/altera/12.1/nios2eds/bin/gnu/H-i686-pc-linux-gnu/bin/../lib/gcc/nios2-elf/4.1.2/../../../../nios2-elf/lib/mno-hw-mul/libc.a(lib_a-strlen.o)
 .debug_pubnames
                0x00000fa2       0x45 /OPT/altera/12.1/nios2eds/bin/gnu/H-i686-pc-linux-gnu/bin/../lib/gcc/nios2-elf/4.1.2/../../../../nios2-elf/lib/mno-hw-mul/libc.a(lib_a-vfprintf.o)
 .debug_pubnames
                0x00000fe7       0x22 /OPT/altera/12.1/nios2eds/bin/gnu/H-i686-pc-linux-gnu/bin/../lib/gcc/nios2-elf/4.1.2/../../../../nios2-elf/lib/mno-hw-mul/libc.a(lib_a-wsetup.o)
 .debug_pubnames
                0x00001009       0x1e /OPT/altera/12.1/nios2eds/bin/gnu/H-i686-pc-linux-gnu/bin/../lib/gcc/nios2-elf/4.1.2/../../../../nios2-elf/lib/mno-hw-mul/libc.a(lib_a-dtoa.o)
 .debug_pubnames
                0x00001027       0x2b /OPT/altera/12.1/nios2eds/bin/gnu/H-i686-pc-linux-gnu/bin/../lib/gcc/nios2-elf/4.1.2/../../../../nios2-elf/lib/mno-hw-mul/libc.a(lib_a-fflush.o)
 .debug_pubnames
                0x00001052       0xdb /OPT/altera/12.1/nios2eds/bin/gnu/H-i686-pc-linux-gnu/bin/../lib/gcc/nios2-elf/4.1.2/../../../../nios2-elf/lib/mno-hw-mul/libc.a(lib_a-findfp.o)
 .debug_pubnames
                0x0000112d       0x31 /OPT/altera/12.1/nios2eds/bin/gnu/H-i686-pc-linux-gnu/bin/../lib/gcc/nios2-elf/4.1.2/../../../../nios2-elf/lib/mno-hw-mul/libc.a(lib_a-freer.o)
 .debug_pubnames
                0x0000115e       0x23 /OPT/altera/12.1/nios2eds/bin/gnu/H-i686-pc-linux-gnu/bin/../lib/gcc/nios2-elf/4.1.2/../../../../nios2-elf/lib/mno-hw-mul/libc.a(lib_a-fvwrite.o)
 .debug_pubnames
                0x00001181       0x2e /OPT/altera/12.1/nios2eds/bin/gnu/H-i686-pc-linux-gnu/bin/../lib/gcc/nios2-elf/4.1.2/../../../../nios2-elf/lib/mno-hw-mul/libc.a(lib_a-fwalk.o)
 .debug_pubnames
                0x000011af       0x39 /OPT/altera/12.1/nios2eds/bin/gnu/H-i686-pc-linux-gnu/bin/../lib/gcc/nios2-elf/4.1.2/../../../../nios2-elf/lib/mno-hw-mul/libc.a(lib_a-impure.o)
 .debug_pubnames
                0x000011e8       0x1c /OPT/altera/12.1/nios2eds/bin/gnu/H-i686-pc-linux-gnu/bin/../lib/gcc/nios2-elf/4.1.2/../../../../nios2-elf/lib/mno-hw-mul/libc.a(lib_a-int_errno.o)
 .debug_pubnames
                0x00001204       0xc3 /OPT/altera/12.1/nios2eds/bin/gnu/H-i686-pc-linux-gnu/bin/../lib/gcc/nios2-elf/4.1.2/../../../../nios2-elf/lib/mno-hw-mul/libc.a(lib_a-locale.o)
 .debug_pubnames
                0x000012c7       0x23 /OPT/altera/12.1/nios2eds/bin/gnu/H-i686-pc-linux-gnu/bin/../lib/gcc/nios2-elf/4.1.2/../../../../nios2-elf/lib/mno-hw-mul/libc.a(lib_a-makebuf.o)
 .debug_pubnames
                0x000012ea       0x1d /OPT/altera/12.1/nios2eds/bin/gnu/H-i686-pc-linux-gnu/bin/../lib/gcc/nios2-elf/4.1.2/../../../../nios2-elf/lib/mno-hw-mul/libc.a(lib_a-memchr.o)
 .debug_pubnames
                0x00001307       0x1e /OPT/altera/12.1/nios2eds/bin/gnu/H-i686-pc-linux-gnu/bin/../lib/gcc/nios2-elf/4.1.2/../../../../nios2-elf/lib/mno-hw-mul/libc.a(lib_a-memmove.o)
 .debug_pubnames
                0x00001325       0x1d /OPT/altera/12.1/nios2eds/bin/gnu/H-i686-pc-linux-gnu/bin/../lib/gcc/nios2-elf/4.1.2/../../../../nios2-elf/lib/mno-hw-mul/libc.a(lib_a-memset.o)
 .debug_pubnames
                0x00001342      0x13a /OPT/altera/12.1/nios2eds/bin/gnu/H-i686-pc-linux-gnu/bin/../lib/gcc/nios2-elf/4.1.2/../../../../nios2-elf/lib/mno-hw-mul/libc.a(lib_a-mprec.o)
 .debug_pubnames
                0x0000147c       0x27 /OPT/altera/12.1/nios2eds/bin/gnu/H-i686-pc-linux-gnu/bin/../lib/gcc/nios2-elf/4.1.2/../../../../nios2-elf/lib/mno-hw-mul/libc.a(lib_a-putc.o)
 .debug_pubnames
                0x000014a3       0x21 /OPT/altera/12.1/nios2eds/bin/gnu/H-i686-pc-linux-gnu/bin/../lib/gcc/nios2-elf/4.1.2/../../../../nios2-elf/lib/mno-hw-mul/libc.a(lib_a-reallocr.o)
 .debug_pubnames
                0x000014c4       0x1f /OPT/altera/12.1/nios2eds/bin/gnu/H-i686-pc-linux-gnu/bin/../lib/gcc/nios2-elf/4.1.2/../../../../nios2-elf/lib/mno-hw-mul/libc.a(lib_a-s_isinfd.o)
 .debug_pubnames
                0x000014e3       0x1f /OPT/altera/12.1/nios2eds/bin/gnu/H-i686-pc-linux-gnu/bin/../lib/gcc/nios2-elf/4.1.2/../../../../nios2-elf/lib/mno-hw-mul/libc.a(lib_a-s_isnand.o)
 .debug_pubnames
                0x00001502       0x44 /OPT/altera/12.1/nios2eds/bin/gnu/H-i686-pc-linux-gnu/bin/../lib/gcc/nios2-elf/4.1.2/../../../../nios2-elf/lib/mno-hw-mul/libc.a(lib_a-stdio.o)
 .debug_pubnames
                0x00001546       0x1d /OPT/altera/12.1/nios2eds/bin/gnu/H-i686-pc-linux-gnu/bin/../lib/gcc/nios2-elf/4.1.2/../../../../nios2-elf/lib/mno-hw-mul/libc.a(lib_a-strcmp.o)
 .debug_pubnames
                0x00001563       0x2c /OPT/altera/12.1/nios2eds/bin/gnu/H-i686-pc-linux-gnu/bin/../lib/gcc/nios2-elf/4.1.2/../../../../nios2-elf/lib/mno-hw-mul/libc.a(lib_a-wbuf.o)
 .debug_pubnames
                0x0000158f       0x1f /OPT/altera/12.1/nios2eds/bin/gnu/H-i686-pc-linux-gnu/bin/../lib/gcc/nios2-elf/4.1.2/../../../../nios2-elf/lib/mno-hw-mul/libc.a(lib_a-writer.o)
 .debug_pubnames
                0x000015ae       0x20 /OPT/altera/12.1/nios2eds/bin/gnu/H-i686-pc-linux-gnu/bin/../lib/gcc/nios2-elf/4.1.2/../../../../nios2-elf/lib/mno-hw-mul/libc.a(lib_a-callocr.o)
 .debug_pubnames
                0x000015ce       0x1f /OPT/altera/12.1/nios2eds/bin/gnu/H-i686-pc-linux-gnu/bin/../lib/gcc/nios2-elf/4.1.2/../../../../nios2-elf/lib/mno-hw-mul/libc.a(lib_a-closer.o)
 .debug_pubnames
                0x000015ed       0x2b /OPT/altera/12.1/nios2eds/bin/gnu/H-i686-pc-linux-gnu/bin/../lib/gcc/nios2-elf/4.1.2/../../../../nios2-elf/lib/mno-hw-mul/libc.a(lib_a-fclose.o)
 .debug_pubnames
                0x00001618       0x1f /OPT/altera/12.1/nios2eds/bin/gnu/H-i686-pc-linux-gnu/bin/../lib/gcc/nios2-elf/4.1.2/../../../../nios2-elf/lib/mno-hw-mul/libc.a(lib_a-fstatr.o)
 .debug_pubnames
                0x00001637       0x20 /OPT/altera/12.1/nios2eds/bin/gnu/H-i686-pc-linux-gnu/bin/../lib/gcc/nios2-elf/4.1.2/../../../../nios2-elf/lib/mno-hw-mul/libc.a(lib_a-isattyr.o)
 .debug_pubnames
                0x00001657       0x1f /OPT/altera/12.1/nios2eds/bin/gnu/H-i686-pc-linux-gnu/bin/../lib/gcc/nios2-elf/4.1.2/../../../../nios2-elf/lib/mno-hw-mul/libc.a(lib_a-lseekr.o)
 .debug_pubnames
                0x00001676       0x1e /OPT/altera/12.1/nios2eds/bin/gnu/H-i686-pc-linux-gnu/bin/../lib/gcc/nios2-elf/4.1.2/../../../../nios2-elf/lib/mno-hw-mul/libc.a(lib_a-readr.o)
 .debug_pubnames
                0x00001694       0x20 /OPT/altera/12.1/nios2eds/bin/gnu/H-i686-pc-linux-gnu/bin/../lib/gcc/nios2-elf/4.1.2/mno-hw-mul/libgcc.a(_udivdi3.o)
 .debug_pubnames
                0x000016b4       0x20 /OPT/altera/12.1/nios2eds/bin/gnu/H-i686-pc-linux-gnu/bin/../lib/gcc/nios2-elf/4.1.2/mno-hw-mul/libgcc.a(_umoddi3.o)
 .debug_pubnames
                0x000016d4       0x2c /OPT/altera/12.1/nios2eds/bin/gnu/H-i686-pc-linux-gnu/bin/../lib/gcc/nios2-elf/4.1.2/mno-hw-mul/libgcc.a(_addsub_df.o)
 .debug_pubnames
                0x00001700       0x1f /OPT/altera/12.1/nios2eds/bin/gnu/H-i686-pc-linux-gnu/bin/../lib/gcc/nios2-elf/4.1.2/mno-hw-mul/libgcc.a(_mul_df.o)
 .debug_pubnames
                0x0000171f       0x1f /OPT/altera/12.1/nios2eds/bin/gnu/H-i686-pc-linux-gnu/bin/../lib/gcc/nios2-elf/4.1.2/mno-hw-mul/libgcc.a(_div_df.o)
 .debug_pubnames
                0x0000173e       0x1e /OPT/altera/12.1/nios2eds/bin/gnu/H-i686-pc-linux-gnu/bin/../lib/gcc/nios2-elf/4.1.2/mno-hw-mul/libgcc.a(_eq_df.o)
 .debug_pubnames
                0x0000175c       0x1e /OPT/altera/12.1/nios2eds/bin/gnu/H-i686-pc-linux-gnu/bin/../lib/gcc/nios2-elf/4.1.2/mno-hw-mul/libgcc.a(_ne_df.o)
 .debug_pubnames
                0x0000177a       0x1e /OPT/altera/12.1/nios2eds/bin/gnu/H-i686-pc-linux-gnu/bin/../lib/gcc/nios2-elf/4.1.2/mno-hw-mul/libgcc.a(_gt_df.o)
 .debug_pubnames
                0x00001798       0x1e /OPT/altera/12.1/nios2eds/bin/gnu/H-i686-pc-linux-gnu/bin/../lib/gcc/nios2-elf/4.1.2/mno-hw-mul/libgcc.a(_ge_df.o)
 .debug_pubnames
                0x000017b6       0x1e /OPT/altera/12.1/nios2eds/bin/gnu/H-i686-pc-linux-gnu/bin/../lib/gcc/nios2-elf/4.1.2/mno-hw-mul/libgcc.a(_lt_df.o)
 .debug_pubnames
                0x000017d4       0x22 /OPT/altera/12.1/nios2eds/bin/gnu/H-i686-pc-linux-gnu/bin/../lib/gcc/nios2-elf/4.1.2/mno-hw-mul/libgcc.a(_si_to_df.o)
 .debug_pubnames
                0x000017f6       0x20 /OPT/altera/12.1/nios2eds/bin/gnu/H-i686-pc-linux-gnu/bin/../lib/gcc/nios2-elf/4.1.2/mno-hw-mul/libgcc.a(_df_to_si.o)
 .debug_pubnames
                0x00001816       0x22 /OPT/altera/12.1/nios2eds/bin/gnu/H-i686-pc-linux-gnu/bin/../lib/gcc/nios2-elf/4.1.2/mno-hw-mul/libgcc.a(_thenan_df.o)
 .debug_pubnames
                0x00001838       0x24 /OPT/altera/12.1/nios2eds/bin/gnu/H-i686-pc-linux-gnu/bin/../lib/gcc/nios2-elf/4.1.2/mno-hw-mul/libgcc.a(_usi_to_df.o)
 .debug_pubnames
                0x0000185c       0x1f /OPT/altera/12.1/nios2eds/bin/gnu/H-i686-pc-linux-gnu/bin/../lib/gcc/nios2-elf/4.1.2/mno-hw-mul/libgcc.a(_muldi3.o)
 .debug_pubnames
                0x0000187b       0x20 /OPT/altera/12.1/nios2eds/bin/gnu/H-i686-pc-linux-gnu/bin/../lib/gcc/nios2-elf/4.1.2/mno-hw-mul/libgcc.a(_clz.o)
 .debug_pubnames
                0x0000189b       0x1f /OPT/altera/12.1/nios2eds/bin/gnu/H-i686-pc-linux-gnu/bin/../lib/gcc/nios2-elf/4.1.2/mno-hw-mul/libgcc.a(_clzsi2.o)
 .debug_pubnames
                0x000018ba       0x1f /OPT/altera/12.1/nios2eds/bin/gnu/H-i686-pc-linux-gnu/bin/../lib/gcc/nios2-elf/4.1.2/mno-hw-mul/libgcc.a(_pack_df.o)
 .debug_pubnames
                0x000018d9       0x21 /OPT/altera/12.1/nios2eds/bin/gnu/H-i686-pc-linux-gnu/bin/../lib/gcc/nios2-elf/4.1.2/mno-hw-mul/libgcc.a(_unpack_df.o)
 .debug_pubnames
                0x000018fa       0x26 /OPT/altera/12.1/nios2eds/bin/gnu/H-i686-pc-linux-gnu/bin/../lib/gcc/nios2-elf/4.1.2/mno-hw-mul/libgcc.a(_fpcmp_parts_df.o)
 .debug_pubnames
                0x00001920       0x1c ../sdcard_bsp//libucosii_bsp.a(alt_close.o)
 .debug_pubnames
                0x0000193c       0x78 ../sdcard_bsp//libucosii_bsp.a(alt_dev.o)
 .debug_pubnames
                0x000019b4       0x20 ../sdcard_bsp//libucosii_bsp.a(alt_errno.o)
 .debug_pubnames
                0x000019d4       0x1c ../sdcard_bsp//libucosii_bsp.a(alt_fstat.o)
 .debug_pubnames
                0x000019f0       0x1d ../sdcard_bsp//libucosii_bsp.a(alt_isatty.o)
 .debug_pubnames
                0x00001a0d       0x1f ../sdcard_bsp//libucosii_bsp.a(alt_load.o)
 .debug_pubnames
                0x00001a2c       0x1c ../sdcard_bsp//libucosii_bsp.a(alt_lseek.o)
 .debug_pubnames
                0x00001a48       0x46 ../sdcard_bsp//libucosii_bsp.a(alt_main.o)
 .debug_pubnames
                0x00001a8e       0x1b ../sdcard_bsp//libucosii_bsp.a(alt_read.o)
 .debug_pubnames
                0x00001aa9       0x25 ../sdcard_bsp//libucosii_bsp.a(alt_release_fd.o)
 .debug_pubnames
                0x00001ace       0x1b ../sdcard_bsp//libucosii_bsp.a(alt_sbrk.o)
 .debug_pubnames
                0x00001ae9       0x1c ../sdcard_bsp//libucosii_bsp.a(alt_write.o)
 .debug_pubnames
                0x00001b05       0x41 ../sdcard_bsp//libucosii_bsp.a(alt_env_lock.o)
 .debug_pubnames
                0x00001b46       0x48 ../sdcard_bsp//libucosii_bsp.a(alt_malloc_lock.o)
 .debug_pubnames
                0x00001b8e      0x3f8 ../sdcard_bsp//libucosii_bsp.a(os_core.o)
 .debug_pubnames
                0x00001f86      0x3c5 ../sdcard_bsp//libucosii_bsp.a(os_dbg.o)
 .debug_pubnames
                0x0000234b       0xd0 ../sdcard_bsp//libucosii_bsp.a(os_flag.o)
 .debug_pubnames
                0x0000241b       0x7c ../sdcard_bsp//libucosii_bsp.a(os_mem.o)
 .debug_pubnames
                0x00002497       0xa9 ../sdcard_bsp//libucosii_bsp.a(os_q.o)
 .debug_pubnames
                0x00002540       0x8a ../sdcard_bsp//libucosii_bsp.a(os_sem.o)
 .debug_pubnames
                0x000025ca       0xe5 ../sdcard_bsp//libucosii_bsp.a(os_task.o)
 .debug_pubnames
                0x000026af       0x62 ../sdcard_bsp//libucosii_bsp.a(os_time.o)
 .debug_pubnames
                0x00002711       0x34 ../sdcard_bsp//libucosii_bsp.a(alt_sys_init.o)
 .debug_pubnames
                0x00002745       0xa5 ../sdcard_bsp//libucosii_bsp.a(altera_avalon_jtag_uart_fd.o)
 .debug_pubnames
                0x000027ea       0x55 ../sdcard_bsp//libucosii_bsp.a(altera_avalon_jtag_uart_init.o)
 .debug_pubnames
                0x0000283f       0x34 ../sdcard_bsp//libucosii_bsp.a(altera_avalon_jtag_uart_ioctl.o)
 .debug_pubnames
                0x00002873       0x33 ../sdcard_bsp//libucosii_bsp.a(altera_avalon_jtag_uart_read.o)
 .debug_pubnames
                0x000028a6       0x34 ../sdcard_bsp//libucosii_bsp.a(altera_avalon_jtag_uart_write.o)
 .debug_pubnames
                0x000028da       0x2f ../sdcard_bsp//libucosii_bsp.a(altera_avalon_timer_sc.o)
 .debug_pubnames
                0x00002909      0x1cd ../sdcard_bsp//libucosii_bsp.a(altera_up_avalon_character_lcd.o)
 .debug_pubnames
                0x00002ad6       0x26 ../sdcard_bsp//libucosii_bsp.a(alt_alarm_start.o)
 .debug_pubnames
                0x00002afc       0x2b ../sdcard_bsp//libucosii_bsp.a(alt_dcache_flush_all.o)
 .debug_pubnames
                0x00002b27       0x2b ../sdcard_bsp//libucosii_bsp.a(alt_dev_llist_insert.o)
 .debug_pubnames
                0x00002b52       0x20 ../sdcard_bsp//libucosii_bsp.a(alt_do_ctors.o)
 .debug_pubnames
                0x00002b72       0x20 ../sdcard_bsp//libucosii_bsp.a(alt_do_dtors.o)
 .debug_pubnames
                0x00002b92       0x23 ../sdcard_bsp//libucosii_bsp.a(alt_find_dev.o)
 .debug_pubnames
                0x00002bb5       0x2b ../sdcard_bsp//libucosii_bsp.a(alt_icache_flush_all.o)
 .debug_pubnames
                0x00002be0       0x26 ../sdcard_bsp//libucosii_bsp.a(alt_io_redirect.o)
 .debug_pubnames
                0x00002c06       0x27 ../sdcard_bsp//libucosii_bsp.a(alt_irq_register.o)
 .debug_pubnames
                0x00002c2d       0x3b ../sdcard_bsp//libucosii_bsp.a(alt_irq_vars.o)
 .debug_pubnames
                0x00002c68       0x1b ../sdcard_bsp//libucosii_bsp.a(alt_open.o)
 .debug_pubnames
                0x00002c83       0x68 ../sdcard_bsp//libucosii_bsp.a(alt_tick.o)
 .debug_pubnames
                0x00002ceb       0x31 ../sdcard_bsp//libucosii_bsp.a(altera_nios2_qsys_irq.o)
 .debug_pubnames
                0x00002d1c       0xcd ../sdcard_bsp//libucosii_bsp.a(os_cpu_c.o)
 .debug_pubnames
                0x00002de9       0x24 ../sdcard_bsp//libucosii_bsp.a(alt_find_file.o)
 .debug_pubnames
                0x00002e0d       0x21 ../sdcard_bsp//libucosii_bsp.a(alt_get_fd.o)
 .debug_pubnames
                0x00002e2e       0x32 ../sdcard_bsp//libucosii_bsp.a(alt_irq_handler.o)
 .debug_pubnames
                0x00002e60       0x2a /OPT/altera/12.1/nios2eds/bin/gnu/H-i686-pc-linux-gnu/bin/../lib/gcc/nios2-elf/4.1.2/../../../../nios2-elf/lib/mno-hw-mul/libc.a(lib_a-atexit.o)
 .debug_pubnames
                0x00002e8a       0x1b /OPT/altera/12.1/nios2eds/bin/gnu/H-i686-pc-linux-gnu/bin/../lib/gcc/nios2-elf/4.1.2/../../../../nios2-elf/lib/mno-hw-mul/libc.a(lib_a-exit.o)
 .debug_pubnames
                0x00002ea5       0x1d /OPT/altera/12.1/nios2eds/bin/gnu/H-i686-pc-linux-gnu/bin/../lib/gcc/nios2-elf/4.1.2/../../../../nios2-elf/lib/mno-hw-mul/libc.a(lib_a-memcmp.o)
 .debug_pubnames
                0x00002ec2       0x2a /OPT/altera/12.1/nios2eds/bin/gnu/H-i686-pc-linux-gnu/bin/../lib/gcc/nios2-elf/4.1.2/../../../../nios2-elf/lib/mno-hw-mul/libc.a(lib_a-__atexit.o)
 .debug_pubnames
                0x00002eec       0x27 /OPT/altera/12.1/nios2eds/bin/gnu/H-i686-pc-linux-gnu/bin/../lib/gcc/nios2-elf/4.1.2/../../../../nios2-elf/lib/mno-hw-mul/libc.a(lib_a-__call_atexit.o)
 .debug_pubnames
                0x00002f13       0x1c ../sdcard_bsp//libucosii_bsp.a(alt_exit.o)

.debug_info     0x00000000    0x3c526
 *(.debug_info .gnu.linkonce.wi.*)
 .debug_info    0x00000000       0x89 ../sdcard_bsp//obj/HAL/src/crt0.o
 .debug_info    0x00000089      0x12e obj/default/efsl/debug.o
 .debug_info    0x000001b7      0xf62 obj/default/efsl/dir.o
 .debug_info    0x00001119      0x4ab obj/default/efsl/disc.o
 .debug_info    0x000015c4      0x75a obj/default/efsl/efs.o
 .debug_info    0x00001d1e      0x3bb obj/default/efsl/extract.o
 .debug_info    0x000020d9      0xe6e obj/default/efsl/fat.o
 .debug_info    0x00002f47      0xfa3 obj/default/efsl/file.o
 .debug_info    0x00003eea     0x109b obj/default/efsl/fs.o
 .debug_info    0x00004f85      0xe32 obj/default/efsl/ioman.o
 .debug_info    0x00005db7      0xa83 obj/default/efsl/ls.o
 .debug_info    0x0000683a      0x52a obj/default/efsl/mkfs.o
 .debug_info    0x00006d64      0x4b6 obj/default/efsl/nios2.o
 .debug_info    0x0000721a      0x310 obj/default/efsl/nios2_ramdisk.o
 .debug_info    0x0000752a      0x79d obj/default/efsl/partition.o
 .debug_info    0x00007cc7      0x2a4 obj/default/efsl/plibc.o
 .debug_info    0x00007f6b      0x5b0 obj/default/efsl/sd.o
 .debug_info    0x0000851b      0x178 obj/default/efsl/time.o
 .debug_info    0x00008693      0xba0 obj/default/efsl/ui.o
 .debug_info    0x00009233      0xae3 obj/default/sdCardREAD.o
 .debug_info    0x00009d16      0x21c /OPT/altera/12.1/nios2eds/bin/gnu/H-i686-pc-linux-gnu/bin/../lib/gcc/nios2-elf/4.1.2/mno-hw-mul/libgcc.a(lib2-divmod.o)
 .debug_info    0x00009f32       0xf3 /OPT/altera/12.1/nios2eds/bin/gnu/H-i686-pc-linux-gnu/bin/../lib/gcc/nios2-elf/4.1.2/mno-hw-mul/libgcc.a(lib2-mul.o)
 .debug_info    0x0000a025      0x96e /OPT/altera/12.1/nios2eds/bin/gnu/H-i686-pc-linux-gnu/bin/../lib/gcc/nios2-elf/4.1.2/../../../../nios2-elf/lib/mno-hw-mul/libc.a(lib_a-malloc.o)
 .debug_info    0x0000a993      0xcd0 /OPT/altera/12.1/nios2eds/bin/gnu/H-i686-pc-linux-gnu/bin/../lib/gcc/nios2-elf/4.1.2/../../../../nios2-elf/lib/mno-hw-mul/libc.a(lib_a-mallocr.o)
 .debug_info    0x0000b663      0x106 /OPT/altera/12.1/nios2eds/bin/gnu/H-i686-pc-linux-gnu/bin/../lib/gcc/nios2-elf/4.1.2/../../../../nios2-elf/lib/mno-hw-mul/libc.a(lib_a-memcpy.o)
 .debug_info    0x0000b769      0x9d1 /OPT/altera/12.1/nios2eds/bin/gnu/H-i686-pc-linux-gnu/bin/../lib/gcc/nios2-elf/4.1.2/../../../../nios2-elf/lib/mno-hw-mul/libc.a(lib_a-printf.o)
 .debug_info    0x0000c13a      0x972 /OPT/altera/12.1/nios2eds/bin/gnu/H-i686-pc-linux-gnu/bin/../lib/gcc/nios2-elf/4.1.2/../../../../nios2-elf/lib/mno-hw-mul/libc.a(lib_a-putchar.o)
 .debug_info    0x0000caac      0xa25 /OPT/altera/12.1/nios2eds/bin/gnu/H-i686-pc-linux-gnu/bin/../lib/gcc/nios2-elf/4.1.2/../../../../nios2-elf/lib/mno-hw-mul/libc.a(lib_a-puts.o)
 .debug_info    0x0000d4d1      0x962 /OPT/altera/12.1/nios2eds/bin/gnu/H-i686-pc-linux-gnu/bin/../lib/gcc/nios2-elf/4.1.2/../../../../nios2-elf/lib/mno-hw-mul/libc.a(lib_a-sbrkr.o)
 .debug_info    0x0000de33       0xdb /OPT/altera/12.1/nios2eds/bin/gnu/H-i686-pc-linux-gnu/bin/../lib/gcc/nios2-elf/4.1.2/../../../../nios2-elf/lib/mno-hw-mul/libc.a(lib_a-strlen.o)
 .debug_info    0x0000df0e     0x10d5 /OPT/altera/12.1/nios2eds/bin/gnu/H-i686-pc-linux-gnu/bin/../lib/gcc/nios2-elf/4.1.2/../../../../nios2-elf/lib/mno-hw-mul/libc.a(lib_a-vfprintf.o)
 .debug_info    0x0000efe3      0x95d /OPT/altera/12.1/nios2eds/bin/gnu/H-i686-pc-linux-gnu/bin/../lib/gcc/nios2-elf/4.1.2/../../../../nios2-elf/lib/mno-hw-mul/libc.a(lib_a-wsetup.o)
 .debug_info    0x0000f940      0xd6f /OPT/altera/12.1/nios2eds/bin/gnu/H-i686-pc-linux-gnu/bin/../lib/gcc/nios2-elf/4.1.2/../../../../nios2-elf/lib/mno-hw-mul/libc.a(lib_a-dtoa.o)
 .debug_info    0x000106af      0x9fe /OPT/altera/12.1/nios2eds/bin/gnu/H-i686-pc-linux-gnu/bin/../lib/gcc/nios2-elf/4.1.2/../../../../nios2-elf/lib/mno-hw-mul/libc.a(lib_a-fflush.o)
 .debug_info    0x000110ad      0xb72 /OPT/altera/12.1/nios2eds/bin/gnu/H-i686-pc-linux-gnu/bin/../lib/gcc/nios2-elf/4.1.2/../../../../nios2-elf/lib/mno-hw-mul/libc.a(lib_a-findfp.o)
 .debug_info    0x00011c1f      0xbc9 /OPT/altera/12.1/nios2eds/bin/gnu/H-i686-pc-linux-gnu/bin/../lib/gcc/nios2-elf/4.1.2/../../../../nios2-elf/lib/mno-hw-mul/libc.a(lib_a-freer.o)
 .debug_info    0x000127e8      0xa88 /OPT/altera/12.1/nios2eds/bin/gnu/H-i686-pc-linux-gnu/bin/../lib/gcc/nios2-elf/4.1.2/../../../../nios2-elf/lib/mno-hw-mul/libc.a(lib_a-fvwrite.o)
 .debug_info    0x00013270      0xaed /OPT/altera/12.1/nios2eds/bin/gnu/H-i686-pc-linux-gnu/bin/../lib/gcc/nios2-elf/4.1.2/../../../../nios2-elf/lib/mno-hw-mul/libc.a(lib_a-fwalk.o)
 .debug_info    0x00013d5d      0x93d /OPT/altera/12.1/nios2eds/bin/gnu/H-i686-pc-linux-gnu/bin/../lib/gcc/nios2-elf/4.1.2/../../../../nios2-elf/lib/mno-hw-mul/libc.a(lib_a-impure.o)
 .debug_info    0x0001469a       0x8c /OPT/altera/12.1/nios2eds/bin/gnu/H-i686-pc-linux-gnu/bin/../lib/gcc/nios2-elf/4.1.2/../../../../nios2-elf/lib/mno-hw-mul/libc.a(lib_a-int_errno.o)
 .debug_info    0x00014726      0xb97 /OPT/altera/12.1/nios2eds/bin/gnu/H-i686-pc-linux-gnu/bin/../lib/gcc/nios2-elf/4.1.2/../../../../nios2-elf/lib/mno-hw-mul/libc.a(lib_a-locale.o)
 .debug_info    0x000152bd      0xb1a /OPT/altera/12.1/nios2eds/bin/gnu/H-i686-pc-linux-gnu/bin/../lib/gcc/nios2-elf/4.1.2/../../../../nios2-elf/lib/mno-hw-mul/libc.a(lib_a-makebuf.o)
 .debug_info    0x00015dd7      0x138 /OPT/altera/12.1/nios2eds/bin/gnu/H-i686-pc-linux-gnu/bin/../lib/gcc/nios2-elf/4.1.2/../../../../nios2-elf/lib/mno-hw-mul/libc.a(lib_a-memchr.o)
 .debug_info    0x00015f0f      0x13e /OPT/altera/12.1/nios2eds/bin/gnu/H-i686-pc-linux-gnu/bin/../lib/gcc/nios2-elf/4.1.2/../../../../nios2-elf/lib/mno-hw-mul/libc.a(lib_a-memmove.o)
 .debug_info    0x0001604d      0x113 /OPT/altera/12.1/nios2eds/bin/gnu/H-i686-pc-linux-gnu/bin/../lib/gcc/nios2-elf/4.1.2/../../../../nios2-elf/lib/mno-hw-mul/libc.a(lib_a-memset.o)
 .debug_info    0x00016160     0x143b /OPT/altera/12.1/nios2eds/bin/gnu/H-i686-pc-linux-gnu/bin/../lib/gcc/nios2-elf/4.1.2/../../../../nios2-elf/lib/mno-hw-mul/libc.a(lib_a-mprec.o)
 .debug_info    0x0001759b      0x9c1 /OPT/altera/12.1/nios2eds/bin/gnu/H-i686-pc-linux-gnu/bin/../lib/gcc/nios2-elf/4.1.2/../../../../nios2-elf/lib/mno-hw-mul/libc.a(lib_a-putc.o)
 .debug_info    0x00017f5c      0xbd7 /OPT/altera/12.1/nios2eds/bin/gnu/H-i686-pc-linux-gnu/bin/../lib/gcc/nios2-elf/4.1.2/../../../../nios2-elf/lib/mno-hw-mul/libc.a(lib_a-reallocr.o)
 .debug_info    0x00018b33       0xd7 /OPT/altera/12.1/nios2eds/bin/gnu/H-i686-pc-linux-gnu/bin/../lib/gcc/nios2-elf/4.1.2/../../../../nios2-elf/lib/mno-hw-mul/libc.a(lib_a-s_isinfd.o)
 .debug_info    0x00018c0a       0xd5 /OPT/altera/12.1/nios2eds/bin/gnu/H-i686-pc-linux-gnu/bin/../lib/gcc/nios2-elf/4.1.2/../../../../nios2-elf/lib/mno-hw-mul/libc.a(lib_a-s_isnand.o)
 .debug_info    0x00018cdf      0xaac /OPT/altera/12.1/nios2eds/bin/gnu/H-i686-pc-linux-gnu/bin/../lib/gcc/nios2-elf/4.1.2/../../../../nios2-elf/lib/mno-hw-mul/libc.a(lib_a-stdio.o)
 .debug_info    0x0001978b       0xdd /OPT/altera/12.1/nios2eds/bin/gnu/H-i686-pc-linux-gnu/bin/../lib/gcc/nios2-elf/4.1.2/../../../../nios2-elf/lib/mno-hw-mul/libc.a(lib_a-strcmp.o)
 .debug_info    0x00019868      0x9ae /OPT/altera/12.1/nios2eds/bin/gnu/H-i686-pc-linux-gnu/bin/../lib/gcc/nios2-elf/4.1.2/../../../../nios2-elf/lib/mno-hw-mul/libc.a(lib_a-wbuf.o)
 .debug_info    0x0001a216      0x993 /OPT/altera/12.1/nios2eds/bin/gnu/H-i686-pc-linux-gnu/bin/../lib/gcc/nios2-elf/4.1.2/../../../../nios2-elf/lib/mno-hw-mul/libc.a(lib_a-writer.o)
 .debug_info    0x0001aba9      0xa1b /OPT/altera/12.1/nios2eds/bin/gnu/H-i686-pc-linux-gnu/bin/../lib/gcc/nios2-elf/4.1.2/../../../../nios2-elf/lib/mno-hw-mul/libc.a(lib_a-callocr.o)
 .debug_info    0x0001b5c4      0x958 /OPT/altera/12.1/nios2eds/bin/gnu/H-i686-pc-linux-gnu/bin/../lib/gcc/nios2-elf/4.1.2/../../../../nios2-elf/lib/mno-hw-mul/libc.a(lib_a-closer.o)
 .debug_info    0x0001bf1c      0x994 /OPT/altera/12.1/nios2eds/bin/gnu/H-i686-pc-linux-gnu/bin/../lib/gcc/nios2-elf/4.1.2/../../../../nios2-elf/lib/mno-hw-mul/libc.a(lib_a-fclose.o)
 .debug_info    0x0001c8b0      0xafc /OPT/altera/12.1/nios2eds/bin/gnu/H-i686-pc-linux-gnu/bin/../lib/gcc/nios2-elf/4.1.2/../../../../nios2-elf/lib/mno-hw-mul/libc.a(lib_a-fstatr.o)
 .debug_info    0x0001d3ac      0x958 /OPT/altera/12.1/nios2eds/bin/gnu/H-i686-pc-linux-gnu/bin/../lib/gcc/nios2-elf/4.1.2/../../../../nios2-elf/lib/mno-hw-mul/libc.a(lib_a-isattyr.o)
 .debug_info    0x0001dd04      0x981 /OPT/altera/12.1/nios2eds/bin/gnu/H-i686-pc-linux-gnu/bin/../lib/gcc/nios2-elf/4.1.2/../../../../nios2-elf/lib/mno-hw-mul/libc.a(lib_a-lseekr.o)
 .debug_info    0x0001e685      0x98c /OPT/altera/12.1/nios2eds/bin/gnu/H-i686-pc-linux-gnu/bin/../lib/gcc/nios2-elf/4.1.2/../../../../nios2-elf/lib/mno-hw-mul/libc.a(lib_a-readr.o)
 .debug_info    0x0001f011      0x71c /OPT/altera/12.1/nios2eds/bin/gnu/H-i686-pc-linux-gnu/bin/../lib/gcc/nios2-elf/4.1.2/mno-hw-mul/libgcc.a(_udivdi3.o)
 .debug_info    0x0001f72d      0x749 /OPT/altera/12.1/nios2eds/bin/gnu/H-i686-pc-linux-gnu/bin/../lib/gcc/nios2-elf/4.1.2/mno-hw-mul/libgcc.a(_umoddi3.o)
 .debug_info    0x0001fe76      0x493 /OPT/altera/12.1/nios2eds/bin/gnu/H-i686-pc-linux-gnu/bin/../lib/gcc/nios2-elf/4.1.2/mno-hw-mul/libgcc.a(_addsub_df.o)
 .debug_info    0x00020309      0x488 /OPT/altera/12.1/nios2eds/bin/gnu/H-i686-pc-linux-gnu/bin/../lib/gcc/nios2-elf/4.1.2/mno-hw-mul/libgcc.a(_mul_df.o)
 .debug_info    0x00020791      0x39b /OPT/altera/12.1/nios2eds/bin/gnu/H-i686-pc-linux-gnu/bin/../lib/gcc/nios2-elf/4.1.2/mno-hw-mul/libgcc.a(_div_df.o)
 .debug_info    0x00020b2c      0x29d /OPT/altera/12.1/nios2eds/bin/gnu/H-i686-pc-linux-gnu/bin/../lib/gcc/nios2-elf/4.1.2/mno-hw-mul/libgcc.a(_eq_df.o)
 .debug_info    0x00020dc9      0x29d /OPT/altera/12.1/nios2eds/bin/gnu/H-i686-pc-linux-gnu/bin/../lib/gcc/nios2-elf/4.1.2/mno-hw-mul/libgcc.a(_ne_df.o)
 .debug_info    0x00021066      0x29d /OPT/altera/12.1/nios2eds/bin/gnu/H-i686-pc-linux-gnu/bin/../lib/gcc/nios2-elf/4.1.2/mno-hw-mul/libgcc.a(_gt_df.o)
 .debug_info    0x00021303      0x29d /OPT/altera/12.1/nios2eds/bin/gnu/H-i686-pc-linux-gnu/bin/../lib/gcc/nios2-elf/4.1.2/mno-hw-mul/libgcc.a(_ge_df.o)
 .debug_info    0x000215a0      0x29d /OPT/altera/12.1/nios2eds/bin/gnu/H-i686-pc-linux-gnu/bin/../lib/gcc/nios2-elf/4.1.2/mno-hw-mul/libgcc.a(_lt_df.o)
 .debug_info    0x0002183d      0x218 /OPT/altera/12.1/nios2eds/bin/gnu/H-i686-pc-linux-gnu/bin/../lib/gcc/nios2-elf/4.1.2/mno-hw-mul/libgcc.a(_si_to_df.o)
 .debug_info    0x00021a55      0x2cd /OPT/altera/12.1/nios2eds/bin/gnu/H-i686-pc-linux-gnu/bin/../lib/gcc/nios2-elf/4.1.2/mno-hw-mul/libgcc.a(_df_to_si.o)
 .debug_info    0x00021d22      0x164 /OPT/altera/12.1/nios2eds/bin/gnu/H-i686-pc-linux-gnu/bin/../lib/gcc/nios2-elf/4.1.2/mno-hw-mul/libgcc.a(_thenan_df.o)
 .debug_info    0x00021e86      0x213 /OPT/altera/12.1/nios2eds/bin/gnu/H-i686-pc-linux-gnu/bin/../lib/gcc/nios2-elf/4.1.2/mno-hw-mul/libgcc.a(_usi_to_df.o)
 .debug_info    0x00022099      0x210 /OPT/altera/12.1/nios2eds/bin/gnu/H-i686-pc-linux-gnu/bin/../lib/gcc/nios2-elf/4.1.2/mno-hw-mul/libgcc.a(_muldi3.o)
 .debug_info    0x000222a9       0xc9 /OPT/altera/12.1/nios2eds/bin/gnu/H-i686-pc-linux-gnu/bin/../lib/gcc/nios2-elf/4.1.2/mno-hw-mul/libgcc.a(_clz.o)
 .debug_info    0x00022372      0x130 /OPT/altera/12.1/nios2eds/bin/gnu/H-i686-pc-linux-gnu/bin/../lib/gcc/nios2-elf/4.1.2/mno-hw-mul/libgcc.a(_clzsi2.o)
 .debug_info    0x000224a2      0x2fc /OPT/altera/12.1/nios2eds/bin/gnu/H-i686-pc-linux-gnu/bin/../lib/gcc/nios2-elf/4.1.2/mno-hw-mul/libgcc.a(_pack_df.o)
 .debug_info    0x0002279e      0x268 /OPT/altera/12.1/nios2eds/bin/gnu/H-i686-pc-linux-gnu/bin/../lib/gcc/nios2-elf/4.1.2/mno-hw-mul/libgcc.a(_unpack_df.o)
 .debug_info    0x00022a06      0x21b /OPT/altera/12.1/nios2eds/bin/gnu/H-i686-pc-linux-gnu/bin/../lib/gcc/nios2-elf/4.1.2/mno-hw-mul/libgcc.a(_fpcmp_parts_df.o)
 .debug_info    0x00022c21      0x4fc ../sdcard_bsp//libucosii_bsp.a(alt_close.o)
 .debug_info    0x0002311d      0x81e ../sdcard_bsp//libucosii_bsp.a(alt_dev.o)
 .debug_info    0x0002393b      0x172 ../sdcard_bsp//libucosii_bsp.a(alt_errno.o)
 .debug_info    0x00023aad      0x6f5 ../sdcard_bsp//libucosii_bsp.a(alt_fstat.o)
 .debug_info    0x000241a2      0x6fb ../sdcard_bsp//libucosii_bsp.a(alt_isatty.o)
 .debug_info    0x0002489d      0x29b ../sdcard_bsp//libucosii_bsp.a(alt_load.o)
 .debug_info    0x00024b38      0x52f ../sdcard_bsp//libucosii_bsp.a(alt_lseek.o)
 .debug_info    0x00025067      0x41e ../sdcard_bsp//libucosii_bsp.a(alt_main.o)
 .debug_info    0x00025485      0x71f ../sdcard_bsp//libucosii_bsp.a(alt_read.o)
 .debug_info    0x00025ba4      0x490 ../sdcard_bsp//libucosii_bsp.a(alt_release_fd.o)
 .debug_info    0x00026034      0x30c ../sdcard_bsp//libucosii_bsp.a(alt_sbrk.o)
 .debug_info    0x00026340      0x728 ../sdcard_bsp//libucosii_bsp.a(alt_write.o)
 .debug_info    0x00026a68     0x1214 ../sdcard_bsp//libucosii_bsp.a(alt_env_lock.o)
 .debug_info    0x00027c7c     0x1370 ../sdcard_bsp//libucosii_bsp.a(alt_malloc_lock.o)
 .debug_info    0x00028fec     0x1c2a ../sdcard_bsp//libucosii_bsp.a(os_core.o)
 .debug_info    0x0002ac16     0x116f ../sdcard_bsp//libucosii_bsp.a(os_dbg.o)
 .debug_info    0x0002bd85     0x1285 ../sdcard_bsp//libucosii_bsp.a(os_flag.o)
 .debug_info    0x0002d00a      0x84f ../sdcard_bsp//libucosii_bsp.a(os_mem.o)
 .debug_info    0x0002d859     0x10bf ../sdcard_bsp//libucosii_bsp.a(os_q.o)
 .debug_info    0x0002e918      0xd27 ../sdcard_bsp//libucosii_bsp.a(os_sem.o)
 .debug_info    0x0002f63f     0x139d ../sdcard_bsp//libucosii_bsp.a(os_task.o)
 .debug_info    0x000309dc      0xa21 ../sdcard_bsp//libucosii_bsp.a(os_time.o)
 .debug_info    0x000313fd      0xb44 ../sdcard_bsp//libucosii_bsp.a(alt_sys_init.o)
 .debug_info    0x00031f41      0xa13 ../sdcard_bsp//libucosii_bsp.a(altera_avalon_jtag_uart_fd.o)
 .debug_info    0x00032954      0x99e ../sdcard_bsp//libucosii_bsp.a(altera_avalon_jtag_uart_init.o)
 .debug_info    0x000332f2      0x67d ../sdcard_bsp//libucosii_bsp.a(altera_avalon_jtag_uart_ioctl.o)
 .debug_info    0x0003396f      0x839 ../sdcard_bsp//libucosii_bsp.a(altera_avalon_jtag_uart_read.o)
 .debug_info    0x000341a8      0x830 ../sdcard_bsp//libucosii_bsp.a(altera_avalon_jtag_uart_write.o)
 .debug_info    0x000349d8      0x3d9 ../sdcard_bsp//libucosii_bsp.a(altera_avalon_timer_sc.o)
 .debug_info    0x00034db1      0x93d ../sdcard_bsp//libucosii_bsp.a(altera_up_avalon_character_lcd.o)
 .debug_info    0x000356ee      0x483 ../sdcard_bsp//libucosii_bsp.a(alt_alarm_start.o)
 .debug_info    0x00035b71      0x16a ../sdcard_bsp//libucosii_bsp.a(alt_dcache_flush_all.o)
 .debug_info    0x00035cdb      0x2c5 ../sdcard_bsp//libucosii_bsp.a(alt_dev_llist_insert.o)
 .debug_info    0x00035fa0      0x11d ../sdcard_bsp//libucosii_bsp.a(alt_do_ctors.o)
 .debug_info    0x000360bd      0x11c ../sdcard_bsp//libucosii_bsp.a(alt_do_dtors.o)
 .debug_info    0x000361d9      0x4ad ../sdcard_bsp//libucosii_bsp.a(alt_find_dev.o)
 .debug_info    0x00036686      0x16a ../sdcard_bsp//libucosii_bsp.a(alt_icache_flush_all.o)
 .debug_info    0x000367f0      0x72a ../sdcard_bsp//libucosii_bsp.a(alt_io_redirect.o)
 .debug_info    0x00036f1a      0x47d ../sdcard_bsp//libucosii_bsp.a(alt_irq_register.o)
 .debug_info    0x00037397      0x175 ../sdcard_bsp//libucosii_bsp.a(alt_irq_vars.o)
 .debug_info    0x0003750c      0x5ab ../sdcard_bsp//libucosii_bsp.a(alt_open.o)
 .debug_info    0x00037ab7      0x452 ../sdcard_bsp//libucosii_bsp.a(alt_tick.o)
 .debug_info    0x00037f09      0x1b8 ../sdcard_bsp//libucosii_bsp.a(altera_nios2_qsys_irq.o)
 .debug_info    0x000380c1       0x91 ../sdcard_bsp//libucosii_bsp.a(os_cpu_a.o)
 .debug_info    0x00038152     0x1314 ../sdcard_bsp//libucosii_bsp.a(os_cpu_c.o)
 .debug_info    0x00039466      0x4b4 ../sdcard_bsp//libucosii_bsp.a(alt_find_file.o)
 .debug_info    0x0003991a      0x646 ../sdcard_bsp//libucosii_bsp.a(alt_get_fd.o)
 .debug_info    0x00039f60       0x92 ../sdcard_bsp//libucosii_bsp.a(alt_irq_entry.o)
 .debug_info    0x00039ff2      0x300 ../sdcard_bsp//libucosii_bsp.a(alt_irq_handler.o)
 .debug_info    0x0003a2f2       0x98 ../sdcard_bsp//libucosii_bsp.a(alt_exception_entry.o)
 .debug_info    0x0003a38a      0x181 /OPT/altera/12.1/nios2eds/bin/gnu/H-i686-pc-linux-gnu/bin/../lib/gcc/nios2-elf/4.1.2/../../../../nios2-elf/lib/mno-hw-mul/libc.a(lib_a-atexit.o)
 .debug_info    0x0003a50b      0x93f /OPT/altera/12.1/nios2eds/bin/gnu/H-i686-pc-linux-gnu/bin/../lib/gcc/nios2-elf/4.1.2/../../../../nios2-elf/lib/mno-hw-mul/libc.a(lib_a-exit.o)
 .debug_info    0x0003ae4a      0x115 /OPT/altera/12.1/nios2eds/bin/gnu/H-i686-pc-linux-gnu/bin/../lib/gcc/nios2-elf/4.1.2/../../../../nios2-elf/lib/mno-hw-mul/libc.a(lib_a-memcmp.o)
 .debug_info    0x0003af5f      0x99c /OPT/altera/12.1/nios2eds/bin/gnu/H-i686-pc-linux-gnu/bin/../lib/gcc/nios2-elf/4.1.2/../../../../nios2-elf/lib/mno-hw-mul/libc.a(lib_a-__atexit.o)
 .debug_info    0x0003b8fb      0x9e2 /OPT/altera/12.1/nios2eds/bin/gnu/H-i686-pc-linux-gnu/bin/../lib/gcc/nios2-elf/4.1.2/../../../../nios2-elf/lib/mno-hw-mul/libc.a(lib_a-__call_atexit.o)
 .debug_info    0x0003c2dd      0x249 ../sdcard_bsp//libucosii_bsp.a(alt_exit.o)

.debug_abbrev   0x00000000     0xaa38
 *(.debug_abbrev)
 .debug_abbrev  0x00000000       0x12 ../sdcard_bsp//obj/HAL/src/crt0.o
 .debug_abbrev  0x00000012       0x2a obj/default/efsl/debug.o
 .debug_abbrev  0x0000003c      0x16d obj/default/efsl/dir.o
 .debug_abbrev  0x000001a9       0xee obj/default/efsl/disc.o
 .debug_abbrev  0x00000297       0xcc obj/default/efsl/efs.o
 .debug_abbrev  0x00000363       0xe0 obj/default/efsl/extract.o
 .debug_abbrev  0x00000443      0x1a2 obj/default/efsl/fat.o
 .debug_abbrev  0x000005e5      0x17c obj/default/efsl/file.o
 .debug_abbrev  0x00000761      0x175 obj/default/efsl/fs.o
 .debug_abbrev  0x000008d6      0x164 obj/default/efsl/ioman.o
 .debug_abbrev  0x00000a3a       0xff obj/default/efsl/ls.o
 .debug_abbrev  0x00000b39       0xe2 obj/default/efsl/mkfs.o
 .debug_abbrev  0x00000c1b       0xee obj/default/efsl/nios2.o
 .debug_abbrev  0x00000d09       0xc9 obj/default/efsl/nios2_ramdisk.o
 .debug_abbrev  0x00000dd2      0x118 obj/default/efsl/partition.o
 .debug_abbrev  0x00000eea       0xaa obj/default/efsl/plibc.o
 .debug_abbrev  0x00000f94      0x12d obj/default/efsl/sd.o
 .debug_abbrev  0x000010c1       0x43 obj/default/efsl/time.o
 .debug_abbrev  0x00001104       0xf1 obj/default/efsl/ui.o
 .debug_abbrev  0x000011f5       0xf3 obj/default/sdCardREAD.o
 .debug_abbrev  0x000012e8       0xe0 /OPT/altera/12.1/nios2eds/bin/gnu/H-i686-pc-linux-gnu/bin/../lib/gcc/nios2-elf/4.1.2/mno-hw-mul/libgcc.a(lib2-divmod.o)
 .debug_abbrev  0x000013c8       0x7b /OPT/altera/12.1/nios2eds/bin/gnu/H-i686-pc-linux-gnu/bin/../lib/gcc/nios2-elf/4.1.2/mno-hw-mul/libgcc.a(lib2-mul.o)
 .debug_abbrev  0x00001443      0x187 /OPT/altera/12.1/nios2eds/bin/gnu/H-i686-pc-linux-gnu/bin/../lib/gcc/nios2-elf/4.1.2/../../../../nios2-elf/lib/mno-hw-mul/libc.a(lib_a-malloc.o)
 .debug_abbrev  0x000015ca      0x216 /OPT/altera/12.1/nios2eds/bin/gnu/H-i686-pc-linux-gnu/bin/../lib/gcc/nios2-elf/4.1.2/../../../../nios2-elf/lib/mno-hw-mul/libc.a(lib_a-mallocr.o)
 .debug_abbrev  0x000017e0       0xb5 /OPT/altera/12.1/nios2eds/bin/gnu/H-i686-pc-linux-gnu/bin/../lib/gcc/nios2-elf/4.1.2/../../../../nios2-elf/lib/mno-hw-mul/libc.a(lib_a-memcpy.o)
 .debug_abbrev  0x00001895      0x191 /OPT/altera/12.1/nios2eds/bin/gnu/H-i686-pc-linux-gnu/bin/../lib/gcc/nios2-elf/4.1.2/../../../../nios2-elf/lib/mno-hw-mul/libc.a(lib_a-printf.o)
 .debug_abbrev  0x00001a26      0x170 /OPT/altera/12.1/nios2eds/bin/gnu/H-i686-pc-linux-gnu/bin/../lib/gcc/nios2-elf/4.1.2/../../../../nios2-elf/lib/mno-hw-mul/libc.a(lib_a-putchar.o)
 .debug_abbrev  0x00001b96      0x1ac /OPT/altera/12.1/nios2eds/bin/gnu/H-i686-pc-linux-gnu/bin/../lib/gcc/nios2-elf/4.1.2/../../../../nios2-elf/lib/mno-hw-mul/libc.a(lib_a-puts.o)
 .debug_abbrev  0x00001d42      0x18c /OPT/altera/12.1/nios2eds/bin/gnu/H-i686-pc-linux-gnu/bin/../lib/gcc/nios2-elf/4.1.2/../../../../nios2-elf/lib/mno-hw-mul/libc.a(lib_a-sbrkr.o)
 .debug_abbrev  0x00001ece       0x8b /OPT/altera/12.1/nios2eds/bin/gnu/H-i686-pc-linux-gnu/bin/../lib/gcc/nios2-elf/4.1.2/../../../../nios2-elf/lib/mno-hw-mul/libc.a(lib_a-strlen.o)
 .debug_abbrev  0x00001f59      0x30a /OPT/altera/12.1/nios2eds/bin/gnu/H-i686-pc-linux-gnu/bin/../lib/gcc/nios2-elf/4.1.2/../../../../nios2-elf/lib/mno-hw-mul/libc.a(lib_a-vfprintf.o)
 .debug_abbrev  0x00002263      0x170 /OPT/altera/12.1/nios2eds/bin/gnu/H-i686-pc-linux-gnu/bin/../lib/gcc/nios2-elf/4.1.2/../../../../nios2-elf/lib/mno-hw-mul/libc.a(lib_a-wsetup.o)
 .debug_abbrev  0x000023d3      0x232 /OPT/altera/12.1/nios2eds/bin/gnu/H-i686-pc-linux-gnu/bin/../lib/gcc/nios2-elf/4.1.2/../../../../nios2-elf/lib/mno-hw-mul/libc.a(lib_a-dtoa.o)
 .debug_abbrev  0x00002605      0x1c6 /OPT/altera/12.1/nios2eds/bin/gnu/H-i686-pc-linux-gnu/bin/../lib/gcc/nios2-elf/4.1.2/../../../../nios2-elf/lib/mno-hw-mul/libc.a(lib_a-fflush.o)
 .debug_abbrev  0x000027cb      0x24c /OPT/altera/12.1/nios2eds/bin/gnu/H-i686-pc-linux-gnu/bin/../lib/gcc/nios2-elf/4.1.2/../../../../nios2-elf/lib/mno-hw-mul/libc.a(lib_a-findfp.o)
 .debug_abbrev  0x00002a17      0x1d9 /OPT/altera/12.1/nios2eds/bin/gnu/H-i686-pc-linux-gnu/bin/../lib/gcc/nios2-elf/4.1.2/../../../../nios2-elf/lib/mno-hw-mul/libc.a(lib_a-freer.o)
 .debug_abbrev  0x00002bf0      0x1a3 /OPT/altera/12.1/nios2eds/bin/gnu/H-i686-pc-linux-gnu/bin/../lib/gcc/nios2-elf/4.1.2/../../../../nios2-elf/lib/mno-hw-mul/libc.a(lib_a-fvwrite.o)
 .debug_abbrev  0x00002d93      0x1e3 /OPT/altera/12.1/nios2eds/bin/gnu/H-i686-pc-linux-gnu/bin/../lib/gcc/nios2-elf/4.1.2/../../../../nios2-elf/lib/mno-hw-mul/libc.a(lib_a-fwalk.o)
 .debug_abbrev  0x00002f76      0x157 /OPT/altera/12.1/nios2eds/bin/gnu/H-i686-pc-linux-gnu/bin/../lib/gcc/nios2-elf/4.1.2/../../../../nios2-elf/lib/mno-hw-mul/libc.a(lib_a-impure.o)
 .debug_abbrev  0x000030cd       0x3b /OPT/altera/12.1/nios2eds/bin/gnu/H-i686-pc-linux-gnu/bin/../lib/gcc/nios2-elf/4.1.2/../../../../nios2-elf/lib/mno-hw-mul/libc.a(lib_a-int_errno.o)
 .debug_abbrev  0x00003108      0x1ed /OPT/altera/12.1/nios2eds/bin/gnu/H-i686-pc-linux-gnu/bin/../lib/gcc/nios2-elf/4.1.2/../../../../nios2-elf/lib/mno-hw-mul/libc.a(lib_a-locale.o)
 .debug_abbrev  0x000032f5      0x197 /OPT/altera/12.1/nios2eds/bin/gnu/H-i686-pc-linux-gnu/bin/../lib/gcc/nios2-elf/4.1.2/../../../../nios2-elf/lib/mno-hw-mul/libc.a(lib_a-makebuf.o)
 .debug_abbrev  0x0000348c       0xb5 /OPT/altera/12.1/nios2eds/bin/gnu/H-i686-pc-linux-gnu/bin/../lib/gcc/nios2-elf/4.1.2/../../../../nios2-elf/lib/mno-hw-mul/libc.a(lib_a-memchr.o)
 .debug_abbrev  0x00003541       0xb5 /OPT/altera/12.1/nios2eds/bin/gnu/H-i686-pc-linux-gnu/bin/../lib/gcc/nios2-elf/4.1.2/../../../../nios2-elf/lib/mno-hw-mul/libc.a(lib_a-memmove.o)
 .debug_abbrev  0x000035f6       0xb8 /OPT/altera/12.1/nios2eds/bin/gnu/H-i686-pc-linux-gnu/bin/../lib/gcc/nios2-elf/4.1.2/../../../../nios2-elf/lib/mno-hw-mul/libc.a(lib_a-memset.o)
 .debug_abbrev  0x000036ae      0x297 /OPT/altera/12.1/nios2eds/bin/gnu/H-i686-pc-linux-gnu/bin/../lib/gcc/nios2-elf/4.1.2/../../../../nios2-elf/lib/mno-hw-mul/libc.a(lib_a-mprec.o)
 .debug_abbrev  0x00003945      0x17f /OPT/altera/12.1/nios2eds/bin/gnu/H-i686-pc-linux-gnu/bin/../lib/gcc/nios2-elf/4.1.2/../../../../nios2-elf/lib/mno-hw-mul/libc.a(lib_a-putc.o)
 .debug_abbrev  0x00003ac4      0x1c3 /OPT/altera/12.1/nios2eds/bin/gnu/H-i686-pc-linux-gnu/bin/../lib/gcc/nios2-elf/4.1.2/../../../../nios2-elf/lib/mno-hw-mul/libc.a(lib_a-reallocr.o)
 .debug_abbrev  0x00003c87       0x79 /OPT/altera/12.1/nios2eds/bin/gnu/H-i686-pc-linux-gnu/bin/../lib/gcc/nios2-elf/4.1.2/../../../../nios2-elf/lib/mno-hw-mul/libc.a(lib_a-s_isinfd.o)
 .debug_abbrev  0x00003d00       0x79 /OPT/altera/12.1/nios2eds/bin/gnu/H-i686-pc-linux-gnu/bin/../lib/gcc/nios2-elf/4.1.2/../../../../nios2-elf/lib/mno-hw-mul/libc.a(lib_a-s_isnand.o)
 .debug_abbrev  0x00003d79      0x1c9 /OPT/altera/12.1/nios2eds/bin/gnu/H-i686-pc-linux-gnu/bin/../lib/gcc/nios2-elf/4.1.2/../../../../nios2-elf/lib/mno-hw-mul/libc.a(lib_a-stdio.o)
 .debug_abbrev  0x00003f42       0x80 /OPT/altera/12.1/nios2eds/bin/gnu/H-i686-pc-linux-gnu/bin/../lib/gcc/nios2-elf/4.1.2/../../../../nios2-elf/lib/mno-hw-mul/libc.a(lib_a-strcmp.o)
 .debug_abbrev  0x00003fc2      0x198 /OPT/altera/12.1/nios2eds/bin/gnu/H-i686-pc-linux-gnu/bin/../lib/gcc/nios2-elf/4.1.2/../../../../nios2-elf/lib/mno-hw-mul/libc.a(lib_a-wbuf.o)
 .debug_abbrev  0x0000415a      0x184 /OPT/altera/12.1/nios2eds/bin/gnu/H-i686-pc-linux-gnu/bin/../lib/gcc/nios2-elf/4.1.2/../../../../nios2-elf/lib/mno-hw-mul/libc.a(lib_a-writer.o)
 .debug_abbrev  0x000042de      0x1b8 /OPT/altera/12.1/nios2eds/bin/gnu/H-i686-pc-linux-gnu/bin/../lib/gcc/nios2-elf/4.1.2/../../../../nios2-elf/lib/mno-hw-mul/libc.a(lib_a-callocr.o)
 .debug_abbrev  0x00004496      0x17f /OPT/altera/12.1/nios2eds/bin/gnu/H-i686-pc-linux-gnu/bin/../lib/gcc/nios2-elf/4.1.2/../../../../nios2-elf/lib/mno-hw-mul/libc.a(lib_a-closer.o)
 .debug_abbrev  0x00004615      0x1a7 /OPT/altera/12.1/nios2eds/bin/gnu/H-i686-pc-linux-gnu/bin/../lib/gcc/nios2-elf/4.1.2/../../../../nios2-elf/lib/mno-hw-mul/libc.a(lib_a-fclose.o)
 .debug_abbrev  0x000047bc      0x18e /OPT/altera/12.1/nios2eds/bin/gnu/H-i686-pc-linux-gnu/bin/../lib/gcc/nios2-elf/4.1.2/../../../../nios2-elf/lib/mno-hw-mul/libc.a(lib_a-fstatr.o)
 .debug_abbrev  0x0000494a      0x17f /OPT/altera/12.1/nios2eds/bin/gnu/H-i686-pc-linux-gnu/bin/../lib/gcc/nios2-elf/4.1.2/../../../../nios2-elf/lib/mno-hw-mul/libc.a(lib_a-isattyr.o)
 .debug_abbrev  0x00004ac9      0x18e /OPT/altera/12.1/nios2eds/bin/gnu/H-i686-pc-linux-gnu/bin/../lib/gcc/nios2-elf/4.1.2/../../../../nios2-elf/lib/mno-hw-mul/libc.a(lib_a-lseekr.o)
 .debug_abbrev  0x00004c57      0x17f /OPT/altera/12.1/nios2eds/bin/gnu/H-i686-pc-linux-gnu/bin/../lib/gcc/nios2-elf/4.1.2/../../../../nios2-elf/lib/mno-hw-mul/libc.a(lib_a-readr.o)
 .debug_abbrev  0x00004dd6      0x16b /OPT/altera/12.1/nios2eds/bin/gnu/H-i686-pc-linux-gnu/bin/../lib/gcc/nios2-elf/4.1.2/mno-hw-mul/libgcc.a(_udivdi3.o)
 .debug_abbrev  0x00004f41      0x18e /OPT/altera/12.1/nios2eds/bin/gnu/H-i686-pc-linux-gnu/bin/../lib/gcc/nios2-elf/4.1.2/mno-hw-mul/libgcc.a(_umoddi3.o)
 .debug_abbrev  0x000050cf      0x1d2 /OPT/altera/12.1/nios2eds/bin/gnu/H-i686-pc-linux-gnu/bin/../lib/gcc/nios2-elf/4.1.2/mno-hw-mul/libgcc.a(_addsub_df.o)
 .debug_abbrev  0x000052a1      0x204 /OPT/altera/12.1/nios2eds/bin/gnu/H-i686-pc-linux-gnu/bin/../lib/gcc/nios2-elf/4.1.2/mno-hw-mul/libgcc.a(_mul_df.o)
 .debug_abbrev  0x000054a5      0x1e3 /OPT/altera/12.1/nios2eds/bin/gnu/H-i686-pc-linux-gnu/bin/../lib/gcc/nios2-elf/4.1.2/mno-hw-mul/libgcc.a(_div_df.o)
 .debug_abbrev  0x00005688      0x151 /OPT/altera/12.1/nios2eds/bin/gnu/H-i686-pc-linux-gnu/bin/../lib/gcc/nios2-elf/4.1.2/mno-hw-mul/libgcc.a(_eq_df.o)
 .debug_abbrev  0x000057d9      0x151 /OPT/altera/12.1/nios2eds/bin/gnu/H-i686-pc-linux-gnu/bin/../lib/gcc/nios2-elf/4.1.2/mno-hw-mul/libgcc.a(_ne_df.o)
 .debug_abbrev  0x0000592a      0x151 /OPT/altera/12.1/nios2eds/bin/gnu/H-i686-pc-linux-gnu/bin/../lib/gcc/nios2-elf/4.1.2/mno-hw-mul/libgcc.a(_gt_df.o)
 .debug_abbrev  0x00005a7b      0x151 /OPT/altera/12.1/nios2eds/bin/gnu/H-i686-pc-linux-gnu/bin/../lib/gcc/nios2-elf/4.1.2/mno-hw-mul/libgcc.a(_ge_df.o)
 .debug_abbrev  0x00005bcc      0x151 /OPT/altera/12.1/nios2eds/bin/gnu/H-i686-pc-linux-gnu/bin/../lib/gcc/nios2-elf/4.1.2/mno-hw-mul/libgcc.a(_lt_df.o)
 .debug_abbrev  0x00005d1d      0x13f /OPT/altera/12.1/nios2eds/bin/gnu/H-i686-pc-linux-gnu/bin/../lib/gcc/nios2-elf/4.1.2/mno-hw-mul/libgcc.a(_si_to_df.o)
 .debug_abbrev  0x00005e5c      0x176 /OPT/altera/12.1/nios2eds/bin/gnu/H-i686-pc-linux-gnu/bin/../lib/gcc/nios2-elf/4.1.2/mno-hw-mul/libgcc.a(_df_to_si.o)
 .debug_abbrev  0x00005fd2       0xba /OPT/altera/12.1/nios2eds/bin/gnu/H-i686-pc-linux-gnu/bin/../lib/gcc/nios2-elf/4.1.2/mno-hw-mul/libgcc.a(_thenan_df.o)
 .debug_abbrev  0x0000608c      0x155 /OPT/altera/12.1/nios2eds/bin/gnu/H-i686-pc-linux-gnu/bin/../lib/gcc/nios2-elf/4.1.2/mno-hw-mul/libgcc.a(_usi_to_df.o)
 .debug_abbrev  0x000061e1       0xfb /OPT/altera/12.1/nios2eds/bin/gnu/H-i686-pc-linux-gnu/bin/../lib/gcc/nios2-elf/4.1.2/mno-hw-mul/libgcc.a(_muldi3.o)
 .debug_abbrev  0x000062dc       0x61 /OPT/altera/12.1/nios2eds/bin/gnu/H-i686-pc-linux-gnu/bin/../lib/gcc/nios2-elf/4.1.2/mno-hw-mul/libgcc.a(_clz.o)
 .debug_abbrev  0x0000633d       0xb9 /OPT/altera/12.1/nios2eds/bin/gnu/H-i686-pc-linux-gnu/bin/../lib/gcc/nios2-elf/4.1.2/mno-hw-mul/libgcc.a(_clzsi2.o)
 .debug_abbrev  0x000063f6      0x1b1 /OPT/altera/12.1/nios2eds/bin/gnu/H-i686-pc-linux-gnu/bin/../lib/gcc/nios2-elf/4.1.2/mno-hw-mul/libgcc.a(_pack_df.o)
 .debug_abbrev  0x000065a7      0x149 /OPT/altera/12.1/nios2eds/bin/gnu/H-i686-pc-linux-gnu/bin/../lib/gcc/nios2-elf/4.1.2/mno-hw-mul/libgcc.a(_unpack_df.o)
 .debug_abbrev  0x000066f0      0x132 /OPT/altera/12.1/nios2eds/bin/gnu/H-i686-pc-linux-gnu/bin/../lib/gcc/nios2-elf/4.1.2/mno-hw-mul/libgcc.a(_fpcmp_parts_df.o)
 .debug_abbrev  0x00006822      0x102 ../sdcard_bsp//libucosii_bsp.a(alt_close.o)
 .debug_abbrev  0x00006924      0x10a ../sdcard_bsp//libucosii_bsp.a(alt_dev.o)
 .debug_abbrev  0x00006a2e       0x5e ../sdcard_bsp//libucosii_bsp.a(alt_errno.o)
 .debug_abbrev  0x00006a8c      0x102 ../sdcard_bsp//libucosii_bsp.a(alt_fstat.o)
 .debug_abbrev  0x00006b8e      0x102 ../sdcard_bsp//libucosii_bsp.a(alt_isatty.o)
 .debug_abbrev  0x00006c90       0x88 ../sdcard_bsp//libucosii_bsp.a(alt_load.o)
 .debug_abbrev  0x00006d18      0x102 ../sdcard_bsp//libucosii_bsp.a(alt_lseek.o)
 .debug_abbrev  0x00006e1a      0x120 ../sdcard_bsp//libucosii_bsp.a(alt_main.o)
 .debug_abbrev  0x00006f3a      0x102 ../sdcard_bsp//libucosii_bsp.a(alt_read.o)
 .debug_abbrev  0x0000703c       0xd3 ../sdcard_bsp//libucosii_bsp.a(alt_release_fd.o)
 .debug_abbrev  0x0000710f      0x11c ../sdcard_bsp//libucosii_bsp.a(alt_sbrk.o)
 .debug_abbrev  0x0000722b      0x107 ../sdcard_bsp//libucosii_bsp.a(alt_write.o)
 .debug_abbrev  0x00007332      0x1b3 ../sdcard_bsp//libucosii_bsp.a(alt_env_lock.o)
 .debug_abbrev  0x000074e5      0x234 ../sdcard_bsp//libucosii_bsp.a(alt_malloc_lock.o)
 .debug_abbrev  0x00007719      0x2aa ../sdcard_bsp//libucosii_bsp.a(os_core.o)
 .debug_abbrev  0x000079c3      0x114 ../sdcard_bsp//libucosii_bsp.a(os_dbg.o)
 .debug_abbrev  0x00007ad7      0x21b ../sdcard_bsp//libucosii_bsp.a(os_flag.o)
 .debug_abbrev  0x00007cf2      0x235 ../sdcard_bsp//libucosii_bsp.a(os_mem.o)
 .debug_abbrev  0x00007f27      0x20d ../sdcard_bsp//libucosii_bsp.a(os_q.o)
 .debug_abbrev  0x00008134      0x20d ../sdcard_bsp//libucosii_bsp.a(os_sem.o)
 .debug_abbrev  0x00008341      0x20e ../sdcard_bsp//libucosii_bsp.a(os_task.o)
 .debug_abbrev  0x0000854f      0x1de ../sdcard_bsp//libucosii_bsp.a(os_time.o)
 .debug_abbrev  0x0000872d      0x1b9 ../sdcard_bsp//libucosii_bsp.a(alt_sys_init.o)
 .debug_abbrev  0x000088e6      0x13c ../sdcard_bsp//libucosii_bsp.a(altera_avalon_jtag_uart_fd.o)
 .debug_abbrev  0x00008a22      0x21e ../sdcard_bsp//libucosii_bsp.a(altera_avalon_jtag_uart_init.o)
 .debug_abbrev  0x00008c40      0x135 ../sdcard_bsp//libucosii_bsp.a(altera_avalon_jtag_uart_ioctl.o)
 .debug_abbrev  0x00008d75      0x1ee ../sdcard_bsp//libucosii_bsp.a(altera_avalon_jtag_uart_read.o)
 .debug_abbrev  0x00008f63      0x1ea ../sdcard_bsp//libucosii_bsp.a(altera_avalon_jtag_uart_write.o)
 .debug_abbrev  0x0000914d      0x137 ../sdcard_bsp//libucosii_bsp.a(altera_avalon_timer_sc.o)
 .debug_abbrev  0x00009284      0x127 ../sdcard_bsp//libucosii_bsp.a(altera_up_avalon_character_lcd.o)
 .debug_abbrev  0x000093ab      0x172 ../sdcard_bsp//libucosii_bsp.a(alt_alarm_start.o)
 .debug_abbrev  0x0000951d       0x3f ../sdcard_bsp//libucosii_bsp.a(alt_dcache_flush_all.o)
 .debug_abbrev  0x0000955c       0xf6 ../sdcard_bsp//libucosii_bsp.a(alt_dev_llist_insert.o)
 .debug_abbrev  0x00009652       0x76 ../sdcard_bsp//libucosii_bsp.a(alt_do_ctors.o)
 .debug_abbrev  0x000096c8       0x76 ../sdcard_bsp//libucosii_bsp.a(alt_do_dtors.o)
 .debug_abbrev  0x0000973e       0xd6 ../sdcard_bsp//libucosii_bsp.a(alt_find_dev.o)
 .debug_abbrev  0x00009814       0x3f ../sdcard_bsp//libucosii_bsp.a(alt_icache_flush_all.o)
 .debug_abbrev  0x00009853       0xf7 ../sdcard_bsp//libucosii_bsp.a(alt_io_redirect.o)
 .debug_abbrev  0x0000994a      0x180 ../sdcard_bsp//libucosii_bsp.a(alt_irq_register.o)
 .debug_abbrev  0x00009aca       0x44 ../sdcard_bsp//libucosii_bsp.a(alt_irq_vars.o)
 .debug_abbrev  0x00009b0e      0x119 ../sdcard_bsp//libucosii_bsp.a(alt_open.o)
 .debug_abbrev  0x00009c27      0x161 ../sdcard_bsp//libucosii_bsp.a(alt_tick.o)
 .debug_abbrev  0x00009d88       0x64 ../sdcard_bsp//libucosii_bsp.a(altera_nios2_qsys_irq.o)
 .debug_abbrev  0x00009dec       0x14 ../sdcard_bsp//libucosii_bsp.a(os_cpu_a.o)
 .debug_abbrev  0x00009e00      0x1d0 ../sdcard_bsp//libucosii_bsp.a(os_cpu_c.o)
 .debug_abbrev  0x00009fd0       0xd6 ../sdcard_bsp//libucosii_bsp.a(alt_find_file.o)
 .debug_abbrev  0x0000a0a6      0x173 ../sdcard_bsp//libucosii_bsp.a(alt_get_fd.o)
 .debug_abbrev  0x0000a219       0x12 ../sdcard_bsp//libucosii_bsp.a(alt_irq_entry.o)
 .debug_abbrev  0x0000a22b      0x124 ../sdcard_bsp//libucosii_bsp.a(alt_irq_handler.o)
 .debug_abbrev  0x0000a34f       0x12 ../sdcard_bsp//libucosii_bsp.a(alt_exception_entry.o)
 .debug_abbrev  0x0000a361       0xb7 /OPT/altera/12.1/nios2eds/bin/gnu/H-i686-pc-linux-gnu/bin/../lib/gcc/nios2-elf/4.1.2/../../../../nios2-elf/lib/mno-hw-mul/libc.a(lib_a-atexit.o)
 .debug_abbrev  0x0000a418      0x16e /OPT/altera/12.1/nios2eds/bin/gnu/H-i686-pc-linux-gnu/bin/../lib/gcc/nios2-elf/4.1.2/../../../../nios2-elf/lib/mno-hw-mul/libc.a(lib_a-exit.o)
 .debug_abbrev  0x0000a586       0x7c /OPT/altera/12.1/nios2eds/bin/gnu/H-i686-pc-linux-gnu/bin/../lib/gcc/nios2-elf/4.1.2/../../../../nios2-elf/lib/mno-hw-mul/libc.a(lib_a-memcmp.o)
 .debug_abbrev  0x0000a602      0x1ae /OPT/altera/12.1/nios2eds/bin/gnu/H-i686-pc-linux-gnu/bin/../lib/gcc/nios2-elf/4.1.2/../../../../nios2-elf/lib/mno-hw-mul/libc.a(lib_a-__atexit.o)
 .debug_abbrev  0x0000a7b0      0x1de /OPT/altera/12.1/nios2eds/bin/gnu/H-i686-pc-linux-gnu/bin/../lib/gcc/nios2-elf/4.1.2/../../../../nios2-elf/lib/mno-hw-mul/libc.a(lib_a-__call_atexit.o)
 .debug_abbrev  0x0000a98e       0xaa ../sdcard_bsp//libucosii_bsp.a(alt_exit.o)

.debug_line     0x00000000    0x216be
 *(.debug_line)
 .debug_line    0x00000000       0x66 ../sdcard_bsp//obj/HAL/src/crt0.o
 .debug_line    0x00000066      0x1af obj/default/efsl/debug.o
 .debug_line    0x00000215      0x5f6 obj/default/efsl/dir.o
 .debug_line    0x0000080b      0x23c obj/default/efsl/disc.o
 .debug_line    0x00000a47      0x27d obj/default/efsl/efs.o
 .debug_line    0x00000cc4      0x2cf obj/default/efsl/extract.o
 .debug_line    0x00000f93      0x9de obj/default/efsl/fat.o
 .debug_line    0x00001971      0x8fb obj/default/efsl/file.o
 .debug_line    0x0000226c      0x87d obj/default/efsl/fs.o
 .debug_line    0x00002ae9      0xc25 obj/default/efsl/ioman.o
 .debug_line    0x0000370e      0x3b3 obj/default/efsl/ls.o
 .debug_line    0x00003ac1      0x37d obj/default/efsl/mkfs.o
 .debug_line    0x00003e3e      0x426 obj/default/efsl/nios2.o
 .debug_line    0x00004264       0xfc obj/default/efsl/nios2_ramdisk.o
 .debug_line    0x00004360      0x318 obj/default/efsl/partition.o
 .debug_line    0x00004678      0x274 obj/default/efsl/plibc.o
 .debug_line    0x000048ec      0x63d obj/default/efsl/sd.o
 .debug_line    0x00004f29       0xa5 obj/default/efsl/time.o
 .debug_line    0x00004fce      0x4bf obj/default/efsl/ui.o
 .debug_line    0x0000548d      0x3ba obj/default/sdCardREAD.o
 .debug_line    0x00005847      0x2c6 /OPT/altera/12.1/nios2eds/bin/gnu/H-i686-pc-linux-gnu/bin/../lib/gcc/nios2-elf/4.1.2/mno-hw-mul/libgcc.a(lib2-divmod.o)
 .debug_line    0x00005b0d      0x191 /OPT/altera/12.1/nios2eds/bin/gnu/H-i686-pc-linux-gnu/bin/../lib/gcc/nios2-elf/4.1.2/mno-hw-mul/libgcc.a(lib2-mul.o)
 .debug_line    0x00005c9e      0x24e /OPT/altera/12.1/nios2eds/bin/gnu/H-i686-pc-linux-gnu/bin/../lib/gcc/nios2-elf/4.1.2/../../../../nios2-elf/lib/mno-hw-mul/libc.a(lib_a-malloc.o)
 .debug_line    0x00005eec      0x80d /OPT/altera/12.1/nios2eds/bin/gnu/H-i686-pc-linux-gnu/bin/../lib/gcc/nios2-elf/4.1.2/../../../../nios2-elf/lib/mno-hw-mul/libc.a(lib_a-mallocr.o)
 .debug_line    0x000066f9      0x1af /OPT/altera/12.1/nios2eds/bin/gnu/H-i686-pc-linux-gnu/bin/../lib/gcc/nios2-elf/4.1.2/../../../../nios2-elf/lib/mno-hw-mul/libc.a(lib_a-memcpy.o)
 .debug_line    0x000068a8      0x29e /OPT/altera/12.1/nios2eds/bin/gnu/H-i686-pc-linux-gnu/bin/../lib/gcc/nios2-elf/4.1.2/../../../../nios2-elf/lib/mno-hw-mul/libc.a(lib_a-printf.o)
 .debug_line    0x00006b46      0x267 /OPT/altera/12.1/nios2eds/bin/gnu/H-i686-pc-linux-gnu/bin/../lib/gcc/nios2-elf/4.1.2/../../../../nios2-elf/lib/mno-hw-mul/libc.a(lib_a-putchar.o)
 .debug_line    0x00006dad      0x2fa /OPT/altera/12.1/nios2eds/bin/gnu/H-i686-pc-linux-gnu/bin/../lib/gcc/nios2-elf/4.1.2/../../../../nios2-elf/lib/mno-hw-mul/libc.a(lib_a-puts.o)
 .debug_line    0x000070a7      0x29c /OPT/altera/12.1/nios2eds/bin/gnu/H-i686-pc-linux-gnu/bin/../lib/gcc/nios2-elf/4.1.2/../../../../nios2-elf/lib/mno-hw-mul/libc.a(lib_a-sbrkr.o)
 .debug_line    0x00007343      0x270 /OPT/altera/12.1/nios2eds/bin/gnu/H-i686-pc-linux-gnu/bin/../lib/gcc/nios2-elf/4.1.2/../../../../nios2-elf/lib/mno-hw-mul/libc.a(lib_a-strlen.o)
 .debug_line    0x000075b3     0x110f /OPT/altera/12.1/nios2eds/bin/gnu/H-i686-pc-linux-gnu/bin/../lib/gcc/nios2-elf/4.1.2/../../../../nios2-elf/lib/mno-hw-mul/libc.a(lib_a-vfprintf.o)
 .debug_line    0x000086c2      0x2f3 /OPT/altera/12.1/nios2eds/bin/gnu/H-i686-pc-linux-gnu/bin/../lib/gcc/nios2-elf/4.1.2/../../../../nios2-elf/lib/mno-hw-mul/libc.a(lib_a-wsetup.o)
 .debug_line    0x000089b5     0x1309 /OPT/altera/12.1/nios2eds/bin/gnu/H-i686-pc-linux-gnu/bin/../lib/gcc/nios2-elf/4.1.2/../../../../nios2-elf/lib/mno-hw-mul/libc.a(lib_a-dtoa.o)
 .debug_line    0x00009cbe      0x410 /OPT/altera/12.1/nios2eds/bin/gnu/H-i686-pc-linux-gnu/bin/../lib/gcc/nios2-elf/4.1.2/../../../../nios2-elf/lib/mno-hw-mul/libc.a(lib_a-fflush.o)
 .debug_line    0x0000a0ce      0x60c /OPT/altera/12.1/nios2eds/bin/gnu/H-i686-pc-linux-gnu/bin/../lib/gcc/nios2-elf/4.1.2/../../../../nios2-elf/lib/mno-hw-mul/libc.a(lib_a-findfp.o)
 .debug_line    0x0000a6da      0x5ee /OPT/altera/12.1/nios2eds/bin/gnu/H-i686-pc-linux-gnu/bin/../lib/gcc/nios2-elf/4.1.2/../../../../nios2-elf/lib/mno-hw-mul/libc.a(lib_a-freer.o)
 .debug_line    0x0000acc8      0x644 /OPT/altera/12.1/nios2eds/bin/gnu/H-i686-pc-linux-gnu/bin/../lib/gcc/nios2-elf/4.1.2/../../../../nios2-elf/lib/mno-hw-mul/libc.a(lib_a-fvwrite.o)
 .debug_line    0x0000b30c      0x34d /OPT/altera/12.1/nios2eds/bin/gnu/H-i686-pc-linux-gnu/bin/../lib/gcc/nios2-elf/4.1.2/../../../../nios2-elf/lib/mno-hw-mul/libc.a(lib_a-fwalk.o)
 .debug_line    0x0000b659      0x230 /OPT/altera/12.1/nios2eds/bin/gnu/H-i686-pc-linux-gnu/bin/../lib/gcc/nios2-elf/4.1.2/../../../../nios2-elf/lib/mno-hw-mul/libc.a(lib_a-impure.o)
 .debug_line    0x0000b889      0x1e2 /OPT/altera/12.1/nios2eds/bin/gnu/H-i686-pc-linux-gnu/bin/../lib/gcc/nios2-elf/4.1.2/../../../../nios2-elf/lib/mno-hw-mul/libc.a(lib_a-int_errno.o)
 .debug_line    0x0000ba6b      0x2cb /OPT/altera/12.1/nios2eds/bin/gnu/H-i686-pc-linux-gnu/bin/../lib/gcc/nios2-elf/4.1.2/../../../../nios2-elf/lib/mno-hw-mul/libc.a(lib_a-locale.o)
 .debug_line    0x0000bd36      0x3c6 /OPT/altera/12.1/nios2eds/bin/gnu/H-i686-pc-linux-gnu/bin/../lib/gcc/nios2-elf/4.1.2/../../../../nios2-elf/lib/mno-hw-mul/libc.a(lib_a-makebuf.o)
 .debug_line    0x0000c0fc      0x306 /OPT/altera/12.1/nios2eds/bin/gnu/H-i686-pc-linux-gnu/bin/../lib/gcc/nios2-elf/4.1.2/../../../../nios2-elf/lib/mno-hw-mul/libc.a(lib_a-memchr.o)
 .debug_line    0x0000c402      0x30d /OPT/altera/12.1/nios2eds/bin/gnu/H-i686-pc-linux-gnu/bin/../lib/gcc/nios2-elf/4.1.2/../../../../nios2-elf/lib/mno-hw-mul/libc.a(lib_a-memmove.o)
 .debug_line    0x0000c70f      0x304 /OPT/altera/12.1/nios2eds/bin/gnu/H-i686-pc-linux-gnu/bin/../lib/gcc/nios2-elf/4.1.2/../../../../nios2-elf/lib/mno-hw-mul/libc.a(lib_a-memset.o)
 .debug_line    0x0000ca13     0x125e /OPT/altera/12.1/nios2eds/bin/gnu/H-i686-pc-linux-gnu/bin/../lib/gcc/nios2-elf/4.1.2/../../../../nios2-elf/lib/mno-hw-mul/libc.a(lib_a-mprec.o)
 .debug_line    0x0000dc71      0x2c7 /OPT/altera/12.1/nios2eds/bin/gnu/H-i686-pc-linux-gnu/bin/../lib/gcc/nios2-elf/4.1.2/../../../../nios2-elf/lib/mno-hw-mul/libc.a(lib_a-putc.o)
 .debug_line    0x0000df38      0x58d /OPT/altera/12.1/nios2eds/bin/gnu/H-i686-pc-linux-gnu/bin/../lib/gcc/nios2-elf/4.1.2/../../../../nios2-elf/lib/mno-hw-mul/libc.a(lib_a-reallocr.o)
 .debug_line    0x0000e4c5      0x225 /OPT/altera/12.1/nios2eds/bin/gnu/H-i686-pc-linux-gnu/bin/../lib/gcc/nios2-elf/4.1.2/../../../../nios2-elf/lib/mno-hw-mul/libc.a(lib_a-s_isinfd.o)
 .debug_line    0x0000e6ea      0x21d /OPT/altera/12.1/nios2eds/bin/gnu/H-i686-pc-linux-gnu/bin/../lib/gcc/nios2-elf/4.1.2/../../../../nios2-elf/lib/mno-hw-mul/libc.a(lib_a-s_isnand.o)
 .debug_line    0x0000e907      0x38f /OPT/altera/12.1/nios2eds/bin/gnu/H-i686-pc-linux-gnu/bin/../lib/gcc/nios2-elf/4.1.2/../../../../nios2-elf/lib/mno-hw-mul/libc.a(lib_a-stdio.o)
 .debug_line    0x0000ec96      0x2d8 /OPT/altera/12.1/nios2eds/bin/gnu/H-i686-pc-linux-gnu/bin/../lib/gcc/nios2-elf/4.1.2/../../../../nios2-elf/lib/mno-hw-mul/libc.a(lib_a-strcmp.o)
 .debug_line    0x0000ef6e      0x353 /OPT/altera/12.1/nios2eds/bin/gnu/H-i686-pc-linux-gnu/bin/../lib/gcc/nios2-elf/4.1.2/../../../../nios2-elf/lib/mno-hw-mul/libc.a(lib_a-wbuf.o)
 .debug_line    0x0000f2c1      0x29d /OPT/altera/12.1/nios2eds/bin/gnu/H-i686-pc-linux-gnu/bin/../lib/gcc/nios2-elf/4.1.2/../../../../nios2-elf/lib/mno-hw-mul/libc.a(lib_a-writer.o)
 .debug_line    0x0000f55e      0x25f /OPT/altera/12.1/nios2eds/bin/gnu/H-i686-pc-linux-gnu/bin/../lib/gcc/nios2-elf/4.1.2/../../../../nios2-elf/lib/mno-hw-mul/libc.a(lib_a-callocr.o)
 .debug_line    0x0000f7bd      0x29d /OPT/altera/12.1/nios2eds/bin/gnu/H-i686-pc-linux-gnu/bin/../lib/gcc/nios2-elf/4.1.2/../../../../nios2-elf/lib/mno-hw-mul/libc.a(lib_a-closer.o)
 .debug_line    0x0000fa5a      0x2eb /OPT/altera/12.1/nios2eds/bin/gnu/H-i686-pc-linux-gnu/bin/../lib/gcc/nios2-elf/4.1.2/../../../../nios2-elf/lib/mno-hw-mul/libc.a(lib_a-fclose.o)
 .debug_line    0x0000fd45      0x267 /OPT/altera/12.1/nios2eds/bin/gnu/H-i686-pc-linux-gnu/bin/../lib/gcc/nios2-elf/4.1.2/../../../../nios2-elf/lib/mno-hw-mul/libc.a(lib_a-fstatr.o)
 .debug_line    0x0000ffac      0x29e /OPT/altera/12.1/nios2eds/bin/gnu/H-i686-pc-linux-gnu/bin/../lib/gcc/nios2-elf/4.1.2/../../../../nios2-elf/lib/mno-hw-mul/libc.a(lib_a-isattyr.o)
 .debug_line    0x0001024a      0x29d /OPT/altera/12.1/nios2eds/bin/gnu/H-i686-pc-linux-gnu/bin/../lib/gcc/nios2-elf/4.1.2/../../../../nios2-elf/lib/mno-hw-mul/libc.a(lib_a-lseekr.o)
 .debug_line    0x000104e7      0x29c /OPT/altera/12.1/nios2eds/bin/gnu/H-i686-pc-linux-gnu/bin/../lib/gcc/nios2-elf/4.1.2/../../../../nios2-elf/lib/mno-hw-mul/libc.a(lib_a-readr.o)
 .debug_line    0x00010783      0x369 /OPT/altera/12.1/nios2eds/bin/gnu/H-i686-pc-linux-gnu/bin/../lib/gcc/nios2-elf/4.1.2/mno-hw-mul/libgcc.a(_udivdi3.o)
 .debug_line    0x00010aec      0x47c /OPT/altera/12.1/nios2eds/bin/gnu/H-i686-pc-linux-gnu/bin/../lib/gcc/nios2-elf/4.1.2/mno-hw-mul/libgcc.a(_umoddi3.o)
 .debug_line    0x00010f68      0x430 /OPT/altera/12.1/nios2eds/bin/gnu/H-i686-pc-linux-gnu/bin/../lib/gcc/nios2-elf/4.1.2/mno-hw-mul/libgcc.a(_addsub_df.o)
 .debug_line    0x00011398      0x3e5 /OPT/altera/12.1/nios2eds/bin/gnu/H-i686-pc-linux-gnu/bin/../lib/gcc/nios2-elf/4.1.2/mno-hw-mul/libgcc.a(_mul_df.o)
 .debug_line    0x0001177d      0x301 /OPT/altera/12.1/nios2eds/bin/gnu/H-i686-pc-linux-gnu/bin/../lib/gcc/nios2-elf/4.1.2/mno-hw-mul/libgcc.a(_div_df.o)
 .debug_line    0x00011a7e      0x129 /OPT/altera/12.1/nios2eds/bin/gnu/H-i686-pc-linux-gnu/bin/../lib/gcc/nios2-elf/4.1.2/mno-hw-mul/libgcc.a(_eq_df.o)
 .debug_line    0x00011ba7      0x129 /OPT/altera/12.1/nios2eds/bin/gnu/H-i686-pc-linux-gnu/bin/../lib/gcc/nios2-elf/4.1.2/mno-hw-mul/libgcc.a(_ne_df.o)
 .debug_line    0x00011cd0      0x129 /OPT/altera/12.1/nios2eds/bin/gnu/H-i686-pc-linux-gnu/bin/../lib/gcc/nios2-elf/4.1.2/mno-hw-mul/libgcc.a(_gt_df.o)
 .debug_line    0x00011df9      0x129 /OPT/altera/12.1/nios2eds/bin/gnu/H-i686-pc-linux-gnu/bin/../lib/gcc/nios2-elf/4.1.2/mno-hw-mul/libgcc.a(_ge_df.o)
 .debug_line    0x00011f22      0x129 /OPT/altera/12.1/nios2eds/bin/gnu/H-i686-pc-linux-gnu/bin/../lib/gcc/nios2-elf/4.1.2/mno-hw-mul/libgcc.a(_lt_df.o)
 .debug_line    0x0001204b      0x175 /OPT/altera/12.1/nios2eds/bin/gnu/H-i686-pc-linux-gnu/bin/../lib/gcc/nios2-elf/4.1.2/mno-hw-mul/libgcc.a(_si_to_df.o)
 .debug_line    0x000121c0      0x149 /OPT/altera/12.1/nios2eds/bin/gnu/H-i686-pc-linux-gnu/bin/../lib/gcc/nios2-elf/4.1.2/mno-hw-mul/libgcc.a(_df_to_si.o)
 .debug_line    0x00012309       0x94 /OPT/altera/12.1/nios2eds/bin/gnu/H-i686-pc-linux-gnu/bin/../lib/gcc/nios2-elf/4.1.2/mno-hw-mul/libgcc.a(_thenan_df.o)
 .debug_line    0x0001239d      0x189 /OPT/altera/12.1/nios2eds/bin/gnu/H-i686-pc-linux-gnu/bin/../lib/gcc/nios2-elf/4.1.2/mno-hw-mul/libgcc.a(_usi_to_df.o)
 .debug_line    0x00012526      0x1c6 /OPT/altera/12.1/nios2eds/bin/gnu/H-i686-pc-linux-gnu/bin/../lib/gcc/nios2-elf/4.1.2/mno-hw-mul/libgcc.a(_muldi3.o)
 .debug_line    0x000126ec      0x121 /OPT/altera/12.1/nios2eds/bin/gnu/H-i686-pc-linux-gnu/bin/../lib/gcc/nios2-elf/4.1.2/mno-hw-mul/libgcc.a(_clz.o)
 .debug_line    0x0001280d      0x17c /OPT/altera/12.1/nios2eds/bin/gnu/H-i686-pc-linux-gnu/bin/../lib/gcc/nios2-elf/4.1.2/mno-hw-mul/libgcc.a(_clzsi2.o)
 .debug_line    0x00012989      0x222 /OPT/altera/12.1/nios2eds/bin/gnu/H-i686-pc-linux-gnu/bin/../lib/gcc/nios2-elf/4.1.2/mno-hw-mul/libgcc.a(_pack_df.o)
 .debug_line    0x00012bab      0x1e4 /OPT/altera/12.1/nios2eds/bin/gnu/H-i686-pc-linux-gnu/bin/../lib/gcc/nios2-elf/4.1.2/mno-hw-mul/libgcc.a(_unpack_df.o)
 .debug_line    0x00012d8f      0x187 /OPT/altera/12.1/nios2eds/bin/gnu/H-i686-pc-linux-gnu/bin/../lib/gcc/nios2-elf/4.1.2/mno-hw-mul/libgcc.a(_fpcmp_parts_df.o)
 .debug_line    0x00012f16      0x315 ../sdcard_bsp//libucosii_bsp.a(alt_close.o)
 .debug_line    0x0001322b      0x2d9 ../sdcard_bsp//libucosii_bsp.a(alt_dev.o)
 .debug_line    0x00013504      0x1b2 ../sdcard_bsp//libucosii_bsp.a(alt_errno.o)
 .debug_line    0x000136b6      0x31d ../sdcard_bsp//libucosii_bsp.a(alt_fstat.o)
 .debug_line    0x000139d3      0x31e ../sdcard_bsp//libucosii_bsp.a(alt_isatty.o)
 .debug_line    0x00013cf1      0x21f ../sdcard_bsp//libucosii_bsp.a(alt_load.o)
 .debug_line    0x00013f10      0x31d ../sdcard_bsp//libucosii_bsp.a(alt_lseek.o)
 .debug_line    0x0001422d      0x365 ../sdcard_bsp//libucosii_bsp.a(alt_main.o)
 .debug_line    0x00014592      0x344 ../sdcard_bsp//libucosii_bsp.a(alt_read.o)
 .debug_line    0x000148d6      0x295 ../sdcard_bsp//libucosii_bsp.a(alt_release_fd.o)
 .debug_line    0x00014b6b      0x282 ../sdcard_bsp//libucosii_bsp.a(alt_sbrk.o)
 .debug_line    0x00014ded      0x345 ../sdcard_bsp//libucosii_bsp.a(alt_write.o)
 .debug_line    0x00015132      0x2e0 ../sdcard_bsp//libucosii_bsp.a(alt_env_lock.o)
 .debug_line    0x00015412      0x39c ../sdcard_bsp//libucosii_bsp.a(alt_malloc_lock.o)
 .debug_line    0x000157ae     0x1684 ../sdcard_bsp//libucosii_bsp.a(os_core.o)
 .debug_line    0x00016e32      0x3a9 ../sdcard_bsp//libucosii_bsp.a(os_dbg.o)
 .debug_line    0x000171db     0x1208 ../sdcard_bsp//libucosii_bsp.a(os_flag.o)
 .debug_line    0x000183e3      0x7ab ../sdcard_bsp//libucosii_bsp.a(os_mem.o)
 .debug_line    0x00018b8e      0xe8c ../sdcard_bsp//libucosii_bsp.a(os_q.o)
 .debug_line    0x00019a1a      0xa44 ../sdcard_bsp//libucosii_bsp.a(os_sem.o)
 .debug_line    0x0001a45e     0x114d ../sdcard_bsp//libucosii_bsp.a(os_task.o)
 .debug_line    0x0001b5ab      0x550 ../sdcard_bsp//libucosii_bsp.a(os_time.o)
 .debug_line    0x0001bafb      0x39d ../sdcard_bsp//libucosii_bsp.a(alt_sys_init.o)
 .debug_line    0x0001be98      0x338 ../sdcard_bsp//libucosii_bsp.a(altera_avalon_jtag_uart_fd.o)
 .debug_line    0x0001c1d0      0x5b7 ../sdcard_bsp//libucosii_bsp.a(altera_avalon_jtag_uart_init.o)
 .debug_line    0x0001c787      0x375 ../sdcard_bsp//libucosii_bsp.a(altera_avalon_jtag_uart_ioctl.o)
 .debug_line    0x0001cafc      0x4b3 ../sdcard_bsp//libucosii_bsp.a(altera_avalon_jtag_uart_read.o)
 .debug_line    0x0001cfaf      0x4c1 ../sdcard_bsp//libucosii_bsp.a(altera_avalon_jtag_uart_write.o)
 .debug_line    0x0001d470      0x2d2 ../sdcard_bsp//libucosii_bsp.a(altera_avalon_timer_sc.o)
 .debug_line    0x0001d742      0x4e1 ../sdcard_bsp//libucosii_bsp.a(altera_up_avalon_character_lcd.o)
 .debug_line    0x0001dc23      0x2fd ../sdcard_bsp//libucosii_bsp.a(alt_alarm_start.o)
 .debug_line    0x0001df20      0x1bd ../sdcard_bsp//libucosii_bsp.a(alt_dcache_flush_all.o)
 .debug_line    0x0001e0dd      0x262 ../sdcard_bsp//libucosii_bsp.a(alt_dev_llist_insert.o)
 .debug_line    0x0001e33f       0x83 ../sdcard_bsp//libucosii_bsp.a(alt_do_ctors.o)
 .debug_line    0x0001e3c2       0x83 ../sdcard_bsp//libucosii_bsp.a(alt_do_dtors.o)
 .debug_line    0x0001e445      0x2f6 ../sdcard_bsp//libucosii_bsp.a(alt_find_dev.o)
 .debug_line    0x0001e73b      0x1bd ../sdcard_bsp//libucosii_bsp.a(alt_icache_flush_all.o)
 .debug_line    0x0001e8f8      0x33f ../sdcard_bsp//libucosii_bsp.a(alt_io_redirect.o)
 .debug_line    0x0001ec37      0x375 ../sdcard_bsp//libucosii_bsp.a(alt_irq_register.o)
 .debug_line    0x0001efac       0x72 ../sdcard_bsp//libucosii_bsp.a(alt_irq_vars.o)
 .debug_line    0x0001f01e      0x37b ../sdcard_bsp//libucosii_bsp.a(alt_open.o)
 .debug_line    0x0001f399      0x337 ../sdcard_bsp//libucosii_bsp.a(alt_tick.o)
 .debug_line    0x0001f6d0      0x1ef ../sdcard_bsp//libucosii_bsp.a(altera_nios2_qsys_irq.o)
 .debug_line    0x0001f8bf       0x86 ../sdcard_bsp//libucosii_bsp.a(os_cpu_a.o)
 .debug_line    0x0001f945      0x349 ../sdcard_bsp//libucosii_bsp.a(os_cpu_c.o)
 .debug_line    0x0001fc8e      0x307 ../sdcard_bsp//libucosii_bsp.a(alt_find_file.o)
 .debug_line    0x0001ff95      0x337 ../sdcard_bsp//libucosii_bsp.a(alt_get_fd.o)
 .debug_line    0x000202cc       0x6b ../sdcard_bsp//libucosii_bsp.a(alt_irq_entry.o)
 .debug_line    0x00020337      0x2e5 ../sdcard_bsp//libucosii_bsp.a(alt_irq_handler.o)
 .debug_line    0x0002061c       0xab ../sdcard_bsp//libucosii_bsp.a(alt_exception_entry.o)
 .debug_line    0x000206c7      0x203 /OPT/altera/12.1/nios2eds/bin/gnu/H-i686-pc-linux-gnu/bin/../lib/gcc/nios2-elf/4.1.2/../../../../nios2-elf/lib/mno-hw-mul/libc.a(lib_a-atexit.o)
 .debug_line    0x000208ca      0x23b /OPT/altera/12.1/nios2eds/bin/gnu/H-i686-pc-linux-gnu/bin/../lib/gcc/nios2-elf/4.1.2/../../../../nios2-elf/lib/mno-hw-mul/libc.a(lib_a-exit.o)
 .debug_line    0x00020b05      0x2a2 /OPT/altera/12.1/nios2eds/bin/gnu/H-i686-pc-linux-gnu/bin/../lib/gcc/nios2-elf/4.1.2/../../../../nios2-elf/lib/mno-hw-mul/libc.a(lib_a-memcmp.o)
 .debug_line    0x00020da7      0x316 /OPT/altera/12.1/nios2eds/bin/gnu/H-i686-pc-linux-gnu/bin/../lib/gcc/nios2-elf/4.1.2/../../../../nios2-elf/lib/mno-hw-mul/libc.a(lib_a-__atexit.o)
 .debug_line    0x000210bd      0x36a /OPT/altera/12.1/nios2eds/bin/gnu/H-i686-pc-linux-gnu/bin/../lib/gcc/nios2-elf/4.1.2/../../../../nios2-elf/lib/mno-hw-mul/libc.a(lib_a-__call_atexit.o)
 .debug_line    0x00021427      0x297 ../sdcard_bsp//libucosii_bsp.a(alt_exit.o)

.debug_frame    0x00000000     0x3890
 *(.debug_frame)
 .debug_frame   0x00000000      0x19c obj/default/efsl/dir.o
 .debug_frame   0x0000019c       0x48 obj/default/efsl/disc.o
 .debug_frame   0x000001e4       0x2c obj/default/efsl/efs.o
 .debug_frame   0x00000210       0xb8 obj/default/efsl/extract.o
 .debug_frame   0x000002c8      0x1a8 obj/default/efsl/fat.o
 .debug_frame   0x00000470      0x188 obj/default/efsl/file.o
 .debug_frame   0x000005f8      0x2a8 obj/default/efsl/fs.o
 .debug_frame   0x000008a0      0x3ac obj/default/efsl/ioman.o
 .debug_frame   0x00000c4c       0xd8 obj/default/efsl/ls.o
 .debug_frame   0x00000d24       0x30 obj/default/efsl/mkfs.o
 .debug_frame   0x00000d54       0xf0 obj/default/efsl/nios2.o
 .debug_frame   0x00000e44       0x80 obj/default/efsl/nios2_ramdisk.o
 .debug_frame   0x00000ec4      0x140 obj/default/efsl/partition.o
 .debug_frame   0x00001004       0x80 obj/default/efsl/plibc.o
 .debug_frame   0x00001084      0x110 obj/default/efsl/sd.o
 .debug_frame   0x00001194       0x64 obj/default/efsl/time.o
 .debug_frame   0x000011f8       0x6c obj/default/efsl/ui.o
 .debug_frame   0x00001264       0x30 obj/default/sdCardREAD.o
 .debug_frame   0x00001294       0x70 /OPT/altera/12.1/nios2eds/bin/gnu/H-i686-pc-linux-gnu/bin/../lib/gcc/nios2-elf/4.1.2/mno-hw-mul/libgcc.a(lib2-divmod.o)
 .debug_frame   0x00001304       0x20 /OPT/altera/12.1/nios2eds/bin/gnu/H-i686-pc-linux-gnu/bin/../lib/gcc/nios2-elf/4.1.2/mno-hw-mul/libgcc.a(lib2-mul.o)
 .debug_frame   0x00001324       0x30 /OPT/altera/12.1/nios2eds/bin/gnu/H-i686-pc-linux-gnu/bin/../lib/gcc/nios2-elf/4.1.2/../../../../nios2-elf/lib/mno-hw-mul/libc.a(lib_a-malloc.o)
 .debug_frame   0x00001354       0x38 /OPT/altera/12.1/nios2eds/bin/gnu/H-i686-pc-linux-gnu/bin/../lib/gcc/nios2-elf/4.1.2/../../../../nios2-elf/lib/mno-hw-mul/libc.a(lib_a-mallocr.o)
 .debug_frame   0x0000138c       0x20 /OPT/altera/12.1/nios2eds/bin/gnu/H-i686-pc-linux-gnu/bin/../lib/gcc/nios2-elf/4.1.2/../../../../nios2-elf/lib/mno-hw-mul/libc.a(lib_a-memcpy.o)
 .debug_frame   0x000013ac       0x40 /OPT/altera/12.1/nios2eds/bin/gnu/H-i686-pc-linux-gnu/bin/../lib/gcc/nios2-elf/4.1.2/../../../../nios2-elf/lib/mno-hw-mul/libc.a(lib_a-printf.o)
 .debug_frame   0x000013ec       0x30 /OPT/altera/12.1/nios2eds/bin/gnu/H-i686-pc-linux-gnu/bin/../lib/gcc/nios2-elf/4.1.2/../../../../nios2-elf/lib/mno-hw-mul/libc.a(lib_a-putchar.o)
 .debug_frame   0x0000141c       0x3c /OPT/altera/12.1/nios2eds/bin/gnu/H-i686-pc-linux-gnu/bin/../lib/gcc/nios2-elf/4.1.2/../../../../nios2-elf/lib/mno-hw-mul/libc.a(lib_a-puts.o)
 .debug_frame   0x00001458       0x2c /OPT/altera/12.1/nios2eds/bin/gnu/H-i686-pc-linux-gnu/bin/../lib/gcc/nios2-elf/4.1.2/../../../../nios2-elf/lib/mno-hw-mul/libc.a(lib_a-sbrkr.o)
 .debug_frame   0x00001484       0x20 /OPT/altera/12.1/nios2eds/bin/gnu/H-i686-pc-linux-gnu/bin/../lib/gcc/nios2-elf/4.1.2/../../../../nios2-elf/lib/mno-hw-mul/libc.a(lib_a-strlen.o)
 .debug_frame   0x000014a4       0x64 /OPT/altera/12.1/nios2eds/bin/gnu/H-i686-pc-linux-gnu/bin/../lib/gcc/nios2-elf/4.1.2/../../../../nios2-elf/lib/mno-hw-mul/libc.a(lib_a-vfprintf.o)
 .debug_frame   0x00001508       0x2c /OPT/altera/12.1/nios2eds/bin/gnu/H-i686-pc-linux-gnu/bin/../lib/gcc/nios2-elf/4.1.2/../../../../nios2-elf/lib/mno-hw-mul/libc.a(lib_a-wsetup.o)
 .debug_frame   0x00001534       0x64 /OPT/altera/12.1/nios2eds/bin/gnu/H-i686-pc-linux-gnu/bin/../lib/gcc/nios2-elf/4.1.2/../../../../nios2-elf/lib/mno-hw-mul/libc.a(lib_a-dtoa.o)
 .debug_frame   0x00001598       0x40 /OPT/altera/12.1/nios2eds/bin/gnu/H-i686-pc-linux-gnu/bin/../lib/gcc/nios2-elf/4.1.2/../../../../nios2-elf/lib/mno-hw-mul/libc.a(lib_a-fflush.o)
 .debug_frame   0x000015d8      0x118 /OPT/altera/12.1/nios2eds/bin/gnu/H-i686-pc-linux-gnu/bin/../lib/gcc/nios2-elf/4.1.2/../../../../nios2-elf/lib/mno-hw-mul/libc.a(lib_a-findfp.o)
 .debug_frame   0x000016f0       0x4c /OPT/altera/12.1/nios2eds/bin/gnu/H-i686-pc-linux-gnu/bin/../lib/gcc/nios2-elf/4.1.2/../../../../nios2-elf/lib/mno-hw-mul/libc.a(lib_a-freer.o)
 .debug_frame   0x0000173c       0x38 /OPT/altera/12.1/nios2eds/bin/gnu/H-i686-pc-linux-gnu/bin/../lib/gcc/nios2-elf/4.1.2/../../../../nios2-elf/lib/mno-hw-mul/libc.a(lib_a-fvwrite.o)
 .debug_frame   0x00001774       0x60 /OPT/altera/12.1/nios2eds/bin/gnu/H-i686-pc-linux-gnu/bin/../lib/gcc/nios2-elf/4.1.2/../../../../nios2-elf/lib/mno-hw-mul/libc.a(lib_a-fwalk.o)
 .debug_frame   0x000017d4       0x70 /OPT/altera/12.1/nios2eds/bin/gnu/H-i686-pc-linux-gnu/bin/../lib/gcc/nios2-elf/4.1.2/../../../../nios2-elf/lib/mno-hw-mul/libc.a(lib_a-locale.o)
 .debug_frame   0x00001844       0x2c /OPT/altera/12.1/nios2eds/bin/gnu/H-i686-pc-linux-gnu/bin/../lib/gcc/nios2-elf/4.1.2/../../../../nios2-elf/lib/mno-hw-mul/libc.a(lib_a-makebuf.o)
 .debug_frame   0x00001870       0x20 /OPT/altera/12.1/nios2eds/bin/gnu/H-i686-pc-linux-gnu/bin/../lib/gcc/nios2-elf/4.1.2/../../../../nios2-elf/lib/mno-hw-mul/libc.a(lib_a-memchr.o)
 .debug_frame   0x00001890       0x20 /OPT/altera/12.1/nios2eds/bin/gnu/H-i686-pc-linux-gnu/bin/../lib/gcc/nios2-elf/4.1.2/../../../../nios2-elf/lib/mno-hw-mul/libc.a(lib_a-memmove.o)
 .debug_frame   0x000018b0       0x20 /OPT/altera/12.1/nios2eds/bin/gnu/H-i686-pc-linux-gnu/bin/../lib/gcc/nios2-elf/4.1.2/../../../../nios2-elf/lib/mno-hw-mul/libc.a(lib_a-memset.o)
 .debug_frame   0x000018d0      0x228 /OPT/altera/12.1/nios2eds/bin/gnu/H-i686-pc-linux-gnu/bin/../lib/gcc/nios2-elf/4.1.2/../../../../nios2-elf/lib/mno-hw-mul/libc.a(lib_a-mprec.o)
 .debug_frame   0x00001af8       0x4c /OPT/altera/12.1/nios2eds/bin/gnu/H-i686-pc-linux-gnu/bin/../lib/gcc/nios2-elf/4.1.2/../../../../nios2-elf/lib/mno-hw-mul/libc.a(lib_a-putc.o)
 .debug_frame   0x00001b44       0x38 /OPT/altera/12.1/nios2eds/bin/gnu/H-i686-pc-linux-gnu/bin/../lib/gcc/nios2-elf/4.1.2/../../../../nios2-elf/lib/mno-hw-mul/libc.a(lib_a-reallocr.o)
 .debug_frame   0x00001b7c       0x20 /OPT/altera/12.1/nios2eds/bin/gnu/H-i686-pc-linux-gnu/bin/../lib/gcc/nios2-elf/4.1.2/../../../../nios2-elf/lib/mno-hw-mul/libc.a(lib_a-s_isinfd.o)
 .debug_frame   0x00001b9c       0x20 /OPT/altera/12.1/nios2eds/bin/gnu/H-i686-pc-linux-gnu/bin/../lib/gcc/nios2-elf/4.1.2/../../../../nios2-elf/lib/mno-hw-mul/libc.a(lib_a-s_isnand.o)
 .debug_frame   0x00001bbc       0x78 /OPT/altera/12.1/nios2eds/bin/gnu/H-i686-pc-linux-gnu/bin/../lib/gcc/nios2-elf/4.1.2/../../../../nios2-elf/lib/mno-hw-mul/libc.a(lib_a-stdio.o)
 .debug_frame   0x00001c34       0x20 /OPT/altera/12.1/nios2eds/bin/gnu/H-i686-pc-linux-gnu/bin/../lib/gcc/nios2-elf/4.1.2/../../../../nios2-elf/lib/mno-hw-mul/libc.a(lib_a-strcmp.o)
 .debug_frame   0x00001c54       0x3c /OPT/altera/12.1/nios2eds/bin/gnu/H-i686-pc-linux-gnu/bin/../lib/gcc/nios2-elf/4.1.2/../../../../nios2-elf/lib/mno-hw-mul/libc.a(lib_a-wbuf.o)
 .debug_frame   0x00001c90       0x2c /OPT/altera/12.1/nios2eds/bin/gnu/H-i686-pc-linux-gnu/bin/../lib/gcc/nios2-elf/4.1.2/../../../../nios2-elf/lib/mno-hw-mul/libc.a(lib_a-writer.o)
 .debug_frame   0x00001cbc       0x2c /OPT/altera/12.1/nios2eds/bin/gnu/H-i686-pc-linux-gnu/bin/../lib/gcc/nios2-elf/4.1.2/../../../../nios2-elf/lib/mno-hw-mul/libc.a(lib_a-callocr.o)
 .debug_frame   0x00001ce8       0x2c /OPT/altera/12.1/nios2eds/bin/gnu/H-i686-pc-linux-gnu/bin/../lib/gcc/nios2-elf/4.1.2/../../../../nios2-elf/lib/mno-hw-mul/libc.a(lib_a-closer.o)
 .debug_frame   0x00001d14       0x3c /OPT/altera/12.1/nios2eds/bin/gnu/H-i686-pc-linux-gnu/bin/../lib/gcc/nios2-elf/4.1.2/../../../../nios2-elf/lib/mno-hw-mul/libc.a(lib_a-fclose.o)
 .debug_frame   0x00001d50       0x2c /OPT/altera/12.1/nios2eds/bin/gnu/H-i686-pc-linux-gnu/bin/../lib/gcc/nios2-elf/4.1.2/../../../../nios2-elf/lib/mno-hw-mul/libc.a(lib_a-fstatr.o)
 .debug_frame   0x00001d7c       0x2c /OPT/altera/12.1/nios2eds/bin/gnu/H-i686-pc-linux-gnu/bin/../lib/gcc/nios2-elf/4.1.2/../../../../nios2-elf/lib/mno-hw-mul/libc.a(lib_a-isattyr.o)
 .debug_frame   0x00001da8       0x2c /OPT/altera/12.1/nios2eds/bin/gnu/H-i686-pc-linux-gnu/bin/../lib/gcc/nios2-elf/4.1.2/../../../../nios2-elf/lib/mno-hw-mul/libc.a(lib_a-lseekr.o)
 .debug_frame   0x00001dd4       0x2c /OPT/altera/12.1/nios2eds/bin/gnu/H-i686-pc-linux-gnu/bin/../lib/gcc/nios2-elf/4.1.2/../../../../nios2-elf/lib/mno-hw-mul/libc.a(lib_a-readr.o)
 .debug_frame   0x00001e00       0x38 /OPT/altera/12.1/nios2eds/bin/gnu/H-i686-pc-linux-gnu/bin/../lib/gcc/nios2-elf/4.1.2/mno-hw-mul/libgcc.a(_udivdi3.o)
 .debug_frame   0x00001e38       0x38 /OPT/altera/12.1/nios2eds/bin/gnu/H-i686-pc-linux-gnu/bin/../lib/gcc/nios2-elf/4.1.2/mno-hw-mul/libgcc.a(_umoddi3.o)
 .debug_frame   0x00001e70       0x70 /OPT/altera/12.1/nios2eds/bin/gnu/H-i686-pc-linux-gnu/bin/../lib/gcc/nios2-elf/4.1.2/mno-hw-mul/libgcc.a(_addsub_df.o)
 .debug_frame   0x00001ee0       0x3c /OPT/altera/12.1/nios2eds/bin/gnu/H-i686-pc-linux-gnu/bin/../lib/gcc/nios2-elf/4.1.2/mno-hw-mul/libgcc.a(_mul_df.o)
 .debug_frame   0x00001f1c       0x30 /OPT/altera/12.1/nios2eds/bin/gnu/H-i686-pc-linux-gnu/bin/../lib/gcc/nios2-elf/4.1.2/mno-hw-mul/libgcc.a(_div_df.o)
 .debug_frame   0x00001f4c       0x2c /OPT/altera/12.1/nios2eds/bin/gnu/H-i686-pc-linux-gnu/bin/../lib/gcc/nios2-elf/4.1.2/mno-hw-mul/libgcc.a(_eq_df.o)
 .debug_frame   0x00001f78       0x2c /OPT/altera/12.1/nios2eds/bin/gnu/H-i686-pc-linux-gnu/bin/../lib/gcc/nios2-elf/4.1.2/mno-hw-mul/libgcc.a(_ne_df.o)
 .debug_frame   0x00001fa4       0x2c /OPT/altera/12.1/nios2eds/bin/gnu/H-i686-pc-linux-gnu/bin/../lib/gcc/nios2-elf/4.1.2/mno-hw-mul/libgcc.a(_gt_df.o)
 .debug_frame   0x00001fd0       0x2c /OPT/altera/12.1/nios2eds/bin/gnu/H-i686-pc-linux-gnu/bin/../lib/gcc/nios2-elf/4.1.2/mno-hw-mul/libgcc.a(_ge_df.o)
 .debug_frame   0x00001ffc       0x2c /OPT/altera/12.1/nios2eds/bin/gnu/H-i686-pc-linux-gnu/bin/../lib/gcc/nios2-elf/4.1.2/mno-hw-mul/libgcc.a(_lt_df.o)
 .debug_frame   0x00002028       0x30 /OPT/altera/12.1/nios2eds/bin/gnu/H-i686-pc-linux-gnu/bin/../lib/gcc/nios2-elf/4.1.2/mno-hw-mul/libgcc.a(_si_to_df.o)
 .debug_frame   0x00002058       0x28 /OPT/altera/12.1/nios2eds/bin/gnu/H-i686-pc-linux-gnu/bin/../lib/gcc/nios2-elf/4.1.2/mno-hw-mul/libgcc.a(_df_to_si.o)
 .debug_frame   0x00002080       0x38 /OPT/altera/12.1/nios2eds/bin/gnu/H-i686-pc-linux-gnu/bin/../lib/gcc/nios2-elf/4.1.2/mno-hw-mul/libgcc.a(_usi_to_df.o)
 .debug_frame   0x000020b8       0x40 /OPT/altera/12.1/nios2eds/bin/gnu/H-i686-pc-linux-gnu/bin/../lib/gcc/nios2-elf/4.1.2/mno-hw-mul/libgcc.a(_muldi3.o)
 .debug_frame   0x000020f8       0x20 /OPT/altera/12.1/nios2eds/bin/gnu/H-i686-pc-linux-gnu/bin/../lib/gcc/nios2-elf/4.1.2/mno-hw-mul/libgcc.a(_clzsi2.o)
 .debug_frame   0x00002118       0x2c /OPT/altera/12.1/nios2eds/bin/gnu/H-i686-pc-linux-gnu/bin/../lib/gcc/nios2-elf/4.1.2/mno-hw-mul/libgcc.a(_pack_df.o)
 .debug_frame   0x00002144       0x20 /OPT/altera/12.1/nios2eds/bin/gnu/H-i686-pc-linux-gnu/bin/../lib/gcc/nios2-elf/4.1.2/mno-hw-mul/libgcc.a(_unpack_df.o)
 .debug_frame   0x00002164       0x20 /OPT/altera/12.1/nios2eds/bin/gnu/H-i686-pc-linux-gnu/bin/../lib/gcc/nios2-elf/4.1.2/mno-hw-mul/libgcc.a(_fpcmp_parts_df.o)
 .debug_frame   0x00002184       0x48 ../sdcard_bsp//libucosii_bsp.a(alt_close.o)
 .debug_frame   0x000021cc       0x2c ../sdcard_bsp//libucosii_bsp.a(alt_dev.o)
 .debug_frame   0x000021f8       0x48 ../sdcard_bsp//libucosii_bsp.a(alt_fstat.o)
 .debug_frame   0x00002240       0x48 ../sdcard_bsp//libucosii_bsp.a(alt_isatty.o)
 .debug_frame   0x00002288       0x48 ../sdcard_bsp//libucosii_bsp.a(alt_load.o)
 .debug_frame   0x000022d0       0x48 ../sdcard_bsp//libucosii_bsp.a(alt_lseek.o)
 .debug_frame   0x00002318       0x2c ../sdcard_bsp//libucosii_bsp.a(alt_main.o)
 .debug_frame   0x00002344       0x48 ../sdcard_bsp//libucosii_bsp.a(alt_read.o)
 .debug_frame   0x0000238c       0x30 ../sdcard_bsp//libucosii_bsp.a(alt_release_fd.o)
 .debug_frame   0x000023bc       0x2c ../sdcard_bsp//libucosii_bsp.a(alt_sbrk.o)
 .debug_frame   0x000023e8       0x48 ../sdcard_bsp//libucosii_bsp.a(alt_write.o)
 .debug_frame   0x00002430       0x4c ../sdcard_bsp//libucosii_bsp.a(alt_env_lock.o)
 .debug_frame   0x0000247c       0x4c ../sdcard_bsp//libucosii_bsp.a(alt_malloc_lock.o)
 .debug_frame   0x000024c8      0x3e4 ../sdcard_bsp//libucosii_bsp.a(os_core.o)
 .debug_frame   0x000028ac       0x2c ../sdcard_bsp//libucosii_bsp.a(os_dbg.o)
 .debug_frame   0x000028d8      0x180 ../sdcard_bsp//libucosii_bsp.a(os_flag.o)
 .debug_frame   0x00002a58       0xd4 ../sdcard_bsp//libucosii_bsp.a(os_mem.o)
 .debug_frame   0x00002b2c      0x144 ../sdcard_bsp//libucosii_bsp.a(os_q.o)
 .debug_frame   0x00002c70       0xf0 ../sdcard_bsp//libucosii_bsp.a(os_sem.o)
 .debug_frame   0x00002d60      0x160 ../sdcard_bsp//libucosii_bsp.a(os_task.o)
 .debug_frame   0x00002ec0       0xa0 ../sdcard_bsp//libucosii_bsp.a(os_time.o)
 .debug_frame   0x00002f60       0x64 ../sdcard_bsp//libucosii_bsp.a(alt_sys_init.o)
 .debug_frame   0x00002fc4       0x80 ../sdcard_bsp//libucosii_bsp.a(altera_avalon_jtag_uart_fd.o)
 .debug_frame   0x00003044       0x80 ../sdcard_bsp//libucosii_bsp.a(altera_avalon_jtag_uart_init.o)
 .debug_frame   0x000030c4       0x2c ../sdcard_bsp//libucosii_bsp.a(altera_avalon_jtag_uart_ioctl.o)
 .debug_frame   0x000030f0       0x2c ../sdcard_bsp//libucosii_bsp.a(altera_avalon_jtag_uart_read.o)
 .debug_frame   0x0000311c       0x2c ../sdcard_bsp//libucosii_bsp.a(altera_avalon_jtag_uart_write.o)
 .debug_frame   0x00003148       0x48 ../sdcard_bsp//libucosii_bsp.a(altera_avalon_timer_sc.o)
 .debug_frame   0x00003190      0x17c ../sdcard_bsp//libucosii_bsp.a(altera_up_avalon_character_lcd.o)
 .debug_frame   0x0000330c       0x2c ../sdcard_bsp//libucosii_bsp.a(alt_alarm_start.o)
 .debug_frame   0x00003338       0x2c ../sdcard_bsp//libucosii_bsp.a(alt_dcache_flush_all.o)
 .debug_frame   0x00003364       0x48 ../sdcard_bsp//libucosii_bsp.a(alt_dev_llist_insert.o)
 .debug_frame   0x000033ac       0x2c ../sdcard_bsp//libucosii_bsp.a(alt_do_ctors.o)
 .debug_frame   0x000033d8       0x2c ../sdcard_bsp//libucosii_bsp.a(alt_do_dtors.o)
 .debug_frame   0x00003404       0x2c ../sdcard_bsp//libucosii_bsp.a(alt_find_dev.o)
 .debug_frame   0x00003430       0x2c ../sdcard_bsp//libucosii_bsp.a(alt_icache_flush_all.o)
 .debug_frame   0x0000345c       0x4c ../sdcard_bsp//libucosii_bsp.a(alt_io_redirect.o)
 .debug_frame   0x000034a8       0x2c ../sdcard_bsp//libucosii_bsp.a(alt_irq_register.o)
 .debug_frame   0x000034d4       0x68 ../sdcard_bsp//libucosii_bsp.a(alt_open.o)
 .debug_frame   0x0000353c       0x48 ../sdcard_bsp//libucosii_bsp.a(alt_tick.o)
 .debug_frame   0x00003584       0x2c ../sdcard_bsp//libucosii_bsp.a(altera_nios2_qsys_irq.o)
 .debug_frame   0x000035b0      0x128 ../sdcard_bsp//libucosii_bsp.a(os_cpu_c.o)
 .debug_frame   0x000036d8       0x2c ../sdcard_bsp//libucosii_bsp.a(alt_find_file.o)
 .debug_frame   0x00003704       0x30 ../sdcard_bsp//libucosii_bsp.a(alt_get_fd.o)
 .debug_frame   0x00003734       0x2c ../sdcard_bsp//libucosii_bsp.a(alt_irq_handler.o)
 .debug_frame   0x00003760       0x20 /OPT/altera/12.1/nios2eds/bin/gnu/H-i686-pc-linux-gnu/bin/../lib/gcc/nios2-elf/4.1.2/../../../../nios2-elf/lib/mno-hw-mul/libc.a(lib_a-atexit.o)
 .debug_frame   0x00003780       0x28 /OPT/altera/12.1/nios2eds/bin/gnu/H-i686-pc-linux-gnu/bin/../lib/gcc/nios2-elf/4.1.2/../../../../nios2-elf/lib/mno-hw-mul/libc.a(lib_a-exit.o)
 .debug_frame   0x000037a8       0x20 /OPT/altera/12.1/nios2eds/bin/gnu/H-i686-pc-linux-gnu/bin/../lib/gcc/nios2-elf/4.1.2/../../../../nios2-elf/lib/mno-hw-mul/libc.a(lib_a-memcmp.o)
 .debug_frame   0x000037c8       0x34 /OPT/altera/12.1/nios2eds/bin/gnu/H-i686-pc-linux-gnu/bin/../lib/gcc/nios2-elf/4.1.2/../../../../nios2-elf/lib/mno-hw-mul/libc.a(lib_a-__atexit.o)
 .debug_frame   0x000037fc       0x4c /OPT/altera/12.1/nios2eds/bin/gnu/H-i686-pc-linux-gnu/bin/../lib/gcc/nios2-elf/4.1.2/../../../../nios2-elf/lib/mno-hw-mul/libc.a(lib_a-__call_atexit.o)
 .debug_frame   0x00003848       0x48 ../sdcard_bsp//libucosii_bsp.a(alt_exit.o)

.debug_str      0x00000000     0x2d08
 *(.debug_str)
 .debug_str     0x00000000       0x12 obj/default/efsl/debug.o
 .debug_str     0x00000012       0xab obj/default/efsl/dir.o
 .debug_str     0x000000bd       0x42 obj/default/efsl/disc.o
 .debug_str     0x000000ff       0x73 obj/default/efsl/efs.o
 .debug_str     0x00000172       0x28 obj/default/efsl/extract.o
 .debug_str     0x0000019a       0xb9 obj/default/efsl/fat.o
 .debug_str     0x00000253       0xc3 obj/default/efsl/file.o
 .debug_str     0x00000316       0xa2 obj/default/efsl/fs.o
 .debug_str     0x000003b8       0x5f obj/default/efsl/ioman.o
 .debug_str     0x00000417       0x8d obj/default/efsl/ls.o
 .debug_str     0x000004a4       0x4c obj/default/efsl/mkfs.o
 .debug_str     0x000004f0       0x33 obj/default/efsl/nios2.o
 .debug_str     0x00000523        0xc obj/default/efsl/nios2_ramdisk.o
 .debug_str     0x0000052f       0x59 obj/default/efsl/partition.o
 .debug_str     0x00000588       0x12 obj/default/efsl/plibc.o
 .debug_str     0x0000059a       0x2d obj/default/efsl/sd.o
 .debug_str     0x000005c7       0x8e obj/default/efsl/ui.o
 .debug_str     0x00000655       0xa1 obj/default/sdCardREAD.o
 .debug_str     0x000006f6      0x16c /OPT/altera/12.1/nios2eds/bin/gnu/H-i686-pc-linux-gnu/bin/../lib/gcc/nios2-elf/4.1.2/mno-hw-mul/libgcc.a(lib2-divmod.o)
                                0x1b9 (size before relaxing)
 .debug_str     0x00000862       0x37 /OPT/altera/12.1/nios2eds/bin/gnu/H-i686-pc-linux-gnu/bin/../lib/gcc/nios2-elf/4.1.2/mno-hw-mul/libgcc.a(lib2-mul.o)
                                0x17a (size before relaxing)
 .debug_str     0x00000899      0x447 /OPT/altera/12.1/nios2eds/bin/gnu/H-i686-pc-linux-gnu/bin/../lib/gcc/nios2-elf/4.1.2/../../../../nios2-elf/lib/mno-hw-mul/libc.a(lib_a-malloc.o)
                                0x52f (size before relaxing)
 .debug_str     0x00000ce0      0x20b /OPT/altera/12.1/nios2eds/bin/gnu/H-i686-pc-linux-gnu/bin/../lib/gcc/nios2-elf/4.1.2/../../../../nios2-elf/lib/mno-hw-mul/libc.a(lib_a-mallocr.o)
                                0x704 (size before relaxing)
 .debug_str     0x00000eeb      0x108 /OPT/altera/12.1/nios2eds/bin/gnu/H-i686-pc-linux-gnu/bin/../lib/gcc/nios2-elf/4.1.2/../../../../nios2-elf/lib/mno-hw-mul/libc.a(lib_a-memcpy.o)
                                0x13b (size before relaxing)
 .debug_str     0x00000ff3       0xf1 /OPT/altera/12.1/nios2eds/bin/gnu/H-i686-pc-linux-gnu/bin/../lib/gcc/nios2-elf/4.1.2/../../../../nios2-elf/lib/mno-hw-mul/libc.a(lib_a-printf.o)
                                0x536 (size before relaxing)
 .debug_str     0x000010e4       0x51 /OPT/altera/12.1/nios2eds/bin/gnu/H-i686-pc-linux-gnu/bin/../lib/gcc/nios2-elf/4.1.2/../../../../nios2-elf/lib/mno-hw-mul/libc.a(lib_a-putchar.o)
                                0x522 (size before relaxing)
 .debug_str     0x00001135       0x84 /OPT/altera/12.1/nios2eds/bin/gnu/H-i686-pc-linux-gnu/bin/../lib/gcc/nios2-elf/4.1.2/../../../../nios2-elf/lib/mno-hw-mul/libc.a(lib_a-puts.o)
                                0x55c (size before relaxing)
 .debug_str     0x000011b9       0xee /OPT/altera/12.1/nios2eds/bin/gnu/H-i686-pc-linux-gnu/bin/../lib/gcc/nios2-elf/4.1.2/../../../../nios2-elf/lib/mno-hw-mul/libc.a(lib_a-sbrkr.o)
                                0x51e (size before relaxing)
 .debug_str     0x000012a7       0x52 /OPT/altera/12.1/nios2eds/bin/gnu/H-i686-pc-linux-gnu/bin/../lib/gcc/nios2-elf/4.1.2/../../../../nios2-elf/lib/mno-hw-mul/libc.a(lib_a-strlen.o)
                                0x190 (size before relaxing)
 .debug_str     0x000012f9      0x188 /OPT/altera/12.1/nios2eds/bin/gnu/H-i686-pc-linux-gnu/bin/../lib/gcc/nios2-elf/4.1.2/../../../../nios2-elf/lib/mno-hw-mul/libc.a(lib_a-vfprintf.o)
                                0x70b (size before relaxing)
 .debug_str     0x00001481       0x49 /OPT/altera/12.1/nios2eds/bin/gnu/H-i686-pc-linux-gnu/bin/../lib/gcc/nios2-elf/4.1.2/../../../../nios2-elf/lib/mno-hw-mul/libc.a(lib_a-wsetup.o)
                                0x51f (size before relaxing)
 .debug_str     0x000014ca      0x105 /OPT/altera/12.1/nios2eds/bin/gnu/H-i686-pc-linux-gnu/bin/../lib/gcc/nios2-elf/4.1.2/../../../../nios2-elf/lib/mno-hw-mul/libc.a(lib_a-dtoa.o)
                                0x614 (size before relaxing)
 .debug_str     0x000015cf       0x68 /OPT/altera/12.1/nios2eds/bin/gnu/H-i686-pc-linux-gnu/bin/../lib/gcc/nios2-elf/4.1.2/../../../../nios2-elf/lib/mno-hw-mul/libc.a(lib_a-fflush.o)
                                0x545 (size before relaxing)
 .debug_str     0x00001637      0x105 /OPT/altera/12.1/nios2eds/bin/gnu/H-i686-pc-linux-gnu/bin/../lib/gcc/nios2-elf/4.1.2/../../../../nios2-elf/lib/mno-hw-mul/libc.a(lib_a-findfp.o)
                                0x607 (size before relaxing)
 .debug_str     0x0000173c       0x3c /OPT/altera/12.1/nios2eds/bin/gnu/H-i686-pc-linux-gnu/bin/../lib/gcc/nios2-elf/4.1.2/../../../../nios2-elf/lib/mno-hw-mul/libc.a(lib_a-freer.o)
                                0x656 (size before relaxing)
 .debug_str     0x00001778       0x69 /OPT/altera/12.1/nios2eds/bin/gnu/H-i686-pc-linux-gnu/bin/../lib/gcc/nios2-elf/4.1.2/../../../../nios2-elf/lib/mno-hw-mul/libc.a(lib_a-fvwrite.o)
                                0x576 (size before relaxing)
 .debug_str     0x000017e1       0x61 /OPT/altera/12.1/nios2eds/bin/gnu/H-i686-pc-linux-gnu/bin/../lib/gcc/nios2-elf/4.1.2/../../../../nios2-elf/lib/mno-hw-mul/libc.a(lib_a-fwalk.o)
                                0x548 (size before relaxing)
 .debug_str     0x00001842       0x49 /OPT/altera/12.1/nios2eds/bin/gnu/H-i686-pc-linux-gnu/bin/../lib/gcc/nios2-elf/4.1.2/../../../../nios2-elf/lib/mno-hw-mul/libc.a(lib_a-impure.o)
                                0x52d (size before relaxing)
 .debug_str     0x0000188b       0x40 /OPT/altera/12.1/nios2eds/bin/gnu/H-i686-pc-linux-gnu/bin/../lib/gcc/nios2-elf/4.1.2/../../../../nios2-elf/lib/mno-hw-mul/libc.a(lib_a-int_errno.o)
                                0x176 (size before relaxing)
 .debug_str     0x000018cb      0x238 /OPT/altera/12.1/nios2eds/bin/gnu/H-i686-pc-linux-gnu/bin/../lib/gcc/nios2-elf/4.1.2/../../../../nios2-elf/lib/mno-hw-mul/libc.a(lib_a-locale.o)
                                0x6bc (size before relaxing)
 .debug_str     0x00001b03      0x126 /OPT/altera/12.1/nios2eds/bin/gnu/H-i686-pc-linux-gnu/bin/../lib/gcc/nios2-elf/4.1.2/../../../../nios2-elf/lib/mno-hw-mul/libc.a(lib_a-makebuf.o)
                                0x619 (size before relaxing)
 .debug_str     0x00001c29       0x5f /OPT/altera/12.1/nios2eds/bin/gnu/H-i686-pc-linux-gnu/bin/../lib/gcc/nios2-elf/4.1.2/../../../../nios2-elf/lib/mno-hw-mul/libc.a(lib_a-memchr.o)
                                0x19e (size before relaxing)
 .debug_str     0x00001c88       0x50 /OPT/altera/12.1/nios2eds/bin/gnu/H-i686-pc-linux-gnu/bin/../lib/gcc/nios2-elf/4.1.2/../../../../nios2-elf/lib/mno-hw-mul/libc.a(lib_a-memmove.o)
                                0x1b0 (size before relaxing)
 .debug_str     0x00001cd8       0x45 /OPT/altera/12.1/nios2eds/bin/gnu/H-i686-pc-linux-gnu/bin/../lib/gcc/nios2-elf/4.1.2/../../../../nios2-elf/lib/mno-hw-mul/libc.a(lib_a-memset.o)
                                0x191 (size before relaxing)
 .debug_str     0x00001d1d       0xfb /OPT/altera/12.1/nios2eds/bin/gnu/H-i686-pc-linux-gnu/bin/../lib/gcc/nios2-elf/4.1.2/../../../../nios2-elf/lib/mno-hw-mul/libc.a(lib_a-mprec.o)
                                0x621 (size before relaxing)
 .debug_str     0x00001e18       0x48 /OPT/altera/12.1/nios2eds/bin/gnu/H-i686-pc-linux-gnu/bin/../lib/gcc/nios2-elf/4.1.2/../../../../nios2-elf/lib/mno-hw-mul/libc.a(lib_a-putc.o)
                                0x525 (size before relaxing)
 .debug_str     0x00001e60       0x59 /OPT/altera/12.1/nios2eds/bin/gnu/H-i686-pc-linux-gnu/bin/../lib/gcc/nios2-elf/4.1.2/../../../../nios2-elf/lib/mno-hw-mul/libc.a(lib_a-reallocr.o)
                                0x5d6 (size before relaxing)
 .debug_str     0x00001eb9       0xef /OPT/altera/12.1/nios2eds/bin/gnu/H-i686-pc-linux-gnu/bin/../lib/gcc/nios2-elf/4.1.2/../../../../nios2-elf/lib/mno-hw-mul/libc.a(lib_a-s_isinfd.o)
                                0x19d (size before relaxing)
 .debug_str     0x00001fa8       0x49 /OPT/altera/12.1/nios2eds/bin/gnu/H-i686-pc-linux-gnu/bin/../lib/gcc/nios2-elf/4.1.2/../../../../nios2-elf/lib/mno-hw-mul/libc.a(lib_a-s_isnand.o)
                                0x19d (size before relaxing)
 .debug_str     0x00001ff1       0x65 /OPT/altera/12.1/nios2eds/bin/gnu/H-i686-pc-linux-gnu/bin/../lib/gcc/nios2-elf/4.1.2/../../../../nios2-elf/lib/mno-hw-mul/libc.a(lib_a-stdio.o)
                                0x544 (size before relaxing)
 .debug_str     0x00002056       0x45 /OPT/altera/12.1/nios2eds/bin/gnu/H-i686-pc-linux-gnu/bin/../lib/gcc/nios2-elf/4.1.2/../../../../nios2-elf/lib/mno-hw-mul/libc.a(lib_a-strcmp.o)
                                0x176 (size before relaxing)
 .debug_str     0x0000209b       0x4d /OPT/altera/12.1/nios2eds/bin/gnu/H-i686-pc-linux-gnu/bin/../lib/gcc/nios2-elf/4.1.2/../../../../nios2-elf/lib/mno-hw-mul/libc.a(lib_a-wbuf.o)
                                0x523 (size before relaxing)
 .debug_str     0x000020e8       0x4f /OPT/altera/12.1/nios2eds/bin/gnu/H-i686-pc-linux-gnu/bin/../lib/gcc/nios2-elf/4.1.2/../../../../nios2-elf/lib/mno-hw-mul/libc.a(lib_a-writer.o)
                                0x521 (size before relaxing)
 .debug_str     0x00002137       0x19 /OPT/altera/12.1/nios2eds/bin/gnu/H-i686-pc-linux-gnu/bin/../lib/gcc/nios2-elf/4.1.2/../../../../nios2-elf/lib/mno-hw-mul/libc.a(lib_a-callocr.o)
                                0x555 (size before relaxing)
 .debug_str     0x00002150       0x46 /OPT/altera/12.1/nios2eds/bin/gnu/H-i686-pc-linux-gnu/bin/../lib/gcc/nios2-elf/4.1.2/../../../../nios2-elf/lib/mno-hw-mul/libc.a(lib_a-closer.o)
                                0x511 (size before relaxing)
 .debug_str     0x00002196       0x4e /OPT/altera/12.1/nios2eds/bin/gnu/H-i686-pc-linux-gnu/bin/../lib/gcc/nios2-elf/4.1.2/../../../../nios2-elf/lib/mno-hw-mul/libc.a(lib_a-fclose.o)
                                0x529 (size before relaxing)
 .debug_str     0x000021e4       0x4c /OPT/altera/12.1/nios2eds/bin/gnu/H-i686-pc-linux-gnu/bin/../lib/gcc/nios2-elf/4.1.2/../../../../nios2-elf/lib/mno-hw-mul/libc.a(lib_a-fstatr.o)
                                0x604 (size before relaxing)
 .debug_str     0x00002230       0x48 /OPT/altera/12.1/nios2eds/bin/gnu/H-i686-pc-linux-gnu/bin/../lib/gcc/nios2-elf/4.1.2/../../../../nios2-elf/lib/mno-hw-mul/libc.a(lib_a-isattyr.o)
                                0x513 (size before relaxing)
 .debug_str     0x00002278       0x46 /OPT/altera/12.1/nios2eds/bin/gnu/H-i686-pc-linux-gnu/bin/../lib/gcc/nios2-elf/4.1.2/../../../../nios2-elf/lib/mno-hw-mul/libc.a(lib_a-lseekr.o)
                                0x51f (size before relaxing)
 .debug_str     0x000022be       0x44 /OPT/altera/12.1/nios2eds/bin/gnu/H-i686-pc-linux-gnu/bin/../lib/gcc/nios2-elf/4.1.2/../../../../nios2-elf/lib/mno-hw-mul/libc.a(lib_a-readr.o)
                                0x51f (size before relaxing)
 .debug_str     0x00002302       0xb2 /OPT/altera/12.1/nios2eds/bin/gnu/H-i686-pc-linux-gnu/bin/../lib/gcc/nios2-elf/4.1.2/mno-hw-mul/libgcc.a(_udivdi3.o)
                                0x1fc (size before relaxing)
 .debug_str     0x000023b4        0xa /OPT/altera/12.1/nios2eds/bin/gnu/H-i686-pc-linux-gnu/bin/../lib/gcc/nios2-elf/4.1.2/mno-hw-mul/libgcc.a(_umoddi3.o)
                                0x1fc (size before relaxing)
 .debug_str     0x000023be      0x137 /OPT/altera/12.1/nios2eds/bin/gnu/H-i686-pc-linux-gnu/bin/../lib/gcc/nios2-elf/4.1.2/mno-hw-mul/libgcc.a(_addsub_df.o)
                                0x274 (size before relaxing)
 .debug_str     0x000024f5       0x40 /OPT/altera/12.1/nios2eds/bin/gnu/H-i686-pc-linux-gnu/bin/../lib/gcc/nios2-elf/4.1.2/mno-hw-mul/libgcc.a(_mul_df.o)
                                0x246 (size before relaxing)
 .debug_str     0x00002535       0x35 /OPT/altera/12.1/nios2eds/bin/gnu/H-i686-pc-linux-gnu/bin/../lib/gcc/nios2-elf/4.1.2/mno-hw-mul/libgcc.a(_div_df.o)
                                0x236 (size before relaxing)
 .debug_str     0x0000256a        0x8 /OPT/altera/12.1/nios2eds/bin/gnu/H-i686-pc-linux-gnu/bin/../lib/gcc/nios2-elf/4.1.2/mno-hw-mul/libgcc.a(_eq_df.o)
                                0x203 (size before relaxing)
 .debug_str     0x00002572        0x8 /OPT/altera/12.1/nios2eds/bin/gnu/H-i686-pc-linux-gnu/bin/../lib/gcc/nios2-elf/4.1.2/mno-hw-mul/libgcc.a(_ne_df.o)
                                0x203 (size before relaxing)
 .debug_str     0x0000257a        0x8 /OPT/altera/12.1/nios2eds/bin/gnu/H-i686-pc-linux-gnu/bin/../lib/gcc/nios2-elf/4.1.2/mno-hw-mul/libgcc.a(_gt_df.o)
                                0x203 (size before relaxing)
 .debug_str     0x00002582        0x8 /OPT/altera/12.1/nios2eds/bin/gnu/H-i686-pc-linux-gnu/bin/../lib/gcc/nios2-elf/4.1.2/mno-hw-mul/libgcc.a(_ge_df.o)
                                0x203 (size before relaxing)
 .debug_str     0x0000258a        0x8 /OPT/altera/12.1/nios2eds/bin/gnu/H-i686-pc-linux-gnu/bin/../lib/gcc/nios2-elf/4.1.2/mno-hw-mul/libgcc.a(_lt_df.o)
                                0x203 (size before relaxing)
 .debug_str     0x00002592       0x18 /OPT/altera/12.1/nios2eds/bin/gnu/H-i686-pc-linux-gnu/bin/../lib/gcc/nios2-elf/4.1.2/mno-hw-mul/libgcc.a(_si_to_df.o)
                                0x1e3 (size before relaxing)
 .debug_str     0x000025aa        0xa /OPT/altera/12.1/nios2eds/bin/gnu/H-i686-pc-linux-gnu/bin/../lib/gcc/nios2-elf/4.1.2/mno-hw-mul/libgcc.a(_df_to_si.o)
                                0x20c (size before relaxing)
 .debug_str     0x00000000      0x1a8 /OPT/altera/12.1/nios2eds/bin/gnu/H-i686-pc-linux-gnu/bin/../lib/gcc/nios2-elf/4.1.2/mno-hw-mul/libgcc.a(_thenan_df.o)
 .debug_str     0x000025b4       0x14 /OPT/altera/12.1/nios2eds/bin/gnu/H-i686-pc-linux-gnu/bin/../lib/gcc/nios2-elf/4.1.2/mno-hw-mul/libgcc.a(_usi_to_df.o)
                                0x1df (size before relaxing)
 .debug_str     0x000025c8        0x9 /OPT/altera/12.1/nios2eds/bin/gnu/H-i686-pc-linux-gnu/bin/../lib/gcc/nios2-elf/4.1.2/mno-hw-mul/libgcc.a(_muldi3.o)
                                0x1b1 (size before relaxing)
 .debug_str     0x00000000      0x166 /OPT/altera/12.1/nios2eds/bin/gnu/H-i686-pc-linux-gnu/bin/../lib/gcc/nios2-elf/4.1.2/mno-hw-mul/libgcc.a(_clz.o)
 .debug_str     0x000025d1        0x9 /OPT/altera/12.1/nios2eds/bin/gnu/H-i686-pc-linux-gnu/bin/../lib/gcc/nios2-elf/4.1.2/mno-hw-mul/libgcc.a(_clzsi2.o)
                                0x183 (size before relaxing)
 .debug_str     0x000025da       0x10 /OPT/altera/12.1/nios2eds/bin/gnu/H-i686-pc-linux-gnu/bin/../lib/gcc/nios2-elf/4.1.2/mno-hw-mul/libgcc.a(_pack_df.o)
                                0x20b (size before relaxing)
 .debug_str     0x000025ea        0xb /OPT/altera/12.1/nios2eds/bin/gnu/H-i686-pc-linux-gnu/bin/../lib/gcc/nios2-elf/4.1.2/mno-hw-mul/libgcc.a(_unpack_df.o)
                                0x1ed (size before relaxing)
 .debug_str     0x000025f5       0x10 /OPT/altera/12.1/nios2eds/bin/gnu/H-i686-pc-linux-gnu/bin/../lib/gcc/nios2-elf/4.1.2/mno-hw-mul/libgcc.a(_fpcmp_parts_df.o)
                                0x1cb (size before relaxing)
 .debug_str     0x00002605       0x12 ../sdcard_bsp//libucosii_bsp.a(alt_close.o)
 .debug_str     0x00002617       0x12 ../sdcard_bsp//libucosii_bsp.a(alt_dev.o)
 .debug_str     0x00002629       0x12 ../sdcard_bsp//libucosii_bsp.a(alt_errno.o)
 .debug_str     0x0000263b       0x12 ../sdcard_bsp//libucosii_bsp.a(alt_fstat.o)
 .debug_str     0x0000264d       0x12 ../sdcard_bsp//libucosii_bsp.a(alt_isatty.o)
 .debug_str     0x0000265f       0x12 ../sdcard_bsp//libucosii_bsp.a(alt_load.o)
 .debug_str     0x00002671       0x12 ../sdcard_bsp//libucosii_bsp.a(alt_lseek.o)
 .debug_str     0x00002683       0x12 ../sdcard_bsp//libucosii_bsp.a(alt_main.o)
 .debug_str     0x00002695       0x12 ../sdcard_bsp//libucosii_bsp.a(alt_read.o)
 .debug_str     0x000026a7       0x12 ../sdcard_bsp//libucosii_bsp.a(alt_release_fd.o)
 .debug_str     0x000026b9       0x1a ../sdcard_bsp//libucosii_bsp.a(alt_sbrk.o)
 .debug_str     0x000026d3       0x12 ../sdcard_bsp//libucosii_bsp.a(alt_write.o)
 .debug_str     0x000026e5       0x36 ../sdcard_bsp//libucosii_bsp.a(alt_env_lock.o)
 .debug_str     0x0000271b       0x36 ../sdcard_bsp//libucosii_bsp.a(alt_malloc_lock.o)
 .debug_str     0x00002751       0x46 ../sdcard_bsp//libucosii_bsp.a(os_core.o)
 .debug_str     0x00002797       0x2b ../sdcard_bsp//libucosii_bsp.a(os_dbg.o)
 .debug_str     0x000027c2       0x4e ../sdcard_bsp//libucosii_bsp.a(os_flag.o)
 .debug_str     0x00002810       0x2c ../sdcard_bsp//libucosii_bsp.a(os_mem.o)
 .debug_str     0x0000283c       0x36 ../sdcard_bsp//libucosii_bsp.a(os_q.o)
 .debug_str     0x00002872       0x36 ../sdcard_bsp//libucosii_bsp.a(os_sem.o)
 .debug_str     0x000028a8       0x23 ../sdcard_bsp//libucosii_bsp.a(os_task.o)
 .debug_str     0x000028cb       0x1f ../sdcard_bsp//libucosii_bsp.a(os_time.o)
 .debug_str     0x000028ea       0x51 ../sdcard_bsp//libucosii_bsp.a(alt_sys_init.o)
 .debug_str     0x0000293b       0x12 ../sdcard_bsp//libucosii_bsp.a(altera_avalon_jtag_uart_fd.o)
 .debug_str     0x0000294d       0x1a ../sdcard_bsp//libucosii_bsp.a(altera_avalon_jtag_uart_init.o)
 .debug_str     0x00002967       0x12 ../sdcard_bsp//libucosii_bsp.a(altera_avalon_jtag_uart_ioctl.o)
 .debug_str     0x00002979       0x22 ../sdcard_bsp//libucosii_bsp.a(altera_avalon_jtag_uart_read.o)
 .debug_str     0x0000299b       0x22 ../sdcard_bsp//libucosii_bsp.a(altera_avalon_jtag_uart_write.o)
 .debug_str     0x000029bd       0x12 ../sdcard_bsp//libucosii_bsp.a(altera_avalon_timer_sc.o)
 .debug_str     0x000029cf       0x55 ../sdcard_bsp//libucosii_bsp.a(altera_up_avalon_character_lcd.o)
 .debug_str     0x00002a24       0x23 ../sdcard_bsp//libucosii_bsp.a(alt_alarm_start.o)
 .debug_str     0x00002a47       0x12 ../sdcard_bsp//libucosii_bsp.a(alt_dcache_flush_all.o)
 .debug_str     0x00002a59       0x12 ../sdcard_bsp//libucosii_bsp.a(alt_dev_llist_insert.o)
 .debug_str     0x00002a6b       0x12 ../sdcard_bsp//libucosii_bsp.a(alt_find_dev.o)
 .debug_str     0x00002a7d       0x12 ../sdcard_bsp//libucosii_bsp.a(alt_icache_flush_all.o)
 .debug_str     0x00002a8f       0x12 ../sdcard_bsp//libucosii_bsp.a(alt_io_redirect.o)
 .debug_str     0x00002aa1       0x21 ../sdcard_bsp//libucosii_bsp.a(alt_irq_register.o)
 .debug_str     0x00002ac2       0x12 ../sdcard_bsp//libucosii_bsp.a(alt_open.o)
 .debug_str     0x00002ad4       0x1a ../sdcard_bsp//libucosii_bsp.a(alt_tick.o)
 .debug_str     0x00002aee       0x12 ../sdcard_bsp//libucosii_bsp.a(altera_nios2_qsys_irq.o)
 .debug_str     0x00002b00       0x20 ../sdcard_bsp//libucosii_bsp.a(os_cpu_c.o)
 .debug_str     0x00002b20       0x12 ../sdcard_bsp//libucosii_bsp.a(alt_find_file.o)
 .debug_str     0x00002b32       0x12 ../sdcard_bsp//libucosii_bsp.a(alt_get_fd.o)
 .debug_str     0x00002b44       0x12 ../sdcard_bsp//libucosii_bsp.a(alt_irq_handler.o)
 .debug_str     0x00002b56       0x3e /OPT/altera/12.1/nios2eds/bin/gnu/H-i686-pc-linux-gnu/bin/../lib/gcc/nios2-elf/4.1.2/../../../../nios2-elf/lib/mno-hw-mul/libc.a(lib_a-atexit.o)
                                0x1d2 (size before relaxing)
 .debug_str     0x00002b94       0x41 /OPT/altera/12.1/nios2eds/bin/gnu/H-i686-pc-linux-gnu/bin/../lib/gcc/nios2-elf/4.1.2/../../../../nios2-elf/lib/mno-hw-mul/libc.a(lib_a-exit.o)
                                0x51f (size before relaxing)
 .debug_str     0x00002bd5       0x45 /OPT/altera/12.1/nios2eds/bin/gnu/H-i686-pc-linux-gnu/bin/../lib/gcc/nios2-elf/4.1.2/../../../../nios2-elf/lib/mno-hw-mul/libc.a(lib_a-memcmp.o)
                                0x17d (size before relaxing)
 .debug_str     0x00002c1a       0x54 /OPT/altera/12.1/nios2eds/bin/gnu/H-i686-pc-linux-gnu/bin/../lib/gcc/nios2-elf/4.1.2/../../../../nios2-elf/lib/mno-hw-mul/libc.a(lib_a-__atexit.o)
                                0x537 (size before relaxing)
 .debug_str     0x00002c6e       0x7e /OPT/altera/12.1/nios2eds/bin/gnu/H-i686-pc-linux-gnu/bin/../lib/gcc/nios2-elf/4.1.2/../../../../nios2-elf/lib/mno-hw-mul/libc.a(lib_a-__call_atexit.o)
                                0x561 (size before relaxing)
 .debug_str     0x00002cec       0x1c ../sdcard_bsp//libucosii_bsp.a(alt_exit.o)

.debug_loc      0x00000000     0xee6e
 *(.debug_loc)
 .debug_loc     0x00000000      0x25b obj/default/efsl/dir.o
 .debug_loc     0x0000025b       0x56 obj/default/efsl/disc.o
 .debug_loc     0x000002b1       0x2b obj/default/efsl/efs.o
 .debug_loc     0x000002dc      0x102 obj/default/efsl/extract.o
 .debug_loc     0x000003de      0x25a obj/default/efsl/fat.o
 .debug_loc     0x00000638      0x232 obj/default/efsl/file.o
 .debug_loc     0x0000086a      0x3dd obj/default/efsl/fs.o
 .debug_loc     0x00000c47      0x58b obj/default/efsl/ioman.o
 .debug_loc     0x000011d2      0x12d obj/default/efsl/ls.o
 .debug_loc     0x000012ff       0x2c obj/default/efsl/mkfs.o
 .debug_loc     0x0000132b      0x158 obj/default/efsl/nios2.o
 .debug_loc     0x00001483       0xac obj/default/efsl/nios2_ramdisk.o
 .debug_loc     0x0000152f      0x1ae obj/default/efsl/partition.o
 .debug_loc     0x000016dd       0xac obj/default/efsl/plibc.o
 .debug_loc     0x00001789      0x183 obj/default/efsl/sd.o
 .debug_loc     0x0000190c       0x81 obj/default/efsl/time.o
 .debug_loc     0x0000198d       0x83 obj/default/efsl/ui.o
 .debug_loc     0x00001a10       0x2c obj/default/sdCardREAD.o
 .debug_loc     0x00001a3c      0x1d2 /OPT/altera/12.1/nios2eds/bin/gnu/H-i686-pc-linux-gnu/bin/../lib/gcc/nios2-elf/4.1.2/mno-hw-mul/libgcc.a(lib2-divmod.o)
 .debug_loc     0x00001c0e       0x4f /OPT/altera/12.1/nios2eds/bin/gnu/H-i686-pc-linux-gnu/bin/../lib/gcc/nios2-elf/4.1.2/mno-hw-mul/libgcc.a(lib2-mul.o)
 .debug_loc     0x00001c5d       0x3c /OPT/altera/12.1/nios2eds/bin/gnu/H-i686-pc-linux-gnu/bin/../lib/gcc/nios2-elf/4.1.2/../../../../nios2-elf/lib/mno-hw-mul/libc.a(lib_a-malloc.o)
 .debug_loc     0x00001c99      0xaeb /OPT/altera/12.1/nios2eds/bin/gnu/H-i686-pc-linux-gnu/bin/../lib/gcc/nios2-elf/4.1.2/../../../../nios2-elf/lib/mno-hw-mul/libc.a(lib_a-mallocr.o)
 .debug_loc     0x00002784       0xca /OPT/altera/12.1/nios2eds/bin/gnu/H-i686-pc-linux-gnu/bin/../lib/gcc/nios2-elf/4.1.2/../../../../nios2-elf/lib/mno-hw-mul/libc.a(lib_a-memcpy.o)
 .debug_loc     0x0000284e       0xcb /OPT/altera/12.1/nios2eds/bin/gnu/H-i686-pc-linux-gnu/bin/../lib/gcc/nios2-elf/4.1.2/../../../../nios2-elf/lib/mno-hw-mul/libc.a(lib_a-printf.o)
 .debug_loc     0x00002919       0x44 /OPT/altera/12.1/nios2eds/bin/gnu/H-i686-pc-linux-gnu/bin/../lib/gcc/nios2-elf/4.1.2/../../../../nios2-elf/lib/mno-hw-mul/libc.a(lib_a-putchar.o)
 .debug_loc     0x0000295d       0xa2 /OPT/altera/12.1/nios2eds/bin/gnu/H-i686-pc-linux-gnu/bin/../lib/gcc/nios2-elf/4.1.2/../../../../nios2-elf/lib/mno-hw-mul/libc.a(lib_a-puts.o)
 .debug_loc     0x000029ff       0x5b /OPT/altera/12.1/nios2eds/bin/gnu/H-i686-pc-linux-gnu/bin/../lib/gcc/nios2-elf/4.1.2/../../../../nios2-elf/lib/mno-hw-mul/libc.a(lib_a-sbrkr.o)
 .debug_loc     0x00002a5a       0x3c /OPT/altera/12.1/nios2eds/bin/gnu/H-i686-pc-linux-gnu/bin/../lib/gcc/nios2-elf/4.1.2/../../../../nios2-elf/lib/mno-hw-mul/libc.a(lib_a-strlen.o)
 .debug_loc     0x00002a96     0x1dc0 /OPT/altera/12.1/nios2eds/bin/gnu/H-i686-pc-linux-gnu/bin/../lib/gcc/nios2-elf/4.1.2/../../../../nios2-elf/lib/mno-hw-mul/libc.a(lib_a-vfprintf.o)
 .debug_loc     0x00004856       0x7c /OPT/altera/12.1/nios2eds/bin/gnu/H-i686-pc-linux-gnu/bin/../lib/gcc/nios2-elf/4.1.2/../../../../nios2-elf/lib/mno-hw-mul/libc.a(lib_a-wsetup.o)
 .debug_loc     0x000048d2     0x1da7 /OPT/altera/12.1/nios2eds/bin/gnu/H-i686-pc-linux-gnu/bin/../lib/gcc/nios2-elf/4.1.2/../../../../nios2-elf/lib/mno-hw-mul/libc.a(lib_a-dtoa.o)
 .debug_loc     0x00006679      0x1f6 /OPT/altera/12.1/nios2eds/bin/gnu/H-i686-pc-linux-gnu/bin/../lib/gcc/nios2-elf/4.1.2/../../../../nios2-elf/lib/mno-hw-mul/libc.a(lib_a-fflush.o)
 .debug_loc     0x0000686f      0x1e1 /OPT/altera/12.1/nios2eds/bin/gnu/H-i686-pc-linux-gnu/bin/../lib/gcc/nios2-elf/4.1.2/../../../../nios2-elf/lib/mno-hw-mul/libc.a(lib_a-findfp.o)
 .debug_loc     0x00006a50      0x4a7 /OPT/altera/12.1/nios2eds/bin/gnu/H-i686-pc-linux-gnu/bin/../lib/gcc/nios2-elf/4.1.2/../../../../nios2-elf/lib/mno-hw-mul/libc.a(lib_a-freer.o)
 .debug_loc     0x00006ef7      0x4e4 /OPT/altera/12.1/nios2eds/bin/gnu/H-i686-pc-linux-gnu/bin/../lib/gcc/nios2-elf/4.1.2/../../../../nios2-elf/lib/mno-hw-mul/libc.a(lib_a-fvwrite.o)
 .debug_loc     0x000073db      0x1d2 /OPT/altera/12.1/nios2eds/bin/gnu/H-i686-pc-linux-gnu/bin/../lib/gcc/nios2-elf/4.1.2/../../../../nios2-elf/lib/mno-hw-mul/libc.a(lib_a-fwalk.o)
 .debug_loc     0x000075ad       0xe1 /OPT/altera/12.1/nios2eds/bin/gnu/H-i686-pc-linux-gnu/bin/../lib/gcc/nios2-elf/4.1.2/../../../../nios2-elf/lib/mno-hw-mul/libc.a(lib_a-locale.o)
 .debug_loc     0x0000768e      0x11c /OPT/altera/12.1/nios2eds/bin/gnu/H-i686-pc-linux-gnu/bin/../lib/gcc/nios2-elf/4.1.2/../../../../nios2-elf/lib/mno-hw-mul/libc.a(lib_a-makebuf.o)
 .debug_loc     0x000077aa      0x106 /OPT/altera/12.1/nios2eds/bin/gnu/H-i686-pc-linux-gnu/bin/../lib/gcc/nios2-elf/4.1.2/../../../../nios2-elf/lib/mno-hw-mul/libc.a(lib_a-memchr.o)
 .debug_loc     0x000078b0      0x117 /OPT/altera/12.1/nios2eds/bin/gnu/H-i686-pc-linux-gnu/bin/../lib/gcc/nios2-elf/4.1.2/../../../../nios2-elf/lib/mno-hw-mul/libc.a(lib_a-memmove.o)
 .debug_loc     0x000079c7       0xa1 /OPT/altera/12.1/nios2eds/bin/gnu/H-i686-pc-linux-gnu/bin/../lib/gcc/nios2-elf/4.1.2/../../../../nios2-elf/lib/mno-hw-mul/libc.a(lib_a-memset.o)
 .debug_loc     0x00007a68     0x1547 /OPT/altera/12.1/nios2eds/bin/gnu/H-i686-pc-linux-gnu/bin/../lib/gcc/nios2-elf/4.1.2/../../../../nios2-elf/lib/mno-hw-mul/libc.a(lib_a-mprec.o)
 .debug_loc     0x00008faf      0x20d /OPT/altera/12.1/nios2eds/bin/gnu/H-i686-pc-linux-gnu/bin/../lib/gcc/nios2-elf/4.1.2/../../../../nios2-elf/lib/mno-hw-mul/libc.a(lib_a-putc.o)
 .debug_loc     0x000091bc      0x8c0 /OPT/altera/12.1/nios2eds/bin/gnu/H-i686-pc-linux-gnu/bin/../lib/gcc/nios2-elf/4.1.2/../../../../nios2-elf/lib/mno-hw-mul/libc.a(lib_a-reallocr.o)
 .debug_loc     0x00009a7c       0x36 /OPT/altera/12.1/nios2eds/bin/gnu/H-i686-pc-linux-gnu/bin/../lib/gcc/nios2-elf/4.1.2/../../../../nios2-elf/lib/mno-hw-mul/libc.a(lib_a-s_isinfd.o)
 .debug_loc     0x00009ab2       0x18 /OPT/altera/12.1/nios2eds/bin/gnu/H-i686-pc-linux-gnu/bin/../lib/gcc/nios2-elf/4.1.2/../../../../nios2-elf/lib/mno-hw-mul/libc.a(lib_a-s_isnand.o)
 .debug_loc     0x00009aca      0x21f /OPT/altera/12.1/nios2eds/bin/gnu/H-i686-pc-linux-gnu/bin/../lib/gcc/nios2-elf/4.1.2/../../../../nios2-elf/lib/mno-hw-mul/libc.a(lib_a-stdio.o)
 .debug_loc     0x00009ce9       0x65 /OPT/altera/12.1/nios2eds/bin/gnu/H-i686-pc-linux-gnu/bin/../lib/gcc/nios2-elf/4.1.2/../../../../nios2-elf/lib/mno-hw-mul/libc.a(lib_a-strcmp.o)
 .debug_loc     0x00009d4e      0x157 /OPT/altera/12.1/nios2eds/bin/gnu/H-i686-pc-linux-gnu/bin/../lib/gcc/nios2-elf/4.1.2/../../../../nios2-elf/lib/mno-hw-mul/libc.a(lib_a-wbuf.o)
 .debug_loc     0x00009ea5       0x97 /OPT/altera/12.1/nios2eds/bin/gnu/H-i686-pc-linux-gnu/bin/../lib/gcc/nios2-elf/4.1.2/../../../../nios2-elf/lib/mno-hw-mul/libc.a(lib_a-writer.o)
 .debug_loc     0x00009f3c       0xff /OPT/altera/12.1/nios2eds/bin/gnu/H-i686-pc-linux-gnu/bin/../lib/gcc/nios2-elf/4.1.2/../../../../nios2-elf/lib/mno-hw-mul/libc.a(lib_a-callocr.o)
 .debug_loc     0x0000a03b       0x5b /OPT/altera/12.1/nios2eds/bin/gnu/H-i686-pc-linux-gnu/bin/../lib/gcc/nios2-elf/4.1.2/../../../../nios2-elf/lib/mno-hw-mul/libc.a(lib_a-closer.o)
 .debug_loc     0x0000a096       0xe4 /OPT/altera/12.1/nios2eds/bin/gnu/H-i686-pc-linux-gnu/bin/../lib/gcc/nios2-elf/4.1.2/../../../../nios2-elf/lib/mno-hw-mul/libc.a(lib_a-fclose.o)
 .debug_loc     0x0000a17a       0x79 /OPT/altera/12.1/nios2eds/bin/gnu/H-i686-pc-linux-gnu/bin/../lib/gcc/nios2-elf/4.1.2/../../../../nios2-elf/lib/mno-hw-mul/libc.a(lib_a-fstatr.o)
 .debug_loc     0x0000a1f3       0x5b /OPT/altera/12.1/nios2eds/bin/gnu/H-i686-pc-linux-gnu/bin/../lib/gcc/nios2-elf/4.1.2/../../../../nios2-elf/lib/mno-hw-mul/libc.a(lib_a-isattyr.o)
 .debug_loc     0x0000a24e       0x97 /OPT/altera/12.1/nios2eds/bin/gnu/H-i686-pc-linux-gnu/bin/../lib/gcc/nios2-elf/4.1.2/../../../../nios2-elf/lib/mno-hw-mul/libc.a(lib_a-lseekr.o)
 .debug_loc     0x0000a2e5       0x97 /OPT/altera/12.1/nios2eds/bin/gnu/H-i686-pc-linux-gnu/bin/../lib/gcc/nios2-elf/4.1.2/../../../../nios2-elf/lib/mno-hw-mul/libc.a(lib_a-readr.o)
 .debug_loc     0x0000a37c      0xc12 /OPT/altera/12.1/nios2eds/bin/gnu/H-i686-pc-linux-gnu/bin/../lib/gcc/nios2-elf/4.1.2/mno-hw-mul/libgcc.a(_udivdi3.o)
 .debug_loc     0x0000af8e      0xbcc /OPT/altera/12.1/nios2eds/bin/gnu/H-i686-pc-linux-gnu/bin/../lib/gcc/nios2-elf/4.1.2/mno-hw-mul/libgcc.a(_umoddi3.o)
 .debug_loc     0x0000bb5a      0x47a /OPT/altera/12.1/nios2eds/bin/gnu/H-i686-pc-linux-gnu/bin/../lib/gcc/nios2-elf/4.1.2/mno-hw-mul/libgcc.a(_addsub_df.o)
 .debug_loc     0x0000bfd4      0x3b4 /OPT/altera/12.1/nios2eds/bin/gnu/H-i686-pc-linux-gnu/bin/../lib/gcc/nios2-elf/4.1.2/mno-hw-mul/libgcc.a(_mul_df.o)
 .debug_loc     0x0000c388      0x1df /OPT/altera/12.1/nios2eds/bin/gnu/H-i686-pc-linux-gnu/bin/../lib/gcc/nios2-elf/4.1.2/mno-hw-mul/libgcc.a(_div_df.o)
 .debug_loc     0x0000c567       0x70 /OPT/altera/12.1/nios2eds/bin/gnu/H-i686-pc-linux-gnu/bin/../lib/gcc/nios2-elf/4.1.2/mno-hw-mul/libgcc.a(_eq_df.o)
 .debug_loc     0x0000c5d7       0x70 /OPT/altera/12.1/nios2eds/bin/gnu/H-i686-pc-linux-gnu/bin/../lib/gcc/nios2-elf/4.1.2/mno-hw-mul/libgcc.a(_ne_df.o)
 .debug_loc     0x0000c647       0x70 /OPT/altera/12.1/nios2eds/bin/gnu/H-i686-pc-linux-gnu/bin/../lib/gcc/nios2-elf/4.1.2/mno-hw-mul/libgcc.a(_gt_df.o)
 .debug_loc     0x0000c6b7       0x70 /OPT/altera/12.1/nios2eds/bin/gnu/H-i686-pc-linux-gnu/bin/../lib/gcc/nios2-elf/4.1.2/mno-hw-mul/libgcc.a(_ge_df.o)
 .debug_loc     0x0000c727       0x70 /OPT/altera/12.1/nios2eds/bin/gnu/H-i686-pc-linux-gnu/bin/../lib/gcc/nios2-elf/4.1.2/mno-hw-mul/libgcc.a(_lt_df.o)
 .debug_loc     0x0000c797       0x9a /OPT/altera/12.1/nios2eds/bin/gnu/H-i686-pc-linux-gnu/bin/../lib/gcc/nios2-elf/4.1.2/mno-hw-mul/libgcc.a(_si_to_df.o)
 .debug_loc     0x0000c831       0x8b /OPT/altera/12.1/nios2eds/bin/gnu/H-i686-pc-linux-gnu/bin/../lib/gcc/nios2-elf/4.1.2/mno-hw-mul/libgcc.a(_df_to_si.o)
 .debug_loc     0x0000c8bc       0x5b /OPT/altera/12.1/nios2eds/bin/gnu/H-i686-pc-linux-gnu/bin/../lib/gcc/nios2-elf/4.1.2/mno-hw-mul/libgcc.a(_usi_to_df.o)
 .debug_loc     0x0000c917      0x103 /OPT/altera/12.1/nios2eds/bin/gnu/H-i686-pc-linux-gnu/bin/../lib/gcc/nios2-elf/4.1.2/mno-hw-mul/libgcc.a(_muldi3.o)
 .debug_loc     0x0000ca1a       0x1e /OPT/altera/12.1/nios2eds/bin/gnu/H-i686-pc-linux-gnu/bin/../lib/gcc/nios2-elf/4.1.2/mno-hw-mul/libgcc.a(_clzsi2.o)
 .debug_loc     0x0000ca38      0x184 /OPT/altera/12.1/nios2eds/bin/gnu/H-i686-pc-linux-gnu/bin/../lib/gcc/nios2-elf/4.1.2/mno-hw-mul/libgcc.a(_pack_df.o)
 .debug_loc     0x0000cbbc       0xe5 /OPT/altera/12.1/nios2eds/bin/gnu/H-i686-pc-linux-gnu/bin/../lib/gcc/nios2-elf/4.1.2/mno-hw-mul/libgcc.a(_unpack_df.o)
 .debug_loc     0x0000cca1       0x56 ../sdcard_bsp//libucosii_bsp.a(alt_close.o)
 .debug_loc     0x0000ccf7       0x2b ../sdcard_bsp//libucosii_bsp.a(alt_dev.o)
 .debug_loc     0x0000cd22       0x56 ../sdcard_bsp//libucosii_bsp.a(alt_fstat.o)
 .debug_loc     0x0000cd78       0x57 ../sdcard_bsp//libucosii_bsp.a(alt_isatty.o)
 .debug_loc     0x0000cdcf       0x56 ../sdcard_bsp//libucosii_bsp.a(alt_load.o)
 .debug_loc     0x0000ce25       0x56 ../sdcard_bsp//libucosii_bsp.a(alt_lseek.o)
 .debug_loc     0x0000ce7b       0x2b ../sdcard_bsp//libucosii_bsp.a(alt_main.o)
 .debug_loc     0x0000cea6       0x56 ../sdcard_bsp//libucosii_bsp.a(alt_read.o)
 .debug_loc     0x0000cefc       0x2b ../sdcard_bsp//libucosii_bsp.a(alt_release_fd.o)
 .debug_loc     0x0000cf27       0x2b ../sdcard_bsp//libucosii_bsp.a(alt_sbrk.o)
 .debug_loc     0x0000cf52       0x56 ../sdcard_bsp//libucosii_bsp.a(alt_write.o)
 .debug_loc     0x0000cfa8       0x57 ../sdcard_bsp//libucosii_bsp.a(alt_env_lock.o)
 .debug_loc     0x0000cfff       0x57 ../sdcard_bsp//libucosii_bsp.a(alt_malloc_lock.o)
 .debug_loc     0x0000d056      0x5e2 ../sdcard_bsp//libucosii_bsp.a(os_core.o)
 .debug_loc     0x0000d638       0x2b ../sdcard_bsp//libucosii_bsp.a(os_dbg.o)
 .debug_loc     0x0000d663      0x232 ../sdcard_bsp//libucosii_bsp.a(os_flag.o)
 .debug_loc     0x0000d895      0x12d ../sdcard_bsp//libucosii_bsp.a(os_mem.o)
 .debug_loc     0x0000d9c2      0x1da ../sdcard_bsp//libucosii_bsp.a(os_q.o)
 .debug_loc     0x0000db9c      0x158 ../sdcard_bsp//libucosii_bsp.a(os_sem.o)
 .debug_loc     0x0000dcf4      0x207 ../sdcard_bsp//libucosii_bsp.a(os_task.o)
 .debug_loc     0x0000defb       0xd7 ../sdcard_bsp//libucosii_bsp.a(os_time.o)
 .debug_loc     0x0000dfd2       0x81 ../sdcard_bsp//libucosii_bsp.a(alt_sys_init.o)
 .debug_loc     0x0000e053       0xac ../sdcard_bsp//libucosii_bsp.a(altera_avalon_jtag_uart_fd.o)
 .debug_loc     0x0000e0ff       0xac ../sdcard_bsp//libucosii_bsp.a(altera_avalon_jtag_uart_init.o)
 .debug_loc     0x0000e1ab       0x2b ../sdcard_bsp//libucosii_bsp.a(altera_avalon_jtag_uart_ioctl.o)
 .debug_loc     0x0000e1d6       0x2c ../sdcard_bsp//libucosii_bsp.a(altera_avalon_jtag_uart_read.o)
 .debug_loc     0x0000e202       0x2c ../sdcard_bsp//libucosii_bsp.a(altera_avalon_jtag_uart_write.o)
 .debug_loc     0x0000e22e       0x56 ../sdcard_bsp//libucosii_bsp.a(altera_avalon_timer_sc.o)
 .debug_loc     0x0000e284      0x22f ../sdcard_bsp//libucosii_bsp.a(altera_up_avalon_character_lcd.o)
 .debug_loc     0x0000e4b3       0x2b ../sdcard_bsp//libucosii_bsp.a(alt_alarm_start.o)
 .debug_loc     0x0000e4de       0x2b ../sdcard_bsp//libucosii_bsp.a(alt_dcache_flush_all.o)
 .debug_loc     0x0000e509       0x56 ../sdcard_bsp//libucosii_bsp.a(alt_dev_llist_insert.o)
 .debug_loc     0x0000e55f       0x2b ../sdcard_bsp//libucosii_bsp.a(alt_do_ctors.o)
 .debug_loc     0x0000e58a       0x2b ../sdcard_bsp//libucosii_bsp.a(alt_do_dtors.o)
 .debug_loc     0x0000e5b5       0x2b ../sdcard_bsp//libucosii_bsp.a(alt_find_dev.o)
 .debug_loc     0x0000e5e0       0x2b ../sdcard_bsp//libucosii_bsp.a(alt_icache_flush_all.o)
 .debug_loc     0x0000e60b       0x56 ../sdcard_bsp//libucosii_bsp.a(alt_io_redirect.o)
 .debug_loc     0x0000e661       0x2c ../sdcard_bsp//libucosii_bsp.a(alt_irq_register.o)
 .debug_loc     0x0000e68d       0x81 ../sdcard_bsp//libucosii_bsp.a(alt_open.o)
 .debug_loc     0x0000e70e       0x56 ../sdcard_bsp//libucosii_bsp.a(alt_tick.o)
 .debug_loc     0x0000e764       0x2b ../sdcard_bsp//libucosii_bsp.a(altera_nios2_qsys_irq.o)
 .debug_loc     0x0000e78f      0x1ae ../sdcard_bsp//libucosii_bsp.a(os_cpu_c.o)
 .debug_loc     0x0000e93d       0x2b ../sdcard_bsp//libucosii_bsp.a(alt_find_file.o)
 .debug_loc     0x0000e968       0x2b ../sdcard_bsp//libucosii_bsp.a(alt_get_fd.o)
 .debug_loc     0x0000e993       0x2b ../sdcard_bsp//libucosii_bsp.a(alt_irq_handler.o)
 .debug_loc     0x0000e9be       0x1e /OPT/altera/12.1/nios2eds/bin/gnu/H-i686-pc-linux-gnu/bin/../lib/gcc/nios2-elf/4.1.2/../../../../nios2-elf/lib/mno-hw-mul/libc.a(lib_a-atexit.o)
 .debug_loc     0x0000e9dc       0x3d /OPT/altera/12.1/nios2eds/bin/gnu/H-i686-pc-linux-gnu/bin/../lib/gcc/nios2-elf/4.1.2/../../../../nios2-elf/lib/mno-hw-mul/libc.a(lib_a-exit.o)
 .debug_loc     0x0000ea19      0x114 /OPT/altera/12.1/nios2eds/bin/gnu/H-i686-pc-linux-gnu/bin/../lib/gcc/nios2-elf/4.1.2/../../../../nios2-elf/lib/mno-hw-mul/libc.a(lib_a-memcmp.o)
 .debug_loc     0x0000eb2d      0x120 /OPT/altera/12.1/nios2eds/bin/gnu/H-i686-pc-linux-gnu/bin/../lib/gcc/nios2-elf/4.1.2/../../../../nios2-elf/lib/mno-hw-mul/libc.a(lib_a-__atexit.o)
 .debug_loc     0x0000ec4d      0x1cb /OPT/altera/12.1/nios2eds/bin/gnu/H-i686-pc-linux-gnu/bin/../lib/gcc/nios2-elf/4.1.2/../../../../nios2-elf/lib/mno-hw-mul/libc.a(lib_a-__call_atexit.o)
 .debug_loc     0x0000ee18       0x56 ../sdcard_bsp//libucosii_bsp.a(alt_exit.o)

.debug_macinfo
 *(.debug_macinfo)

.debug_weaknames
 *(.debug_weaknames)

.debug_funcnames
 *(.debug_funcnames)

.debug_typenames
 *(.debug_typenames)

.debug_varnames
 *(.debug_varnames)

.debug_alt_sim_info
                0x00000000       0x10
 *(.debug_alt_sim_info)
 .debug_alt_sim_info
                0x00000000       0x10 ../sdcard_bsp//obj/HAL/src/crt0.o
                0x01000000                __alt_data_end = 0x1000000
                0x01000000                PROVIDE (__alt_stack_pointer, __alt_data_end)
                0x008263a4                PROVIDE (__alt_stack_limit, __alt_stack_base)
                0x008263a4                PROVIDE (__alt_heap_start, end)
                0x01000000                PROVIDE (__alt_heap_limit, 0x1000000)
OUTPUT(sdcard.elf elf32-littlenios2)

.debug_ranges   0x00000000      0x9f8
 .debug_ranges  0x00000000       0x20 ../sdcard_bsp//obj/HAL/src/crt0.o
 .debug_ranges  0x00000020       0x70 /OPT/altera/12.1/nios2eds/bin/gnu/H-i686-pc-linux-gnu/bin/../lib/gcc/nios2-elf/4.1.2/../../../../nios2-elf/lib/mno-hw-mul/libc.a(lib_a-mallocr.o)
 .debug_ranges  0x00000090      0x168 /OPT/altera/12.1/nios2eds/bin/gnu/H-i686-pc-linux-gnu/bin/../lib/gcc/nios2-elf/4.1.2/../../../../nios2-elf/lib/mno-hw-mul/libc.a(lib_a-vfprintf.o)
 .debug_ranges  0x000001f8       0x20 /OPT/altera/12.1/nios2eds/bin/gnu/H-i686-pc-linux-gnu/bin/../lib/gcc/nios2-elf/4.1.2/../../../../nios2-elf/lib/mno-hw-mul/libc.a(lib_a-fflush.o)
 .debug_ranges  0x00000218       0x28 /OPT/altera/12.1/nios2eds/bin/gnu/H-i686-pc-linux-gnu/bin/../lib/gcc/nios2-elf/4.1.2/../../../../nios2-elf/lib/mno-hw-mul/libc.a(lib_a-fvwrite.o)
 .debug_ranges  0x00000240       0xa0 /OPT/altera/12.1/nios2eds/bin/gnu/H-i686-pc-linux-gnu/bin/../lib/gcc/nios2-elf/4.1.2/../../../../nios2-elf/lib/mno-hw-mul/libc.a(lib_a-fwalk.o)
 .debug_ranges  0x000002e0      0x110 /OPT/altera/12.1/nios2eds/bin/gnu/H-i686-pc-linux-gnu/bin/../lib/gcc/nios2-elf/4.1.2/../../../../nios2-elf/lib/mno-hw-mul/libc.a(lib_a-reallocr.o)
 .debug_ranges  0x000003f0       0x38 /OPT/altera/12.1/nios2eds/bin/gnu/H-i686-pc-linux-gnu/bin/../lib/gcc/nios2-elf/4.1.2/../../../../nios2-elf/lib/mno-hw-mul/libc.a(lib_a-callocr.o)
 .debug_ranges  0x00000428      0x190 /OPT/altera/12.1/nios2eds/bin/gnu/H-i686-pc-linux-gnu/bin/../lib/gcc/nios2-elf/4.1.2/mno-hw-mul/libgcc.a(_udivdi3.o)
 .debug_ranges  0x000005b8      0x1c0 /OPT/altera/12.1/nios2eds/bin/gnu/H-i686-pc-linux-gnu/bin/../lib/gcc/nios2-elf/4.1.2/mno-hw-mul/libgcc.a(_umoddi3.o)
 .debug_ranges  0x00000778       0x30 /OPT/altera/12.1/nios2eds/bin/gnu/H-i686-pc-linux-gnu/bin/../lib/gcc/nios2-elf/4.1.2/mno-hw-mul/libgcc.a(_addsub_df.o)
 .debug_ranges  0x000007a8       0x88 /OPT/altera/12.1/nios2eds/bin/gnu/H-i686-pc-linux-gnu/bin/../lib/gcc/nios2-elf/4.1.2/mno-hw-mul/libgcc.a(_mul_df.o)
 .debug_ranges  0x00000830       0x50 /OPT/altera/12.1/nios2eds/bin/gnu/H-i686-pc-linux-gnu/bin/../lib/gcc/nios2-elf/4.1.2/mno-hw-mul/libgcc.a(_div_df.o)
 .debug_ranges  0x00000880       0x18 /OPT/altera/12.1/nios2eds/bin/gnu/H-i686-pc-linux-gnu/bin/../lib/gcc/nios2-elf/4.1.2/mno-hw-mul/libgcc.a(_usi_to_df.o)
 .debug_ranges  0x00000898       0x88 /OPT/altera/12.1/nios2eds/bin/gnu/H-i686-pc-linux-gnu/bin/../lib/gcc/nios2-elf/4.1.2/mno-hw-mul/libgcc.a(_muldi3.o)
 .debug_ranges  0x00000920       0x28 /OPT/altera/12.1/nios2eds/bin/gnu/H-i686-pc-linux-gnu/bin/../lib/gcc/nios2-elf/4.1.2/mno-hw-mul/libgcc.a(_clzsi2.o)
 .debug_ranges  0x00000948       0x28 /OPT/altera/12.1/nios2eds/bin/gnu/H-i686-pc-linux-gnu/bin/../lib/gcc/nios2-elf/4.1.2/mno-hw-mul/libgcc.a(_pack_df.o)
 .debug_ranges  0x00000970       0x18 ../sdcard_bsp//libucosii_bsp.a(altera_avalon_jtag_uart_init.o)
 .debug_ranges  0x00000988       0x28 ../sdcard_bsp//libucosii_bsp.a(alt_irq_entry.o)
 .debug_ranges  0x000009b0       0x30 ../sdcard_bsp//libucosii_bsp.a(alt_exception_entry.o)
 .debug_ranges  0x000009e0       0x18 /OPT/altera/12.1/nios2eds/bin/gnu/H-i686-pc-linux-gnu/bin/../lib/gcc/nios2-elf/4.1.2/../../../../nios2-elf/lib/mno-hw-mul/libc.a(lib_a-__call_atexit.o)
