
capstone_Volatile.elf:     file format elf32-littlenios2
capstone_Volatile.elf
architecture: nios2, flags 0x00000112:
EXEC_P, HAS_SYMS, D_PAGED
start address 0x00800000

Program Header:
    LOAD off    0x00001000 vaddr 0x00800000 paddr 0x00800000 align 2**12
         filesz 0x0002a714 memsz 0x0013dff0 flags rwx
    LOAD off    0x0002c000 vaddr 0x01400000 paddr 0x01400000 align 2**12
         filesz 0x00000000 memsz 0x00000000 flags r-x
    LOAD off    0x0002c020 vaddr 0x01904020 paddr 0x01904020 align 2**12
         filesz 0x000001a0 memsz 0x000001a0 flags r-x

Sections:
Idx Name          Size      VMA       LMA       File off  Algn
  0 .entry        00000000  01400000  01400000  0002c000  2**5
                  CONTENTS, ALLOC, LOAD, READONLY, CODE
  1 .exceptions   000001a0  01904020  01904020  0002c020  2**2
                  CONTENTS, ALLOC, LOAD, READONLY, CODE
  2 .text         000274ec  00800000  00800000  00001000  2**2
                  CONTENTS, ALLOC, LOAD, READONLY, CODE
  3 .rodata       000016a8  008274ec  008274ec  000284ec  2**2
                  CONTENTS, ALLOC, LOAD, READONLY, DATA
  4 .rwdata       00001b80  00828b94  00828b94  00029b94  2**2
                  CONTENTS, ALLOC, LOAD, DATA, SMALL_DATA
  5 .bss          00113bb6  0082a714  0082a714  0002b714  2**2
                  ALLOC, SMALL_DATA
  6 .comment      00000026  00000000  00000000  0002c1c0  2**0
                  CONTENTS, READONLY
  7 .debug_aranges 00001510  00000000  00000000  0002c1e8  2**3
                  CONTENTS, READONLY, DEBUGGING
  8 .debug_pubnames 00003eaa  00000000  00000000  0002d6f8  2**0
                  CONTENTS, READONLY, DEBUGGING
  9 .debug_info   00048e40  00000000  00000000  000315a2  2**0
                  CONTENTS, READONLY, DEBUGGING
 10 .debug_abbrev 0000dbc2  00000000  00000000  0007a3e2  2**0
                  CONTENTS, READONLY, DEBUGGING
 11 .debug_line   00029c77  00000000  00000000  00087fa4  2**0
                  CONTENTS, READONLY, DEBUGGING
 12 .debug_frame  000044e4  00000000  00000000  000b1c1c  2**2
                  CONTENTS, READONLY, DEBUGGING
 13 .debug_str    0000369c  00000000  00000000  000b6100  2**0
                  CONTENTS, READONLY, DEBUGGING
 14 .debug_loc    00012398  00000000  00000000  000b979c  2**0
                  CONTENTS, READONLY, DEBUGGING
 15 .debug_alt_sim_info 00000050  00000000  00000000  000cbb34  2**2
                  CONTENTS, READONLY, DEBUGGING
 16 .debug_ranges 00000d58  00000000  00000000  000cbb88  2**3
                  CONTENTS, READONLY, DEBUGGING
 17 .thread_model 00000006  00000000  00000000  000d3a04  2**0
                  CONTENTS, READONLY
 18 .cpu          0000000c  00000000  00000000  000d3a0a  2**0
                  CONTENTS, READONLY
 19 .qsys         00000001  00000000  00000000  000d3a16  2**0
                  CONTENTS, READONLY
 20 .simulation_enabled 00000001  00000000  00000000  000d3a17  2**0
                  CONTENTS, READONLY
 21 .sysid_hash   00000004  00000000  00000000  000d3a18  2**0
                  CONTENTS, READONLY
 22 .sysid_base   00000004  00000000  00000000  000d3a1c  2**0
                  CONTENTS, READONLY
 23 .sysid_time   00000004  00000000  00000000  000d3a20  2**0
                  CONTENTS, READONLY
 24 .stderr_dev   0000000b  00000000  00000000  000d3a24  2**0
                  CONTENTS, READONLY
 25 .stdin_dev    0000000b  00000000  00000000  000d3a2f  2**0
                  CONTENTS, READONLY
 26 .stdout_dev   0000000b  00000000  00000000  000d3a3a  2**0
                  CONTENTS, READONLY
 27 .sopc_system_name 0000000d  00000000  00000000  000d3a45  2**0
                  CONTENTS, READONLY
 28 .quartus_project_dir 00000043  00000000  00000000  000d3a52  2**0
                  CONTENTS, READONLY
 29 .jdi          000051db  00000000  00000000  000d3a95  2**0
                  CONTENTS, READONLY
 30 .sopcinfo     0009b2cd  00000000  00000000  000d8c70  2**0
                  CONTENTS, READONLY
SYMBOL TABLE:
01400000 l    d  .entry	00000000 .entry
01904020 l    d  .exceptions	00000000 .exceptions
00800000 l    d  .text	00000000 .text
008274ec l    d  .rodata	00000000 .rodata
00828b94 l    d  .rwdata	00000000 .rwdata
0082a714 l    d  .bss	00000000 .bss
00000000 l    d  .comment	00000000 .comment
00000000 l    d  .debug_aranges	00000000 .debug_aranges
00000000 l    d  .debug_pubnames	00000000 .debug_pubnames
00000000 l    d  .debug_info	00000000 .debug_info
00000000 l    d  .debug_abbrev	00000000 .debug_abbrev
00000000 l    d  .debug_line	00000000 .debug_line
00000000 l    d  .debug_frame	00000000 .debug_frame
00000000 l    d  .debug_str	00000000 .debug_str
00000000 l    d  .debug_loc	00000000 .debug_loc
00000000 l    d  .debug_alt_sim_info	00000000 .debug_alt_sim_info
00000000 l    d  .debug_ranges	00000000 .debug_ranges
00800044 l       .text	00000000 alt_after_alt_main
00000000 l    df *ABS*	00000000 alt_irq_handler.c
00000000 l    df *ABS*	00000000 mpu9250.c
00000000 l    df *ABS*	00000000 audio.c
00000000 l    df *ABS*	00000000 buttons.c
00000000 l    df *ABS*	00000000 debug.c
00000000 l    df *ABS*	00000000 dir.c
00000000 l    df *ABS*	00000000 disc.c
00000000 l    df *ABS*	00000000 efs.c
00000000 l    df *ABS*	00000000 extract.c
00000000 l    df *ABS*	00000000 fat.c
00000000 l    df *ABS*	00000000 file.c
00000000 l    df *ABS*	00000000 fs.c
00000000 l    df *ABS*	00000000 ioman.c
00000000 l    df *ABS*	00000000 ls.c
00000000 l    df *ABS*	00000000 mkfs.c
00000000 l    df *ABS*	00000000 nios2.c
00000000 l    df *ABS*	00000000 nios2_ramdisk.c
0080a234 l     F .text	00000024 ramdisk_setup
0080a258 l     F .text	00000074 ramdisk_read
0080a2cc l     F .text	00000074 ramdisk_write
00828b94 l     O .rwdata	0000000c spifuncs
00000000 l    df *ABS*	00000000 partition.c
00000000 l    df *ABS*	00000000 plibc.c
00000000 l    df *ABS*	00000000 sd.c
00000000 l    df *ABS*	00000000 time.c
00000000 l    df *ABS*	00000000 ui.c
00000000 l    df *ABS*	00000000 I2C.c
00000000 l    df *ABS*	00000000 imu_i2c.c
00000000 l    df *ABS*	00000000 main.c
00000000 l    df *ABS*	00000000 save.c
00000000 l    df *ABS*	00000000 sd.c
00000000 l    df *ABS*	00000000 w_pow.c
00000000 l    df *ABS*	00000000 e_pow.c
00827eec l     O .rodata	00000010 bp
00827efc l     O .rodata	00000010 dp_l
00827f0c l     O .rodata	00000010 dp_h
00000000 l    df *ABS*	00000000 e_sqrt.c
00000000 l    df *ABS*	00000000 s_fabs.c
00000000 l    df *ABS*	00000000 s_finite.c
00000000 l    df *ABS*	00000000 s_isnand.c
00000000 l    df *ABS*	00000000 s_lib_ver.c
00000000 l    df *ABS*	00000000 s_matherr.c
00000000 l    df *ABS*	00000000 s_nan.c
00000000 l    df *ABS*	00000000 s_rint.c
00827f1c l     O .rodata	00000010 TWO52
00000000 l    df *ABS*	00000000 s_scalbn.c
00000000 l    df *ABS*	00000000 s_copysign.c
00000000 l    df *ABS*	00000000 fp-bit.c
0080f894 l     F .text	000001e4 _fpadd_parts
00000000 l    df *ABS*	00000000 fp-bit.c
00000000 l    df *ABS*	00000000 fp-bit.c
00000000 l    df *ABS*	00000000 fp-bit.c
00000000 l    df *ABS*	00000000 fp-bit.c
00000000 l    df *ABS*	00000000 fp-bit.c
00000000 l    df *ABS*	00000000 fp-bit.c
00000000 l    df *ABS*	00000000 fp-bit.c
00000000 l    df *ABS*	00000000 fp-bit.c
00000000 l    df *ABS*	00000000 dp-bit.c
0081013c l     F .text	00000410 _fpadd_parts
00000000 l    df *ABS*	00000000 dp-bit.c
00000000 l    df *ABS*	00000000 dp-bit.c
00000000 l    df *ABS*	00000000 dp-bit.c
00000000 l    df *ABS*	00000000 dp-bit.c
00000000 l    df *ABS*	00000000 dp-bit.c
00000000 l    df *ABS*	00000000 dp-bit.c
00000000 l    df *ABS*	00000000 dp-bit.c
00000000 l    df *ABS*	00000000 dp-bit.c
00000000 l    df *ABS*	00000000 dp-bit.c
00000000 l    df *ABS*	00000000 dp-bit.c
00000000 l    df *ABS*	00000000 dp-bit.c
00000000 l    df *ABS*	00000000 lib2-divmod.c
008110a8 l     F .text	0000007c udivmodsi4
00000000 l    df *ABS*	00000000 libgcc2.c
00000000 l    df *ABS*	00000000 libgcc2.c
00000000 l    df *ABS*	00000000 fp-bit.c
00000000 l    df *ABS*	00000000 fp-bit.c
00000000 l    df *ABS*	00000000 fp-bit.c
00000000 l    df *ABS*	00000000 fp-bit.c
00000000 l    df *ABS*	00000000 dp-bit.c
00000000 l    df *ABS*	00000000 dp-bit.c
00000000 l    df *ABS*	00000000 dp-bit.c
00000000 l    df *ABS*	00000000 libgcc2.c
00000000 l    df *ABS*	00000000 errno.c
00000000 l    df *ABS*	00000000 impure.c
00828ba0 l     O .rwdata	00000400 impure_data
00000000 l    df *ABS*	00000000 malloc.c
00000000 l    df *ABS*	00000000 mallocr.c
00000000 l    df *ABS*	00000000 memcpy.c
00000000 l    df *ABS*	00000000 perror.c
00000000 l    df *ABS*	00000000 printf.c
00000000 l    df *ABS*	00000000 putchar.c
00000000 l    df *ABS*	00000000 puts.c
00000000 l    df *ABS*	00000000 sbrkr.c
00000000 l    df *ABS*	00000000 strerror.c
00000000 l    df *ABS*	00000000 strlen.c
00000000 l    df *ABS*	00000000 u_strerr.c
00000000 l    df *ABS*	00000000 vfprintf.c
00812c64 l     F .text	00000058 __sprint_r
0082886e l     O .rodata	00000010 blanks.3452
0082885e l     O .rodata	00000010 zeroes.3453
00000000 l    df *ABS*	00000000 wsetup.c
00000000 l    df *ABS*	00000000 dtoa.c
00814cc8 l     F .text	00000218 quorem
00000000 l    df *ABS*	00000000 fflush.c
00000000 l    df *ABS*	00000000 findfp.c
008166c4 l     F .text	00000058 std
008167d0 l     F .text	00000008 __fp_lock
008167d8 l     F .text	00000008 __fp_unlock
00000000 l    df *ABS*	00000000 fputc.c
00000000 l    df *ABS*	00000000 fputs.c
00000000 l    df *ABS*	00000000 mallocr.c
00000000 l    df *ABS*	00000000 fvwrite.c
00000000 l    df *ABS*	00000000 fwalk.c
00000000 l    df *ABS*	00000000 int_errno.c
00000000 l    df *ABS*	00000000 locale.c
0082a66c l     O .rwdata	00000004 charset
008288a0 l     O .rodata	00000030 lconv
00000000 l    df *ABS*	00000000 makebuf.c
00000000 l    df *ABS*	00000000 memchr.c
00000000 l    df *ABS*	00000000 memmove.c
00000000 l    df *ABS*	00000000 memset.c
00000000 l    df *ABS*	00000000 mprec.c
008289e8 l     O .rodata	0000000c p05.2458
00000000 l    df *ABS*	00000000 putc.c
00000000 l    df *ABS*	00000000 mallocr.c
00000000 l    df *ABS*	00000000 s_isinfd.c
00000000 l    df *ABS*	00000000 stdio.c
00000000 l    df *ABS*	00000000 strcmp.c
00000000 l    df *ABS*	00000000 wbuf.c
00000000 l    df *ABS*	00000000 writer.c
00000000 l    df *ABS*	00000000 mallocr.c
00000000 l    df *ABS*	00000000 closer.c
00000000 l    df *ABS*	00000000 fclose.c
00000000 l    df *ABS*	00000000 fstatr.c
00000000 l    df *ABS*	00000000 isattyr.c
00000000 l    df *ABS*	00000000 lseekr.c
00000000 l    df *ABS*	00000000 readr.c
00000000 l    df *ABS*	00000000 libgcc2.c
00000000 l    df *ABS*	00000000 libgcc2.c
00000000 l    df *ABS*	00000000 dp-bit.c
00000000 l    df *ABS*	00000000 dp-bit.c
00000000 l    df *ABS*	00000000 dp-bit.c
00000000 l    df *ABS*	00000000 alt_close.c
0081a958 l     F .text	00000060 alt_get_errno
00000000 l    df *ABS*	00000000 alt_dev.c
0081a9b8 l     F .text	0000002c alt_dev_null_write
00000000 l    df *ABS*	00000000 alt_errno.c
00000000 l    df *ABS*	00000000 alt_fstat.c
0081aab8 l     F .text	00000060 alt_get_errno
00000000 l    df *ABS*	00000000 alt_irq_register.c
00000000 l    df *ABS*	00000000 alt_irq_vars.c
00000000 l    df *ABS*	00000000 alt_isatty.c
0081ad98 l     F .text	00000060 alt_get_errno
00000000 l    df *ABS*	00000000 alt_lseek.c
0081aee8 l     F .text	00000060 alt_get_errno
00000000 l    df *ABS*	00000000 alt_main.c
00000000 l    df *ABS*	00000000 alt_read.c
0081b130 l     F .text	00000060 alt_get_errno
00000000 l    df *ABS*	00000000 alt_release_fd.c
00000000 l    df *ABS*	00000000 alt_sbrk.c
0082a68c l     O .rwdata	00000004 heap_end
00000000 l    df *ABS*	00000000 alt_usleep.c
00000000 l    df *ABS*	00000000 alt_write.c
0081b4e4 l     F .text	00000060 alt_get_errno
00000000 l    df *ABS*	00000000 alt_env_lock.c
0082a690 l     O .rwdata	00000004 lockid
0082a75c l     O .bss	00000004 locks
00000000 l    df *ABS*	00000000 alt_malloc_lock.c
0082a694 l     O .rwdata	00000004 lockid
0082a764 l     O .bss	00000004 locks
00000000 l    df *ABS*	00000000 os_core.c
0081cf1c l     F .text	00000044 OS_InitMisc
0081cf60 l     F .text	0000006c OS_InitRdyList
0081d0c4 l     F .text	000000e0 OS_InitTCBList
0081ce40 l     F .text	000000dc OS_InitEventList
0081cfcc l     F .text	0000007c OS_InitTaskIdle
0081d048 l     F .text	0000007c OS_InitTaskStat
0081d338 l     F .text	00000070 OS_SchedNew
00000000 l    df *ABS*	00000000 os_dbg.c
00000000 l    df *ABS*	00000000 os_flag.c
0081f258 l     F .text	00000110 OS_FlagTaskRdy
0081efb0 l     F .text	000001c4 OS_FlagBlock
00000000 l    df *ABS*	00000000 os_mem.c
00000000 l    df *ABS*	00000000 os_q.c
00000000 l    df *ABS*	00000000 os_sem.c
00000000 l    df *ABS*	00000000 os_task.c
00000000 l    df *ABS*	00000000 os_time.c
00000000 l    df *ABS*	00000000 alt_sys_init.c
0082955c l     O .rwdata	0000106c jtag_uart_0
0082a5c8 l     O .rwdata	00000030 audio_and_video_config_0
0082a5f8 l     O .rwdata	00000030 audio_0
0082a628 l     O .rwdata	0000002c character_lcd_0
00823bb0 l     F .text	00000038 alt_dev_reg
00000000 l    df *ABS*	00000000 altera_avalon_jtag_uart_fd.c
00000000 l    df *ABS*	00000000 altera_avalon_jtag_uart_init.c
00823e60 l     F .text	000002c8 altera_avalon_jtag_uart_irq
00824128 l     F .text	00000114 altera_avalon_jtag_uart_timeout
00000000 l    df *ABS*	00000000 altera_avalon_jtag_uart_ioctl.c
00000000 l    df *ABS*	00000000 altera_avalon_jtag_uart_read.c
00000000 l    df *ABS*	00000000 altera_avalon_jtag_uart_write.c
00000000 l    df *ABS*	00000000 altera_avalon_timer_sc.c
00824940 l     F .text	00000074 alt_avalon_timer_sc_irq
00000000 l    df *ABS*	00000000 altera_up_avalon_audio.c
00000000 l    df *ABS*	00000000 altera_up_avalon_audio_and_video_config.c
00000000 l    df *ABS*	00000000 altera_up_avalon_character_lcd.c
00000000 l    df *ABS*	00000000 alt_alarm_start.c
00000000 l    df *ABS*	00000000 alt_busy_sleep.c
00000000 l    df *ABS*	00000000 alt_dev_llist_insert.c
00826254 l     F .text	00000060 alt_get_errno
00000000 l    df *ABS*	00000000 alt_do_ctors.c
00000000 l    df *ABS*	00000000 alt_do_dtors.c
00000000 l    df *ABS*	00000000 alt_find_dev.c
00000000 l    df *ABS*	00000000 alt_io_redirect.c
00826410 l     F .text	000000c4 alt_open_fd
00000000 l    df *ABS*	00000000 alt_open.c
0082654c l     F .text	000000dc alt_file_locked
008267b0 l     F .text	00000060 alt_get_errno
00000000 l    df *ABS*	00000000 alt_tick.c
00000000 l    df *ABS*	00000000 altera_nios2_qsys_irq.c
00000040 l       *ABS*	00000000 OSCtxSw_SWITCH_PC
00000000 l    df *ABS*	00000000 os_cpu_c.c
00000014 l       *ABS*	00000000 OSTCBNext_OFFSET
00000032 l       *ABS*	00000000 OSTCBPrio_OFFSET
00000000 l       *ABS*	00000000 OSTCBStkPtr_OFFSET
00000000 l    df *ABS*	00000000 alt_find_file.c
00000000 l    df *ABS*	00000000 alt_get_fd.c
00000000 l    df *ABS*	00000000 atexit.c
00000000 l    df *ABS*	00000000 exit.c
00000000 l    df *ABS*	00000000 memcmp.c
00000000 l    df *ABS*	00000000 __atexit.c
00000000 l    df *ABS*	00000000 __call_atexit.c
008272c8 l     F .text	00000004 register_fini
00000000 l    df *ABS*	00000000 alt_exit.c
0082747c l     F .text	00000040 alt_sim_halt
0082539c g     F .text	00000038 alt_up_av_config_reset
0081242c g     F .text	0000001c putchar
00817dec g     F .text	00000094 _mprec_log10
00825840 g     F .text	00000064 alt_up_av_config_read_D5M_cfg_register
0082a6e2 g     O .rwdata	00000002 OSTaskNameSize
0080b1cc g     F .text	000001dc sd_getDriveSize
008054dc g     F .text	00000068 file_write
00817ed8 g     F .text	00000088 __any_on
0081987c g     F .text	00000070 _isatty_r
008289c0 g     O .rodata	00000028 __mprec_tinytens
0082540c g     F .text	00000030 alt_up_av_config_disable_interrupt
008068a0 g     F .text	00000158 fs_countDataSectors
0081af48 g     F .text	000000c8 alt_main
00812450 g     F .text	000000a0 _puts_r
0093dd60 g     O .bss	00000100 alt_irq
00803778 g     F .text	00000048 disc_initDisc
00803b64 g     F .text	0000014c ex_getPartitionField
0080f404 g     F .text	00000018 fabs
008198ec g     F .text	00000078 _lseek_r
00802a34 g     F .text	0000017c interrupt_isr_buttonPress
0081fb4c g     F .text	000000d0 OS_MemInit
00823a8c g     F .text	00000064 OSTimeSet
008065c8 g     F .text	0000013c fs_loadVolumeId
008087cc g     F .text	000000dc ioman_putSectorInCache
00825a4c g     F .text	00000034 alt_up_character_lcd_send_cmd
00810c5c g     F .text	00000088 __eqdf2
0082a7ec g     O .bss	0000001c isPlaying
00804984 g     F .text	000001b0 fat_getNextClusterChain
0081ba98 g     F .text	000006b4 OSEventPendMulti
00824cb4 g     F .text	00000070 alt_up_audio_read_fifo_avail
0093dff0 g       *ABS*	00000000 __alt_heap_start
008254dc g     F .text	000000ac alt_up_av_config_write_audio_cfg_register
00826db8 g     F .text	00000020 OSTaskCreateHook
0082a808 g     O .bss	00002000 task1_stk
008089bc g     F .text	00000154 ioman_flushRange
008123b4 g     F .text	00000044 printf
0082a6ba g     O .rwdata	00000002 OSMboxEn
00824d24 g     F .text	00000070 alt_up_audio_record_r
0081c1a0 g     F .text	0000007c OSIntEnter
008191fc g     F .text	00000068 __sseek
0081672c g     F .text	000000a4 __sinit
008193fc g     F .text	00000130 __swbuf_r
0082a6ca g     O .rwdata	00000002 OSQEn
00809f18 g     F .text	00000044 if_spiInit
00817550 g     F .text	00000084 _setlocale_r
0082a714 g     O .bss	00000004 sem
0081682c g     F .text	00000068 __sfmoreglue
0081b754 g     F .text	000000d0 __malloc_unlock
00808108 g     F .text	00000068 ioman_getPtr
00826e14 g     F .text	0000001c OSTaskStatHook
0082a76c g     O .bss	00000001 OSLockNesting
0080fd2c g     F .text	00000174 __divsf3
00812574 g     F .text	00000674 strerror
0082a708 g     O .rwdata	00000002 OSDataSize
0082a76d g     O .bss	00000001 OSRunning
00824c2c g     F .text	00000088 alt_up_audio_reset_audio_core
00807f48 g     F .text	000001c0 ioman_push
0080848c g     F .text	00000084 ioman_findFreeSpot
00817868 g     F .text	000000e0 memmove
00826e4c g     F .text	0000001c OSInitHookBegin
0080b0c8 g     F .text	00000104 sd_readSector
0082a700 g     O .rwdata	00000002 OSTmrSize
0081681c g     F .text	00000010 _cleanup
00817f60 g     F .text	000000bc _Balloc
0082a770 g     O .bss	00000004 OSIdleCtr
00810d6c g     F .text	00000088 __gtdf2
0080ac60 g     F .text	000001d8 sd_Resp8bError
00826a84 g       .text	00000000 OSStartTsk
00811b1c g     F .text	00000010 __errno
008259d0 g     F .text	0000007c get_DDRAM_addr
0081d66c g     F .text	000002e0 OS_TCBInit
0080c2e0 g     F .text	00000144 i2c_write
00805f18 g     F .text	00000278 file_normalToFatName
01400000 g     F .entry	00000000 __reset
00802758 g     F .text	00000280 synthesize
0082a718 g     O .bss	00000004 edge_capture
0082a706 g     O .rwdata	00000002 OSTmrWheelTblSize
00802f50 g     F .text	00000088 dir_updateDirectoryEntry
0082a6a6 g     O .rwdata	00000002 OSEventSize
0082a774 g     O .bss	00000001 OSPrioHighRdy
00819808 g     F .text	00000074 _fstat_r
00826dd8 g     F .text	00000020 OSTaskDelHook
0082a71c g     O .bss	00000004 semaphore
0082a738 g     O .bss	00000004 errno
00810ffc g     F .text	00000038 __make_dp
00826a64 g       .text	00000000 OSStartHighRdy
0080a5cc g     F .text	00000060 part_getSect
00822260 g     F .text	00000200 OSTaskCreateExt
0080aac8 g     F .text	000000b4 sd_Command
0081eacc g     F .text	00000068 OSFlagPendGetFlagsRdy
0082a6e6 g     O .rwdata	00000002 OSTaskStatStkSize
00824bf0 g     F .text	0000003c alt_up_audio_write_interrupt_pending
008115dc g     F .text	0000002c __make_fp
0081dad8 g     F .text	00000334 OSFlagAccept
008032b4 g     F .text	00000124 dir_findinCluster
00820284 g     F .text	000000c8 OSQFlush
0080ab7c g     F .text	0000007c sd_Resp8b
0080974c g     F .text	00000110 ls_getRootAreaEntry
0081fc1c g     F .text	00000154 OSQAccept
0082a754 g     O .bss	00000004 alt_argv
00807994 g     F .text	0000006c ioman_getUseCnt
00832654 g       *ABS*	00000000 _gp
0081b2ac g     F .text	00000118 usleep
008033d8 g     F .text	000000f8 dir_findinDir
0080fa78 g     F .text	00000070 __subsf3
0082208c g     F .text	000001d4 OSTaskCreate
00821b18 g     F .text	00000574 OSTaskChangePrio
0082a768 g     O .bss	00000004 alt_heapsem
0081d94c g     F .text	0000018c OSDebugInit
00822460 g     F .text	0000040c OSTaskDel
008046a0 g     F .text	000002e4 fat_setNextClusterAddressWBuf
00806c3c g     F .text	000000fc fs_sectorToCluster
00803cd8 g     F .text	00000128 fat_getSectorAddressFatEntry
008098ec g     F .text	000000a4 ls_fileEntryToDirListEntry
008293dc g     O .rwdata	00000180 alt_fd_list
0093ab3c g     O .bss	00000370 OSFlagTbl
00812448 g     F .text	00000008 _putchar_r
008094c0 g     F .text	0000008c ls_getDirEntry
0081cc1c g     F .text	000000b8 OS_EventTaskRemove
0082637c g     F .text	00000094 alt_find_dev
00812294 g     F .text	000000a0 memcpy
0082a6d0 g     O .rwdata	00000002 OSRdyTblSize
00825be4 g     F .text	0000004c alt_up_character_lcd_write_fd
00816810 g     F .text	0000000c _cleanup_r
00810f04 g     F .text	000000f8 __floatsidf
008123a0 g     F .text	00000014 perror
008264d4 g     F .text	00000078 alt_io_redirect
00810df4 g     F .text	00000088 __ltdf2
00809264 g     F .text	000001a4 ioman_printStatus
008029d8 g     F .text	0000005c init_button_pio
008095f4 g     F .text	00000158 ls_getRealDirEntry
008274ec g       *ABS*	00000000 __DTOR_END__
008124f0 g     F .text	00000014 puts
0081b824 g     F .text	00000130 OSEventNameGet
0082a6b4 g     O .rwdata	00000002 OSFlagMax
00817d3c g     F .text	000000b0 __ratio
0081c21c g     F .text	00000100 OSIntExit
0080d898 g     F .text	0000011c parseWav
0082a6ee g     O .rwdata	00000002 OSTCBSize
00825188 g     F .text	00000060 alt_up_audio_read_fifo_head
0082a775 g     O .bss	00000001 OSPrioCur
008243a4 g     F .text	000002c0 altera_avalon_jtag_uart_read
00811b40 g     F .text	00000014 malloc
008123f8 g     F .text	00000034 _printf_r
008069f8 g     F .text	0000007c fs_determineFatType
00802e28 g     F .text	000000a8 dir_setFirstCluster
01904000 g       *ABS*	00000000 __alt_mem_onchip_memory2_0
00806498 g     F .text	000000bc fs_initFs
008111e4 g     F .text	00000008 __udivsi3
0081acd8 g     F .text	000000c0 isatty
008002a0 g     F .text	00000358 initMPU9250
00806348 g     F .text	00000150 file_requiredCluster
0082c808 g     O .bss	000249f0 tom2
0082a6d4 g     O .rwdata	00000002 OSStkWidth
008288d0 g     O .rodata	000000c8 __mprec_tens
0082a6c8 g     O .rwdata	00000002 OSPtrSize
00806b70 g     F .text	000000cc fs_clusterToSector
0080bf60 g     F .text	0000015c I2C_ReadFromDeviceRegister
00803984 g     F .text	00000060 ex_getb16
008511f8 g     O .bss	00004e20 kick
0081752c g     F .text	00000008 __locale_charset
0082a6a8 g     O .rwdata	00000002 OSEventTblSize
0080385c g     F .text	00000128 efs_init
008269d8 g       .text	00000000 OSCtxSw
0082a72c g     O .bss	00000004 __malloc_top_pad
0082a778 g     O .bss	00000004 OSTCBList
0082a748 g     O .bss	00000004 alt_fd_list_lock
00825310 g     F .text	0000008c alt_up_av_config_read_data
0082a668 g     O .rwdata	00000004 __mb_cur_max
00817534 g     F .text	0000000c _localeconv_r
008088a8 g     F .text	00000114 ioman_flushSector
00818658 g     F .text	0000003c __i2b
00816f10 g     F .text	0000049c __sfvwrite_r
0093aeac g     O .bss	00000c30 OSMemTbl
0082a77c g     O .bss	00000001 OSTickStepState
0082a720 g     O .bss	00000004 audio_dev
00808228 g     F .text	0000008c ioman_readSector
00812504 g     F .text	00000070 _sbrk_r
0080a494 g     F .text	00000070 part_readBuf
00856018 g     O .bss	00000040 nextToPlay
00856058 g     O .bss	00037ab8 tom
0082a6cc g     O .rwdata	00000002 OSQMax
0093badc g     O .bss	00000800 OSTaskStatStk
0081f734 g     F .text	0000010c OSMemNameGet
00806304 g     F .text	00000044 file_getAttr
0082a6ac g     O .rwdata	00000002 OSFlagEn
00808510 g     F .text	00000170 ioman_findUnusedSpot
00819964 g     F .text	00000078 _read_r
0082a6f2 g     O .rwdata	00000002 OSTimeTickHookEn
0080a574 g     F .text	00000058 part_getRealLBA
008207e8 g     F .text	00000180 OSQPost
0081f368 g     F .text	000000ac OS_FlagUnlink
008293a8 g     O .rwdata	0000000c __lc_ctype
0082a680 g     O .rwdata	00000004 alt_max_fd
0081d1f8 g     F .text	0000006c OS_MemCopy
008251e8 g     F .text	00000060 alt_up_audio_write_fifo_head
0081d264 g     F .text	000000d4 OS_Sched
0081191c g     F .text	00000138 __unpack_d
008196e4 g     F .text	00000110 _fclose_r
00806190 g     F .text	000000e8 file_validateChar
0081f630 g     F .text	00000104 OSMemGet
0080a368 g     F .text	000000b0 part_initPartition
00822b94 g     F .text	000001c4 OSTaskNameSet
00816690 g     F .text	00000034 fflush
0082a730 g     O .bss	00000004 __malloc_max_sbrked_mem
0082a780 g     O .bss	00000004 OSCtxSwCtr
00826e30 g     F .text	0000001c OSTimeTickHook
0081ab18 g     F .text	000001c0 alt_irq_register
0082a6b6 g     O .rwdata	00000002 OSFlagNameSize
00810028 g     F .text	00000054 __extendsfdf2
0081ccd4 g     F .text	00000104 OS_EventTaskRemoveMulti
00808be4 g     F .text	0000030c ioman_getSector
008105cc g     F .text	00000074 __adddf3
0080c590 g     F .text	00000b44 pollIMU
0081cac8 g     F .text	00000154 OS_EventTaskWaitMulti
00817c1c g     F .text	00000120 __b2d
00803228 g     F .text	0000008c dir_findinBuf
0082a6ce g     O .rwdata	00000002 OSQSize
0080b3a8 g     F .text	00000020 fs_makeDate
00819fb8 g     F .text	000005b0 __umoddi3
0081adf8 g     F .text	000000f0 lseek
008213c4 g     F .text	0000027c OSSemPend
0082a654 g     O .rwdata	00000004 __fdlib_version
0082a65c g     O .rwdata	00000004 _global_impure_ptr
00818bc0 g     F .text	000005f4 _realloc_r
0082a6b8 g     O .rwdata	00000002 OSLowestPrio
0093dff0 g       *ABS*	00000000 __bss_end
00802690 g     F .text	000000c8 audio_isr
00826ea0 g     F .text	00000020 OSTCBInitHook
0082a6fe g     O .rwdata	00000002 OSTmrCfgTicksPerSec
008268a8 g     F .text	00000110 alt_tick
008199dc g     F .text	000005dc __udivdi3
0080a6fc g     F .text	0000006c part_directSectorRead
008083e0 g     F .text	000000ac ioman_findSectorInCache
0080b3c8 g     F .text	00000020 fs_makeTime
0082a6a0 g     O .rwdata	00000002 OSEventEn
00828998 g     O .rodata	00000028 __mprec_bigtens
008188b4 g     F .text	00000120 __s2b
0082a6fa g     O .rwdata	00000002 OSTmrCfgNameSize
0081a6c8 g     F .text	00000194 __floatunsidf
00817b3c g     F .text	00000060 __mcmp
00808680 g     F .text	0000014c ioman_findOverallocableSpot
0088db10 g     O .bss	000062a4 hihat2
00824a3c g     F .text	00000040 alt_up_audio_open_dev
0082a724 g     O .bss	00000004 button
008167f8 g     F .text	00000018 __fp_lock_all
0080a92c g     F .text	0000005c memSet
008036e8 g     F .text	00000090 dir_addCluster
0082a728 g     O .bss	00000004 myLCD
00809ef0 g     F .text	00000028 if_setPos
0081f174 g     F .text	000000e4 OS_FlagInit
0080b848 g     F .text	000002c8 makedir
00824e78 g     F .text	00000070 alt_up_audio_play_r
00826810 g     F .text	00000098 alt_alarm_stop
0080bc78 g     F .text	00000130 I2C_WriteToDeviceRegister
0082a6dc g     O .rwdata	00000002 OSTaskIdleStkSize
0082a74c g     O .bss	00000004 alt_irq_active
00820f50 g     F .text	000000c0 OSSemAccept
0081f960 g     F .text	000000f0 OSMemPut
00806ddc g     F .text	00000240 fs_findFile
008044d8 g     F .text	000001c8 fat_getNextClusterAddressWBuf
0081f414 g     F .text	0000021c OSMemCreate
0082a784 g     O .bss	00000004 OSIdleCtrMax
0080701c g     F .text	00000120 fs_findFreeFile
019040ec g     F .exceptions	000000d4 alt_irq_handler
008293b4 g     O .rwdata	00000028 alt_dev_null
0082a6f0 g     O .rwdata	00000002 OSTicksPerSec
00803ad4 g     F .text	00000090 ex_setb32
0080f480 g     F .text	00000210 rint
0081146c g     F .text	000000c8 __unpack_f
00825ecc g     F .text	00000034 alt_up_character_lcd_cursor_blink_on
0080954c g     F .text	000000a8 ls_getNext
0080c1e0 g     F .text	00000088 i2c_start
008269d8 g       .text	00000000 OSIntCtxSw
0080768c g     F .text	00000170 ioman_reset
00817a08 g     F .text	00000070 __hi0bits
0081a5f0 g     F .text	000000d8 __fixdfsi
00807c84 g     F .text	00000094 ioman_decRefCnt
008072c8 g     F .text	00000048 fs_setFirstClusterInDirEntry
0082a788 g     O .bss	00000004 OSTCBFreeList
00821640 g     F .text	0000017c OSSemPendAbort
0082a678 g     O .rwdata	00000008 alt_dev_list
008169e8 g     F .text	00000058 _fputc_r
0081b3c4 g     F .text	00000120 write
00818ad8 g     F .text	000000e8 _putc_r
0082a6f4 g     O .rwdata	00000002 OSVersionNbr
008000a0 g     F .text	00000100 readAccelData
0080fea0 g     F .text	00000078 __gtsf2
00807214 g     F .text	00000054 fs_getFirstClusterRootDir
0081a9e4 g     F .text	000000d4 fstat
00810e7c g     F .text	00000088 __ledf2
0082a69c g     O .rwdata	00000004 OSEndiannessTest
00818794 g     F .text	00000120 __pow5mult
0082a73c g     O .bss	00000004 __nlocale_changed
008111ec g     F .text	00000008 __umodsi3
00804b34 g     F .text	00000130 fat_LogicToDiscCluster
00804028 g     F .text	00000374 fat_setNextClusterAddress
0082a6ae g     O .rwdata	00000002 OSFlagGrpSize
0093dff0 g       *ABS*	00000000 end
0081130c g     F .text	00000160 __pack_f
00823d30 g     F .text	00000130 altera_avalon_jtag_uart_init
0081d4dc g     F .text	000000c8 OS_TaskStat
0080515c g     F .text	00000080 fat_countFreeClusters
008058e4 g     F .text	00000478 file_fopen
008274e8 g       *ABS*	00000000 __CTOR_LIST__
01000000 g       *ABS*	00000000 __alt_stack_pointer
008249b4 g     F .text	00000088 alt_avalon_timer_sc_init
0081128c g     F .text	00000080 __clzsi2
00824664 g     F .text	000002dc altera_avalon_jtag_uart_write
008034d0 g     F .text	00000144 dir_findinRootArea
0081671c g     F .text	00000004 __sfp_lock_acquire
00817784 g     F .text	000000e4 memchr
0081d1a4 g     F .text	00000054 OS_MemClr
00825af4 g     F .text	00000078 alt_up_character_lcd_write
00812cbc g     F .text	00001eac ___vfprintf_internal_r
00826aa8 g     F .text	00000310 OSTaskStkInit
0080bda8 g     F .text	000000c4 I2C_WriteMore
00816bfc g     F .text	00000314 _free_r
0081c824 g     F .text	00000194 OS_EventTaskRdy
00808170 g     F .text	000000b8 ioman_getBp
0080d6f0 g     F .text	00000080 sdInit
00803e00 g     F .text	00000228 fat_getNextClusterAddress
00807a94 g     F .text	00000094 ioman_decUseCnt
008272cc g     F .text	000001b0 __call_exitprocs
00805474 g     F .text	00000068 file_read
0082a78c g     O .bss	00000001 OSCPUUsage
0082a740 g     O .bss	00000004 __mlocale_changed
0082a664 g     O .rwdata	00000004 __malloc_sbrk_base
00800000 g     F .text	00000048 _start
00800048 g     F .text	0000002c getAres
0082a7bc g     O .bss	00000004 _alt_tick_rate
0082034c g     F .text	00000320 OSQPend
00807310 g     F .text	0000004c fs_flushFs
00812c5c g     F .text	00000008 _user_strerror
00823558 g     F .text	0000014c OSTimeDly
0082505c g     F .text	0000012c alt_up_audio_write_fifo
008050ac g     F .text	000000b0 fat_DiscToLogicCluster
00818324 g     F .text	0000014c __lshift
008252ac g     F .text	00000064 alt_up_av_config_write_data
0082a7c0 g     O .bss	00000004 _alt_nticks
0081b010 g     F .text	00000120 read
00823b24 g     F .text	0000008c alt_sys_init
00825d58 g     F .text	000000b0 alt_up_character_lcd_shift_display
0080ff90 g     F .text	00000098 __floatsisf
00802cf4 g     F .text	00000084 dir_createDirectoryEntry
00824f58 g     F .text	00000104 alt_up_audio_read_fifo
0080a418 g     F .text	0000007c part_isFatPart
00827194 g     F .text	00000134 __register_exitproc
0082a78d g     O .bss	00000001 OSTaskCtr
0082596c g     F .text	00000064 alt_up_av_config_write_LTM_cfg_register
00824b64 g     F .text	00000050 alt_up_audio_disable_write_interrupt
00809f5c g     F .text	00000120 if_spiSend
008236a4 g     F .text	00000174 OSTimeDlyHMSM
00818470 g     F .text	000001e8 __multiply
008077fc g     F .text	0000002c ioman_getBuffer
00825e08 g     F .text	00000090 alt_up_character_lcd_erase_pos
0080de3c g     F .text	00001300 __ieee754_pow
0082423c g     F .text	00000074 altera_avalon_jtag_uart_close
0080d9b4 g     F .text	00000488 pow
0080bb80 g     F .text	000000f8 I2C_WriteToDevice
0082a7c4 g     O .bss	00000028 __malloc_current_mallinfo
0082a6a2 g     O .rwdata	00000002 OSEventMax
0081801c g     F .text	0000017c __d2b
0080735c g     F .text	0000003c fs_umount
008217bc g     F .text	00000128 OSSemPost
00806db8 g     F .text	00000024 fs_giveFreeClusterHint
0080a8d8 g     F .text	00000054 memClr
008082b4 g     F .text	0000008c ioman_writeSector
0081c3a8 g     F .text	000000e4 OSSchedUnlock
0080713c g     F .text	000000d8 fs_getLastCluster
00823be8 g     F .text	00000058 altera_avalon_jtag_uart_read_fd
00826fe0 g     F .text	000000f4 alt_get_fd
0082a790 g     O .bss	00000004 OSMemFreeList
0081c4fc g     F .text	000000ac OSStatInit
00826054 g     F .text	0000014c alt_busy_sleep
0081eedc g     F .text	000000d4 OSFlagQuery
00811a54 g     F .text	000000c8 __fpcmp_parts_d
00808ef0 g     F .text	000000e0 ioman_releaseSector
0082a6d8 g     O .rwdata	00000002 OSTaskCreateExtEn
00819674 g     F .text	00000070 _close_r
00824b18 g     F .text	0000004c alt_up_audio_enable_write_interrupt
00827120 g     F .text	00000074 memcmp
0081c808 g     F .text	0000001c OS_Dummy
00823c98 g     F .text	00000048 altera_avalon_jtag_uart_close_fd
0093dff0 g       *ABS*	00000000 __alt_stack_base
00823ce0 g     F .text	00000050 altera_avalon_jtag_uart_ioctl_fd
00893db4 g     O .bss	0003ddb8 crash
00806a74 g     F .text	000000c0 fs_findFirstSectorRootDir
00807544 g     F .text	000000d0 fs_setFsInfo
00814b8c g     F .text	0000013c __swsetup_r
0093c2dc g     O .bss	000001e0 OSQTbl
00810a04 g     F .text	00000258 __divdf3
0080be6c g     F .text	000000f4 I2C_ReadFromDevice
00824ac8 g     F .text	00000050 alt_up_audio_disable_read_interrupt
00816894 g     F .text	000000f0 __sfp
00817e80 g     F .text	00000058 __copybits
00828fa0 g     O .rwdata	00000408 __malloc_av_
00802d78 g     F .text	000000b0 dir_createDefaultEntry
00816728 g     F .text	00000004 __sinit_lock_release
008014f8 g     F .text	00000fe8 MPU9250SelfTest
0080c268 g     F .text	00000078 i2c_stop
0082a794 g     O .bss	00000004 OSTCBHighRdy
00810640 g     F .text	000003c4 __muldf3
008192e0 g     F .text	00000060 __sread
00827f2c g     O .rodata	00000010 __thenan_sf
0082a798 g     O .bss	00000004 OSQFreeList
00826ec0 g     F .text	00000120 alt_find_file
008090f8 g     F .text	0000016c ioman_directSectorWrite
008261a0 g     F .text	000000b4 alt_dev_llist_insert
0081b64c g     F .text	00000108 __malloc_lock
0081b1f0 g     F .text	000000bc sbrk
0080a86c g     F .text	0000006c memCpy
0080a504 g     F .text	00000070 part_writeBuf
0081b954 g     F .text	00000144 OSEventNameSet
00816494 g     F .text	000001fc _fflush_r
008195c0 g     F .text	000000b4 _calloc_r
0082a79c g     O .bss	00000001 OSRdyGrp
00809ea4 g     F .text	0000004c if_writeBuf
00807614 g     F .text	00000078 ioman_init
0080985c g     F .text	00000090 ls_isValidFileEntry
00809408 g     F .text	000000b8 ls_openDir
0082a714 g       *ABS*	00000000 __bss_start
00808b10 g     F .text	000000d4 ioman_flushAll
00817948 g     F .text	00000098 memset
0080d0d4 g     F .text	0000061c main
00824e04 g     F .text	00000074 alt_up_audio_write_fifo_space
0082a758 g     O .bss	00000004 alt_envp
0082a734 g     O .bss	00000004 __malloc_max_total_mem
00823c40 g     F .text	00000058 altera_avalon_jtag_uart_write_fd
0080c424 g     F .text	0000016c i2c_read
0081952c g     F .text	0000001c __swbuf
00828a14 g     O .rodata	00000100 OSUnMapTbl
0080ff18 g     F .text	00000078 __ltsf2
0080aff4 g     F .text	000000d4 sd_writeSector
0082a6d2 g     O .rwdata	00000002 OSSemEn
00825ca8 g     F .text	000000b0 alt_up_character_lcd_shift_cursor
0081eb34 g     F .text	000003a8 OSFlagPost
008039e4 g     F .text	00000098 ex_getb32
008191f4 g     F .text	00000008 __sclose
0080f468 g     F .text	00000008 matherr
01000000 g       *ABS*	00000000 __alt_heap_limit
008197f4 g     F .text	00000014 fclose
0081c9b8 g     F .text	00000110 OS_EventTaskWait
008d1b6c g     O .bss	00002000 task2_stk
00811034 g     F .text	00000074 __truncdfsf2
0081d5a4 g     F .text	000000c8 OS_TaskStatStkChk
0093de60 g     O .bss	00000190 _atexit0
0082286c g     F .text	00000170 OSTaskDelReq
00814ee0 g     F .text	000015b4 _dtoa_r
00811b54 g     F .text	00000740 _malloc_r
0082a684 g     O .rwdata	00000004 alt_errno
0081c48c g     F .text	00000070 OSStart
0081b5f0 g     F .text	0000005c __env_unlock
00817474 g     F .text	000000b8 _fwalk
00822d58 g     F .text	00000218 OSTaskResume
0081fa50 g     F .text	000000fc OSMemQuery
0082a6e4 g     O .rwdata	00000002 OSTaskStatEn
00803cb0 g     F .text	00000028 ex_setPartitionField
00807bf0 g     F .text	00000094 ioman_incRefCnt
0082a6be g     O .rwdata	00000002 OSMemMax
00820968 g     F .text	00000188 OSQPostFront
008189d4 g     F .text	00000104 putc
00811124 g     F .text	00000060 __divsi3
0082a79d g     O .bss	00000003 OSRdyTbl
0082a698 g     O .rwdata	00000002 OSDebugEn
00827f3c g     O .rodata	00000014 __thenan_df
00825ab4 g     F .text	00000040 alt_up_character_lcd_open_dev
00816ad0 g     F .text	0000012c _malloc_trim_r
008274ec g       *ABS*	00000000 __CTOR_END__
0080fb4c g     F .text	000001e0 __mulsf3
0080f41c g     F .text	0000001c finite
0082a6b0 g     O .rwdata	00000002 OSFlagNodeSize
00802fd8 g     F .text	00000158 dir_findFileinBuf
0082a6f8 g     O .rwdata	00000002 OSTmrCfgMax
00825a80 g     F .text	00000034 alt_up_character_lcd_init
008001a0 g     F .text	00000100 readGyroData
00819340 g     F .text	000000bc strcmp
0081fd70 g     F .text	00000214 OSQCreate
008229dc g     F .text	000001b8 OSTaskNameGet
00820af0 g     F .text	00000234 OSQPostOpt
0081c5a8 g     F .text	00000240 OSTimeTick
0082a6e0 g     O .rwdata	00000002 OSTaskMax
008274ec g       *ABS*	00000000 __DTOR_LIST__
00821010 g     F .text	00000114 OSSemCreate
0082a704 g     O .rwdata	00000002 OSTmrWheelSize
00807828 g     F .text	000000e4 ioman_setAttr
0080439c g     F .text	000000b4 fat_isEocMarker
0080f870 g     F .text	00000024 copysign
0080b708 g     F .text	00000140 rmfile
00810ce4 g     F .text	00000088 __nedf2
008d3b6c g     O .bss	0000001c drums
0082a6da g     O .rwdata	00000002 OSTaskDelEn
00808fd0 g     F .text	00000128 ioman_directSectorRead
01880000 g       *ABS*	00000000 __alt_mem_sram_0
0080a62c g     F .text	0000004c part_relSect
00825248 g     F .text	00000064 alt_up_av_config_open_dev
0080a340 g     F .text	00000028 ramdisk_init
00807d74 g     F .text	000001d4 ioman_pop
0080a678 g     F .text	00000084 part_flushPart
008218e4 g     F .text	00000130 OSSemQuery
0081ff84 g     F .text	00000300 OSQDel
0082066c g     F .text	0000017c OSQPendAbort
00823af0 g     F .text	00000034 alt_irq_init
0081b190 g     F .text	00000060 alt_release_fd
00803a7c g     F .text	00000058 ex_setb16
00804c64 g     F .text	000002cc fat_allocClusterChain
00804450 g     F .text	00000088 fat_giveEocMarker
0080b408 g     F .text	00000300 listFiles
0080790c g     F .text	00000088 ioman_getAttr
00807b28 g     F .text	0000005c ioman_resetUseCnt
00825e98 g     F .text	00000034 alt_up_character_lcd_cursor_off
00827f50 g     O .rodata	00000100 __clz_tab
008051dc g     F .text	00000298 file_fread
0082a744 g     O .bss	00000004 _PathLocale
0080b3e8 g     F .text	00000020 fs_hasTimeSupport
01400000 g       *ABS*	00000000 __alt_mem_generic_tristate_controller_0
008270d4 g     F .text	00000014 atexit
00819548 g     F .text	00000078 _write_r
008254a4 g     F .text	00000038 alt_up_av_config_read_ready
0080a7d4 g     F .text	00000098 strMatch
0081c31c g     F .text	0000008c OSSchedLock
008175d4 g     F .text	0000001c setlocale
0081de0c g     F .text	0000013c OSFlagCreate
0080bb10 g     F .text	00000038 I2C_Start
0082a658 g     O .rwdata	00000004 _impure_ptr
0080a07c g     F .text	000000d0 if_spi_sendbuf
0082a750 g     O .bss	00000004 alt_argc
0080f690 g     F .text	000001e0 scalbn
00802bb0 g     F .text	00000088 setDrum
00826318 g     F .text	00000064 _do_dtors
0080c168 g     F .text	00000078 i2c_selectAddress
0082a6aa g     O .rwdata	00000002 OSEventMultiEn
008024e0 g     F .text	000001b0 audioInit
0081df48 g     F .text	000002a8 OSFlagDel
00800000 g       *ABS*	00000000 __alt_mem_sdram_0
0082a7a0 g     O .bss	00000004 OSEventFreeList
01904020 g       .exceptions	00000000 alt_irq_entry
00817b9c g     F .text	00000080 __ulp
008191b4 g     F .text	00000040 __isinfd
0081e488 g     F .text	00000644 OSFlagPend
0082a6f6 g     O .rwdata	00000002 OSTmrEn
008167e0 g     F .text	00000018 __fp_unlock_all
00816984 g     F .text	00000064 fputc
0082a670 g     O .rwdata	00000008 alt_fs_list
0081d3a8 g     F .text	00000080 OS_StrCopy
00824d94 g     F .text	00000070 alt_up_audio_record_l
00806278 g     F .text	0000008c file_setAttr
0082a6c0 g     O .rwdata	00000002 OSMemNameSize
0080f470 g     F .text	00000010 nan
00826e68 g     F .text	0000001c OSInitHookEnd
00806d38 g     F .text	00000080 fs_getNextFreeCluster
0082a6ec g     O .rwdata	00000002 OSTCBPrioTblMax
00817540 g     F .text	00000010 localeconv
0080f13c g     F .text	000002c8 __ieee754_sqrt
0082a6e8 g     O .rwdata	00000002 OSTaskStatStkChkEn
00805d5c g     F .text	00000100 file_fclose
008253d4 g     F .text	00000038 alt_up_av_config_enable_interrupt
00807b84 g     F .text	0000006c ioman_getRefCnt
0082a6bc g     O .rwdata	00000002 OSMemEn
0082a6c6 g     O .rwdata	00000002 OSMutexEn
0082543c g     F .text	00000068 alt_up_av_config_read_acknowledge
00807d18 g     F .text	0000005c ioman_resetRefCnt
008257dc g     F .text	00000064 alt_up_av_config_write_DC2_cfg_register
0082a714 g       *ABS*	00000000 _edata
00805008 g     F .text	000000a4 fat_countClustersInChain
0093dff0 g       *ABS*	00000000 _end
00802ed0 g     F .text	00000080 dir_setFileSize
0082a7a4 g     O .bss	00000001 OSIntNesting
00806704 g     F .text	0000019c fs_verifySanity
00803614 g     F .text	000000d4 dir_getFatFileName
008242b0 g     F .text	000000f4 altera_avalon_jtag_uart_ioctl
00816a40 g     F .text	00000074 _fputs_r
00809990 g     F .text	000003e4 mkfs_makevfat
008037c0 g     F .text	0000009c disc_loadMBR
00823818 g     F .text	00000210 OSTimeDlyResume
00804f30 g     F .text	000000d8 fat_unlinkClusterChain
0081e334 g     F .text	00000154 OSFlagNameSet
008d3b88 g     O .bss	0000710c snare
00824ee8 g     F .text	00000070 alt_up_audio_play_l
00822f70 g     F .text	000001fc OSTaskStkChk
0082a6c2 g     O .rwdata	00000002 OSMemSize
00802c38 g     F .text	000000bc dir_getFileStructure
00819264 g     F .text	0000007c __swrite
0082a660 g     O .rwdata	00000004 __malloc_trim_threshold
00812334 g     F .text	0000006c _perror_r
008269b8 g     F .text	00000020 altera_nios2_qsys_irq_init
0082a7a8 g     O .bss	00000004 OSTCBCur
008270e8 g     F .text	00000038 exit
0082a6c4 g     O .rwdata	00000002 OSMemTblSize
008173ac g     F .text	000000c8 _fwalk_reent
0081007c g     F .text	000000c0 __floatunsisf
00818198 g     F .text	0000018c __mdiff
00825908 g     F .text	00000064 alt_up_av_config_read_LTM_cfg_register
00811184 g     F .text	00000060 __modsi3
01000000 g       *ABS*	00000000 __alt_data_end
01904020 g     F .exceptions	00000000 alt_exception
00816720 g     F .text	00000004 __sfp_lock_release
0081c14c g     F .text	00000054 OSInit
00823398 g     F .text	00000144 OSTaskQuery
00809e54 g     F .text	00000050 if_readBuf
00807a00 g     F .text	00000094 ioman_incUseCnt
00825b6c g     F .text	00000078 alt_up_character_lcd_string
00820ea4 g     F .text	000000ac OS_QInit
0081d428 g     F .text	00000058 OS_StrLen
00800074 g     F .text	0000002c getGres
0081f840 g     F .text	00000120 OSMemNameSet
0080a14c g     F .text	000000e8 if_spi_readbuf
0080abf8 g     F .text	00000068 sd_Resp16b
00807448 g     F .text	000000fc fs_getFsInfo
0082a6de g     O .rwdata	00000002 OSTaskProfileEn
0080d770 g     F .text	00000128 sdRead
0082a7ac g     O .bss	00000004 OSTime
0080bb48 g     F .text	00000038 I2C_Stop
00811534 g     F .text	000000a8 __fpcmp_parts_f
0093c4bc g     O .bss	00000800 OSTaskIdleStk
008274bc g     F .text	0000002c _exit
0080f438 g     F .text	00000030 __isnand
00825f00 g     F .text	00000154 alt_alarm_start
0081e1f0 g     F .text	00000144 OSFlagNameGet
00823a28 g     F .text	00000064 OSTimeGet
008111f4 g     F .text	00000098 __muldi3
008175f0 g     F .text	00000194 __smakebuf_r
00805544 g     F .text	00000054 file_setpos
00805e5c g     F .text	000000bc file_initFile
00812be8 g     F .text	00000074 strlen
00826df8 g     F .text	0000001c OSTaskSwHook
00826628 g     F .text	00000188 open
0093ccbc g     O .bss	00000b40 OSEventTbl
0081a568 g     F .text	00000088 __gedf2
00807268 g     F .text	00000060 fs_initClusterChain
008005f8 g     F .text	00000f00 calibrateMPU9250
0093d7fc g     O .bss	00000510 OSTCBTbl
00821a14 g     F .text	00000104 OSSemSet
00825588 g     F .text	000000f8 alt_up_av_config_read_video_cfg_register
00808340 g     F .text	000000a0 ioman_resetCacheItem
00816ab4 g     F .text	0000001c fputs
00825c30 g     F .text	00000078 alt_up_character_lcd_set_cursor_pos
0082a688 g     O .rwdata	00000004 alt_priority_mask
00806b34 g     F .text	0000003c fs_initCurrentDir
00821124 g     F .text	000002a0 OSSemDel
0082a7b0 g     O .bss	00000004 OSFlagFreeList
0082a6a4 g     O .rwdata	00000002 OSEventNameSize
00814b68 g     F .text	00000024 __vfprintf_internal
0082a7b4 g     O .bss	00000001 OSStatRdy
008258a4 g     F .text	00000064 alt_up_av_config_write_D5M_cfg_register
0093dd0c g     O .bss	00000054 OSTCBPrioTbl
0081b544 g     F .text	000000ac __env_lock
0082a6ea g     O .rwdata	00000002 OSTaskSwHookEn
00807398 g     F .text	000000b0 fs_clearCluster
0081054c g     F .text	00000080 __subdf3
0080a768 g     F .text	0000006c part_directSectorWrite
0080c0bc g     F .text	000000ac I2C_ReadMore
0080ae38 g     F .text	000001bc sd_State
00817a78 g     F .text	000000c4 __lo0bits
0080a988 g     F .text	00000140 sd_Init
0082a70c g     O .rwdata	00000008 alt_alarm_list
0082a6b2 g     O .rwdata	00000002 OSFlagWidth
008262b4 g     F .text	00000064 _do_ctors
00803130 g     F .text	000000f8 dir_findFreeEntryinBuf
0081a85c g     F .text	000000fc close
0080fae8 g     F .text	00000064 __addsf3
0082a760 g     O .bss	00000004 alt_envsem
0082a7b8 g     O .bss	00000004 OSIdleCtrRun
00809d74 g     F .text	000000e0 if_initInterface
0081c7e8 g     F .text	00000020 OSVersion
00805598 g     F .text	0000034c file_fwrite
0082a6fc g     O .rwdata	00000002 OSTmrCfgWheelSize
00824a7c g     F .text	0000004c alt_up_audio_enable_read_interrupt
008234dc g     F .text	0000007c OS_TaskStkClr
00825680 g     F .text	000000f8 alt_up_av_config_write_video_cfg_register
00811608 g     F .text	00000314 __pack_d
0082a6d6 g     O .rwdata	00000002 OSTaskCreateEn
0081cdd8 g     F .text	00000068 OS_EventWaitListInit
008dac94 g     O .bss	0005fea8 hihat
00826e84 g     F .text	0000001c OSTaskIdleHook
00811b2c g     F .text	00000014 free
00816724 g     F .text	00000004 __sinit_lock_acquire
00818694 g     F .text	00000100 __multadd
0082316c g     F .text	0000022c OSTaskSuspend
008179e0 g     F .text	00000028 _Bfree
00806554 g     F .text	00000074 fs_isValidFat
00825778 g     F .text	00000064 alt_up_av_config_read_DC2_cfg_register
0081d480 g     F .text	0000005c OS_TaskIdle
0082a702 g     O .rwdata	00000002 OSTmrTblSize
00824bb4 g     F .text	0000003c alt_up_audio_read_interrupt_pending
00820d24 g     F .text	00000180 OSQQuery



Disassembly of section .exceptions:

01904020 <alt_exception>:
         * Process an exception.  For all exceptions we must preserve all
         * caller saved registers on the stack (See the Nios2 ABI
         * documentation for details).
         */

        addi  sp, sp, -76
 1904020:	deffed04 	addi	sp,sp,-76

#endif

#endif

        stw   ra,  0(sp)
 1904024:	dfc00015 	stw	ra,0(sp)
        /*
         * Leave a gap in the stack frame at 4(sp) for the muldiv handler to
         * store zero into.
         */

        stw   r1,   8(sp)
 1904028:	d8400215 	stw	at,8(sp)
        stw   r2,  12(sp)
 190402c:	d8800315 	stw	r2,12(sp)
        stw   r3,  16(sp)
 1904030:	d8c00415 	stw	r3,16(sp)
        stw   r4,  20(sp)
 1904034:	d9000515 	stw	r4,20(sp)
        stw   r5,  24(sp)
 1904038:	d9400615 	stw	r5,24(sp)
        stw   r6,  28(sp)
 190403c:	d9800715 	stw	r6,28(sp)
        stw   r7,  32(sp)
 1904040:	d9c00815 	stw	r7,32(sp)

        rdctl r5, estatus
 1904044:	000b307a 	rdctl	r5,estatus

        stw   r8,  36(sp)
 1904048:	da000915 	stw	r8,36(sp)
        stw   r9,  40(sp)
 190404c:	da400a15 	stw	r9,40(sp)
        stw   r10, 44(sp)
 1904050:	da800b15 	stw	r10,44(sp)
        stw   r11, 48(sp)
 1904054:	dac00c15 	stw	r11,48(sp)
        stw   r12, 52(sp)
 1904058:	db000d15 	stw	r12,52(sp)
        stw   r13, 56(sp)
 190405c:	db400e15 	stw	r13,56(sp)
        stw   r14, 60(sp)
 1904060:	db800f15 	stw	r14,60(sp)
        stw   r15, 64(sp)
 1904064:	dbc01015 	stw	r15,64(sp)
        /*
         * ea-4 contains the address of the instruction being executed
         * when the exception occured. For interrupt exceptions, we will
         * will be re-issue the isntruction. Store it in 72(sp)
         */
        stw   r5,  68(sp)  /* estatus */
 1904068:	d9401115 	stw	r5,68(sp)
        addi  r15, ea, -4  /* instruction that caused exception */
 190406c:	ebffff04 	addi	r15,ea,-4
        stw   r15,  72(sp)
 1904070:	dbc01215 	stw	r15,72(sp)
#else
        /*
         * Test to see if the exception was a software exception or caused 
         * by an external interrupt, and vector accordingly.
         */
        rdctl r4, ipending
 1904074:	0009313a 	rdctl	r4,ipending
        andi  r2, r5, 1
 1904078:	2880004c 	andi	r2,r5,1
        beq   r2, zero, .Lnot_irq
 190407c:	10000326 	beq	r2,zero,190408c <alt_exception+0x6c>
        beq   r4, zero, .Lnot_irq
 1904080:	20000226 	beq	r4,zero,190408c <alt_exception+0x6c>
        /*
         * Now that all necessary registers have been preserved, call 
         * alt_irq_handler() to process the interrupts.
         */

        call alt_irq_handler
 1904084:	19040ec0 	call	19040ec <alt_irq_handler>

        .section .exceptions.irqreturn, "xa"

        br    .Lexception_exit
 1904088:	00000306 	br	1904098 <alt_exception+0x78>
         * upon completion, so we write ea (address of instruction *after*
         * the one where the exception occured) into 72(sp). The actual
         * instruction that caused the exception is written in r2, which these
         * handlers will utilize.
         */
        stw   ea,  72(sp)  /* Don't re-issue */
 190408c:	df401215 	stw	ea,72(sp)
        ldw   r2, -4(ea)   /* Instruction that caused exception */
 1904090:	e8bfff17 	ldw	r2,-4(ea)
#ifdef NIOS2_HAS_DEBUG_STUB
       /*
        *  Either tell the user now (if there is a debugger attached) or go into
        *  the debug monitor which will loop until a debugger is attached.
        */
        break
 1904094:	003da03a 	break	0
        /* 
         * Restore the saved registers, so that all general purpose registers 
         * have been restored to their state at the time the interrupt occured.
         */

        ldw   r5,  68(sp)
 1904098:	d9401117 	ldw	r5,68(sp)
        ldw   ea,  72(sp)  /* This becomes the PC once eret is executed */
 190409c:	df401217 	ldw	ea,72(sp)
        ldw   ra,   0(sp)
 19040a0:	dfc00017 	ldw	ra,0(sp)

        wrctl estatus, r5
 19040a4:	2801707a 	wrctl	estatus,r5

        ldw   r1,   8(sp)
 19040a8:	d8400217 	ldw	at,8(sp)
        ldw   r2,  12(sp)
 19040ac:	d8800317 	ldw	r2,12(sp)
        ldw   r3,  16(sp)
 19040b0:	d8c00417 	ldw	r3,16(sp)
        ldw   r4,  20(sp)
 19040b4:	d9000517 	ldw	r4,20(sp)
        ldw   r5,  24(sp)
 19040b8:	d9400617 	ldw	r5,24(sp)
        ldw   r6,  28(sp)
 19040bc:	d9800717 	ldw	r6,28(sp)
        ldw   r7,  32(sp)
 19040c0:	d9c00817 	ldw	r7,32(sp)
#ifdef ALT_STACK_CHECK
        ldw   et, %gprel(alt_exception_old_stack_limit)(gp)
#endif
#endif

        ldw   r8,  36(sp)
 19040c4:	da000917 	ldw	r8,36(sp)
        ldw   r9,  40(sp)
 19040c8:	da400a17 	ldw	r9,40(sp)
        ldw   r10, 44(sp)
 19040cc:	da800b17 	ldw	r10,44(sp)
        ldw   r11, 48(sp)
 19040d0:	dac00c17 	ldw	r11,48(sp)
        ldw   r12, 52(sp)
 19040d4:	db000d17 	ldw	r12,52(sp)
        ldw   r13, 56(sp)
 19040d8:	db400e17 	ldw	r13,56(sp)
        ldw   r14, 60(sp)
 19040dc:	db800f17 	ldw	r14,60(sp)
        ldw   r15, 64(sp)
 19040e0:	dbc01017 	ldw	r15,64(sp)
#endif

        ldw   sp,  76(sp)

#else
        addi  sp, sp, 76
 19040e4:	dec01304 	addi	sp,sp,76

        /*
         * Return to the interrupted instruction.
         */

        eret
 19040e8:	ef80083a 	eret

019040ec <alt_irq_handler>:
 * instruction is present if the macro ALT_CI_INTERRUPT_VECTOR defined.
 */

void alt_irq_handler (void) __attribute__ ((section (".exceptions")));
void alt_irq_handler (void)
{
 19040ec:	defff904 	addi	sp,sp,-28
 19040f0:	dfc00615 	stw	ra,24(sp)
 19040f4:	df000515 	stw	fp,20(sp)
 19040f8:	df000504 	addi	fp,sp,20
  
  /*
   * Notify the operating system that we are at interrupt level.
   */ 
  
  ALT_OS_INT_ENTER();
 19040fc:	081c1a00 	call	81c1a0 <OSIntEnter>
#ifndef NIOS2_EIC_PRESENT
static ALT_INLINE alt_u32 ALT_ALWAYS_INLINE alt_irq_pending (void)
{
  alt_u32 active;

  NIOS2_READ_IPENDING (active);
 1904100:	0005313a 	rdctl	r2,ipending
 1904104:	e0bffc15 	stw	r2,-16(fp)

  return active;
 1904108:	e0bffc17 	ldw	r2,-16(fp)
   * Consider the case where the high priority interupt is asserted during
   * the interrupt entry sequence for a lower priority interrupt to see why
   * this is the case.
   */

  active = alt_irq_pending ();
 190410c:	e0bfff15 	stw	r2,-4(fp)

  do
  {
    i = 0;
 1904110:	e03ffd15 	stw	zero,-12(fp)
    mask = 1;
 1904114:	00800044 	movi	r2,1
 1904118:	e0bffe15 	stw	r2,-8(fp)
     * called to clear the interrupt condition.
     */

    do
    {
      if (active & mask)
 190411c:	e0ffff17 	ldw	r3,-4(fp)
 1904120:	e0bffe17 	ldw	r2,-8(fp)
 1904124:	1884703a 	and	r2,r3,r2
 1904128:	1005003a 	cmpeq	r2,r2,zero
 190412c:	1000171e 	bne	r2,zero,190418c <alt_irq_handler+0xa0>
      { 
#ifdef ALT_ENHANCED_INTERRUPT_API_PRESENT
        alt_irq[i].handler(alt_irq[i].context); 
#else
        alt_irq[i].handler(alt_irq[i].context, i); 
 1904130:	e0bffd17 	ldw	r2,-12(fp)
 1904134:	00c02534 	movhi	r3,148
 1904138:	18f75804 	addi	r3,r3,-8864
 190413c:	100490fa 	slli	r2,r2,3
 1904140:	10c5883a 	add	r2,r2,r3
 1904144:	11800017 	ldw	r6,0(r2)
 1904148:	e0bffd17 	ldw	r2,-12(fp)
 190414c:	00c02534 	movhi	r3,148
 1904150:	18f75804 	addi	r3,r3,-8864
 1904154:	100490fa 	slli	r2,r2,3
 1904158:	10c5883a 	add	r2,r2,r3
 190415c:	10800104 	addi	r2,r2,4
 1904160:	11000017 	ldw	r4,0(r2)
 1904164:	e17ffd17 	ldw	r5,-12(fp)
 1904168:	303ee83a 	callr	r6
#ifndef NIOS2_EIC_PRESENT
static ALT_INLINE alt_u32 ALT_ALWAYS_INLINE alt_irq_pending (void)
{
  alt_u32 active;

  NIOS2_READ_IPENDING (active);
 190416c:	0005313a 	rdctl	r2,ipending
 1904170:	e0bffb15 	stw	r2,-20(fp)

  return active;
 1904174:	e0bffb17 	ldw	r2,-20(fp)
      mask <<= 1;
      i++;

    } while (1);

    active = alt_irq_pending ();
 1904178:	e0bfff15 	stw	r2,-4(fp)
    
  } while (active);
 190417c:	e0bfff17 	ldw	r2,-4(fp)
 1904180:	1004c03a 	cmpne	r2,r2,zero
 1904184:	103fe21e 	bne	r2,zero,1904110 <alt_irq_handler+0x24>
 1904188:	00000706 	br	19041a8 <alt_irq_handler+0xbc>
#else
        alt_irq[i].handler(alt_irq[i].context, i); 
#endif
        break;
      }
      mask <<= 1;
 190418c:	e0bffe17 	ldw	r2,-8(fp)
 1904190:	1085883a 	add	r2,r2,r2
 1904194:	e0bffe15 	stw	r2,-8(fp)
      i++;
 1904198:	e0bffd17 	ldw	r2,-12(fp)
 190419c:	10800044 	addi	r2,r2,1
 19041a0:	e0bffd15 	stw	r2,-12(fp)

    } while (1);
 19041a4:	003fdd06 	br	190411c <alt_irq_handler+0x30>

  /*
   * Notify the operating system that interrupt processing is complete.
   */ 

  ALT_OS_INT_EXIT();
 19041a8:	081c21c0 	call	81c21c <OSIntExit>
}
 19041ac:	e037883a 	mov	sp,fp
 19041b0:	dfc00117 	ldw	ra,4(sp)
 19041b4:	df000017 	ldw	fp,0(sp)
 19041b8:	dec00204 	addi	sp,sp,8
 19041bc:	f800283a 	ret

Disassembly of section .text:

00800000 <_start>:

    /* Assume the data cache size is always a power of two. */
#if NIOS2_DCACHE_SIZE > 0x8000
    movhi r2, %hi(NIOS2_DCACHE_SIZE)
#else
    movui r2, NIOS2_DCACHE_SIZE
  800000:	00820014 	movui	r2,2048
#endif

0:
    initd 0(r2)
  800004:	10000033 	initd	0(r2)
    addi r2, r2, -NIOS2_DCACHE_LINE_SIZE
  800008:	10bff804 	addi	r2,r2,-32
    bgt r2, zero, 0b
  80000c:	00bffd16 	blt	zero,r2,800004 <_start+0x4>
#if (NIOS2_NUM_OF_SHADOW_REG_SETS == 0)    
    /*
     * Now that the caches are initialized, set up the stack pointer.
     * The value provided by the linker is assumed to be correctly aligned.
     */
    movhi sp, %hi(__alt_stack_pointer)
  800010:	06c04034 	movhi	sp,256
    ori sp, sp, %lo(__alt_stack_pointer)
  800014:	dec00014 	ori	sp,sp,0

    /* Set up the global pointer. */
    movhi gp, %hi(_gp)
  800018:	068020f4 	movhi	gp,131
    ori gp, gp, %lo(_gp)
  80001c:	d6899514 	ori	gp,gp,9812
 */
#ifndef ALT_SIM_OPTIMIZE
    /* Log that the BSS is about to be cleared. */
    ALT_LOG_PUTS(alt_log_msg_bss)

    movhi r2, %hi(__bss_start)
  800020:	008020b4 	movhi	r2,130
    ori r2, r2, %lo(__bss_start)
  800024:	10a9c514 	ori	r2,r2,42772

    movhi r3, %hi(__bss_end)
  800028:	00c024f4 	movhi	r3,147
    ori r3, r3, %lo(__bss_end)
  80002c:	18f7fc14 	ori	r3,r3,57328

    beq r2, r3, 1f
  800030:	10c00326 	beq	r2,r3,800040 <_start+0x40>

0:
    stw zero, (r2)
  800034:	10000015 	stw	zero,0(r2)
    addi r2, r2, 4
  800038:	10800104 	addi	r2,r2,4
    bltu r2, r3, 0b
  80003c:	10fffd36 	bltu	r2,r3,800034 <_start+0x34>

    /* Log that alt_main is about to be called. */
    ALT_LOG_PUTS(alt_log_msg_alt_main)

    /* Call the C entry point. It should never return. */
    call alt_main
  800040:	081af480 	call	81af48 <alt_main>

00800044 <alt_after_alt_main>:

    /* Wait in infinite loop in case alt_main does return. */
alt_after_alt_main:
    br alt_after_alt_main
  800044:	003fff06 	br	800044 <alt_after_alt_main>

00800048 <getAres>:
**************************************************************************/
/*
 * Sets the resolution of the accelerometer
 */

void getAres(float* aRes){
  800048:	defffe04 	addi	sp,sp,-8
  80004c:	df000115 	stw	fp,4(sp)
  800050:	df000104 	addi	fp,sp,4
  800054:	e13fff15 	stw	r4,-4(fp)
	// Possible accelerometer scales (and their register bit settings) are:
	// 2 Gs (00), 4 Gs (01), 8 Gs (10), and 16 Gs  (11).
	*aRes =  (float)2.0 / (float)32768.0;
  800058:	e0ffff17 	ldw	r3,-4(fp)
  80005c:	008e2034 	movhi	r2,14464
  800060:	18800015 	stw	r2,0(r3)
}
  800064:	e037883a 	mov	sp,fp
  800068:	df000017 	ldw	fp,0(sp)
  80006c:	dec00104 	addi	sp,sp,4
  800070:	f800283a 	ret

00800074 <getGres>:

/*
 * Sets the resolution of the gyroscope
 */
void getGres(float* gRes){
  800074:	defffe04 	addi	sp,sp,-8
  800078:	df000115 	stw	fp,4(sp)
  80007c:	df000104 	addi	fp,sp,4
  800080:	e13fff15 	stw	r4,-4(fp)
	// Possible gyro scales (and their register bit settings) are:
	// 250 DPS (00), 500 DPS (01), 1000 DPS (10), and 2000 DPS (11).
	*gRes =  (float)1000.0 / (float)32768.0;
  800084:	e0ffff17 	ldw	r3,-4(fp)
  800088:	008f3eb4 	movhi	r2,15610
  80008c:	18800015 	stw	r2,0(r3)
}
  800090:	e037883a 	mov	sp,fp
  800094:	df000017 	ldw	fp,0(sp)
  800098:	dec00104 	addi	sp,sp,4
  80009c:	f800283a 	ret

008000a0 <readAccelData>:

/*
 * Read the accelerometer data*/
void readAccelData(alt_16 * destination, alt_u32 scl_base, alt_u32 sda_base)
{
  8000a0:	defff604 	addi	sp,sp,-40
  8000a4:	dfc00915 	stw	ra,36(sp)
  8000a8:	df000815 	stw	fp,32(sp)
  8000ac:	df000804 	addi	fp,sp,32
  8000b0:	e13ffd15 	stw	r4,-12(fp)
  8000b4:	e17ffe15 	stw	r5,-8(fp)
  8000b8:	e1bfff15 	stw	r6,-4(fp)
  alt_u8 deviceAddress = 0xD0;
  8000bc:	00bff404 	movi	r2,-48
  8000c0:	e0bffb05 	stb	r2,-20(fp)
  alt_u8 rawData[6];  // x/y/z accel register data stored here
  // Read the six raw data registers into data array
  I2C_Start(scl_base, sda_base);
  8000c4:	e13ffe17 	ldw	r4,-8(fp)
  8000c8:	e17fff17 	ldw	r5,-4(fp)
  8000cc:	080bb100 	call	80bb10 <I2C_Start>
  I2C_ReadFromDeviceRegister(scl_base, sda_base, deviceAddress, ACCEL_XOUT_H, &rawData[0], 6, true);
  8000d0:	e0bffb03 	ldbu	r2,-20(fp)
  8000d4:	11803fcc 	andi	r6,r2,255
  8000d8:	3180201c 	xori	r6,r6,128
  8000dc:	31bfe004 	addi	r6,r6,-128
  8000e0:	e0bffb44 	addi	r2,fp,-19
  8000e4:	d8800015 	stw	r2,0(sp)
  8000e8:	00800184 	movi	r2,6
  8000ec:	d8800115 	stw	r2,4(sp)
  8000f0:	00800044 	movi	r2,1
  8000f4:	d8800215 	stw	r2,8(sp)
  8000f8:	e13ffe17 	ldw	r4,-8(fp)
  8000fc:	e17fff17 	ldw	r5,-4(fp)
  800100:	01c00ec4 	movi	r7,59
  800104:	080bf600 	call	80bf60 <I2C_ReadFromDeviceRegister>
  I2C_Stop(scl_base, sda_base);
  800108:	e13ffe17 	ldw	r4,-8(fp)
  80010c:	e17fff17 	ldw	r5,-4(fp)
  800110:	080bb480 	call	80bb48 <I2C_Stop>

  // Turn the MSB and LSB into a signed 16-bit value
  destination[0] = ((alt_16)rawData[0] << 8) | rawData[1] ;
  800114:	e0bffb43 	ldbu	r2,-19(fp)
  800118:	10803fcc 	andi	r2,r2,255
  80011c:	1004923a 	slli	r2,r2,8
  800120:	1007883a 	mov	r3,r2
  800124:	e0bffb83 	ldbu	r2,-18(fp)
  800128:	10803fcc 	andi	r2,r2,255
  80012c:	1884b03a 	or	r2,r3,r2
  800130:	1007883a 	mov	r3,r2
  800134:	e0bffd17 	ldw	r2,-12(fp)
  800138:	10c0000d 	sth	r3,0(r2)
  destination[1] = ((alt_16)rawData[2] << 8) | rawData[3] ;
  80013c:	e0bffd17 	ldw	r2,-12(fp)
  800140:	11000084 	addi	r4,r2,2
  800144:	e0bffbc3 	ldbu	r2,-17(fp)
  800148:	10803fcc 	andi	r2,r2,255
  80014c:	1004923a 	slli	r2,r2,8
  800150:	1007883a 	mov	r3,r2
  800154:	e0bffc03 	ldbu	r2,-16(fp)
  800158:	10803fcc 	andi	r2,r2,255
  80015c:	1884b03a 	or	r2,r3,r2
  800160:	2080000d 	sth	r2,0(r4)
  destination[2] = ((alt_16)rawData[4] << 8) | rawData[5] ;
  800164:	e0bffd17 	ldw	r2,-12(fp)
  800168:	11000104 	addi	r4,r2,4
  80016c:	e0bffc43 	ldbu	r2,-15(fp)
  800170:	10803fcc 	andi	r2,r2,255
  800174:	1004923a 	slli	r2,r2,8
  800178:	1007883a 	mov	r3,r2
  80017c:	e0bffc83 	ldbu	r2,-14(fp)
  800180:	10803fcc 	andi	r2,r2,255
  800184:	1884b03a 	or	r2,r3,r2
  800188:	2080000d 	sth	r2,0(r4)
  //printf("destination[0] %d\n", destination[0]);
  //printf("destination[1] %d\n", destination[1]);
  //printf("destination[2] %d\n", destination[2]);
}
  80018c:	e037883a 	mov	sp,fp
  800190:	dfc00117 	ldw	ra,4(sp)
  800194:	df000017 	ldw	fp,0(sp)
  800198:	dec00204 	addi	sp,sp,8
  80019c:	f800283a 	ret

008001a0 <readGyroData>:

/* Read the gyroscope data*/
void readGyroData(alt_16 * destination, alt_u32 scl_base, alt_u32 sda_base)
{
  8001a0:	defff604 	addi	sp,sp,-40
  8001a4:	dfc00915 	stw	ra,36(sp)
  8001a8:	df000815 	stw	fp,32(sp)
  8001ac:	df000804 	addi	fp,sp,32
  8001b0:	e13ffd15 	stw	r4,-12(fp)
  8001b4:	e17ffe15 	stw	r5,-8(fp)
  8001b8:	e1bfff15 	stw	r6,-4(fp)
  alt_u8 deviceAddress = 0xD0;
  8001bc:	00bff404 	movi	r2,-48
  8001c0:	e0bffb05 	stb	r2,-20(fp)
  alt_u8 rawData[6];  // x/y/z gyro register data stored here
  // Read the six raw data registers sequentially into data array
  I2C_Start(scl_base, sda_base);
  8001c4:	e13ffe17 	ldw	r4,-8(fp)
  8001c8:	e17fff17 	ldw	r5,-4(fp)
  8001cc:	080bb100 	call	80bb10 <I2C_Start>
  I2C_ReadFromDeviceRegister(scl_base, sda_base, deviceAddress, GYRO_XOUT_H, &rawData[0], 6, true);
  8001d0:	e0bffb03 	ldbu	r2,-20(fp)
  8001d4:	11803fcc 	andi	r6,r2,255
  8001d8:	3180201c 	xori	r6,r6,128
  8001dc:	31bfe004 	addi	r6,r6,-128
  8001e0:	e0bffb44 	addi	r2,fp,-19
  8001e4:	d8800015 	stw	r2,0(sp)
  8001e8:	00800184 	movi	r2,6
  8001ec:	d8800115 	stw	r2,4(sp)
  8001f0:	00800044 	movi	r2,1
  8001f4:	d8800215 	stw	r2,8(sp)
  8001f8:	e13ffe17 	ldw	r4,-8(fp)
  8001fc:	e17fff17 	ldw	r5,-4(fp)
  800200:	01c010c4 	movi	r7,67
  800204:	080bf600 	call	80bf60 <I2C_ReadFromDeviceRegister>
  I2C_Stop(scl_base, sda_base);
  800208:	e13ffe17 	ldw	r4,-8(fp)
  80020c:	e17fff17 	ldw	r5,-4(fp)
  800210:	080bb480 	call	80bb48 <I2C_Stop>

  // Turn the MSB and LSB into a signed 16-bit value
  destination[0] = ((alt_16)rawData[0] << 8) | rawData[1] ;
  800214:	e0bffb43 	ldbu	r2,-19(fp)
  800218:	10803fcc 	andi	r2,r2,255
  80021c:	1004923a 	slli	r2,r2,8
  800220:	1007883a 	mov	r3,r2
  800224:	e0bffb83 	ldbu	r2,-18(fp)
  800228:	10803fcc 	andi	r2,r2,255
  80022c:	1884b03a 	or	r2,r3,r2
  800230:	1007883a 	mov	r3,r2
  800234:	e0bffd17 	ldw	r2,-12(fp)
  800238:	10c0000d 	sth	r3,0(r2)
  destination[1] = ((alt_16)rawData[2] << 8) | rawData[3] ;
  80023c:	e0bffd17 	ldw	r2,-12(fp)
  800240:	11000084 	addi	r4,r2,2
  800244:	e0bffbc3 	ldbu	r2,-17(fp)
  800248:	10803fcc 	andi	r2,r2,255
  80024c:	1004923a 	slli	r2,r2,8
  800250:	1007883a 	mov	r3,r2
  800254:	e0bffc03 	ldbu	r2,-16(fp)
  800258:	10803fcc 	andi	r2,r2,255
  80025c:	1884b03a 	or	r2,r3,r2
  800260:	2080000d 	sth	r2,0(r4)
  destination[2] = ((alt_16)rawData[4] << 8) | rawData[5] ;
  800264:	e0bffd17 	ldw	r2,-12(fp)
  800268:	11000104 	addi	r4,r2,4
  80026c:	e0bffc43 	ldbu	r2,-15(fp)
  800270:	10803fcc 	andi	r2,r2,255
  800274:	1004923a 	slli	r2,r2,8
  800278:	1007883a 	mov	r3,r2
  80027c:	e0bffc83 	ldbu	r2,-14(fp)
  800280:	10803fcc 	andi	r2,r2,255
  800284:	1884b03a 	or	r2,r3,r2
  800288:	2080000d 	sth	r2,0(r4)
}
  80028c:	e037883a 	mov	sp,fp
  800290:	dfc00117 	ldw	ra,4(sp)
  800294:	df000017 	ldw	fp,0(sp)
  800298:	dec00204 	addi	sp,sp,8
  80029c:	f800283a 	ret

008002a0 <initMPU9250>:

/*
 * Initialize the IMU to Active/Read mode
 * */
void initMPU9250(alt_u32 scl_base, alt_u32 sda_base){
  8002a0:	defff804 	addi	sp,sp,-32
  8002a4:	dfc00715 	stw	ra,28(sp)
  8002a8:	df000615 	stw	fp,24(sp)
  8002ac:	df000604 	addi	fp,sp,24
  8002b0:	e13ffe15 	stw	r4,-8(fp)
  8002b4:	e17fff15 	stw	r5,-4(fp)
  alt_u8 deviceAddress = 0xD0;
  8002b8:	00bff404 	movi	r2,-48
  8002bc:	e0bffd45 	stb	r2,-11(fp)
  alt_u8 c;
  // wake up device
  // Clear sleep mode bit (6), enable all sensors
  I2C_Start(scl_base, sda_base);
  8002c0:	e13ffe17 	ldw	r4,-8(fp)
  8002c4:	e17fff17 	ldw	r5,-4(fp)
  8002c8:	080bb100 	call	80bb10 <I2C_Start>
  I2C_WriteToDeviceRegister(scl_base, sda_base, deviceAddress, PWR_MGMT_1, 0x00, 1);
  8002cc:	e0bffd43 	ldbu	r2,-11(fp)
  8002d0:	11803fcc 	andi	r6,r2,255
  8002d4:	3180201c 	xori	r6,r6,128
  8002d8:	31bfe004 	addi	r6,r6,-128
  8002dc:	d8000015 	stw	zero,0(sp)
  8002e0:	00800044 	movi	r2,1
  8002e4:	d8800115 	stw	r2,4(sp)
  8002e8:	e13ffe17 	ldw	r4,-8(fp)
  8002ec:	e17fff17 	ldw	r5,-4(fp)
  8002f0:	01c01ac4 	movi	r7,107
  8002f4:	080bc780 	call	80bc78 <I2C_WriteToDeviceRegister>

  OSTimeDlyHMSM(0, 0, 0, 100); ; // Wait for all registers to reset
  8002f8:	0009883a 	mov	r4,zero
  8002fc:	000b883a 	mov	r5,zero
  800300:	000d883a 	mov	r6,zero
  800304:	01c01904 	movi	r7,100
  800308:	08236a40 	call	8236a4 <OSTimeDlyHMSM>

  // Get stable time source
  // Auto select clock source to be PLL gyroscope reference if ready else
  I2C_WriteToDeviceRegister(scl_base, sda_base, deviceAddress, PWR_MGMT_1, 0x01, 1);
  80030c:	e0bffd43 	ldbu	r2,-11(fp)
  800310:	11803fcc 	andi	r6,r2,255
  800314:	3180201c 	xori	r6,r6,128
  800318:	31bfe004 	addi	r6,r6,-128
  80031c:	00800044 	movi	r2,1
  800320:	d8800015 	stw	r2,0(sp)
  800324:	00800044 	movi	r2,1
  800328:	d8800115 	stw	r2,4(sp)
  80032c:	e13ffe17 	ldw	r4,-8(fp)
  800330:	e17fff17 	ldw	r5,-4(fp)
  800334:	01c01ac4 	movi	r7,107
  800338:	080bc780 	call	80bc78 <I2C_WriteToDeviceRegister>

  OSTimeDlyHMSM(0, 0, 0, 200);
  80033c:	0009883a 	mov	r4,zero
  800340:	000b883a 	mov	r5,zero
  800344:	000d883a 	mov	r6,zero
  800348:	01c03204 	movi	r7,200
  80034c:	08236a40 	call	8236a4 <OSTimeDlyHMSM>
  // minimum delay time for this setting is 5.9 ms, which means sensor fusion
  // update rates cannot be higher than 1 / 0.0059 = 170 Hz
  // DLPF_CFG = bits 2:0 = 011; this limits the sample rate to 1000 Hz for both
  // With the MPU9250, it is possible to get gyro sample rates of 32 kHz (!),
  // 8 kHz, or 1 kHz
  I2C_WriteToDeviceRegister(scl_base, sda_base, deviceAddress, CONFIG, 0x03, 1);
  800350:	e0bffd43 	ldbu	r2,-11(fp)
  800354:	11803fcc 	andi	r6,r2,255
  800358:	3180201c 	xori	r6,r6,128
  80035c:	31bfe004 	addi	r6,r6,-128
  800360:	008000c4 	movi	r2,3
  800364:	d8800015 	stw	r2,0(sp)
  800368:	00800044 	movi	r2,1
  80036c:	d8800115 	stw	r2,4(sp)
  800370:	e13ffe17 	ldw	r4,-8(fp)
  800374:	e17fff17 	ldw	r5,-4(fp)
  800378:	01c00684 	movi	r7,26
  80037c:	080bc780 	call	80bc78 <I2C_WriteToDeviceRegister>

  // Set sample rate = gyroscope output rate/(1 + SMPLRT_DIV)
  // Use a 200 Hz rate; a rate consistent with the filter update rate
  // determined inset in CONFIG above.
  I2C_WriteToDeviceRegister(scl_base, sda_base, deviceAddress, SMPLRT_DIV, 0x04, 1);
  800380:	e0bffd43 	ldbu	r2,-11(fp)
  800384:	11803fcc 	andi	r6,r2,255
  800388:	3180201c 	xori	r6,r6,128
  80038c:	31bfe004 	addi	r6,r6,-128
  800390:	00800104 	movi	r2,4
  800394:	d8800015 	stw	r2,0(sp)
  800398:	00800044 	movi	r2,1
  80039c:	d8800115 	stw	r2,4(sp)
  8003a0:	e13ffe17 	ldw	r4,-8(fp)
  8003a4:	e17fff17 	ldw	r5,-4(fp)
  8003a8:	01c00644 	movi	r7,25
  8003ac:	080bc780 	call	80bc78 <I2C_WriteToDeviceRegister>

  // Set gyroscope full scale range
  // Range selects FS_SEL and AFS_SEL are 0 - 3, so 2-bit values are
  // left-shifted into positions 4:3
  I2C_Stop(scl_base, sda_base);
  8003b0:	e13ffe17 	ldw	r4,-8(fp)
  8003b4:	e17fff17 	ldw	r5,-4(fp)
  8003b8:	080bb480 	call	80bb48 <I2C_Stop>
  // get current GYRO_CONFIG register value
  I2C_Start(scl_base, sda_base);
  8003bc:	e13ffe17 	ldw	r4,-8(fp)
  8003c0:	e17fff17 	ldw	r5,-4(fp)
  8003c4:	080bb100 	call	80bb10 <I2C_Start>
  I2C_ReadFromDeviceRegister(scl_base, sda_base, deviceAddress, GYRO_CONFIG, c, 1, true);
  8003c8:	e0bffd43 	ldbu	r2,-11(fp)
  8003cc:	11803fcc 	andi	r6,r2,255
  8003d0:	3180201c 	xori	r6,r6,128
  8003d4:	31bfe004 	addi	r6,r6,-128
  8003d8:	e0bffd03 	ldbu	r2,-12(fp)
  8003dc:	d8800015 	stw	r2,0(sp)
  8003e0:	00800044 	movi	r2,1
  8003e4:	d8800115 	stw	r2,4(sp)
  8003e8:	00800044 	movi	r2,1
  8003ec:	d8800215 	stw	r2,8(sp)
  8003f0:	e13ffe17 	ldw	r4,-8(fp)
  8003f4:	e17fff17 	ldw	r5,-4(fp)
  8003f8:	01c006c4 	movi	r7,27
  8003fc:	080bf600 	call	80bf60 <I2C_ReadFromDeviceRegister>
  I2C_Stop(scl_base, sda_base);
  800400:	e13ffe17 	ldw	r4,-8(fp)
  800404:	e17fff17 	ldw	r5,-4(fp)
  800408:	080bb480 	call	80bb48 <I2C_Stop>
  // c = c & ~0xE0; // Clear self-test bits [7:5]
  c = c & ~0x02; // Clear Fchoice bits [1:0]
  80040c:	e0fffd03 	ldbu	r3,-12(fp)
  800410:	00bfff44 	movi	r2,-3
  800414:	1884703a 	and	r2,r3,r2
  800418:	e0bffd05 	stb	r2,-12(fp)
  c = c & ~0x18; // Clear AFS bits [4:3]
  80041c:	e0fffd03 	ldbu	r3,-12(fp)
  800420:	00bff9c4 	movi	r2,-25
  800424:	1884703a 	and	r2,r3,r2
  800428:	e0bffd05 	stb	r2,-12(fp)
  c = c | GFS_250DPS   << 3; // Set full scale range for the gyro
  // Set Fchoice for the gyro to 11 by writing its inverse to bits 1:0 of
  // GYRO_CONFIG
  // c =| 0x00;
  // Write new GYRO_CONFIG value to register
  I2C_Start(scl_base, sda_base);
  80042c:	e13ffe17 	ldw	r4,-8(fp)
  800430:	e17fff17 	ldw	r5,-4(fp)
  800434:	080bb100 	call	80bb10 <I2C_Start>
  I2C_WriteToDeviceRegister(scl_base, sda_base, deviceAddress, GYRO_CONFIG, c, 1);
  800438:	e0bffd43 	ldbu	r2,-11(fp)
  80043c:	11803fcc 	andi	r6,r2,255
  800440:	3180201c 	xori	r6,r6,128
  800444:	31bfe004 	addi	r6,r6,-128
  800448:	e0bffd03 	ldbu	r2,-12(fp)
  80044c:	d8800015 	stw	r2,0(sp)
  800450:	00800044 	movi	r2,1
  800454:	d8800115 	stw	r2,4(sp)
  800458:	e13ffe17 	ldw	r4,-8(fp)
  80045c:	e17fff17 	ldw	r5,-4(fp)
  800460:	01c006c4 	movi	r7,27
  800464:	080bc780 	call	80bc78 <I2C_WriteToDeviceRegister>
  I2C_Stop(scl_base, sda_base);
  800468:	e13ffe17 	ldw	r4,-8(fp)
  80046c:	e17fff17 	ldw	r5,-4(fp)
  800470:	080bb480 	call	80bb48 <I2C_Stop>

  // Set accelerometer full-scale range configuration
  // Get current ACCEL_CONFIG register value
  I2C_Start(scl_base, sda_base);
  800474:	e13ffe17 	ldw	r4,-8(fp)
  800478:	e17fff17 	ldw	r5,-4(fp)
  80047c:	080bb100 	call	80bb10 <I2C_Start>
  I2C_ReadFromDeviceRegister(scl_base, sda_base, deviceAddress, ACCEL_CONFIG, c, 1, true);
  800480:	e0bffd43 	ldbu	r2,-11(fp)
  800484:	11803fcc 	andi	r6,r2,255
  800488:	3180201c 	xori	r6,r6,128
  80048c:	31bfe004 	addi	r6,r6,-128
  800490:	e0bffd03 	ldbu	r2,-12(fp)
  800494:	d8800015 	stw	r2,0(sp)
  800498:	00800044 	movi	r2,1
  80049c:	d8800115 	stw	r2,4(sp)
  8004a0:	00800044 	movi	r2,1
  8004a4:	d8800215 	stw	r2,8(sp)
  8004a8:	e13ffe17 	ldw	r4,-8(fp)
  8004ac:	e17fff17 	ldw	r5,-4(fp)
  8004b0:	01c00704 	movi	r7,28
  8004b4:	080bf600 	call	80bf60 <I2C_ReadFromDeviceRegister>
  I2C_Stop(scl_base, sda_base);
  8004b8:	e13ffe17 	ldw	r4,-8(fp)
  8004bc:	e17fff17 	ldw	r5,-4(fp)
  8004c0:	080bb480 	call	80bb48 <I2C_Stop>
  // c = c & ~0xE0; // Clear self-test bits [7:5]
  c = c & ~0x18;  // Clear AFS bits [4:3]
  8004c4:	e0fffd03 	ldbu	r3,-12(fp)
  8004c8:	00bff9c4 	movi	r2,-25
  8004cc:	1884703a 	and	r2,r3,r2
  8004d0:	e0bffd05 	stb	r2,-12(fp)
  c = c | AFS_2G << 3; // Set full scale range for the accelerometer
  // Write new ACCEL_CONFIG register value
  I2C_Start(scl_base, sda_base);
  8004d4:	e13ffe17 	ldw	r4,-8(fp)
  8004d8:	e17fff17 	ldw	r5,-4(fp)
  8004dc:	080bb100 	call	80bb10 <I2C_Start>
  I2C_WriteToDeviceRegister(scl_base, sda_base, deviceAddress, ACCEL_CONFIG, c, 1);
  8004e0:	e0bffd43 	ldbu	r2,-11(fp)
  8004e4:	11803fcc 	andi	r6,r2,255
  8004e8:	3180201c 	xori	r6,r6,128
  8004ec:	31bfe004 	addi	r6,r6,-128
  8004f0:	e0bffd03 	ldbu	r2,-12(fp)
  8004f4:	d8800015 	stw	r2,0(sp)
  8004f8:	00800044 	movi	r2,1
  8004fc:	d8800115 	stw	r2,4(sp)
  800500:	e13ffe17 	ldw	r4,-8(fp)
  800504:	e17fff17 	ldw	r5,-4(fp)
  800508:	01c00704 	movi	r7,28
  80050c:	080bc780 	call	80bc78 <I2C_WriteToDeviceRegister>
  I2C_Stop(scl_base, sda_base);
  800510:	e13ffe17 	ldw	r4,-8(fp)
  800514:	e17fff17 	ldw	r5,-4(fp)
  800518:	080bb480 	call	80bb48 <I2C_Stop>
  // Set accelerometer sample rate configuration
  // It is possible to get a 4 kHz sample rate from the accelerometer by
  // choosing 1 for accel_fchoice_b bit [3]; in this case the bandwidth is
  // 1.13 kHz
  // Get current ACCEL_CONFIG2 register value
  I2C_Start(scl_base, sda_base);
  80051c:	e13ffe17 	ldw	r4,-8(fp)
  800520:	e17fff17 	ldw	r5,-4(fp)
  800524:	080bb100 	call	80bb10 <I2C_Start>
  I2C_ReadFromDeviceRegister(scl_base, sda_base, deviceAddress, ACCEL_CONFIG2, c, 1, true);
  800528:	e0bffd43 	ldbu	r2,-11(fp)
  80052c:	11803fcc 	andi	r6,r2,255
  800530:	3180201c 	xori	r6,r6,128
  800534:	31bfe004 	addi	r6,r6,-128
  800538:	e0bffd03 	ldbu	r2,-12(fp)
  80053c:	d8800015 	stw	r2,0(sp)
  800540:	00800044 	movi	r2,1
  800544:	d8800115 	stw	r2,4(sp)
  800548:	00800044 	movi	r2,1
  80054c:	d8800215 	stw	r2,8(sp)
  800550:	e13ffe17 	ldw	r4,-8(fp)
  800554:	e17fff17 	ldw	r5,-4(fp)
  800558:	01c00744 	movi	r7,29
  80055c:	080bf600 	call	80bf60 <I2C_ReadFromDeviceRegister>
  I2C_Stop(scl_base, sda_base);
  800560:	e13ffe17 	ldw	r4,-8(fp)
  800564:	e17fff17 	ldw	r5,-4(fp)
  800568:	080bb480 	call	80bb48 <I2C_Stop>
  c = c & ~0x0F; // Clear accel_fchoice_b (bit 3) and A_DLPFG (bits [2:0])
  80056c:	e0fffd03 	ldbu	r3,-12(fp)
  800570:	00bffc04 	movi	r2,-16
  800574:	1884703a 	and	r2,r3,r2
  800578:	e0bffd05 	stb	r2,-12(fp)
  c = c | 0x03;  // Set accelerometer rate to 1 kHz and bandwidth to 41 Hz
  80057c:	e0bffd03 	ldbu	r2,-12(fp)
  800580:	108000d4 	ori	r2,r2,3
  800584:	e0bffd05 	stb	r2,-12(fp)

  // Write new ACCEL_CONFIG2 register value
  I2C_Start(scl_base, sda_base);
  800588:	e13ffe17 	ldw	r4,-8(fp)
  80058c:	e17fff17 	ldw	r5,-4(fp)
  800590:	080bb100 	call	80bb10 <I2C_Start>
  I2C_WriteToDeviceRegister(scl_base, sda_base, deviceAddress, ACCEL_CONFIG2, c, 1);
  800594:	e0bffd43 	ldbu	r2,-11(fp)
  800598:	11803fcc 	andi	r6,r2,255
  80059c:	3180201c 	xori	r6,r6,128
  8005a0:	31bfe004 	addi	r6,r6,-128
  8005a4:	e0bffd03 	ldbu	r2,-12(fp)
  8005a8:	d8800015 	stw	r2,0(sp)
  8005ac:	00800044 	movi	r2,1
  8005b0:	d8800115 	stw	r2,4(sp)
  8005b4:	e13ffe17 	ldw	r4,-8(fp)
  8005b8:	e17fff17 	ldw	r5,-4(fp)
  8005bc:	01c00744 	movi	r7,29
  8005c0:	080bc780 	call	80bc78 <I2C_WriteToDeviceRegister>
  //I2C_WriteToDeviceRegister(scl_base, sda_base, deviceAddress, INT_PIN_CFG, 0x22, 1);

  // Enable data ready (bit 0) interrupt
  //I2C_WriteToDeviceRegister(scl_base, sda_base, deviceAddress, INT_ENABLE, 0x01, 1);

  I2C_Stop(scl_base, sda_base);
  8005c4:	e13ffe17 	ldw	r4,-8(fp)
  8005c8:	e17fff17 	ldw	r5,-4(fp)
  8005cc:	080bb480 	call	80bb48 <I2C_Stop>
  OSTimeDlyHMSM(0, 0, 0, 100);
  8005d0:	0009883a 	mov	r4,zero
  8005d4:	000b883a 	mov	r5,zero
  8005d8:	000d883a 	mov	r6,zero
  8005dc:	01c01904 	movi	r7,100
  8005e0:	08236a40 	call	8236a4 <OSTimeDlyHMSM>
}
  8005e4:	e037883a 	mov	sp,fp
  8005e8:	dfc00117 	ldw	ra,4(sp)
  8005ec:	df000017 	ldw	fp,0(sp)
  8005f0:	dec00204 	addi	sp,sp,8
  8005f4:	f800283a 	ret

008005f8 <calibrateMPU9250>:


// Function which accumulates gyro and accelerometer data after device
// initialization. It calculates the average of the at-rest readings and then
// loads the resulting offsets into accelerometer and gyro bias registers.
void calibrateMPU9250(float * gyroBias, float * accelBias, alt_u32 scl_base, alt_u32 sda_base) {
  8005f8:	deffd504 	addi	sp,sp,-172
  8005fc:	dfc02a15 	stw	ra,168(sp)
  800600:	df002915 	stw	fp,164(sp)
  800604:	dc402815 	stw	r17,160(sp)
  800608:	dc002715 	stw	r16,156(sp)
  80060c:	df002704 	addi	fp,sp,156
  800610:	e13ff015 	stw	r4,-64(fp)
  800614:	e17ff115 	stw	r5,-60(fp)
  800618:	e1bff215 	stw	r6,-56(fp)
  80061c:	e1fff315 	stw	r7,-52(fp)

  alt_u8 deviceAddress = 0xD0;
  800620:	00bff404 	movi	r2,-48
  800624:	e0bfdf85 	stb	r2,-130(fp)
  alt_u8 data[12]; // data array to hold accelerometer and gyro x, y, z, data
  alt_u16 ii, packet_count, fifo_count;
  alt_32 gyro_bias[3]  = {0, 0, 0}, accel_bias[3] = {0, 0, 0};
  800628:	e03fe315 	stw	zero,-116(fp)
  80062c:	e03fe415 	stw	zero,-112(fp)
  800630:	e03fe515 	stw	zero,-108(fp)
  800634:	e03fe615 	stw	zero,-104(fp)
  800638:	e03fe715 	stw	zero,-100(fp)
  80063c:	e03fe815 	stw	zero,-96(fp)

  // reset device
  // Write a one to bit 7 reset bit; toggle reset device
  I2C_Start(scl_base, sda_base);
  800640:	e13ff217 	ldw	r4,-56(fp)
  800644:	e17ff317 	ldw	r5,-52(fp)
  800648:	080bb100 	call	80bb10 <I2C_Start>
  I2C_WriteToDeviceRegister(scl_base, sda_base, deviceAddress, PWR_MGMT_1, READ_FLAG, 1);
  80064c:	e0bfdf83 	ldbu	r2,-130(fp)
  800650:	11803fcc 	andi	r6,r2,255
  800654:	3180201c 	xori	r6,r6,128
  800658:	31bfe004 	addi	r6,r6,-128
  80065c:	00802004 	movi	r2,128
  800660:	d8800015 	stw	r2,0(sp)
  800664:	00800044 	movi	r2,1
  800668:	d8800115 	stw	r2,4(sp)
  80066c:	e13ff217 	ldw	r4,-56(fp)
  800670:	e17ff317 	ldw	r5,-52(fp)
  800674:	01c01ac4 	movi	r7,107
  800678:	080bc780 	call	80bc78 <I2C_WriteToDeviceRegister>
  OSTimeDlyHMSM(0, 0, 0, 100);
  80067c:	0009883a 	mov	r4,zero
  800680:	000b883a 	mov	r5,zero
  800684:	000d883a 	mov	r6,zero
  800688:	01c01904 	movi	r7,100
  80068c:	08236a40 	call	8236a4 <OSTimeDlyHMSM>
  // get stable time source; Auto select clock source to be PLL gyroscope
  // reference if ready else use the internal oscillator, bits 2:0 = 001
  I2C_WriteToDeviceRegister(scl_base, sda_base, deviceAddress, PWR_MGMT_1, 0x01, 1);
  800690:	e0bfdf83 	ldbu	r2,-130(fp)
  800694:	11803fcc 	andi	r6,r2,255
  800698:	3180201c 	xori	r6,r6,128
  80069c:	31bfe004 	addi	r6,r6,-128
  8006a0:	00800044 	movi	r2,1
  8006a4:	d8800015 	stw	r2,0(sp)
  8006a8:	00800044 	movi	r2,1
  8006ac:	d8800115 	stw	r2,4(sp)
  8006b0:	e13ff217 	ldw	r4,-56(fp)
  8006b4:	e17ff317 	ldw	r5,-52(fp)
  8006b8:	01c01ac4 	movi	r7,107
  8006bc:	080bc780 	call	80bc78 <I2C_WriteToDeviceRegister>
  I2C_WriteToDeviceRegister(scl_base, sda_base, deviceAddress, PWR_MGMT_2, 0x00, 1);
  8006c0:	e0bfdf83 	ldbu	r2,-130(fp)
  8006c4:	11803fcc 	andi	r6,r2,255
  8006c8:	3180201c 	xori	r6,r6,128
  8006cc:	31bfe004 	addi	r6,r6,-128
  8006d0:	d8000015 	stw	zero,0(sp)
  8006d4:	00800044 	movi	r2,1
  8006d8:	d8800115 	stw	r2,4(sp)
  8006dc:	e13ff217 	ldw	r4,-56(fp)
  8006e0:	e17ff317 	ldw	r5,-52(fp)
  8006e4:	01c01b04 	movi	r7,108
  8006e8:	080bc780 	call	80bc78 <I2C_WriteToDeviceRegister>

  OSTimeDlyHMSM(0, 0, 0, 200);
  8006ec:	0009883a 	mov	r4,zero
  8006f0:	000b883a 	mov	r5,zero
  8006f4:	000d883a 	mov	r6,zero
  8006f8:	01c03204 	movi	r7,200
  8006fc:	08236a40 	call	8236a4 <OSTimeDlyHMSM>

  // Configure device for bias calculation
  // Disable all interrupts
  I2C_WriteToDeviceRegister(scl_base, sda_base, deviceAddress, INT_ENABLE, 0x00, 1);
  800700:	e0bfdf83 	ldbu	r2,-130(fp)
  800704:	11803fcc 	andi	r6,r2,255
  800708:	3180201c 	xori	r6,r6,128
  80070c:	31bfe004 	addi	r6,r6,-128
  800710:	d8000015 	stw	zero,0(sp)
  800714:	00800044 	movi	r2,1
  800718:	d8800115 	stw	r2,4(sp)
  80071c:	e13ff217 	ldw	r4,-56(fp)
  800720:	e17ff317 	ldw	r5,-52(fp)
  800724:	01c00e04 	movi	r7,56
  800728:	080bc780 	call	80bc78 <I2C_WriteToDeviceRegister>
  // Disable FIFO
  I2C_WriteToDeviceRegister(scl_base, sda_base, deviceAddress, FIFO_EN, 0x00, 1);
  80072c:	e0bfdf83 	ldbu	r2,-130(fp)
  800730:	11803fcc 	andi	r6,r2,255
  800734:	3180201c 	xori	r6,r6,128
  800738:	31bfe004 	addi	r6,r6,-128
  80073c:	d8000015 	stw	zero,0(sp)
  800740:	00800044 	movi	r2,1
  800744:	d8800115 	stw	r2,4(sp)
  800748:	e13ff217 	ldw	r4,-56(fp)
  80074c:	e17ff317 	ldw	r5,-52(fp)
  800750:	01c008c4 	movi	r7,35
  800754:	080bc780 	call	80bc78 <I2C_WriteToDeviceRegister>
  // Turn on internal clock source
  I2C_WriteToDeviceRegister(scl_base, sda_base, deviceAddress, PWR_MGMT_1, 0x00, 1);
  800758:	e0bfdf83 	ldbu	r2,-130(fp)
  80075c:	11803fcc 	andi	r6,r2,255
  800760:	3180201c 	xori	r6,r6,128
  800764:	31bfe004 	addi	r6,r6,-128
  800768:	d8000015 	stw	zero,0(sp)
  80076c:	00800044 	movi	r2,1
  800770:	d8800115 	stw	r2,4(sp)
  800774:	e13ff217 	ldw	r4,-56(fp)
  800778:	e17ff317 	ldw	r5,-52(fp)
  80077c:	01c01ac4 	movi	r7,107
  800780:	080bc780 	call	80bc78 <I2C_WriteToDeviceRegister>
  // Disable I2C master
  I2C_WriteToDeviceRegister(scl_base, sda_base, deviceAddress, I2C_MST_CTRL, 0x00, 1);
  800784:	e0bfdf83 	ldbu	r2,-130(fp)
  800788:	11803fcc 	andi	r6,r2,255
  80078c:	3180201c 	xori	r6,r6,128
  800790:	31bfe004 	addi	r6,r6,-128
  800794:	d8000015 	stw	zero,0(sp)
  800798:	00800044 	movi	r2,1
  80079c:	d8800115 	stw	r2,4(sp)
  8007a0:	e13ff217 	ldw	r4,-56(fp)
  8007a4:	e17ff317 	ldw	r5,-52(fp)
  8007a8:	01c00904 	movi	r7,36
  8007ac:	080bc780 	call	80bc78 <I2C_WriteToDeviceRegister>
  // Disable FIFO and I2C master modes
  I2C_WriteToDeviceRegister(scl_base, sda_base, deviceAddress,  USER_CTRL, 0x00, 1);
  8007b0:	e0bfdf83 	ldbu	r2,-130(fp)
  8007b4:	11803fcc 	andi	r6,r2,255
  8007b8:	3180201c 	xori	r6,r6,128
  8007bc:	31bfe004 	addi	r6,r6,-128
  8007c0:	d8000015 	stw	zero,0(sp)
  8007c4:	00800044 	movi	r2,1
  8007c8:	d8800115 	stw	r2,4(sp)
  8007cc:	e13ff217 	ldw	r4,-56(fp)
  8007d0:	e17ff317 	ldw	r5,-52(fp)
  8007d4:	01c01a84 	movi	r7,106
  8007d8:	080bc780 	call	80bc78 <I2C_WriteToDeviceRegister>
  // Reset FIFO and DMP
  I2C_WriteToDeviceRegister(scl_base, sda_base, deviceAddress,  USER_CTRL, 0x0C, 1);
  8007dc:	e0bfdf83 	ldbu	r2,-130(fp)
  8007e0:	11803fcc 	andi	r6,r2,255
  8007e4:	3180201c 	xori	r6,r6,128
  8007e8:	31bfe004 	addi	r6,r6,-128
  8007ec:	00800304 	movi	r2,12
  8007f0:	d8800015 	stw	r2,0(sp)
  8007f4:	00800044 	movi	r2,1
  8007f8:	d8800115 	stw	r2,4(sp)
  8007fc:	e13ff217 	ldw	r4,-56(fp)
  800800:	e17ff317 	ldw	r5,-52(fp)
  800804:	01c01a84 	movi	r7,106
  800808:	080bc780 	call	80bc78 <I2C_WriteToDeviceRegister>
  OSTimeDlyHMSM(0, 0, 0, 15);
  80080c:	0009883a 	mov	r4,zero
  800810:	000b883a 	mov	r5,zero
  800814:	000d883a 	mov	r6,zero
  800818:	01c003c4 	movi	r7,15
  80081c:	08236a40 	call	8236a4 <OSTimeDlyHMSM>

  // Configure MPU6050 gyro and accelerometer for bias calculation
  // Set low-pass filter to 188 Hz
  I2C_WriteToDeviceRegister(scl_base, sda_base, deviceAddress, CONFIG, 0x01, 1);
  800820:	e0bfdf83 	ldbu	r2,-130(fp)
  800824:	11803fcc 	andi	r6,r2,255
  800828:	3180201c 	xori	r6,r6,128
  80082c:	31bfe004 	addi	r6,r6,-128
  800830:	00800044 	movi	r2,1
  800834:	d8800015 	stw	r2,0(sp)
  800838:	00800044 	movi	r2,1
  80083c:	d8800115 	stw	r2,4(sp)
  800840:	e13ff217 	ldw	r4,-56(fp)
  800844:	e17ff317 	ldw	r5,-52(fp)
  800848:	01c00684 	movi	r7,26
  80084c:	080bc780 	call	80bc78 <I2C_WriteToDeviceRegister>
  // Set sample rate to 1 kHz
  I2C_WriteToDeviceRegister(scl_base, sda_base, deviceAddress,  SMPLRT_DIV, 0x00, 1);
  800850:	e0bfdf83 	ldbu	r2,-130(fp)
  800854:	11803fcc 	andi	r6,r2,255
  800858:	3180201c 	xori	r6,r6,128
  80085c:	31bfe004 	addi	r6,r6,-128
  800860:	d8000015 	stw	zero,0(sp)
  800864:	00800044 	movi	r2,1
  800868:	d8800115 	stw	r2,4(sp)
  80086c:	e13ff217 	ldw	r4,-56(fp)
  800870:	e17ff317 	ldw	r5,-52(fp)
  800874:	01c00644 	movi	r7,25
  800878:	080bc780 	call	80bc78 <I2C_WriteToDeviceRegister>
  // Set gyro full-scale to 250 degrees per second, maximum sensitivity
  I2C_WriteToDeviceRegister(scl_base, sda_base, deviceAddress, GYRO_CONFIG, 0x00, 1);
  80087c:	e0bfdf83 	ldbu	r2,-130(fp)
  800880:	11803fcc 	andi	r6,r2,255
  800884:	3180201c 	xori	r6,r6,128
  800888:	31bfe004 	addi	r6,r6,-128
  80088c:	d8000015 	stw	zero,0(sp)
  800890:	00800044 	movi	r2,1
  800894:	d8800115 	stw	r2,4(sp)
  800898:	e13ff217 	ldw	r4,-56(fp)
  80089c:	e17ff317 	ldw	r5,-52(fp)
  8008a0:	01c006c4 	movi	r7,27
  8008a4:	080bc780 	call	80bc78 <I2C_WriteToDeviceRegister>
  // Set accelerometer full-scale to 2 g, maximum sensitivity
  I2C_WriteToDeviceRegister(scl_base, sda_base, deviceAddress,  ACCEL_CONFIG, 0x00, 1);
  8008a8:	e0bfdf83 	ldbu	r2,-130(fp)
  8008ac:	11803fcc 	andi	r6,r2,255
  8008b0:	3180201c 	xori	r6,r6,128
  8008b4:	31bfe004 	addi	r6,r6,-128
  8008b8:	d8000015 	stw	zero,0(sp)
  8008bc:	00800044 	movi	r2,1
  8008c0:	d8800115 	stw	r2,4(sp)
  8008c4:	e13ff217 	ldw	r4,-56(fp)
  8008c8:	e17ff317 	ldw	r5,-52(fp)
  8008cc:	01c00704 	movi	r7,28
  8008d0:	080bc780 	call	80bc78 <I2C_WriteToDeviceRegister>

  alt_u16  gyrosensitivity  = 131;   // = 131 LSB/degrees/sec
  8008d4:	008020c4 	movi	r2,131
  8008d8:	e0bfdd8d 	sth	r2,-138(fp)
  alt_u16  accelsensitivity = 16384; // = 16384 LSB/g
  8008dc:	00900004 	movi	r2,16384
  8008e0:	e0bfdd0d 	sth	r2,-140(fp)

  // Configure FIFO to capture accelerometer and gyro data for bias calculation
  I2C_WriteToDeviceRegister(scl_base, sda_base, deviceAddress,  USER_CTRL, 0x40, 1);  // Enable FIFO
  8008e4:	e0bfdf83 	ldbu	r2,-130(fp)
  8008e8:	11803fcc 	andi	r6,r2,255
  8008ec:	3180201c 	xori	r6,r6,128
  8008f0:	31bfe004 	addi	r6,r6,-128
  8008f4:	00801004 	movi	r2,64
  8008f8:	d8800015 	stw	r2,0(sp)
  8008fc:	00800044 	movi	r2,1
  800900:	d8800115 	stw	r2,4(sp)
  800904:	e13ff217 	ldw	r4,-56(fp)
  800908:	e17ff317 	ldw	r5,-52(fp)
  80090c:	01c01a84 	movi	r7,106
  800910:	080bc780 	call	80bc78 <I2C_WriteToDeviceRegister>
  // Enable gyro and accelerometer sensors for FIFO  (max size 512 bytes in
  // MPU-9150)
  I2C_WriteToDeviceRegister(scl_base, sda_base, deviceAddress,  FIFO_EN, 0x78, 1);
  800914:	e0bfdf83 	ldbu	r2,-130(fp)
  800918:	11803fcc 	andi	r6,r2,255
  80091c:	3180201c 	xori	r6,r6,128
  800920:	31bfe004 	addi	r6,r6,-128
  800924:	00801e04 	movi	r2,120
  800928:	d8800015 	stw	r2,0(sp)
  80092c:	00800044 	movi	r2,1
  800930:	d8800115 	stw	r2,4(sp)
  800934:	e13ff217 	ldw	r4,-56(fp)
  800938:	e17ff317 	ldw	r5,-52(fp)
  80093c:	01c008c4 	movi	r7,35
  800940:	080bc780 	call	80bc78 <I2C_WriteToDeviceRegister>

  OSTimeDlyHMSM(0, 0, 0, 40);  // accumulate 40 samples in 40 milliseconds = 480 bytes
  800944:	0009883a 	mov	r4,zero
  800948:	000b883a 	mov	r5,zero
  80094c:	000d883a 	mov	r6,zero
  800950:	01c00a04 	movi	r7,40
  800954:	08236a40 	call	8236a4 <OSTimeDlyHMSM>

  // At end of sample accumulation, turn off FIFO sensor read
  // Disable gyro and accelerometer sensors for FIFO
  I2C_WriteToDeviceRegister(scl_base, sda_base, deviceAddress,  FIFO_EN, 0x00, 1);
  800958:	e0bfdf83 	ldbu	r2,-130(fp)
  80095c:	11803fcc 	andi	r6,r2,255
  800960:	3180201c 	xori	r6,r6,128
  800964:	31bfe004 	addi	r6,r6,-128
  800968:	d8000015 	stw	zero,0(sp)
  80096c:	00800044 	movi	r2,1
  800970:	d8800115 	stw	r2,4(sp)
  800974:	e13ff217 	ldw	r4,-56(fp)
  800978:	e17ff317 	ldw	r5,-52(fp)
  80097c:	01c008c4 	movi	r7,35
  800980:	080bc780 	call	80bc78 <I2C_WriteToDeviceRegister>


  I2C_Stop(scl_base, sda_base);
  800984:	e13ff217 	ldw	r4,-56(fp)
  800988:	e17ff317 	ldw	r5,-52(fp)
  80098c:	080bb480 	call	80bb48 <I2C_Stop>

  I2C_Start(scl_base, sda_base);
  800990:	e13ff217 	ldw	r4,-56(fp)
  800994:	e17ff317 	ldw	r5,-52(fp)
  800998:	080bb100 	call	80bb10 <I2C_Start>
  // Read FIFO sample count
  I2C_ReadFromDeviceRegister(scl_base, sda_base, deviceAddress, FIFO_COUNTH, &data[0], 2, true);
  80099c:	e0bfdf83 	ldbu	r2,-130(fp)
  8009a0:	11803fcc 	andi	r6,r2,255
  8009a4:	3180201c 	xori	r6,r6,128
  8009a8:	31bfe004 	addi	r6,r6,-128
  8009ac:	e0bfdfc4 	addi	r2,fp,-129
  8009b0:	d8800015 	stw	r2,0(sp)
  8009b4:	00800084 	movi	r2,2
  8009b8:	d8800115 	stw	r2,4(sp)
  8009bc:	00800044 	movi	r2,1
  8009c0:	d8800215 	stw	r2,8(sp)
  8009c4:	e13ff217 	ldw	r4,-56(fp)
  8009c8:	e17ff317 	ldw	r5,-52(fp)
  8009cc:	01c01c84 	movi	r7,114
  8009d0:	080bf600 	call	80bf60 <I2C_ReadFromDeviceRegister>
  I2C_Stop(scl_base, sda_base);
  8009d4:	e13ff217 	ldw	r4,-56(fp)
  8009d8:	e17ff317 	ldw	r5,-52(fp)
  8009dc:	080bb480 	call	80bb48 <I2C_Stop>

  fifo_count = ((alt_u16)data[0] << 8) | data[1];
  8009e0:	e0bfdfc3 	ldbu	r2,-129(fp)
  8009e4:	10803fcc 	andi	r2,r2,255
  8009e8:	1004923a 	slli	r2,r2,8
  8009ec:	1007883a 	mov	r3,r2
  8009f0:	e0bfe003 	ldbu	r2,-128(fp)
  8009f4:	10803fcc 	andi	r2,r2,255
  8009f8:	1884b03a 	or	r2,r3,r2
  8009fc:	e0bfde0d 	sth	r2,-136(fp)
  // How many sets of full gyro and accelerometer data for averaging
  packet_count = fifo_count/12;
  800a00:	e13fde0b 	ldhu	r4,-136(fp)
  800a04:	01400304 	movi	r5,12
  800a08:	08111e40 	call	8111e4 <__udivsi3>
  800a0c:	e0bfde8d 	sth	r2,-134(fp)

  for (ii = 0; ii < packet_count; ii++)
  800a10:	e03fdf0d 	sth	zero,-132(fp)
  800a14:	00007706 	br	800bf4 <calibrateMPU9250+0x5fc>
  {
    alt_16 accel_temp[3] = {0, 0, 0}, gyro_temp[3] = {0, 0, 0};
  800a18:	e03fed0d 	sth	zero,-76(fp)
  800a1c:	e03fed8d 	sth	zero,-74(fp)
  800a20:	e03fee0d 	sth	zero,-72(fp)
  800a24:	e03fee8d 	sth	zero,-70(fp)
  800a28:	e03fef0d 	sth	zero,-68(fp)
  800a2c:	e03fef8d 	sth	zero,-66(fp)
    // Read data for averaging
    I2C_Start(scl_base, sda_base);
  800a30:	e13ff217 	ldw	r4,-56(fp)
  800a34:	e17ff317 	ldw	r5,-52(fp)
  800a38:	080bb100 	call	80bb10 <I2C_Start>
	// Read FIFO sample count
	I2C_ReadFromDeviceRegister(scl_base, sda_base, deviceAddress, FIFO_R_W, &data[0], 12, true);
  800a3c:	e0bfdf83 	ldbu	r2,-130(fp)
  800a40:	11803fcc 	andi	r6,r2,255
  800a44:	3180201c 	xori	r6,r6,128
  800a48:	31bfe004 	addi	r6,r6,-128
  800a4c:	e0bfdfc4 	addi	r2,fp,-129
  800a50:	d8800015 	stw	r2,0(sp)
  800a54:	00800304 	movi	r2,12
  800a58:	d8800115 	stw	r2,4(sp)
  800a5c:	00800044 	movi	r2,1
  800a60:	d8800215 	stw	r2,8(sp)
  800a64:	e13ff217 	ldw	r4,-56(fp)
  800a68:	e17ff317 	ldw	r5,-52(fp)
  800a6c:	01c01d04 	movi	r7,116
  800a70:	080bf600 	call	80bf60 <I2C_ReadFromDeviceRegister>
	I2C_Stop(scl_base, sda_base);
  800a74:	e13ff217 	ldw	r4,-56(fp)
  800a78:	e17ff317 	ldw	r5,-52(fp)
  800a7c:	080bb480 	call	80bb48 <I2C_Stop>
    // Form signed 16-bit integer for each sample in FIFO
    accel_temp[0] = (alt_16) (((alt_16)data[0] << 8) | data[1]  );
  800a80:	e0bfdfc3 	ldbu	r2,-129(fp)
  800a84:	10803fcc 	andi	r2,r2,255
  800a88:	1004923a 	slli	r2,r2,8
  800a8c:	1007883a 	mov	r3,r2
  800a90:	e0bfe003 	ldbu	r2,-128(fp)
  800a94:	10803fcc 	andi	r2,r2,255
  800a98:	1884b03a 	or	r2,r3,r2
  800a9c:	e0bfed0d 	sth	r2,-76(fp)
    accel_temp[1] = (alt_16) (((alt_16)data[2] << 8) | data[3]  );
  800aa0:	e0bfe043 	ldbu	r2,-127(fp)
  800aa4:	10803fcc 	andi	r2,r2,255
  800aa8:	1004923a 	slli	r2,r2,8
  800aac:	1007883a 	mov	r3,r2
  800ab0:	e0bfe083 	ldbu	r2,-126(fp)
  800ab4:	10803fcc 	andi	r2,r2,255
  800ab8:	1884b03a 	or	r2,r3,r2
  800abc:	e0bfed8d 	sth	r2,-74(fp)
    accel_temp[2] = (alt_16) (((alt_16)data[4] << 8) | data[5]  );
  800ac0:	e0bfe0c3 	ldbu	r2,-125(fp)
  800ac4:	10803fcc 	andi	r2,r2,255
  800ac8:	1004923a 	slli	r2,r2,8
  800acc:	1007883a 	mov	r3,r2
  800ad0:	e0bfe103 	ldbu	r2,-124(fp)
  800ad4:	10803fcc 	andi	r2,r2,255
  800ad8:	1884b03a 	or	r2,r3,r2
  800adc:	e0bfee0d 	sth	r2,-72(fp)
    gyro_temp[0]  = (alt_16) (((alt_16)data[6] << 8) | data[7]  );
  800ae0:	e0bfe143 	ldbu	r2,-123(fp)
  800ae4:	10803fcc 	andi	r2,r2,255
  800ae8:	1004923a 	slli	r2,r2,8
  800aec:	1007883a 	mov	r3,r2
  800af0:	e0bfe183 	ldbu	r2,-122(fp)
  800af4:	10803fcc 	andi	r2,r2,255
  800af8:	1884b03a 	or	r2,r3,r2
  800afc:	e0bfee8d 	sth	r2,-70(fp)
    gyro_temp[1]  = (alt_16) (((alt_16)data[8] << 8) | data[9]  );
  800b00:	e0bfe1c3 	ldbu	r2,-121(fp)
  800b04:	10803fcc 	andi	r2,r2,255
  800b08:	1004923a 	slli	r2,r2,8
  800b0c:	1007883a 	mov	r3,r2
  800b10:	e0bfe203 	ldbu	r2,-120(fp)
  800b14:	10803fcc 	andi	r2,r2,255
  800b18:	1884b03a 	or	r2,r3,r2
  800b1c:	e0bfef0d 	sth	r2,-68(fp)
    gyro_temp[2]  = (alt_16) (((alt_16)data[10] << 8) | data[11]);
  800b20:	e0bfe243 	ldbu	r2,-119(fp)
  800b24:	10803fcc 	andi	r2,r2,255
  800b28:	1004923a 	slli	r2,r2,8
  800b2c:	1007883a 	mov	r3,r2
  800b30:	e0bfe283 	ldbu	r2,-118(fp)
  800b34:	10803fcc 	andi	r2,r2,255
  800b38:	1884b03a 	or	r2,r3,r2
  800b3c:	e0bfef8d 	sth	r2,-66(fp)

    // Sum individual signed 16-bit biases to get accumulated signed 32-bit
    // biases.
    accel_bias[0] += (alt_32) accel_temp[0];
  800b40:	e0ffe617 	ldw	r3,-104(fp)
  800b44:	e0bfed0b 	ldhu	r2,-76(fp)
  800b48:	10bfffcc 	andi	r2,r2,65535
  800b4c:	10a0001c 	xori	r2,r2,32768
  800b50:	10a00004 	addi	r2,r2,-32768
  800b54:	1885883a 	add	r2,r3,r2
  800b58:	e0bfe615 	stw	r2,-104(fp)
    accel_bias[1] += (alt_32) accel_temp[1];
  800b5c:	e0ffe717 	ldw	r3,-100(fp)
  800b60:	e0bfed8b 	ldhu	r2,-74(fp)
  800b64:	10bfffcc 	andi	r2,r2,65535
  800b68:	10a0001c 	xori	r2,r2,32768
  800b6c:	10a00004 	addi	r2,r2,-32768
  800b70:	1885883a 	add	r2,r3,r2
  800b74:	e0bfe715 	stw	r2,-100(fp)
    accel_bias[2] += (alt_32) accel_temp[2];
  800b78:	e0ffe817 	ldw	r3,-96(fp)
  800b7c:	e0bfee0b 	ldhu	r2,-72(fp)
  800b80:	10bfffcc 	andi	r2,r2,65535
  800b84:	10a0001c 	xori	r2,r2,32768
  800b88:	10a00004 	addi	r2,r2,-32768
  800b8c:	1885883a 	add	r2,r3,r2
  800b90:	e0bfe815 	stw	r2,-96(fp)
    gyro_bias[0]  += (alt_32) gyro_temp[0];
  800b94:	e0ffe317 	ldw	r3,-116(fp)
  800b98:	e0bfee8b 	ldhu	r2,-70(fp)
  800b9c:	10bfffcc 	andi	r2,r2,65535
  800ba0:	10a0001c 	xori	r2,r2,32768
  800ba4:	10a00004 	addi	r2,r2,-32768
  800ba8:	1885883a 	add	r2,r3,r2
  800bac:	e0bfe315 	stw	r2,-116(fp)
    gyro_bias[1]  += (alt_32) gyro_temp[1];
  800bb0:	e0ffe417 	ldw	r3,-112(fp)
  800bb4:	e0bfef0b 	ldhu	r2,-68(fp)
  800bb8:	10bfffcc 	andi	r2,r2,65535
  800bbc:	10a0001c 	xori	r2,r2,32768
  800bc0:	10a00004 	addi	r2,r2,-32768
  800bc4:	1885883a 	add	r2,r3,r2
  800bc8:	e0bfe415 	stw	r2,-112(fp)
    gyro_bias[2]  += (alt_32) gyro_temp[2];
  800bcc:	e0ffe517 	ldw	r3,-108(fp)
  800bd0:	e0bfef8b 	ldhu	r2,-66(fp)
  800bd4:	10bfffcc 	andi	r2,r2,65535
  800bd8:	10a0001c 	xori	r2,r2,32768
  800bdc:	10a00004 	addi	r2,r2,-32768
  800be0:	1885883a 	add	r2,r3,r2
  800be4:	e0bfe515 	stw	r2,-108(fp)

  fifo_count = ((alt_u16)data[0] << 8) | data[1];
  // How many sets of full gyro and accelerometer data for averaging
  packet_count = fifo_count/12;

  for (ii = 0; ii < packet_count; ii++)
  800be8:	e0bfdf0b 	ldhu	r2,-132(fp)
  800bec:	10800044 	addi	r2,r2,1
  800bf0:	e0bfdf0d 	sth	r2,-132(fp)
  800bf4:	e0ffdf0b 	ldhu	r3,-132(fp)
  800bf8:	e0bfde8b 	ldhu	r2,-134(fp)
  800bfc:	18bf8636 	bltu	r3,r2,800a18 <calibrateMPU9250+0x420>
    gyro_bias[0]  += (alt_32) gyro_temp[0];
    gyro_bias[1]  += (alt_32) gyro_temp[1];
    gyro_bias[2]  += (alt_32) gyro_temp[2];
  }
  // Sum individual signed 16-bit biases to get accumulated signed 32-bit biases
  accel_bias[0] /= (alt_32) packet_count;
  800c00:	e13fe617 	ldw	r4,-104(fp)
  800c04:	e17fde8b 	ldhu	r5,-134(fp)
  800c08:	08111240 	call	811124 <__divsi3>
  800c0c:	e0bfe615 	stw	r2,-104(fp)
  accel_bias[1] /= (alt_32) packet_count;
  800c10:	e13fe717 	ldw	r4,-100(fp)
  800c14:	e17fde8b 	ldhu	r5,-134(fp)
  800c18:	08111240 	call	811124 <__divsi3>
  800c1c:	e0bfe715 	stw	r2,-100(fp)
  accel_bias[2] /= (alt_32) packet_count;
  800c20:	e13fe817 	ldw	r4,-96(fp)
  800c24:	e17fde8b 	ldhu	r5,-134(fp)
  800c28:	08111240 	call	811124 <__divsi3>
  800c2c:	e0bfe815 	stw	r2,-96(fp)
  gyro_bias[0]  /= (alt_32) packet_count;
  800c30:	e13fe317 	ldw	r4,-116(fp)
  800c34:	e17fde8b 	ldhu	r5,-134(fp)
  800c38:	08111240 	call	811124 <__divsi3>
  800c3c:	e0bfe315 	stw	r2,-116(fp)
  gyro_bias[1]  /= (alt_32) packet_count;
  800c40:	e13fe417 	ldw	r4,-112(fp)
  800c44:	e17fde8b 	ldhu	r5,-134(fp)
  800c48:	08111240 	call	811124 <__divsi3>
  800c4c:	e0bfe415 	stw	r2,-112(fp)
  gyro_bias[2]  /= (alt_32) packet_count;
  800c50:	e13fe517 	ldw	r4,-108(fp)
  800c54:	e17fde8b 	ldhu	r5,-134(fp)
  800c58:	08111240 	call	811124 <__divsi3>
  800c5c:	e0bfe515 	stw	r2,-108(fp)

  // Sum individual signed 16-bit biases to get accumulated signed 32-bit biases
  if (accel_bias[2] > 0L)
  800c60:	e0bfe817 	ldw	r2,-96(fp)
  800c64:	10800050 	cmplti	r2,r2,1
  800c68:	1000051e 	bne	r2,zero,800c80 <calibrateMPU9250+0x688>
  {
    accel_bias[2] -= (alt_32) accelsensitivity;
  800c6c:	e0bfe817 	ldw	r2,-96(fp)
  800c70:	e0ffdd0b 	ldhu	r3,-140(fp)
  800c74:	10c5c83a 	sub	r2,r2,r3
  800c78:	e0bfe815 	stw	r2,-96(fp)
  800c7c:	00000406 	br	800c90 <calibrateMPU9250+0x698>
  }
  else
  {
    accel_bias[2] += (alt_32) accelsensitivity;
  800c80:	e0bfe817 	ldw	r2,-96(fp)
  800c84:	e0ffdd0b 	ldhu	r3,-140(fp)
  800c88:	10c5883a 	add	r2,r2,r3
  800c8c:	e0bfe815 	stw	r2,-96(fp)

  // Construct the gyro biases for push to the hardware gyro bias registers,
  // which are reset to zero upon device startup.
  // Divide by 4 to get 32.9 LSB per deg/s to conform to expected bias input
  // format.
  data[0] = (-gyro_bias[0]/4  >> 8) & 0xFF;
  800c90:	e0bfe317 	ldw	r2,-116(fp)
  800c94:	0085c83a 	sub	r2,zero,r2
  800c98:	e0bff715 	stw	r2,-36(fp)
  800c9c:	e0fff717 	ldw	r3,-36(fp)
  800ca0:	1804403a 	cmpge	r2,r3,zero
  800ca4:	1000031e 	bne	r2,zero,800cb4 <calibrateMPU9250+0x6bc>
  800ca8:	e0bff717 	ldw	r2,-36(fp)
  800cac:	108000c4 	addi	r2,r2,3
  800cb0:	e0bff715 	stw	r2,-36(fp)
  800cb4:	e0fff717 	ldw	r3,-36(fp)
  800cb8:	1805d0ba 	srai	r2,r3,2
  800cbc:	1005d23a 	srai	r2,r2,8
  800cc0:	1007883a 	mov	r3,r2
  800cc4:	00bfffc4 	movi	r2,-1
  800cc8:	1884703a 	and	r2,r3,r2
  800ccc:	e0bfdfc5 	stb	r2,-129(fp)
  // Biases are additive, so change sign on calculated average gyro biases
  data[1] = (-gyro_bias[0]/4)       & 0xFF;
  800cd0:	e0bfe317 	ldw	r2,-116(fp)
  800cd4:	0085c83a 	sub	r2,zero,r2
  800cd8:	e0bff815 	stw	r2,-32(fp)
  800cdc:	e0fff817 	ldw	r3,-32(fp)
  800ce0:	1804403a 	cmpge	r2,r3,zero
  800ce4:	1000031e 	bne	r2,zero,800cf4 <calibrateMPU9250+0x6fc>
  800ce8:	e0bff817 	ldw	r2,-32(fp)
  800cec:	108000c4 	addi	r2,r2,3
  800cf0:	e0bff815 	stw	r2,-32(fp)
  800cf4:	e0fff817 	ldw	r3,-32(fp)
  800cf8:	1805d0ba 	srai	r2,r3,2
  800cfc:	1007883a 	mov	r3,r2
  800d00:	00bfffc4 	movi	r2,-1
  800d04:	1884703a 	and	r2,r3,r2
  800d08:	e0bfe005 	stb	r2,-128(fp)
  data[2] = (-gyro_bias[1]/4  >> 8) & 0xFF;
  800d0c:	e0bfe417 	ldw	r2,-112(fp)
  800d10:	0085c83a 	sub	r2,zero,r2
  800d14:	e0bff915 	stw	r2,-28(fp)
  800d18:	e0fff917 	ldw	r3,-28(fp)
  800d1c:	1804403a 	cmpge	r2,r3,zero
  800d20:	1000031e 	bne	r2,zero,800d30 <calibrateMPU9250+0x738>
  800d24:	e0bff917 	ldw	r2,-28(fp)
  800d28:	108000c4 	addi	r2,r2,3
  800d2c:	e0bff915 	stw	r2,-28(fp)
  800d30:	e0fff917 	ldw	r3,-28(fp)
  800d34:	1805d0ba 	srai	r2,r3,2
  800d38:	1005d23a 	srai	r2,r2,8
  800d3c:	1007883a 	mov	r3,r2
  800d40:	00bfffc4 	movi	r2,-1
  800d44:	1884703a 	and	r2,r3,r2
  800d48:	e0bfe045 	stb	r2,-127(fp)
  data[3] = (-gyro_bias[1]/4)       & 0xFF;
  800d4c:	e0bfe417 	ldw	r2,-112(fp)
  800d50:	0085c83a 	sub	r2,zero,r2
  800d54:	e0bffa15 	stw	r2,-24(fp)
  800d58:	e0fffa17 	ldw	r3,-24(fp)
  800d5c:	1804403a 	cmpge	r2,r3,zero
  800d60:	1000031e 	bne	r2,zero,800d70 <calibrateMPU9250+0x778>
  800d64:	e0bffa17 	ldw	r2,-24(fp)
  800d68:	108000c4 	addi	r2,r2,3
  800d6c:	e0bffa15 	stw	r2,-24(fp)
  800d70:	e0fffa17 	ldw	r3,-24(fp)
  800d74:	1805d0ba 	srai	r2,r3,2
  800d78:	1007883a 	mov	r3,r2
  800d7c:	00bfffc4 	movi	r2,-1
  800d80:	1884703a 	and	r2,r3,r2
  800d84:	e0bfe085 	stb	r2,-126(fp)
  data[4] = (-gyro_bias[2]/4  >> 8) & 0xFF;
  800d88:	e0bfe517 	ldw	r2,-108(fp)
  800d8c:	0085c83a 	sub	r2,zero,r2
  800d90:	e0bffb15 	stw	r2,-20(fp)
  800d94:	e0fffb17 	ldw	r3,-20(fp)
  800d98:	1804403a 	cmpge	r2,r3,zero
  800d9c:	1000031e 	bne	r2,zero,800dac <calibrateMPU9250+0x7b4>
  800da0:	e0bffb17 	ldw	r2,-20(fp)
  800da4:	108000c4 	addi	r2,r2,3
  800da8:	e0bffb15 	stw	r2,-20(fp)
  800dac:	e0fffb17 	ldw	r3,-20(fp)
  800db0:	1805d0ba 	srai	r2,r3,2
  800db4:	1005d23a 	srai	r2,r2,8
  800db8:	1007883a 	mov	r3,r2
  800dbc:	00bfffc4 	movi	r2,-1
  800dc0:	1884703a 	and	r2,r3,r2
  800dc4:	e0bfe0c5 	stb	r2,-125(fp)
  data[5] = (-gyro_bias[2]/4)       & 0xFF;
  800dc8:	e0bfe517 	ldw	r2,-108(fp)
  800dcc:	0085c83a 	sub	r2,zero,r2
  800dd0:	e0bffc15 	stw	r2,-16(fp)
  800dd4:	e0fffc17 	ldw	r3,-16(fp)
  800dd8:	1804403a 	cmpge	r2,r3,zero
  800ddc:	1000031e 	bne	r2,zero,800dec <calibrateMPU9250+0x7f4>
  800de0:	e0bffc17 	ldw	r2,-16(fp)
  800de4:	108000c4 	addi	r2,r2,3
  800de8:	e0bffc15 	stw	r2,-16(fp)
  800dec:	e0fffc17 	ldw	r3,-16(fp)
  800df0:	1805d0ba 	srai	r2,r3,2
  800df4:	1007883a 	mov	r3,r2
  800df8:	00bfffc4 	movi	r2,-1
  800dfc:	1884703a 	and	r2,r3,r2
  800e00:	e0bfe105 	stb	r2,-124(fp)

  // Push gyro biases to hardware registers

  I2C_Start(scl_base, sda_base);
  800e04:	e13ff217 	ldw	r4,-56(fp)
  800e08:	e17ff317 	ldw	r5,-52(fp)
  800e0c:	080bb100 	call	80bb10 <I2C_Start>
  I2C_WriteToDeviceRegister(scl_base, sda_base, deviceAddress,  XG_OFFSET_H, data[0], 1);
  800e10:	e0bfdf83 	ldbu	r2,-130(fp)
  800e14:	11803fcc 	andi	r6,r2,255
  800e18:	3180201c 	xori	r6,r6,128
  800e1c:	31bfe004 	addi	r6,r6,-128
  800e20:	e0bfdfc3 	ldbu	r2,-129(fp)
  800e24:	10803fcc 	andi	r2,r2,255
  800e28:	d8800015 	stw	r2,0(sp)
  800e2c:	00800044 	movi	r2,1
  800e30:	d8800115 	stw	r2,4(sp)
  800e34:	e13ff217 	ldw	r4,-56(fp)
  800e38:	e17ff317 	ldw	r5,-52(fp)
  800e3c:	01c004c4 	movi	r7,19
  800e40:	080bc780 	call	80bc78 <I2C_WriteToDeviceRegister>
  I2C_WriteToDeviceRegister(scl_base, sda_base, deviceAddress,  XG_OFFSET_L, data[1], 1);
  800e44:	e0bfdf83 	ldbu	r2,-130(fp)
  800e48:	11803fcc 	andi	r6,r2,255
  800e4c:	3180201c 	xori	r6,r6,128
  800e50:	31bfe004 	addi	r6,r6,-128
  800e54:	e0bfe003 	ldbu	r2,-128(fp)
  800e58:	10803fcc 	andi	r2,r2,255
  800e5c:	d8800015 	stw	r2,0(sp)
  800e60:	00800044 	movi	r2,1
  800e64:	d8800115 	stw	r2,4(sp)
  800e68:	e13ff217 	ldw	r4,-56(fp)
  800e6c:	e17ff317 	ldw	r5,-52(fp)
  800e70:	01c00504 	movi	r7,20
  800e74:	080bc780 	call	80bc78 <I2C_WriteToDeviceRegister>
  I2C_WriteToDeviceRegister(scl_base, sda_base, deviceAddress, YG_OFFSET_H, data[2], 1);
  800e78:	e0bfdf83 	ldbu	r2,-130(fp)
  800e7c:	11803fcc 	andi	r6,r2,255
  800e80:	3180201c 	xori	r6,r6,128
  800e84:	31bfe004 	addi	r6,r6,-128
  800e88:	e0bfe043 	ldbu	r2,-127(fp)
  800e8c:	10803fcc 	andi	r2,r2,255
  800e90:	d8800015 	stw	r2,0(sp)
  800e94:	00800044 	movi	r2,1
  800e98:	d8800115 	stw	r2,4(sp)
  800e9c:	e13ff217 	ldw	r4,-56(fp)
  800ea0:	e17ff317 	ldw	r5,-52(fp)
  800ea4:	01c00544 	movi	r7,21
  800ea8:	080bc780 	call	80bc78 <I2C_WriteToDeviceRegister>
  I2C_WriteToDeviceRegister(scl_base, sda_base, deviceAddress, YG_OFFSET_L, data[3], 1);
  800eac:	e0bfdf83 	ldbu	r2,-130(fp)
  800eb0:	11803fcc 	andi	r6,r2,255
  800eb4:	3180201c 	xori	r6,r6,128
  800eb8:	31bfe004 	addi	r6,r6,-128
  800ebc:	e0bfe083 	ldbu	r2,-126(fp)
  800ec0:	10803fcc 	andi	r2,r2,255
  800ec4:	d8800015 	stw	r2,0(sp)
  800ec8:	00800044 	movi	r2,1
  800ecc:	d8800115 	stw	r2,4(sp)
  800ed0:	e13ff217 	ldw	r4,-56(fp)
  800ed4:	e17ff317 	ldw	r5,-52(fp)
  800ed8:	01c00584 	movi	r7,22
  800edc:	080bc780 	call	80bc78 <I2C_WriteToDeviceRegister>
  I2C_WriteToDeviceRegister(scl_base, sda_base, deviceAddress, ZG_OFFSET_H, data[4], 1);
  800ee0:	e0bfdf83 	ldbu	r2,-130(fp)
  800ee4:	11803fcc 	andi	r6,r2,255
  800ee8:	3180201c 	xori	r6,r6,128
  800eec:	31bfe004 	addi	r6,r6,-128
  800ef0:	e0bfe0c3 	ldbu	r2,-125(fp)
  800ef4:	10803fcc 	andi	r2,r2,255
  800ef8:	d8800015 	stw	r2,0(sp)
  800efc:	00800044 	movi	r2,1
  800f00:	d8800115 	stw	r2,4(sp)
  800f04:	e13ff217 	ldw	r4,-56(fp)
  800f08:	e17ff317 	ldw	r5,-52(fp)
  800f0c:	01c005c4 	movi	r7,23
  800f10:	080bc780 	call	80bc78 <I2C_WriteToDeviceRegister>
  I2C_WriteToDeviceRegister(scl_base, sda_base, deviceAddress, ZG_OFFSET_L, data[5], 1);
  800f14:	e0bfdf83 	ldbu	r2,-130(fp)
  800f18:	11803fcc 	andi	r6,r2,255
  800f1c:	3180201c 	xori	r6,r6,128
  800f20:	31bfe004 	addi	r6,r6,-128
  800f24:	e0bfe103 	ldbu	r2,-124(fp)
  800f28:	10803fcc 	andi	r2,r2,255
  800f2c:	d8800015 	stw	r2,0(sp)
  800f30:	00800044 	movi	r2,1
  800f34:	d8800115 	stw	r2,4(sp)
  800f38:	e13ff217 	ldw	r4,-56(fp)
  800f3c:	e17ff317 	ldw	r5,-52(fp)
  800f40:	01c00604 	movi	r7,24
  800f44:	080bc780 	call	80bc78 <I2C_WriteToDeviceRegister>
  I2C_Stop(scl_base, sda_base);
  800f48:	e13ff217 	ldw	r4,-56(fp)
  800f4c:	e17ff317 	ldw	r5,-52(fp)
  800f50:	080bb480 	call	80bb48 <I2C_Stop>


  // Output scaled gyro biases for display in the main program
  gyroBias[0] = (float) gyro_bias[0]/(float) gyrosensitivity;
  800f54:	e13fe317 	ldw	r4,-116(fp)
  800f58:	080ff900 	call	80ff90 <__floatsisf>
  800f5c:	1021883a 	mov	r16,r2
  800f60:	e13fdd8b 	ldhu	r4,-138(fp)
  800f64:	081007c0 	call	81007c <__floatunsisf>
  800f68:	8009883a 	mov	r4,r16
  800f6c:	100b883a 	mov	r5,r2
  800f70:	080fd2c0 	call	80fd2c <__divsf3>
  800f74:	1007883a 	mov	r3,r2
  800f78:	e0bff017 	ldw	r2,-64(fp)
  800f7c:	10c00015 	stw	r3,0(r2)
  gyroBias[1] = (float) gyro_bias[1]/(float) gyrosensitivity;
  800f80:	e0bff017 	ldw	r2,-64(fp)
  800f84:	14400104 	addi	r17,r2,4
  800f88:	e13fe417 	ldw	r4,-112(fp)
  800f8c:	080ff900 	call	80ff90 <__floatsisf>
  800f90:	1021883a 	mov	r16,r2
  800f94:	e13fdd8b 	ldhu	r4,-138(fp)
  800f98:	081007c0 	call	81007c <__floatunsisf>
  800f9c:	8009883a 	mov	r4,r16
  800fa0:	100b883a 	mov	r5,r2
  800fa4:	080fd2c0 	call	80fd2c <__divsf3>
  800fa8:	88800015 	stw	r2,0(r17)
  gyroBias[2] = (float) gyro_bias[2]/(float) gyrosensitivity;
  800fac:	e0bff017 	ldw	r2,-64(fp)
  800fb0:	14400204 	addi	r17,r2,8
  800fb4:	e13fe517 	ldw	r4,-108(fp)
  800fb8:	080ff900 	call	80ff90 <__floatsisf>
  800fbc:	1021883a 	mov	r16,r2
  800fc0:	e13fdd8b 	ldhu	r4,-138(fp)
  800fc4:	081007c0 	call	81007c <__floatunsisf>
  800fc8:	8009883a 	mov	r4,r16
  800fcc:	100b883a 	mov	r5,r2
  800fd0:	080fd2c0 	call	80fd2c <__divsf3>
  800fd4:	88800015 	stw	r2,0(r17)
  // preserved since it is used for temperature compensation calculations.
  // Accelerometer bias registers expect bias input as 2048 LSB per g, so that
  // the accelerometer biases calculated above must be divided by 8.

  // A place to hold the factory accelerometer trim biases
  alt_32 accel_bias_reg[3] = {0, 0, 0};
  800fd8:	e03fe915 	stw	zero,-92(fp)
  800fdc:	e03fea15 	stw	zero,-88(fp)
  800fe0:	e03feb15 	stw	zero,-84(fp)
  // Read factory accelerometer trim values
  I2C_Start(scl_base, sda_base);
  800fe4:	e13ff217 	ldw	r4,-56(fp)
  800fe8:	e17ff317 	ldw	r5,-52(fp)
  800fec:	080bb100 	call	80bb10 <I2C_Start>
  I2C_ReadFromDeviceRegister(scl_base, sda_base, deviceAddress, XA_OFFSET_H, &data[0], 2, true);
  800ff0:	e0bfdf83 	ldbu	r2,-130(fp)
  800ff4:	11803fcc 	andi	r6,r2,255
  800ff8:	3180201c 	xori	r6,r6,128
  800ffc:	31bfe004 	addi	r6,r6,-128
  801000:	e0bfdfc4 	addi	r2,fp,-129
  801004:	d8800015 	stw	r2,0(sp)
  801008:	00800084 	movi	r2,2
  80100c:	d8800115 	stw	r2,4(sp)
  801010:	00800044 	movi	r2,1
  801014:	d8800215 	stw	r2,8(sp)
  801018:	e13ff217 	ldw	r4,-56(fp)
  80101c:	e17ff317 	ldw	r5,-52(fp)
  801020:	01c01dc4 	movi	r7,119
  801024:	080bf600 	call	80bf60 <I2C_ReadFromDeviceRegister>
  I2C_Stop(scl_base, sda_base);
  801028:	e13ff217 	ldw	r4,-56(fp)
  80102c:	e17ff317 	ldw	r5,-52(fp)
  801030:	080bb480 	call	80bb48 <I2C_Stop>
  accel_bias_reg[0] = (alt_32) (((alt_16)data[0] << 8) | data[1]);
  801034:	e0bfdfc3 	ldbu	r2,-129(fp)
  801038:	10803fcc 	andi	r2,r2,255
  80103c:	1006923a 	slli	r3,r2,8
  801040:	e0bfe003 	ldbu	r2,-128(fp)
  801044:	10803fcc 	andi	r2,r2,255
  801048:	1884b03a 	or	r2,r3,r2
  80104c:	e0bfe915 	stw	r2,-92(fp)
  I2C_Start(scl_base, sda_base);
  801050:	e13ff217 	ldw	r4,-56(fp)
  801054:	e17ff317 	ldw	r5,-52(fp)
  801058:	080bb100 	call	80bb10 <I2C_Start>
  I2C_ReadFromDeviceRegister(scl_base, sda_base, deviceAddress, YA_OFFSET_H, &data[0], 2, true);
  80105c:	e0bfdf83 	ldbu	r2,-130(fp)
  801060:	11803fcc 	andi	r6,r2,255
  801064:	3180201c 	xori	r6,r6,128
  801068:	31bfe004 	addi	r6,r6,-128
  80106c:	e0bfdfc4 	addi	r2,fp,-129
  801070:	d8800015 	stw	r2,0(sp)
  801074:	00800084 	movi	r2,2
  801078:	d8800115 	stw	r2,4(sp)
  80107c:	00800044 	movi	r2,1
  801080:	d8800215 	stw	r2,8(sp)
  801084:	e13ff217 	ldw	r4,-56(fp)
  801088:	e17ff317 	ldw	r5,-52(fp)
  80108c:	01c01e84 	movi	r7,122
  801090:	080bf600 	call	80bf60 <I2C_ReadFromDeviceRegister>
  I2C_Stop(scl_base, sda_base);
  801094:	e13ff217 	ldw	r4,-56(fp)
  801098:	e17ff317 	ldw	r5,-52(fp)
  80109c:	080bb480 	call	80bb48 <I2C_Stop>
  accel_bias_reg[1] = (alt_32) (((alt_16)data[0] << 8) | data[1]);
  8010a0:	e0bfdfc3 	ldbu	r2,-129(fp)
  8010a4:	10803fcc 	andi	r2,r2,255
  8010a8:	1006923a 	slli	r3,r2,8
  8010ac:	e0bfe003 	ldbu	r2,-128(fp)
  8010b0:	10803fcc 	andi	r2,r2,255
  8010b4:	1884b03a 	or	r2,r3,r2
  8010b8:	e0bfea15 	stw	r2,-88(fp)
  I2C_Start(scl_base, sda_base);
  8010bc:	e13ff217 	ldw	r4,-56(fp)
  8010c0:	e17ff317 	ldw	r5,-52(fp)
  8010c4:	080bb100 	call	80bb10 <I2C_Start>
  I2C_ReadFromDeviceRegister(scl_base, sda_base, deviceAddress, ZA_OFFSET_H, &data[0], 2, true);
  8010c8:	e0bfdf83 	ldbu	r2,-130(fp)
  8010cc:	11803fcc 	andi	r6,r2,255
  8010d0:	3180201c 	xori	r6,r6,128
  8010d4:	31bfe004 	addi	r6,r6,-128
  8010d8:	e0bfdfc4 	addi	r2,fp,-129
  8010dc:	d8800015 	stw	r2,0(sp)
  8010e0:	00800084 	movi	r2,2
  8010e4:	d8800115 	stw	r2,4(sp)
  8010e8:	00800044 	movi	r2,1
  8010ec:	d8800215 	stw	r2,8(sp)
  8010f0:	e13ff217 	ldw	r4,-56(fp)
  8010f4:	e17ff317 	ldw	r5,-52(fp)
  8010f8:	01c01f44 	movi	r7,125
  8010fc:	080bf600 	call	80bf60 <I2C_ReadFromDeviceRegister>
  I2C_Stop(scl_base, sda_base);
  801100:	e13ff217 	ldw	r4,-56(fp)
  801104:	e17ff317 	ldw	r5,-52(fp)
  801108:	080bb480 	call	80bb48 <I2C_Stop>
  accel_bias_reg[2] = (alt_32) (((alt_16)data[0] << 8) | data[1]);
  80110c:	e0bfdfc3 	ldbu	r2,-129(fp)
  801110:	10803fcc 	andi	r2,r2,255
  801114:	1006923a 	slli	r3,r2,8
  801118:	e0bfe003 	ldbu	r2,-128(fp)
  80111c:	10803fcc 	andi	r2,r2,255
  801120:	1884b03a 	or	r2,r3,r2
  801124:	e0bfeb15 	stw	r2,-84(fp)

  // Define mask for temperature compensation bit 0 of lower byte of
  // accelerometer bias registers
  alt_u32 mask = 1uL;
  801128:	00800044 	movi	r2,1
  80112c:	e0bfdc15 	stw	r2,-144(fp)
  // Define array to hold mask bit for each accelerometer bias axis
  alt_u8 mask_bit[3] = {0, 0, 0};
  801130:	e03fec05 	stb	zero,-80(fp)
  801134:	e03fec45 	stb	zero,-79(fp)
  801138:	e03fec85 	stb	zero,-78(fp)

  for (ii = 0; ii < 3; ii++)
  80113c:	e03fdf0d 	sth	zero,-132(fp)
  801140:	00001406 	br	801194 <calibrateMPU9250+0xb9c>
  {
    // If temperature compensation bit is set, record that fact in mask_bit
    if ((accel_bias_reg[ii] & mask))
  801144:	e0bfdf0b 	ldhu	r2,-132(fp)
  801148:	1085883a 	add	r2,r2,r2
  80114c:	1085883a 	add	r2,r2,r2
  801150:	e0ffdc04 	addi	r3,fp,-144
  801154:	10c5883a 	add	r2,r2,r3
  801158:	10800d04 	addi	r2,r2,52
  80115c:	10800017 	ldw	r2,0(r2)
  801160:	1007883a 	mov	r3,r2
  801164:	e0bfdc17 	ldw	r2,-144(fp)
  801168:	1884703a 	and	r2,r3,r2
  80116c:	1005003a 	cmpeq	r2,r2,zero
  801170:	1000051e 	bne	r2,zero,801188 <calibrateMPU9250+0xb90>
    {
      mask_bit[ii] = 0x01;
  801174:	e0ffdf0b 	ldhu	r3,-132(fp)
  801178:	e0bfec04 	addi	r2,fp,-80
  80117c:	10c7883a 	add	r3,r2,r3
  801180:	00800044 	movi	r2,1
  801184:	18800005 	stb	r2,0(r3)
  // accelerometer bias registers
  alt_u32 mask = 1uL;
  // Define array to hold mask bit for each accelerometer bias axis
  alt_u8 mask_bit[3] = {0, 0, 0};

  for (ii = 0; ii < 3; ii++)
  801188:	e0bfdf0b 	ldhu	r2,-132(fp)
  80118c:	10800044 	addi	r2,r2,1
  801190:	e0bfdf0d 	sth	r2,-132(fp)
  801194:	e0bfdf0b 	ldhu	r2,-132(fp)
  801198:	108000f0 	cmpltui	r2,r2,3
  80119c:	103fe91e 	bne	r2,zero,801144 <calibrateMPU9250+0xb4c>

  // Construct total accelerometer bias, including calculated average
  // accelerometer bias from above
  // Subtract calculated averaged accelerometer bias scaled to 2048 LSB/g
  // (16 g full scale)
  accel_bias_reg[0] -= (accel_bias[0]/8);
  8011a0:	e0bfe917 	ldw	r2,-92(fp)
  8011a4:	e0bff615 	stw	r2,-40(fp)
  8011a8:	e0bfe617 	ldw	r2,-104(fp)
  8011ac:	e0bffd15 	stw	r2,-12(fp)
  8011b0:	e0fffd17 	ldw	r3,-12(fp)
  8011b4:	1804403a 	cmpge	r2,r3,zero
  8011b8:	1000031e 	bne	r2,zero,8011c8 <calibrateMPU9250+0xbd0>
  8011bc:	e0bffd17 	ldw	r2,-12(fp)
  8011c0:	108001c4 	addi	r2,r2,7
  8011c4:	e0bffd15 	stw	r2,-12(fp)
  8011c8:	e0fffd17 	ldw	r3,-12(fp)
  8011cc:	1805d0fa 	srai	r2,r3,3
  8011d0:	e0fff617 	ldw	r3,-40(fp)
  8011d4:	1885c83a 	sub	r2,r3,r2
  8011d8:	e0bfe915 	stw	r2,-92(fp)
  accel_bias_reg[1] -= (accel_bias[1]/8);
  8011dc:	e0bfea17 	ldw	r2,-88(fp)
  8011e0:	e0bff515 	stw	r2,-44(fp)
  8011e4:	e0bfe717 	ldw	r2,-100(fp)
  8011e8:	e0bffe15 	stw	r2,-8(fp)
  8011ec:	e0fffe17 	ldw	r3,-8(fp)
  8011f0:	1804403a 	cmpge	r2,r3,zero
  8011f4:	1000031e 	bne	r2,zero,801204 <calibrateMPU9250+0xc0c>
  8011f8:	e0bffe17 	ldw	r2,-8(fp)
  8011fc:	108001c4 	addi	r2,r2,7
  801200:	e0bffe15 	stw	r2,-8(fp)
  801204:	e0fffe17 	ldw	r3,-8(fp)
  801208:	1805d0fa 	srai	r2,r3,3
  80120c:	e0fff517 	ldw	r3,-44(fp)
  801210:	1885c83a 	sub	r2,r3,r2
  801214:	e0bfea15 	stw	r2,-88(fp)
  accel_bias_reg[2] -= (accel_bias[2]/8);
  801218:	e0bfeb17 	ldw	r2,-84(fp)
  80121c:	e0bff415 	stw	r2,-48(fp)
  801220:	e0bfe817 	ldw	r2,-96(fp)
  801224:	e0bfff15 	stw	r2,-4(fp)
  801228:	e0ffff17 	ldw	r3,-4(fp)
  80122c:	1804403a 	cmpge	r2,r3,zero
  801230:	1000031e 	bne	r2,zero,801240 <calibrateMPU9250+0xc48>
  801234:	e0bfff17 	ldw	r2,-4(fp)
  801238:	108001c4 	addi	r2,r2,7
  80123c:	e0bfff15 	stw	r2,-4(fp)
  801240:	e0ffff17 	ldw	r3,-4(fp)
  801244:	1805d0fa 	srai	r2,r3,3
  801248:	e0fff417 	ldw	r3,-48(fp)
  80124c:	1885c83a 	sub	r2,r3,r2
  801250:	e0bfeb15 	stw	r2,-84(fp)

  data[0] = (accel_bias_reg[0] >> 8) & 0xFF;
  801254:	e0bfe917 	ldw	r2,-92(fp)
  801258:	1005d23a 	srai	r2,r2,8
  80125c:	1007883a 	mov	r3,r2
  801260:	00bfffc4 	movi	r2,-1
  801264:	1884703a 	and	r2,r3,r2
  801268:	e0bfdfc5 	stb	r2,-129(fp)
  data[1] = (accel_bias_reg[0])      & 0xFF;
  80126c:	e0bfe917 	ldw	r2,-92(fp)
  801270:	1007883a 	mov	r3,r2
  801274:	00bfffc4 	movi	r2,-1
  801278:	1884703a 	and	r2,r3,r2
  80127c:	e0bfe005 	stb	r2,-128(fp)
  // preserve temperature compensation bit when writing back to accelerometer
  // bias registers
  data[1] = data[1] | mask_bit[0];
  801280:	e0ffe003 	ldbu	r3,-128(fp)
  801284:	e0bfec03 	ldbu	r2,-80(fp)
  801288:	1884b03a 	or	r2,r3,r2
  80128c:	e0bfe005 	stb	r2,-128(fp)
  data[2] = (accel_bias_reg[1] >> 8) & 0xFF;
  801290:	e0bfea17 	ldw	r2,-88(fp)
  801294:	1005d23a 	srai	r2,r2,8
  801298:	1007883a 	mov	r3,r2
  80129c:	00bfffc4 	movi	r2,-1
  8012a0:	1884703a 	and	r2,r3,r2
  8012a4:	e0bfe045 	stb	r2,-127(fp)
  data[3] = (accel_bias_reg[1])      & 0xFF;
  8012a8:	e0bfea17 	ldw	r2,-88(fp)
  8012ac:	1007883a 	mov	r3,r2
  8012b0:	00bfffc4 	movi	r2,-1
  8012b4:	1884703a 	and	r2,r3,r2
  8012b8:	e0bfe085 	stb	r2,-126(fp)
  // Preserve temperature compensation bit when writing back to accelerometer
  // bias registers
  data[3] = data[3] | mask_bit[1];
  8012bc:	e0ffe083 	ldbu	r3,-126(fp)
  8012c0:	e0bfec43 	ldbu	r2,-79(fp)
  8012c4:	1884b03a 	or	r2,r3,r2
  8012c8:	e0bfe085 	stb	r2,-126(fp)
  data[4] = (accel_bias_reg[2] >> 8) & 0xFF;
  8012cc:	e0bfeb17 	ldw	r2,-84(fp)
  8012d0:	1005d23a 	srai	r2,r2,8
  8012d4:	1007883a 	mov	r3,r2
  8012d8:	00bfffc4 	movi	r2,-1
  8012dc:	1884703a 	and	r2,r3,r2
  8012e0:	e0bfe0c5 	stb	r2,-125(fp)
  data[5] = (accel_bias_reg[2])      & 0xFF;
  8012e4:	e0bfeb17 	ldw	r2,-84(fp)
  8012e8:	1007883a 	mov	r3,r2
  8012ec:	00bfffc4 	movi	r2,-1
  8012f0:	1884703a 	and	r2,r3,r2
  8012f4:	e0bfe105 	stb	r2,-124(fp)
  // Preserve temperature compensation bit when writing back to accelerometer
  // bias registers
  data[5] = data[5] | mask_bit[2];
  8012f8:	e0ffe103 	ldbu	r3,-124(fp)
  8012fc:	e0bfec83 	ldbu	r2,-78(fp)
  801300:	1884b03a 	or	r2,r3,r2
  801304:	e0bfe105 	stb	r2,-124(fp)

  // Apparently this is not working for the acceleration biases in the MPU-9250
  // Are we handling the temperature correction bit properly?
  // Push accelerometer biases to hardware registers
  I2C_Start(scl_base, sda_base);
  801308:	e13ff217 	ldw	r4,-56(fp)
  80130c:	e17ff317 	ldw	r5,-52(fp)
  801310:	080bb100 	call	80bb10 <I2C_Start>
  I2C_WriteToDeviceRegister(scl_base, sda_base, deviceAddress,  XA_OFFSET_H, data[0], 1);
  801314:	e0bfdf83 	ldbu	r2,-130(fp)
  801318:	11803fcc 	andi	r6,r2,255
  80131c:	3180201c 	xori	r6,r6,128
  801320:	31bfe004 	addi	r6,r6,-128
  801324:	e0bfdfc3 	ldbu	r2,-129(fp)
  801328:	10803fcc 	andi	r2,r2,255
  80132c:	d8800015 	stw	r2,0(sp)
  801330:	00800044 	movi	r2,1
  801334:	d8800115 	stw	r2,4(sp)
  801338:	e13ff217 	ldw	r4,-56(fp)
  80133c:	e17ff317 	ldw	r5,-52(fp)
  801340:	01c01dc4 	movi	r7,119
  801344:	080bc780 	call	80bc78 <I2C_WriteToDeviceRegister>
  I2C_WriteToDeviceRegister(scl_base, sda_base, deviceAddress,  XA_OFFSET_L, data[1], 1);
  801348:	e0bfdf83 	ldbu	r2,-130(fp)
  80134c:	11803fcc 	andi	r6,r2,255
  801350:	3180201c 	xori	r6,r6,128
  801354:	31bfe004 	addi	r6,r6,-128
  801358:	e0bfe003 	ldbu	r2,-128(fp)
  80135c:	10803fcc 	andi	r2,r2,255
  801360:	d8800015 	stw	r2,0(sp)
  801364:	00800044 	movi	r2,1
  801368:	d8800115 	stw	r2,4(sp)
  80136c:	e13ff217 	ldw	r4,-56(fp)
  801370:	e17ff317 	ldw	r5,-52(fp)
  801374:	01c01e04 	movi	r7,120
  801378:	080bc780 	call	80bc78 <I2C_WriteToDeviceRegister>
  I2C_WriteToDeviceRegister(scl_base, sda_base, deviceAddress, YA_OFFSET_H, data[2], 1);
  80137c:	e0bfdf83 	ldbu	r2,-130(fp)
  801380:	11803fcc 	andi	r6,r2,255
  801384:	3180201c 	xori	r6,r6,128
  801388:	31bfe004 	addi	r6,r6,-128
  80138c:	e0bfe043 	ldbu	r2,-127(fp)
  801390:	10803fcc 	andi	r2,r2,255
  801394:	d8800015 	stw	r2,0(sp)
  801398:	00800044 	movi	r2,1
  80139c:	d8800115 	stw	r2,4(sp)
  8013a0:	e13ff217 	ldw	r4,-56(fp)
  8013a4:	e17ff317 	ldw	r5,-52(fp)
  8013a8:	01c01e84 	movi	r7,122
  8013ac:	080bc780 	call	80bc78 <I2C_WriteToDeviceRegister>
  I2C_WriteToDeviceRegister(scl_base, sda_base, deviceAddress, YA_OFFSET_L, data[3], 1);
  8013b0:	e0bfdf83 	ldbu	r2,-130(fp)
  8013b4:	11803fcc 	andi	r6,r2,255
  8013b8:	3180201c 	xori	r6,r6,128
  8013bc:	31bfe004 	addi	r6,r6,-128
  8013c0:	e0bfe083 	ldbu	r2,-126(fp)
  8013c4:	10803fcc 	andi	r2,r2,255
  8013c8:	d8800015 	stw	r2,0(sp)
  8013cc:	00800044 	movi	r2,1
  8013d0:	d8800115 	stw	r2,4(sp)
  8013d4:	e13ff217 	ldw	r4,-56(fp)
  8013d8:	e17ff317 	ldw	r5,-52(fp)
  8013dc:	01c01ec4 	movi	r7,123
  8013e0:	080bc780 	call	80bc78 <I2C_WriteToDeviceRegister>
  I2C_WriteToDeviceRegister(scl_base, sda_base, deviceAddress, ZA_OFFSET_H, data[4], 1);
  8013e4:	e0bfdf83 	ldbu	r2,-130(fp)
  8013e8:	11803fcc 	andi	r6,r2,255
  8013ec:	3180201c 	xori	r6,r6,128
  8013f0:	31bfe004 	addi	r6,r6,-128
  8013f4:	e0bfe0c3 	ldbu	r2,-125(fp)
  8013f8:	10803fcc 	andi	r2,r2,255
  8013fc:	d8800015 	stw	r2,0(sp)
  801400:	00800044 	movi	r2,1
  801404:	d8800115 	stw	r2,4(sp)
  801408:	e13ff217 	ldw	r4,-56(fp)
  80140c:	e17ff317 	ldw	r5,-52(fp)
  801410:	01c01f44 	movi	r7,125
  801414:	080bc780 	call	80bc78 <I2C_WriteToDeviceRegister>
  I2C_WriteToDeviceRegister(scl_base, sda_base, deviceAddress, ZA_OFFSET_L, data[5], 1);
  801418:	e0bfdf83 	ldbu	r2,-130(fp)
  80141c:	11803fcc 	andi	r6,r2,255
  801420:	3180201c 	xori	r6,r6,128
  801424:	31bfe004 	addi	r6,r6,-128
  801428:	e0bfe103 	ldbu	r2,-124(fp)
  80142c:	10803fcc 	andi	r2,r2,255
  801430:	d8800015 	stw	r2,0(sp)
  801434:	00800044 	movi	r2,1
  801438:	d8800115 	stw	r2,4(sp)
  80143c:	e13ff217 	ldw	r4,-56(fp)
  801440:	e17ff317 	ldw	r5,-52(fp)
  801444:	01c01f84 	movi	r7,126
  801448:	080bc780 	call	80bc78 <I2C_WriteToDeviceRegister>
  I2C_Stop(scl_base, sda_base);
  80144c:	e13ff217 	ldw	r4,-56(fp)
  801450:	e17ff317 	ldw	r5,-52(fp)
  801454:	080bb480 	call	80bb48 <I2C_Stop>


  // Output scaled accelerometer biases for display in the main program
  accelBias[0] = (float)accel_bias[0]/(float)accelsensitivity;
  801458:	e13fe617 	ldw	r4,-104(fp)
  80145c:	080ff900 	call	80ff90 <__floatsisf>
  801460:	1021883a 	mov	r16,r2
  801464:	e13fdd0b 	ldhu	r4,-140(fp)
  801468:	081007c0 	call	81007c <__floatunsisf>
  80146c:	8009883a 	mov	r4,r16
  801470:	100b883a 	mov	r5,r2
  801474:	080fd2c0 	call	80fd2c <__divsf3>
  801478:	1007883a 	mov	r3,r2
  80147c:	e0bff117 	ldw	r2,-60(fp)
  801480:	10c00015 	stw	r3,0(r2)
  accelBias[1] = (float)accel_bias[1]/(float)accelsensitivity;
  801484:	e0bff117 	ldw	r2,-60(fp)
  801488:	14400104 	addi	r17,r2,4
  80148c:	e13fe717 	ldw	r4,-100(fp)
  801490:	080ff900 	call	80ff90 <__floatsisf>
  801494:	1021883a 	mov	r16,r2
  801498:	e13fdd0b 	ldhu	r4,-140(fp)
  80149c:	081007c0 	call	81007c <__floatunsisf>
  8014a0:	8009883a 	mov	r4,r16
  8014a4:	100b883a 	mov	r5,r2
  8014a8:	080fd2c0 	call	80fd2c <__divsf3>
  8014ac:	88800015 	stw	r2,0(r17)
  accelBias[2] = (float)accel_bias[2]/(float)accelsensitivity;
  8014b0:	e0bff117 	ldw	r2,-60(fp)
  8014b4:	14400204 	addi	r17,r2,8
  8014b8:	e13fe817 	ldw	r4,-96(fp)
  8014bc:	080ff900 	call	80ff90 <__floatsisf>
  8014c0:	1021883a 	mov	r16,r2
  8014c4:	e13fdd0b 	ldhu	r4,-140(fp)
  8014c8:	081007c0 	call	81007c <__floatunsisf>
  8014cc:	8009883a 	mov	r4,r16
  8014d0:	100b883a 	mov	r5,r2
  8014d4:	080fd2c0 	call	80fd2c <__divsf3>
  8014d8:	88800015 	stw	r2,0(r17)
}
  8014dc:	e037883a 	mov	sp,fp
  8014e0:	dfc00317 	ldw	ra,12(sp)
  8014e4:	df000217 	ldw	fp,8(sp)
  8014e8:	dc400117 	ldw	r17,4(sp)
  8014ec:	dc000017 	ldw	r16,0(sp)
  8014f0:	dec00404 	addi	sp,sp,16
  8014f4:	f800283a 	ret

008014f8 <MPU9250SelfTest>:

// Accelerometer and gyroscope self test; check calibration wrt factory settings
// Should return percent deviation from factory trim values, +/- 14 or less
// deviation is a pass.
void MPU9250SelfTest(float * destination, alt_u32 scl_base, alt_u32 sda_base)
{
  8014f8:	deffde04 	addi	sp,sp,-136
  8014fc:	dfc02115 	stw	ra,132(sp)
  801500:	df002015 	stw	fp,128(sp)
  801504:	dc401f15 	stw	r17,124(sp)
  801508:	dc001e15 	stw	r16,120(sp)
  80150c:	df001e04 	addi	fp,sp,120
  801510:	e13ffd15 	stw	r4,-12(fp)
  801514:	e17ffe15 	stw	r5,-8(fp)
  801518:	e1bfff15 	stw	r6,-4(fp)
  alt_u8 deviceAddress = 0xD0;
  80151c:	00bff404 	movi	r2,-48
  801520:	e0bfe645 	stb	r2,-103(fp)
  alt_u8 rawData[6];
  alt_u8 selfTest[6];
  alt_32 gAvg[3] = {0}, aAvg[3] = {0}, aSTAvg[3] = {0}, gSTAvg[3] = {0};
  801524:	e03fea15 	stw	zero,-88(fp)
  801528:	e03feb15 	stw	zero,-84(fp)
  80152c:	e03fec15 	stw	zero,-80(fp)
  801530:	e03fed15 	stw	zero,-76(fp)
  801534:	e03fee15 	stw	zero,-72(fp)
  801538:	e03fef15 	stw	zero,-68(fp)
  80153c:	e03ff015 	stw	zero,-64(fp)
  801540:	e03ff115 	stw	zero,-60(fp)
  801544:	e03ff215 	stw	zero,-56(fp)
  801548:	e03ff315 	stw	zero,-52(fp)
  80154c:	e03ff415 	stw	zero,-48(fp)
  801550:	e03ff515 	stw	zero,-44(fp)
  float factoryTrim[6];
  alt_u8 FS = 0;
  801554:	e03fe605 	stb	zero,-104(fp)
  alt_u8 ReadBuf[1];

  I2C_Start(scl_base, sda_base);
  801558:	e13ffe17 	ldw	r4,-8(fp)
  80155c:	e17fff17 	ldw	r5,-4(fp)
  801560:	080bb100 	call	80bb10 <I2C_Start>
  // Set gyro sample rate to 1 kHz
  if(!I2C_ReadFromDeviceRegister(scl_base,sda_base, deviceAddress, 0x75, (alt_u8*)&ReadBuf, 1, true)){
  801564:	e0bfe643 	ldbu	r2,-103(fp)
  801568:	11803fcc 	andi	r6,r2,255
  80156c:	3180201c 	xori	r6,r6,128
  801570:	31bfe004 	addi	r6,r6,-128
  801574:	e0bffc04 	addi	r2,fp,-16
  801578:	d8800015 	stw	r2,0(sp)
  80157c:	00800044 	movi	r2,1
  801580:	d8800115 	stw	r2,4(sp)
  801584:	00800044 	movi	r2,1
  801588:	d8800215 	stw	r2,8(sp)
  80158c:	e13ffe17 	ldw	r4,-8(fp)
  801590:	e17fff17 	ldw	r5,-4(fp)
  801594:	01c01d44 	movi	r7,117
  801598:	080bf600 	call	80bf60 <I2C_ReadFromDeviceRegister>

  }
  I2C_Stop(scl_base, sda_base);
  80159c:	e13ffe17 	ldw	r4,-8(fp)
  8015a0:	e17fff17 	ldw	r5,-4(fp)
  8015a4:	080bb480 	call	80bb48 <I2C_Stop>
  printf("WHO AM I: %0x\n", ReadBuf[0]);
  8015a8:	e0bffc03 	ldbu	r2,-16(fp)
  8015ac:	11403fcc 	andi	r5,r2,255
  8015b0:	010020b4 	movhi	r4,130
  8015b4:	211d3b04 	addi	r4,r4,29932
  8015b8:	08123b40 	call	8123b4 <printf>


  I2C_Start(scl_base, sda_base);
  8015bc:	e13ffe17 	ldw	r4,-8(fp)
  8015c0:	e17fff17 	ldw	r5,-4(fp)
  8015c4:	080bb100 	call	80bb10 <I2C_Start>
  I2C_WriteToDeviceRegister(scl_base, sda_base, deviceAddress, SMPLRT_DIV, 0x00, 1);
  8015c8:	e0bfe643 	ldbu	r2,-103(fp)
  8015cc:	11803fcc 	andi	r6,r2,255
  8015d0:	3180201c 	xori	r6,r6,128
  8015d4:	31bfe004 	addi	r6,r6,-128
  8015d8:	d8000015 	stw	zero,0(sp)
  8015dc:	00800044 	movi	r2,1
  8015e0:	d8800115 	stw	r2,4(sp)
  8015e4:	e13ffe17 	ldw	r4,-8(fp)
  8015e8:	e17fff17 	ldw	r5,-4(fp)
  8015ec:	01c00644 	movi	r7,25
  8015f0:	080bc780 	call	80bc78 <I2C_WriteToDeviceRegister>
  // Set gyro sample rate to 1 kHz and DLPF to 92 Hz
  I2C_WriteToDeviceRegister(scl_base, sda_base, deviceAddress, CONFIG, 0x02, 1);
  8015f4:	e0bfe643 	ldbu	r2,-103(fp)
  8015f8:	11803fcc 	andi	r6,r2,255
  8015fc:	3180201c 	xori	r6,r6,128
  801600:	31bfe004 	addi	r6,r6,-128
  801604:	00800084 	movi	r2,2
  801608:	d8800015 	stw	r2,0(sp)
  80160c:	00800044 	movi	r2,1
  801610:	d8800115 	stw	r2,4(sp)
  801614:	e13ffe17 	ldw	r4,-8(fp)
  801618:	e17fff17 	ldw	r5,-4(fp)
  80161c:	01c00684 	movi	r7,26
  801620:	080bc780 	call	80bc78 <I2C_WriteToDeviceRegister>
  // Set full scale range for the gyro to 250 dps
  I2C_WriteToDeviceRegister(scl_base, sda_base, deviceAddress, GYRO_CONFIG,  0x10, 1);
  801624:	e0bfe643 	ldbu	r2,-103(fp)
  801628:	11803fcc 	andi	r6,r2,255
  80162c:	3180201c 	xori	r6,r6,128
  801630:	31bfe004 	addi	r6,r6,-128
  801634:	00800404 	movi	r2,16
  801638:	d8800015 	stw	r2,0(sp)
  80163c:	00800044 	movi	r2,1
  801640:	d8800115 	stw	r2,4(sp)
  801644:	e13ffe17 	ldw	r4,-8(fp)
  801648:	e17fff17 	ldw	r5,-4(fp)
  80164c:	01c006c4 	movi	r7,27
  801650:	080bc780 	call	80bc78 <I2C_WriteToDeviceRegister>
  // Set accelerometer rate to 1 kHz and bandwidth to 92 Hz
  I2C_WriteToDeviceRegister(scl_base, sda_base, deviceAddress, ACCEL_CONFIG2, 0x02, 1);
  801654:	e0bfe643 	ldbu	r2,-103(fp)
  801658:	11803fcc 	andi	r6,r2,255
  80165c:	3180201c 	xori	r6,r6,128
  801660:	31bfe004 	addi	r6,r6,-128
  801664:	00800084 	movi	r2,2
  801668:	d8800015 	stw	r2,0(sp)
  80166c:	00800044 	movi	r2,1
  801670:	d8800115 	stw	r2,4(sp)
  801674:	e13ffe17 	ldw	r4,-8(fp)
  801678:	e17fff17 	ldw	r5,-4(fp)
  80167c:	01c00744 	movi	r7,29
  801680:	080bc780 	call	80bc78 <I2C_WriteToDeviceRegister>
  // Set full scale range for the accelerometer to 2 g
  I2C_WriteToDeviceRegister(scl_base, sda_base, deviceAddress, ACCEL_CONFIG, 1<<FS, 1);
  801684:	e0bfe643 	ldbu	r2,-103(fp)
  801688:	11803fcc 	andi	r6,r2,255
  80168c:	3180201c 	xori	r6,r6,128
  801690:	31bfe004 	addi	r6,r6,-128
  801694:	e0ffe603 	ldbu	r3,-104(fp)
  801698:	00800044 	movi	r2,1
  80169c:	10c4983a 	sll	r2,r2,r3
  8016a0:	d8800015 	stw	r2,0(sp)
  8016a4:	00800044 	movi	r2,1
  8016a8:	d8800115 	stw	r2,4(sp)
  8016ac:	e13ffe17 	ldw	r4,-8(fp)
  8016b0:	e17fff17 	ldw	r5,-4(fp)
  8016b4:	01c00704 	movi	r7,28
  8016b8:	080bc780 	call	80bc78 <I2C_WriteToDeviceRegister>
  I2C_Stop(scl_base, sda_base);
  8016bc:	e13ffe17 	ldw	r4,-8(fp)
  8016c0:	e17fff17 	ldw	r5,-4(fp)
  8016c4:	080bb480 	call	80bb48 <I2C_Stop>


  int ii;
  // Get average current values of gyro and acclerometer
  for ( ii = 0; ii < 100; ii= ii+1) {
  8016c8:	e03fe515 	stw	zero,-108(fp)
  8016cc:	00007606 	br	8018a8 <MPU9250SelfTest+0x3b0>

  	//printf("BHW::ii = %d \n", ii );
  	I2C_Start(scl_base, sda_base);
  8016d0:	e13ffe17 	ldw	r4,-8(fp)
  8016d4:	e17fff17 	ldw	r5,-4(fp)
  8016d8:	080bb100 	call	80bb10 <I2C_Start>
    // Read the six raw data registers into data array
	I2C_ReadFromDeviceRegister(scl_base, sda_base, 0xD0, ACCEL_XOUT_H, &rawData[0],6, true);
  8016dc:	e0bfe684 	addi	r2,fp,-102
  8016e0:	d8800015 	stw	r2,0(sp)
  8016e4:	00800184 	movi	r2,6
  8016e8:	d8800115 	stw	r2,4(sp)
  8016ec:	00800044 	movi	r2,1
  8016f0:	d8800215 	stw	r2,8(sp)
  8016f4:	e13ffe17 	ldw	r4,-8(fp)
  8016f8:	e17fff17 	ldw	r5,-4(fp)
  8016fc:	01bff404 	movi	r6,-48
  801700:	01c00ec4 	movi	r7,59
  801704:	080bf600 	call	80bf60 <I2C_ReadFromDeviceRegister>
    I2C_Stop(scl_base, sda_base);
  801708:	e13ffe17 	ldw	r4,-8(fp)
  80170c:	e17fff17 	ldw	r5,-4(fp)
  801710:	080bb480 	call	80bb48 <I2C_Stop>

	// Turn the MSB and LSB into a signed 16-bit value
    aAvg[0] += (alt_16)(((alt_16)rawData[0] << 8) | rawData[1]) ;
  801714:	e13fed17 	ldw	r4,-76(fp)
  801718:	e0bfe683 	ldbu	r2,-102(fp)
  80171c:	10803fcc 	andi	r2,r2,255
  801720:	1004923a 	slli	r2,r2,8
  801724:	1007883a 	mov	r3,r2
  801728:	e0bfe6c3 	ldbu	r2,-101(fp)
  80172c:	10803fcc 	andi	r2,r2,255
  801730:	1884b03a 	or	r2,r3,r2
  801734:	10bfffcc 	andi	r2,r2,65535
  801738:	10a0001c 	xori	r2,r2,32768
  80173c:	10a00004 	addi	r2,r2,-32768
  801740:	2085883a 	add	r2,r4,r2
  801744:	e0bfed15 	stw	r2,-76(fp)
    aAvg[1] += (alt_16)(((alt_16)rawData[2] << 8) | rawData[3]) ;
  801748:	e13fee17 	ldw	r4,-72(fp)
  80174c:	e0bfe703 	ldbu	r2,-100(fp)
  801750:	10803fcc 	andi	r2,r2,255
  801754:	1004923a 	slli	r2,r2,8
  801758:	1007883a 	mov	r3,r2
  80175c:	e0bfe743 	ldbu	r2,-99(fp)
  801760:	10803fcc 	andi	r2,r2,255
  801764:	1884b03a 	or	r2,r3,r2
  801768:	10bfffcc 	andi	r2,r2,65535
  80176c:	10a0001c 	xori	r2,r2,32768
  801770:	10a00004 	addi	r2,r2,-32768
  801774:	2085883a 	add	r2,r4,r2
  801778:	e0bfee15 	stw	r2,-72(fp)
    aAvg[2] += (alt_16)(((alt_16)rawData[4] << 8) | rawData[5]) ;
  80177c:	e13fef17 	ldw	r4,-68(fp)
  801780:	e0bfe783 	ldbu	r2,-98(fp)
  801784:	10803fcc 	andi	r2,r2,255
  801788:	1004923a 	slli	r2,r2,8
  80178c:	1007883a 	mov	r3,r2
  801790:	e0bfe7c3 	ldbu	r2,-97(fp)
  801794:	10803fcc 	andi	r2,r2,255
  801798:	1884b03a 	or	r2,r3,r2
  80179c:	10bfffcc 	andi	r2,r2,65535
  8017a0:	10a0001c 	xori	r2,r2,32768
  8017a4:	10a00004 	addi	r2,r2,-32768
  8017a8:	2085883a 	add	r2,r4,r2
  8017ac:	e0bfef15 	stw	r2,-68(fp)

  	I2C_Start(scl_base, sda_base);
  8017b0:	e13ffe17 	ldw	r4,-8(fp)
  8017b4:	e17fff17 	ldw	r5,-4(fp)
  8017b8:	080bb100 	call	80bb10 <I2C_Start>

    // Read the six raw data registers sequentially into data array
	I2C_ReadFromDeviceRegister(scl_base, sda_base, deviceAddress, GYRO_XOUT_H, &rawData[0], 6, true);
  8017bc:	e0bfe643 	ldbu	r2,-103(fp)
  8017c0:	11803fcc 	andi	r6,r2,255
  8017c4:	3180201c 	xori	r6,r6,128
  8017c8:	31bfe004 	addi	r6,r6,-128
  8017cc:	e0bfe684 	addi	r2,fp,-102
  8017d0:	d8800015 	stw	r2,0(sp)
  8017d4:	00800184 	movi	r2,6
  8017d8:	d8800115 	stw	r2,4(sp)
  8017dc:	00800044 	movi	r2,1
  8017e0:	d8800215 	stw	r2,8(sp)
  8017e4:	e13ffe17 	ldw	r4,-8(fp)
  8017e8:	e17fff17 	ldw	r5,-4(fp)
  8017ec:	01c010c4 	movi	r7,67
  8017f0:	080bf600 	call	80bf60 <I2C_ReadFromDeviceRegister>
    I2C_Stop(scl_base, sda_base);
  8017f4:	e13ffe17 	ldw	r4,-8(fp)
  8017f8:	e17fff17 	ldw	r5,-4(fp)
  8017fc:	080bb480 	call	80bb48 <I2C_Stop>

	// Turn the MSB and LSB into a signed 16-bit value
    gAvg[0] += (alt_16)(((alt_16)rawData[0] << 8) | rawData[1]) ;
  801800:	e13fea17 	ldw	r4,-88(fp)
  801804:	e0bfe683 	ldbu	r2,-102(fp)
  801808:	10803fcc 	andi	r2,r2,255
  80180c:	1004923a 	slli	r2,r2,8
  801810:	1007883a 	mov	r3,r2
  801814:	e0bfe6c3 	ldbu	r2,-101(fp)
  801818:	10803fcc 	andi	r2,r2,255
  80181c:	1884b03a 	or	r2,r3,r2
  801820:	10bfffcc 	andi	r2,r2,65535
  801824:	10a0001c 	xori	r2,r2,32768
  801828:	10a00004 	addi	r2,r2,-32768
  80182c:	2085883a 	add	r2,r4,r2
  801830:	e0bfea15 	stw	r2,-88(fp)
    gAvg[1] += (alt_16)(((alt_16)rawData[2] << 8) | rawData[3]) ;
  801834:	e13feb17 	ldw	r4,-84(fp)
  801838:	e0bfe703 	ldbu	r2,-100(fp)
  80183c:	10803fcc 	andi	r2,r2,255
  801840:	1004923a 	slli	r2,r2,8
  801844:	1007883a 	mov	r3,r2
  801848:	e0bfe743 	ldbu	r2,-99(fp)
  80184c:	10803fcc 	andi	r2,r2,255
  801850:	1884b03a 	or	r2,r3,r2
  801854:	10bfffcc 	andi	r2,r2,65535
  801858:	10a0001c 	xori	r2,r2,32768
  80185c:	10a00004 	addi	r2,r2,-32768
  801860:	2085883a 	add	r2,r4,r2
  801864:	e0bfeb15 	stw	r2,-84(fp)
    gAvg[2] += (alt_16)(((alt_16)rawData[4] << 8) | rawData[5]) ;
  801868:	e13fec17 	ldw	r4,-80(fp)
  80186c:	e0bfe783 	ldbu	r2,-98(fp)
  801870:	10803fcc 	andi	r2,r2,255
  801874:	1004923a 	slli	r2,r2,8
  801878:	1007883a 	mov	r3,r2
  80187c:	e0bfe7c3 	ldbu	r2,-97(fp)
  801880:	10803fcc 	andi	r2,r2,255
  801884:	1884b03a 	or	r2,r3,r2
  801888:	10bfffcc 	andi	r2,r2,65535
  80188c:	10a0001c 	xori	r2,r2,32768
  801890:	10a00004 	addi	r2,r2,-32768
  801894:	2085883a 	add	r2,r4,r2
  801898:	e0bfec15 	stw	r2,-80(fp)
  I2C_Stop(scl_base, sda_base);


  int ii;
  // Get average current values of gyro and acclerometer
  for ( ii = 0; ii < 100; ii= ii+1) {
  80189c:	e0bfe517 	ldw	r2,-108(fp)
  8018a0:	10800044 	addi	r2,r2,1
  8018a4:	e0bfe515 	stw	r2,-108(fp)
  8018a8:	e0bfe517 	ldw	r2,-108(fp)
  8018ac:	10801910 	cmplti	r2,r2,100
  8018b0:	103f871e 	bne	r2,zero,8016d0 <MPU9250SelfTest+0x1d8>
    gAvg[2] += (alt_16)(((alt_16)rawData[4] << 8) | rawData[5]) ;

  }

  // Get average of 200 values and store as average current readings
  for ( ii =0; ii < 3; ii = ii+1)
  8018b4:	e03fe515 	stw	zero,-108(fp)
  8018b8:	00002506 	br	801950 <MPU9250SelfTest+0x458>
  {
    aAvg[ii] /= 100;
  8018bc:	e43fe517 	ldw	r16,-108(fp)
  8018c0:	e0bfe517 	ldw	r2,-108(fp)
  8018c4:	1085883a 	add	r2,r2,r2
  8018c8:	1085883a 	add	r2,r2,r2
  8018cc:	e0ffe504 	addi	r3,fp,-108
  8018d0:	10c5883a 	add	r2,r2,r3
  8018d4:	10800804 	addi	r2,r2,32
  8018d8:	11000017 	ldw	r4,0(r2)
  8018dc:	01401904 	movi	r5,100
  8018e0:	08111240 	call	811124 <__divsi3>
  8018e4:	1007883a 	mov	r3,r2
  8018e8:	8405883a 	add	r2,r16,r16
  8018ec:	1085883a 	add	r2,r2,r2
  8018f0:	e13fe504 	addi	r4,fp,-108
  8018f4:	1105883a 	add	r2,r2,r4
  8018f8:	10800804 	addi	r2,r2,32
  8018fc:	10c00015 	stw	r3,0(r2)
    gAvg[ii] /= 100;
  801900:	e43fe517 	ldw	r16,-108(fp)
  801904:	e0bfe517 	ldw	r2,-108(fp)
  801908:	1085883a 	add	r2,r2,r2
  80190c:	1085883a 	add	r2,r2,r2
  801910:	e0ffe504 	addi	r3,fp,-108
  801914:	10c5883a 	add	r2,r2,r3
  801918:	10800504 	addi	r2,r2,20
  80191c:	11000017 	ldw	r4,0(r2)
  801920:	01401904 	movi	r5,100
  801924:	08111240 	call	811124 <__divsi3>
  801928:	1007883a 	mov	r3,r2
  80192c:	8405883a 	add	r2,r16,r16
  801930:	1085883a 	add	r2,r2,r2
  801934:	e13fe504 	addi	r4,fp,-108
  801938:	1105883a 	add	r2,r2,r4
  80193c:	10800504 	addi	r2,r2,20
  801940:	10c00015 	stw	r3,0(r2)
    gAvg[2] += (alt_16)(((alt_16)rawData[4] << 8) | rawData[5]) ;

  }

  // Get average of 200 values and store as average current readings
  for ( ii =0; ii < 3; ii = ii+1)
  801944:	e0bfe517 	ldw	r2,-108(fp)
  801948:	10800044 	addi	r2,r2,1
  80194c:	e0bfe515 	stw	r2,-108(fp)
  801950:	e0bfe517 	ldw	r2,-108(fp)
  801954:	108000d0 	cmplti	r2,r2,3
  801958:	103fd81e 	bne	r2,zero,8018bc <MPU9250SelfTest+0x3c4>
  {
    aAvg[ii] /= 100;
    gAvg[ii] /= 100;
  }
  I2C_Start(scl_base, sda_base);
  80195c:	e13ffe17 	ldw	r4,-8(fp)
  801960:	e17fff17 	ldw	r5,-4(fp)
  801964:	080bb100 	call	80bb10 <I2C_Start>


  // Configure the accelerometer for self-test
  // Enable self test on all three axes and set accelerometer range to +/- 2 g
  I2C_WriteToDeviceRegister(scl_base, sda_base, deviceAddress, ACCEL_CONFIG, 0xE0, 1);
  801968:	e0bfe643 	ldbu	r2,-103(fp)
  80196c:	11803fcc 	andi	r6,r2,255
  801970:	3180201c 	xori	r6,r6,128
  801974:	31bfe004 	addi	r6,r6,-128
  801978:	00803804 	movi	r2,224
  80197c:	d8800015 	stw	r2,0(sp)
  801980:	00800044 	movi	r2,1
  801984:	d8800115 	stw	r2,4(sp)
  801988:	e13ffe17 	ldw	r4,-8(fp)
  80198c:	e17fff17 	ldw	r5,-4(fp)
  801990:	01c00704 	movi	r7,28
  801994:	080bc780 	call	80bc78 <I2C_WriteToDeviceRegister>
  // Enable self test on all three axes and set gyro range to +/- 250 degrees/s
  I2C_WriteToDeviceRegister(scl_base, sda_base, deviceAddress, GYRO_CONFIG, 0xF0, 1);
  801998:	e0bfe643 	ldbu	r2,-103(fp)
  80199c:	11803fcc 	andi	r6,r2,255
  8019a0:	3180201c 	xori	r6,r6,128
  8019a4:	31bfe004 	addi	r6,r6,-128
  8019a8:	00803c04 	movi	r2,240
  8019ac:	d8800015 	stw	r2,0(sp)
  8019b0:	00800044 	movi	r2,1
  8019b4:	d8800115 	stw	r2,4(sp)
  8019b8:	e13ffe17 	ldw	r4,-8(fp)
  8019bc:	e17fff17 	ldw	r5,-4(fp)
  8019c0:	01c006c4 	movi	r7,27
  8019c4:	080bc780 	call	80bc78 <I2C_WriteToDeviceRegister>

  I2C_Stop(scl_base, sda_base);
  8019c8:	e13ffe17 	ldw	r4,-8(fp)
  8019cc:	e17fff17 	ldw	r5,-4(fp)
  8019d0:	080bb480 	call	80bb48 <I2C_Stop>
  OSTimeDlyHMSM(0, 0, 0, 25);  // Delay a while to let the device stabilize
  8019d4:	0009883a 	mov	r4,zero
  8019d8:	000b883a 	mov	r5,zero
  8019dc:	000d883a 	mov	r6,zero
  8019e0:	01c00644 	movi	r7,25
  8019e4:	08236a40 	call	8236a4 <OSTimeDlyHMSM>


  // Get average self-test values of gyro and acclerometer
  for ( ii =0; ii < 100; ii = ii+1)
  8019e8:	e03fe515 	stw	zero,-108(fp)
  8019ec:	00007906 	br	801bd4 <MPU9250SelfTest+0x6dc>
  {
	I2C_Start(scl_base, sda_base);
  8019f0:	e13ffe17 	ldw	r4,-8(fp)
  8019f4:	e17fff17 	ldw	r5,-4(fp)
  8019f8:	080bb100 	call	80bb10 <I2C_Start>
    // Read the six raw data registers into data array
	I2C_ReadFromDeviceRegister(scl_base, sda_base, deviceAddress, ACCEL_XOUT_H, &rawData[0], 6, true);
  8019fc:	e0bfe643 	ldbu	r2,-103(fp)
  801a00:	11803fcc 	andi	r6,r2,255
  801a04:	3180201c 	xori	r6,r6,128
  801a08:	31bfe004 	addi	r6,r6,-128
  801a0c:	e0bfe684 	addi	r2,fp,-102
  801a10:	d8800015 	stw	r2,0(sp)
  801a14:	00800184 	movi	r2,6
  801a18:	d8800115 	stw	r2,4(sp)
  801a1c:	00800044 	movi	r2,1
  801a20:	d8800215 	stw	r2,8(sp)
  801a24:	e13ffe17 	ldw	r4,-8(fp)
  801a28:	e17fff17 	ldw	r5,-4(fp)
  801a2c:	01c00ec4 	movi	r7,59
  801a30:	080bf600 	call	80bf60 <I2C_ReadFromDeviceRegister>
    I2C_Stop(scl_base, sda_base);
  801a34:	e13ffe17 	ldw	r4,-8(fp)
  801a38:	e17fff17 	ldw	r5,-4(fp)
  801a3c:	080bb480 	call	80bb48 <I2C_Stop>

	// Turn the MSB and LSB into a signed 16-bit value
    aSTAvg[0] += (alt_16)(((alt_16)rawData[0] << 8) | rawData[1]) ;
  801a40:	e13ff017 	ldw	r4,-64(fp)
  801a44:	e0bfe683 	ldbu	r2,-102(fp)
  801a48:	10803fcc 	andi	r2,r2,255
  801a4c:	1004923a 	slli	r2,r2,8
  801a50:	1007883a 	mov	r3,r2
  801a54:	e0bfe6c3 	ldbu	r2,-101(fp)
  801a58:	10803fcc 	andi	r2,r2,255
  801a5c:	1884b03a 	or	r2,r3,r2
  801a60:	10bfffcc 	andi	r2,r2,65535
  801a64:	10a0001c 	xori	r2,r2,32768
  801a68:	10a00004 	addi	r2,r2,-32768
  801a6c:	2085883a 	add	r2,r4,r2
  801a70:	e0bff015 	stw	r2,-64(fp)
    aSTAvg[1] += (alt_16)(((alt_16)rawData[2] << 8) | rawData[3]) ;
  801a74:	e13ff117 	ldw	r4,-60(fp)
  801a78:	e0bfe703 	ldbu	r2,-100(fp)
  801a7c:	10803fcc 	andi	r2,r2,255
  801a80:	1004923a 	slli	r2,r2,8
  801a84:	1007883a 	mov	r3,r2
  801a88:	e0bfe743 	ldbu	r2,-99(fp)
  801a8c:	10803fcc 	andi	r2,r2,255
  801a90:	1884b03a 	or	r2,r3,r2
  801a94:	10bfffcc 	andi	r2,r2,65535
  801a98:	10a0001c 	xori	r2,r2,32768
  801a9c:	10a00004 	addi	r2,r2,-32768
  801aa0:	2085883a 	add	r2,r4,r2
  801aa4:	e0bff115 	stw	r2,-60(fp)
    aSTAvg[2] += (alt_16)(((alt_16)rawData[4] << 8) | rawData[5]) ;
  801aa8:	e13ff217 	ldw	r4,-56(fp)
  801aac:	e0bfe783 	ldbu	r2,-98(fp)
  801ab0:	10803fcc 	andi	r2,r2,255
  801ab4:	1004923a 	slli	r2,r2,8
  801ab8:	1007883a 	mov	r3,r2
  801abc:	e0bfe7c3 	ldbu	r2,-97(fp)
  801ac0:	10803fcc 	andi	r2,r2,255
  801ac4:	1884b03a 	or	r2,r3,r2
  801ac8:	10bfffcc 	andi	r2,r2,65535
  801acc:	10a0001c 	xori	r2,r2,32768
  801ad0:	10a00004 	addi	r2,r2,-32768
  801ad4:	2085883a 	add	r2,r4,r2
  801ad8:	e0bff215 	stw	r2,-56(fp)

    I2C_Start(scl_base, sda_base);
  801adc:	e13ffe17 	ldw	r4,-8(fp)
  801ae0:	e17fff17 	ldw	r5,-4(fp)
  801ae4:	080bb100 	call	80bb10 <I2C_Start>
    // Read the six raw data registers sequentially into data array
	I2C_ReadFromDeviceRegister(scl_base, sda_base, deviceAddress, GYRO_XOUT_H, &rawData[0], 6, true);
  801ae8:	e0bfe643 	ldbu	r2,-103(fp)
  801aec:	11803fcc 	andi	r6,r2,255
  801af0:	3180201c 	xori	r6,r6,128
  801af4:	31bfe004 	addi	r6,r6,-128
  801af8:	e0bfe684 	addi	r2,fp,-102
  801afc:	d8800015 	stw	r2,0(sp)
  801b00:	00800184 	movi	r2,6
  801b04:	d8800115 	stw	r2,4(sp)
  801b08:	00800044 	movi	r2,1
  801b0c:	d8800215 	stw	r2,8(sp)
  801b10:	e13ffe17 	ldw	r4,-8(fp)
  801b14:	e17fff17 	ldw	r5,-4(fp)
  801b18:	01c010c4 	movi	r7,67
  801b1c:	080bf600 	call	80bf60 <I2C_ReadFromDeviceRegister>
    I2C_Stop(scl_base, sda_base);
  801b20:	e13ffe17 	ldw	r4,-8(fp)
  801b24:	e17fff17 	ldw	r5,-4(fp)
  801b28:	080bb480 	call	80bb48 <I2C_Stop>

	// Turn the MSB and LSB into a signed 16-bit value
    gSTAvg[0] += (alt_16)(((alt_16)rawData[0] << 8) | rawData[1]) ;
  801b2c:	e13ff317 	ldw	r4,-52(fp)
  801b30:	e0bfe683 	ldbu	r2,-102(fp)
  801b34:	10803fcc 	andi	r2,r2,255
  801b38:	1004923a 	slli	r2,r2,8
  801b3c:	1007883a 	mov	r3,r2
  801b40:	e0bfe6c3 	ldbu	r2,-101(fp)
  801b44:	10803fcc 	andi	r2,r2,255
  801b48:	1884b03a 	or	r2,r3,r2
  801b4c:	10bfffcc 	andi	r2,r2,65535
  801b50:	10a0001c 	xori	r2,r2,32768
  801b54:	10a00004 	addi	r2,r2,-32768
  801b58:	2085883a 	add	r2,r4,r2
  801b5c:	e0bff315 	stw	r2,-52(fp)
    gSTAvg[1] += (alt_16)(((alt_16)rawData[2] << 8) | rawData[3]) ;
  801b60:	e13ff417 	ldw	r4,-48(fp)
  801b64:	e0bfe703 	ldbu	r2,-100(fp)
  801b68:	10803fcc 	andi	r2,r2,255
  801b6c:	1004923a 	slli	r2,r2,8
  801b70:	1007883a 	mov	r3,r2
  801b74:	e0bfe743 	ldbu	r2,-99(fp)
  801b78:	10803fcc 	andi	r2,r2,255
  801b7c:	1884b03a 	or	r2,r3,r2
  801b80:	10bfffcc 	andi	r2,r2,65535
  801b84:	10a0001c 	xori	r2,r2,32768
  801b88:	10a00004 	addi	r2,r2,-32768
  801b8c:	2085883a 	add	r2,r4,r2
  801b90:	e0bff415 	stw	r2,-48(fp)
    gSTAvg[2] += (alt_16)(((alt_16)rawData[4] << 8) | rawData[5]) ;
  801b94:	e13ff517 	ldw	r4,-44(fp)
  801b98:	e0bfe783 	ldbu	r2,-98(fp)
  801b9c:	10803fcc 	andi	r2,r2,255
  801ba0:	1004923a 	slli	r2,r2,8
  801ba4:	1007883a 	mov	r3,r2
  801ba8:	e0bfe7c3 	ldbu	r2,-97(fp)
  801bac:	10803fcc 	andi	r2,r2,255
  801bb0:	1884b03a 	or	r2,r3,r2
  801bb4:	10bfffcc 	andi	r2,r2,65535
  801bb8:	10a0001c 	xori	r2,r2,32768
  801bbc:	10a00004 	addi	r2,r2,-32768
  801bc0:	2085883a 	add	r2,r4,r2
  801bc4:	e0bff515 	stw	r2,-44(fp)
  I2C_Stop(scl_base, sda_base);
  OSTimeDlyHMSM(0, 0, 0, 25);  // Delay a while to let the device stabilize


  // Get average self-test values of gyro and acclerometer
  for ( ii =0; ii < 100; ii = ii+1)
  801bc8:	e0bfe517 	ldw	r2,-108(fp)
  801bcc:	10800044 	addi	r2,r2,1
  801bd0:	e0bfe515 	stw	r2,-108(fp)
  801bd4:	e0bfe517 	ldw	r2,-108(fp)
  801bd8:	10801910 	cmplti	r2,r2,100
  801bdc:	103f841e 	bne	r2,zero,8019f0 <MPU9250SelfTest+0x4f8>
    gSTAvg[1] += (alt_16)(((alt_16)rawData[2] << 8) | rawData[3]) ;
    gSTAvg[2] += (alt_16)(((alt_16)rawData[4] << 8) | rawData[5]) ;
  }

  // Get average of 200 values and store as average self-test readings
  for ( ii =0; ii < 3; ii = ii+1)
  801be0:	e03fe515 	stw	zero,-108(fp)
  801be4:	00002506 	br	801c7c <MPU9250SelfTest+0x784>
  {
    aSTAvg[ii] /= 100;
  801be8:	e43fe517 	ldw	r16,-108(fp)
  801bec:	e0bfe517 	ldw	r2,-108(fp)
  801bf0:	1085883a 	add	r2,r2,r2
  801bf4:	1085883a 	add	r2,r2,r2
  801bf8:	e0ffe504 	addi	r3,fp,-108
  801bfc:	10c5883a 	add	r2,r2,r3
  801c00:	10800b04 	addi	r2,r2,44
  801c04:	11000017 	ldw	r4,0(r2)
  801c08:	01401904 	movi	r5,100
  801c0c:	08111240 	call	811124 <__divsi3>
  801c10:	1007883a 	mov	r3,r2
  801c14:	8405883a 	add	r2,r16,r16
  801c18:	1085883a 	add	r2,r2,r2
  801c1c:	e13fe504 	addi	r4,fp,-108
  801c20:	1105883a 	add	r2,r2,r4
  801c24:	10800b04 	addi	r2,r2,44
  801c28:	10c00015 	stw	r3,0(r2)
    gSTAvg[ii] /= 100;
  801c2c:	e43fe517 	ldw	r16,-108(fp)
  801c30:	e0bfe517 	ldw	r2,-108(fp)
  801c34:	1085883a 	add	r2,r2,r2
  801c38:	1085883a 	add	r2,r2,r2
  801c3c:	e0ffe504 	addi	r3,fp,-108
  801c40:	10c5883a 	add	r2,r2,r3
  801c44:	10800e04 	addi	r2,r2,56
  801c48:	11000017 	ldw	r4,0(r2)
  801c4c:	01401904 	movi	r5,100
  801c50:	08111240 	call	811124 <__divsi3>
  801c54:	1007883a 	mov	r3,r2
  801c58:	8405883a 	add	r2,r16,r16
  801c5c:	1085883a 	add	r2,r2,r2
  801c60:	e13fe504 	addi	r4,fp,-108
  801c64:	1105883a 	add	r2,r2,r4
  801c68:	10800e04 	addi	r2,r2,56
  801c6c:	10c00015 	stw	r3,0(r2)
    gSTAvg[1] += (alt_16)(((alt_16)rawData[2] << 8) | rawData[3]) ;
    gSTAvg[2] += (alt_16)(((alt_16)rawData[4] << 8) | rawData[5]) ;
  }

  // Get average of 200 values and store as average self-test readings
  for ( ii =0; ii < 3; ii = ii+1)
  801c70:	e0bfe517 	ldw	r2,-108(fp)
  801c74:	10800044 	addi	r2,r2,1
  801c78:	e0bfe515 	stw	r2,-108(fp)
  801c7c:	e0bfe517 	ldw	r2,-108(fp)
  801c80:	108000d0 	cmplti	r2,r2,3
  801c84:	103fd81e 	bne	r2,zero,801be8 <MPU9250SelfTest+0x6f0>
  {
    aSTAvg[ii] /= 100;
    gSTAvg[ii] /= 100;
  }

  I2C_Start(scl_base, sda_base);
  801c88:	e13ffe17 	ldw	r4,-8(fp)
  801c8c:	e17fff17 	ldw	r5,-4(fp)
  801c90:	080bb100 	call	80bb10 <I2C_Start>

  // Configure the gyro and accelerometer for normal operation
  I2C_WriteToDeviceRegister(scl_base, sda_base, deviceAddress, ACCEL_CONFIG, 0x00, 1);
  801c94:	e0bfe643 	ldbu	r2,-103(fp)
  801c98:	11803fcc 	andi	r6,r2,255
  801c9c:	3180201c 	xori	r6,r6,128
  801ca0:	31bfe004 	addi	r6,r6,-128
  801ca4:	d8000015 	stw	zero,0(sp)
  801ca8:	00800044 	movi	r2,1
  801cac:	d8800115 	stw	r2,4(sp)
  801cb0:	e13ffe17 	ldw	r4,-8(fp)
  801cb4:	e17fff17 	ldw	r5,-4(fp)
  801cb8:	01c00704 	movi	r7,28
  801cbc:	080bc780 	call	80bc78 <I2C_WriteToDeviceRegister>
  I2C_Stop(scl_base, sda_base);
  801cc0:	e13ffe17 	ldw	r4,-8(fp)
  801cc4:	e17fff17 	ldw	r5,-4(fp)
  801cc8:	080bb480 	call	80bb48 <I2C_Stop>
  I2C_Start(scl_base, sda_base);
  801ccc:	e13ffe17 	ldw	r4,-8(fp)
  801cd0:	e17fff17 	ldw	r5,-4(fp)
  801cd4:	080bb100 	call	80bb10 <I2C_Start>

  I2C_WriteToDeviceRegister(scl_base, sda_base, deviceAddress, GYRO_CONFIG, 0x10, 1);
  801cd8:	e0bfe643 	ldbu	r2,-103(fp)
  801cdc:	11803fcc 	andi	r6,r2,255
  801ce0:	3180201c 	xori	r6,r6,128
  801ce4:	31bfe004 	addi	r6,r6,-128
  801ce8:	00800404 	movi	r2,16
  801cec:	d8800015 	stw	r2,0(sp)
  801cf0:	00800044 	movi	r2,1
  801cf4:	d8800115 	stw	r2,4(sp)
  801cf8:	e13ffe17 	ldw	r4,-8(fp)
  801cfc:	e17fff17 	ldw	r5,-4(fp)
  801d00:	01c006c4 	movi	r7,27
  801d04:	080bc780 	call	80bc78 <I2C_WriteToDeviceRegister>
  OSTimeDlyHMSM(0, 0, 0, 25);;  // Delay a while to let the device stabilize
  801d08:	0009883a 	mov	r4,zero
  801d0c:	000b883a 	mov	r5,zero
  801d10:	000d883a 	mov	r6,zero
  801d14:	01c00644 	movi	r7,25
  801d18:	08236a40 	call	8236a4 <OSTimeDlyHMSM>

  // Retrieve accelerometer and gyro factory Self-Test Code from USR_Reg
  // X-axis accel self-test results
  I2C_Stop(scl_base, sda_base);
  801d1c:	e13ffe17 	ldw	r4,-8(fp)
  801d20:	e17fff17 	ldw	r5,-4(fp)
  801d24:	080bb480 	call	80bb48 <I2C_Stop>
  I2C_Start(scl_base, sda_base);
  801d28:	e13ffe17 	ldw	r4,-8(fp)
  801d2c:	e17fff17 	ldw	r5,-4(fp)
  801d30:	080bb100 	call	80bb10 <I2C_Start>
  I2C_ReadFromDeviceRegister(scl_base, sda_base, deviceAddress, SELF_TEST_X_ACCEL, &selfTest[0] , 1, true);
  801d34:	e0bfe643 	ldbu	r2,-103(fp)
  801d38:	11803fcc 	andi	r6,r2,255
  801d3c:	3180201c 	xori	r6,r6,128
  801d40:	31bfe004 	addi	r6,r6,-128
  801d44:	e0bfe804 	addi	r2,fp,-96
  801d48:	d8800015 	stw	r2,0(sp)
  801d4c:	00800044 	movi	r2,1
  801d50:	d8800115 	stw	r2,4(sp)
  801d54:	00800044 	movi	r2,1
  801d58:	d8800215 	stw	r2,8(sp)
  801d5c:	e13ffe17 	ldw	r4,-8(fp)
  801d60:	e17fff17 	ldw	r5,-4(fp)
  801d64:	01c00344 	movi	r7,13
  801d68:	080bf600 	call	80bf60 <I2C_ReadFromDeviceRegister>
  // Y-axis accel self-test results
  I2C_Stop(scl_base, sda_base);
  801d6c:	e13ffe17 	ldw	r4,-8(fp)
  801d70:	e17fff17 	ldw	r5,-4(fp)
  801d74:	080bb480 	call	80bb48 <I2C_Stop>
  I2C_Start(scl_base, sda_base);
  801d78:	e13ffe17 	ldw	r4,-8(fp)
  801d7c:	e17fff17 	ldw	r5,-4(fp)
  801d80:	080bb100 	call	80bb10 <I2C_Start>
  I2C_ReadFromDeviceRegister(scl_base, sda_base, deviceAddress, SELF_TEST_Y_ACCEL, &selfTest[1] , 1, true);
  801d84:	e0bfe643 	ldbu	r2,-103(fp)
  801d88:	11803fcc 	andi	r6,r2,255
  801d8c:	3180201c 	xori	r6,r6,128
  801d90:	31bfe004 	addi	r6,r6,-128
  801d94:	e0bfe804 	addi	r2,fp,-96
  801d98:	10800044 	addi	r2,r2,1
  801d9c:	d8800015 	stw	r2,0(sp)
  801da0:	00800044 	movi	r2,1
  801da4:	d8800115 	stw	r2,4(sp)
  801da8:	00800044 	movi	r2,1
  801dac:	d8800215 	stw	r2,8(sp)
  801db0:	e13ffe17 	ldw	r4,-8(fp)
  801db4:	e17fff17 	ldw	r5,-4(fp)
  801db8:	01c00384 	movi	r7,14
  801dbc:	080bf600 	call	80bf60 <I2C_ReadFromDeviceRegister>
  // Z-axis accel self-test results
  I2C_Stop(scl_base, sda_base);
  801dc0:	e13ffe17 	ldw	r4,-8(fp)
  801dc4:	e17fff17 	ldw	r5,-4(fp)
  801dc8:	080bb480 	call	80bb48 <I2C_Stop>
  I2C_Start(scl_base, sda_base);
  801dcc:	e13ffe17 	ldw	r4,-8(fp)
  801dd0:	e17fff17 	ldw	r5,-4(fp)
  801dd4:	080bb100 	call	80bb10 <I2C_Start>
  I2C_ReadFromDeviceRegister(scl_base, sda_base, deviceAddress, SELF_TEST_Z_ACCEL, &selfTest[2] , 1, true);
  801dd8:	e0bfe643 	ldbu	r2,-103(fp)
  801ddc:	11803fcc 	andi	r6,r2,255
  801de0:	3180201c 	xori	r6,r6,128
  801de4:	31bfe004 	addi	r6,r6,-128
  801de8:	e0bfe804 	addi	r2,fp,-96
  801dec:	10800084 	addi	r2,r2,2
  801df0:	d8800015 	stw	r2,0(sp)
  801df4:	00800044 	movi	r2,1
  801df8:	d8800115 	stw	r2,4(sp)
  801dfc:	00800044 	movi	r2,1
  801e00:	d8800215 	stw	r2,8(sp)
  801e04:	e13ffe17 	ldw	r4,-8(fp)
  801e08:	e17fff17 	ldw	r5,-4(fp)
  801e0c:	01c003c4 	movi	r7,15
  801e10:	080bf600 	call	80bf60 <I2C_ReadFromDeviceRegister>
  // X-axis gyro self-test results
  I2C_Stop(scl_base, sda_base);
  801e14:	e13ffe17 	ldw	r4,-8(fp)
  801e18:	e17fff17 	ldw	r5,-4(fp)
  801e1c:	080bb480 	call	80bb48 <I2C_Stop>
  I2C_Start(scl_base, sda_base);
  801e20:	e13ffe17 	ldw	r4,-8(fp)
  801e24:	e17fff17 	ldw	r5,-4(fp)
  801e28:	080bb100 	call	80bb10 <I2C_Start>
  I2C_ReadFromDeviceRegister(scl_base, sda_base, deviceAddress, SELF_TEST_X_GYRO, &selfTest[3] , 1, true);
  801e2c:	e0bfe643 	ldbu	r2,-103(fp)
  801e30:	11803fcc 	andi	r6,r2,255
  801e34:	3180201c 	xori	r6,r6,128
  801e38:	31bfe004 	addi	r6,r6,-128
  801e3c:	e0bfe804 	addi	r2,fp,-96
  801e40:	108000c4 	addi	r2,r2,3
  801e44:	d8800015 	stw	r2,0(sp)
  801e48:	00800044 	movi	r2,1
  801e4c:	d8800115 	stw	r2,4(sp)
  801e50:	00800044 	movi	r2,1
  801e54:	d8800215 	stw	r2,8(sp)
  801e58:	e13ffe17 	ldw	r4,-8(fp)
  801e5c:	e17fff17 	ldw	r5,-4(fp)
  801e60:	000f883a 	mov	r7,zero
  801e64:	080bf600 	call	80bf60 <I2C_ReadFromDeviceRegister>
  // Y-axis gyro self-test results
  I2C_Stop(scl_base, sda_base);
  801e68:	e13ffe17 	ldw	r4,-8(fp)
  801e6c:	e17fff17 	ldw	r5,-4(fp)
  801e70:	080bb480 	call	80bb48 <I2C_Stop>
  I2C_Start(scl_base, sda_base);
  801e74:	e13ffe17 	ldw	r4,-8(fp)
  801e78:	e17fff17 	ldw	r5,-4(fp)
  801e7c:	080bb100 	call	80bb10 <I2C_Start>
  I2C_ReadFromDeviceRegister(scl_base, sda_base, deviceAddress, SELF_TEST_Y_GYRO, &selfTest[4] , 1, true);
  801e80:	e0bfe643 	ldbu	r2,-103(fp)
  801e84:	11803fcc 	andi	r6,r2,255
  801e88:	3180201c 	xori	r6,r6,128
  801e8c:	31bfe004 	addi	r6,r6,-128
  801e90:	e0bfe804 	addi	r2,fp,-96
  801e94:	10800104 	addi	r2,r2,4
  801e98:	d8800015 	stw	r2,0(sp)
  801e9c:	00800044 	movi	r2,1
  801ea0:	d8800115 	stw	r2,4(sp)
  801ea4:	00800044 	movi	r2,1
  801ea8:	d8800215 	stw	r2,8(sp)
  801eac:	e13ffe17 	ldw	r4,-8(fp)
  801eb0:	e17fff17 	ldw	r5,-4(fp)
  801eb4:	01c00044 	movi	r7,1
  801eb8:	080bf600 	call	80bf60 <I2C_ReadFromDeviceRegister>
  // Z-axis gyro self-test results
  I2C_Stop(scl_base, sda_base);
  801ebc:	e13ffe17 	ldw	r4,-8(fp)
  801ec0:	e17fff17 	ldw	r5,-4(fp)
  801ec4:	080bb480 	call	80bb48 <I2C_Stop>
  I2C_Start(scl_base, sda_base);
  801ec8:	e13ffe17 	ldw	r4,-8(fp)
  801ecc:	e17fff17 	ldw	r5,-4(fp)
  801ed0:	080bb100 	call	80bb10 <I2C_Start>
  I2C_ReadFromDeviceRegister(scl_base, sda_base, deviceAddress, SELF_TEST_Z_GYRO, &selfTest[5] , 1, true);
  801ed4:	e0bfe643 	ldbu	r2,-103(fp)
  801ed8:	11803fcc 	andi	r6,r2,255
  801edc:	3180201c 	xori	r6,r6,128
  801ee0:	31bfe004 	addi	r6,r6,-128
  801ee4:	e0bfe804 	addi	r2,fp,-96
  801ee8:	10800144 	addi	r2,r2,5
  801eec:	d8800015 	stw	r2,0(sp)
  801ef0:	00800044 	movi	r2,1
  801ef4:	d8800115 	stw	r2,4(sp)
  801ef8:	00800044 	movi	r2,1
  801efc:	d8800215 	stw	r2,8(sp)
  801f00:	e13ffe17 	ldw	r4,-8(fp)
  801f04:	e17fff17 	ldw	r5,-4(fp)
  801f08:	01c00084 	movi	r7,2
  801f0c:	080bf600 	call	80bf60 <I2C_ReadFromDeviceRegister>

  I2C_Stop(scl_base, sda_base);
  801f10:	e13ffe17 	ldw	r4,-8(fp)
  801f14:	e17fff17 	ldw	r5,-4(fp)
  801f18:	080bb480 	call	80bb48 <I2C_Stop>


  // Retrieve factory self-test value from self-test code reads
  // FT[Xa] factory trim calculation
  factoryTrim[0] = (float)(2620/1<<FS)*(pow(1.01 ,((float)selfTest[0] - 1.0) ));
  801f1c:	e0ffe603 	ldbu	r3,-104(fp)
  801f20:	00828f04 	movi	r2,2620
  801f24:	10c8983a 	sll	r4,r2,r3
  801f28:	080ff900 	call	80ff90 <__floatsisf>
  801f2c:	1009883a 	mov	r4,r2
  801f30:	08100280 	call	810028 <__extendsfdf2>
  801f34:	1021883a 	mov	r16,r2
  801f38:	1823883a 	mov	r17,r3
  801f3c:	e0bfe803 	ldbu	r2,-96(fp)
  801f40:	11003fcc 	andi	r4,r2,255
  801f44:	081007c0 	call	81007c <__floatunsisf>
  801f48:	1009883a 	mov	r4,r2
  801f4c:	08100280 	call	810028 <__extendsfdf2>
  801f50:	100b883a 	mov	r5,r2
  801f54:	180d883a 	mov	r6,r3
  801f58:	2809883a 	mov	r4,r5
  801f5c:	300b883a 	mov	r5,r6
  801f60:	000d883a 	mov	r6,zero
  801f64:	01cffc34 	movhi	r7,16368
  801f68:	081054c0 	call	81054c <__subdf3>
  801f6c:	1009883a 	mov	r4,r2
  801f70:	180b883a 	mov	r5,r3
  801f74:	2005883a 	mov	r2,r4
  801f78:	2807883a 	mov	r3,r5
  801f7c:	0130a3f4 	movhi	r4,49807
  801f80:	21170a44 	addi	r4,r4,23593
  801f84:	014ffc34 	movhi	r5,16368
  801f88:	294a3d44 	addi	r5,r5,10485
  801f8c:	100d883a 	mov	r6,r2
  801f90:	180f883a 	mov	r7,r3
  801f94:	080d9b40 	call	80d9b4 <pow>
  801f98:	1009883a 	mov	r4,r2
  801f9c:	180b883a 	mov	r5,r3
  801fa0:	2005883a 	mov	r2,r4
  801fa4:	2807883a 	mov	r3,r5
  801fa8:	8009883a 	mov	r4,r16
  801fac:	880b883a 	mov	r5,r17
  801fb0:	100d883a 	mov	r6,r2
  801fb4:	180f883a 	mov	r7,r3
  801fb8:	08106400 	call	810640 <__muldf3>
  801fbc:	1009883a 	mov	r4,r2
  801fc0:	180b883a 	mov	r5,r3
  801fc4:	2005883a 	mov	r2,r4
  801fc8:	2807883a 	mov	r3,r5
  801fcc:	1009883a 	mov	r4,r2
  801fd0:	180b883a 	mov	r5,r3
  801fd4:	08110340 	call	811034 <__truncdfsf2>
  801fd8:	e0bff615 	stw	r2,-40(fp)
  // FT[Ya] factory trim calculation
  factoryTrim[1] = (float)(2620/1<<FS)*(pow(1.01 ,((float)selfTest[1] - 1.0) ));
  801fdc:	e0ffe603 	ldbu	r3,-104(fp)
  801fe0:	00828f04 	movi	r2,2620
  801fe4:	10c8983a 	sll	r4,r2,r3
  801fe8:	080ff900 	call	80ff90 <__floatsisf>
  801fec:	1009883a 	mov	r4,r2
  801ff0:	08100280 	call	810028 <__extendsfdf2>
  801ff4:	1021883a 	mov	r16,r2
  801ff8:	1823883a 	mov	r17,r3
  801ffc:	e0bfe843 	ldbu	r2,-95(fp)
  802000:	11003fcc 	andi	r4,r2,255
  802004:	081007c0 	call	81007c <__floatunsisf>
  802008:	1009883a 	mov	r4,r2
  80200c:	08100280 	call	810028 <__extendsfdf2>
  802010:	100b883a 	mov	r5,r2
  802014:	180d883a 	mov	r6,r3
  802018:	2809883a 	mov	r4,r5
  80201c:	300b883a 	mov	r5,r6
  802020:	000d883a 	mov	r6,zero
  802024:	01cffc34 	movhi	r7,16368
  802028:	081054c0 	call	81054c <__subdf3>
  80202c:	1009883a 	mov	r4,r2
  802030:	180b883a 	mov	r5,r3
  802034:	2005883a 	mov	r2,r4
  802038:	2807883a 	mov	r3,r5
  80203c:	0130a3f4 	movhi	r4,49807
  802040:	21170a44 	addi	r4,r4,23593
  802044:	014ffc34 	movhi	r5,16368
  802048:	294a3d44 	addi	r5,r5,10485
  80204c:	100d883a 	mov	r6,r2
  802050:	180f883a 	mov	r7,r3
  802054:	080d9b40 	call	80d9b4 <pow>
  802058:	100f883a 	mov	r7,r2
  80205c:	1811883a 	mov	r8,r3
  802060:	8009883a 	mov	r4,r16
  802064:	880b883a 	mov	r5,r17
  802068:	380d883a 	mov	r6,r7
  80206c:	400f883a 	mov	r7,r8
  802070:	08106400 	call	810640 <__muldf3>
  802074:	1009883a 	mov	r4,r2
  802078:	180b883a 	mov	r5,r3
  80207c:	2005883a 	mov	r2,r4
  802080:	2807883a 	mov	r3,r5
  802084:	1009883a 	mov	r4,r2
  802088:	180b883a 	mov	r5,r3
  80208c:	08110340 	call	811034 <__truncdfsf2>
  802090:	e0bff715 	stw	r2,-36(fp)
  // FT[Za] factory trim calculation
  factoryTrim[2] = (float)(2620/1<<FS)*(pow(1.01 ,((float)selfTest[2] - 1.0) ));
  802094:	e0ffe603 	ldbu	r3,-104(fp)
  802098:	00828f04 	movi	r2,2620
  80209c:	10c8983a 	sll	r4,r2,r3
  8020a0:	080ff900 	call	80ff90 <__floatsisf>
  8020a4:	1009883a 	mov	r4,r2
  8020a8:	08100280 	call	810028 <__extendsfdf2>
  8020ac:	1021883a 	mov	r16,r2
  8020b0:	1823883a 	mov	r17,r3
  8020b4:	e0bfe883 	ldbu	r2,-94(fp)
  8020b8:	11003fcc 	andi	r4,r2,255
  8020bc:	081007c0 	call	81007c <__floatunsisf>
  8020c0:	1009883a 	mov	r4,r2
  8020c4:	08100280 	call	810028 <__extendsfdf2>
  8020c8:	100b883a 	mov	r5,r2
  8020cc:	180d883a 	mov	r6,r3
  8020d0:	2809883a 	mov	r4,r5
  8020d4:	300b883a 	mov	r5,r6
  8020d8:	000d883a 	mov	r6,zero
  8020dc:	01cffc34 	movhi	r7,16368
  8020e0:	081054c0 	call	81054c <__subdf3>
  8020e4:	1009883a 	mov	r4,r2
  8020e8:	180b883a 	mov	r5,r3
  8020ec:	2005883a 	mov	r2,r4
  8020f0:	2807883a 	mov	r3,r5
  8020f4:	0130a3f4 	movhi	r4,49807
  8020f8:	21170a44 	addi	r4,r4,23593
  8020fc:	014ffc34 	movhi	r5,16368
  802100:	294a3d44 	addi	r5,r5,10485
  802104:	100d883a 	mov	r6,r2
  802108:	180f883a 	mov	r7,r3
  80210c:	080d9b40 	call	80d9b4 <pow>
  802110:	100f883a 	mov	r7,r2
  802114:	1811883a 	mov	r8,r3
  802118:	8009883a 	mov	r4,r16
  80211c:	880b883a 	mov	r5,r17
  802120:	380d883a 	mov	r6,r7
  802124:	400f883a 	mov	r7,r8
  802128:	08106400 	call	810640 <__muldf3>
  80212c:	1009883a 	mov	r4,r2
  802130:	180b883a 	mov	r5,r3
  802134:	2005883a 	mov	r2,r4
  802138:	2807883a 	mov	r3,r5
  80213c:	1009883a 	mov	r4,r2
  802140:	180b883a 	mov	r5,r3
  802144:	08110340 	call	811034 <__truncdfsf2>
  802148:	e0bff815 	stw	r2,-32(fp)
  // FT[Xg] factory trim calculation
  factoryTrim[3] = (float)(2620/1<<FS)*(pow(1.01 ,((float)selfTest[3] - 1.0) ));
  80214c:	e0ffe603 	ldbu	r3,-104(fp)
  802150:	00828f04 	movi	r2,2620
  802154:	10c8983a 	sll	r4,r2,r3
  802158:	080ff900 	call	80ff90 <__floatsisf>
  80215c:	1009883a 	mov	r4,r2
  802160:	08100280 	call	810028 <__extendsfdf2>
  802164:	1021883a 	mov	r16,r2
  802168:	1823883a 	mov	r17,r3
  80216c:	e0bfe8c3 	ldbu	r2,-93(fp)
  802170:	11003fcc 	andi	r4,r2,255
  802174:	081007c0 	call	81007c <__floatunsisf>
  802178:	1009883a 	mov	r4,r2
  80217c:	08100280 	call	810028 <__extendsfdf2>
  802180:	100b883a 	mov	r5,r2
  802184:	180d883a 	mov	r6,r3
  802188:	2809883a 	mov	r4,r5
  80218c:	300b883a 	mov	r5,r6
  802190:	000d883a 	mov	r6,zero
  802194:	01cffc34 	movhi	r7,16368
  802198:	081054c0 	call	81054c <__subdf3>
  80219c:	1009883a 	mov	r4,r2
  8021a0:	180b883a 	mov	r5,r3
  8021a4:	2005883a 	mov	r2,r4
  8021a8:	2807883a 	mov	r3,r5
  8021ac:	0130a3f4 	movhi	r4,49807
  8021b0:	21170a44 	addi	r4,r4,23593
  8021b4:	014ffc34 	movhi	r5,16368
  8021b8:	294a3d44 	addi	r5,r5,10485
  8021bc:	100d883a 	mov	r6,r2
  8021c0:	180f883a 	mov	r7,r3
  8021c4:	080d9b40 	call	80d9b4 <pow>
  8021c8:	100f883a 	mov	r7,r2
  8021cc:	1811883a 	mov	r8,r3
  8021d0:	8009883a 	mov	r4,r16
  8021d4:	880b883a 	mov	r5,r17
  8021d8:	380d883a 	mov	r6,r7
  8021dc:	400f883a 	mov	r7,r8
  8021e0:	08106400 	call	810640 <__muldf3>
  8021e4:	1009883a 	mov	r4,r2
  8021e8:	180b883a 	mov	r5,r3
  8021ec:	2005883a 	mov	r2,r4
  8021f0:	2807883a 	mov	r3,r5
  8021f4:	1009883a 	mov	r4,r2
  8021f8:	180b883a 	mov	r5,r3
  8021fc:	08110340 	call	811034 <__truncdfsf2>
  802200:	e0bff915 	stw	r2,-28(fp)
  // FT[Yg] factory trim calculation
  factoryTrim[4] = (float)(2620/1<<FS)*(pow(1.01 ,((float)selfTest[4] - 1.0) ));
  802204:	e0ffe603 	ldbu	r3,-104(fp)
  802208:	00828f04 	movi	r2,2620
  80220c:	10c8983a 	sll	r4,r2,r3
  802210:	080ff900 	call	80ff90 <__floatsisf>
  802214:	1009883a 	mov	r4,r2
  802218:	08100280 	call	810028 <__extendsfdf2>
  80221c:	1021883a 	mov	r16,r2
  802220:	1823883a 	mov	r17,r3
  802224:	e0bfe903 	ldbu	r2,-92(fp)
  802228:	11003fcc 	andi	r4,r2,255
  80222c:	081007c0 	call	81007c <__floatunsisf>
  802230:	1009883a 	mov	r4,r2
  802234:	08100280 	call	810028 <__extendsfdf2>
  802238:	100b883a 	mov	r5,r2
  80223c:	180d883a 	mov	r6,r3
  802240:	2809883a 	mov	r4,r5
  802244:	300b883a 	mov	r5,r6
  802248:	000d883a 	mov	r6,zero
  80224c:	01cffc34 	movhi	r7,16368
  802250:	081054c0 	call	81054c <__subdf3>
  802254:	1009883a 	mov	r4,r2
  802258:	180b883a 	mov	r5,r3
  80225c:	2005883a 	mov	r2,r4
  802260:	2807883a 	mov	r3,r5
  802264:	0130a3f4 	movhi	r4,49807
  802268:	21170a44 	addi	r4,r4,23593
  80226c:	014ffc34 	movhi	r5,16368
  802270:	294a3d44 	addi	r5,r5,10485
  802274:	100d883a 	mov	r6,r2
  802278:	180f883a 	mov	r7,r3
  80227c:	080d9b40 	call	80d9b4 <pow>
  802280:	100f883a 	mov	r7,r2
  802284:	1811883a 	mov	r8,r3
  802288:	8009883a 	mov	r4,r16
  80228c:	880b883a 	mov	r5,r17
  802290:	380d883a 	mov	r6,r7
  802294:	400f883a 	mov	r7,r8
  802298:	08106400 	call	810640 <__muldf3>
  80229c:	1009883a 	mov	r4,r2
  8022a0:	180b883a 	mov	r5,r3
  8022a4:	2005883a 	mov	r2,r4
  8022a8:	2807883a 	mov	r3,r5
  8022ac:	1009883a 	mov	r4,r2
  8022b0:	180b883a 	mov	r5,r3
  8022b4:	08110340 	call	811034 <__truncdfsf2>
  8022b8:	e0bffa15 	stw	r2,-24(fp)
  // FT[Zg] factory trim calculation
  factoryTrim[5] = (float)(2620/1<<FS)*(pow(1.01 ,((float)selfTest[5] - 1.0) ));
  8022bc:	e0ffe603 	ldbu	r3,-104(fp)
  8022c0:	00828f04 	movi	r2,2620
  8022c4:	10c8983a 	sll	r4,r2,r3
  8022c8:	080ff900 	call	80ff90 <__floatsisf>
  8022cc:	1009883a 	mov	r4,r2
  8022d0:	08100280 	call	810028 <__extendsfdf2>
  8022d4:	1021883a 	mov	r16,r2
  8022d8:	1823883a 	mov	r17,r3
  8022dc:	e0bfe943 	ldbu	r2,-91(fp)
  8022e0:	11003fcc 	andi	r4,r2,255
  8022e4:	081007c0 	call	81007c <__floatunsisf>
  8022e8:	1009883a 	mov	r4,r2
  8022ec:	08100280 	call	810028 <__extendsfdf2>
  8022f0:	100b883a 	mov	r5,r2
  8022f4:	180d883a 	mov	r6,r3
  8022f8:	2809883a 	mov	r4,r5
  8022fc:	300b883a 	mov	r5,r6
  802300:	000d883a 	mov	r6,zero
  802304:	01cffc34 	movhi	r7,16368
  802308:	081054c0 	call	81054c <__subdf3>
  80230c:	1009883a 	mov	r4,r2
  802310:	180b883a 	mov	r5,r3
  802314:	2005883a 	mov	r2,r4
  802318:	2807883a 	mov	r3,r5
  80231c:	0130a3f4 	movhi	r4,49807
  802320:	21170a44 	addi	r4,r4,23593
  802324:	014ffc34 	movhi	r5,16368
  802328:	294a3d44 	addi	r5,r5,10485
  80232c:	100d883a 	mov	r6,r2
  802330:	180f883a 	mov	r7,r3
  802334:	080d9b40 	call	80d9b4 <pow>
  802338:	100f883a 	mov	r7,r2
  80233c:	1811883a 	mov	r8,r3
  802340:	8009883a 	mov	r4,r16
  802344:	880b883a 	mov	r5,r17
  802348:	380d883a 	mov	r6,r7
  80234c:	400f883a 	mov	r7,r8
  802350:	08106400 	call	810640 <__muldf3>
  802354:	1009883a 	mov	r4,r2
  802358:	180b883a 	mov	r5,r3
  80235c:	2005883a 	mov	r2,r4
  802360:	2807883a 	mov	r3,r5
  802364:	1009883a 	mov	r4,r2
  802368:	180b883a 	mov	r5,r3
  80236c:	08110340 	call	811034 <__truncdfsf2>
  802370:	e0bffb15 	stw	r2,-20(fp)

  // Report results as a ratio of (STR - FT)/FT; the change from Factory Trim
  // of the Self-Test Response
  // To get percent, must multiply by 100
  for ( ii =0; ii < 3; ii = ii+1)
  802374:	e03fe515 	stw	zero,-108(fp)
  802378:	00004f06 	br	8024b8 <MPU9250SelfTest+0xfc0>
  {
	//printf("aSTAvg = %f\n",(float)aSTAvg[ii]);
	//printf("aAvg = %f\n",(float)aAvg[ii]);
	//printf("factoryTrim = %f\n",(float)factoryTrim[ii]);
    // Report percent differences
    destination[ii] = 100.0 * (((float)(aSTAvg[ii] - aAvg[ii])) / factoryTrim[ii]);
  80237c:	e0bfe517 	ldw	r2,-108(fp)
  802380:	1085883a 	add	r2,r2,r2
  802384:	1085883a 	add	r2,r2,r2
  802388:	1007883a 	mov	r3,r2
  80238c:	e0bffd17 	ldw	r2,-12(fp)
  802390:	18a1883a 	add	r16,r3,r2
  802394:	e0bfe517 	ldw	r2,-108(fp)
  802398:	1085883a 	add	r2,r2,r2
  80239c:	1085883a 	add	r2,r2,r2
  8023a0:	e0ffe504 	addi	r3,fp,-108
  8023a4:	10c5883a 	add	r2,r2,r3
  8023a8:	10800b04 	addi	r2,r2,44
  8023ac:	10c00017 	ldw	r3,0(r2)
  8023b0:	e0bfe517 	ldw	r2,-108(fp)
  8023b4:	1085883a 	add	r2,r2,r2
  8023b8:	1085883a 	add	r2,r2,r2
  8023bc:	e13fe504 	addi	r4,fp,-108
  8023c0:	1105883a 	add	r2,r2,r4
  8023c4:	10800804 	addi	r2,r2,32
  8023c8:	10800017 	ldw	r2,0(r2)
  8023cc:	1889c83a 	sub	r4,r3,r2
  8023d0:	080ff900 	call	80ff90 <__floatsisf>
  8023d4:	1007883a 	mov	r3,r2
  8023d8:	e0bfe517 	ldw	r2,-108(fp)
  8023dc:	1085883a 	add	r2,r2,r2
  8023e0:	1085883a 	add	r2,r2,r2
  8023e4:	e13fe504 	addi	r4,fp,-108
  8023e8:	1105883a 	add	r2,r2,r4
  8023ec:	10801104 	addi	r2,r2,68
  8023f0:	10800017 	ldw	r2,0(r2)
  8023f4:	1809883a 	mov	r4,r3
  8023f8:	100b883a 	mov	r5,r2
  8023fc:	080fd2c0 	call	80fd2c <__divsf3>
  802400:	1009883a 	mov	r4,r2
  802404:	0150b234 	movhi	r5,17096
  802408:	080fb4c0 	call	80fb4c <__mulsf3>
  80240c:	80800015 	stw	r2,0(r16)
    // Report percent differences
    destination[ii+3] = 100.0*(((float)(gSTAvg[ii] - gAvg[ii]))/factoryTrim[ii+3]);
  802410:	e0bfe517 	ldw	r2,-108(fp)
  802414:	1085883a 	add	r2,r2,r2
  802418:	1085883a 	add	r2,r2,r2
  80241c:	1007883a 	mov	r3,r2
  802420:	e0bffd17 	ldw	r2,-12(fp)
  802424:	1885883a 	add	r2,r3,r2
  802428:	14000304 	addi	r16,r2,12
  80242c:	e0bfe517 	ldw	r2,-108(fp)
  802430:	1085883a 	add	r2,r2,r2
  802434:	1085883a 	add	r2,r2,r2
  802438:	e0ffe504 	addi	r3,fp,-108
  80243c:	10c5883a 	add	r2,r2,r3
  802440:	10800e04 	addi	r2,r2,56
  802444:	10c00017 	ldw	r3,0(r2)
  802448:	e0bfe517 	ldw	r2,-108(fp)
  80244c:	1085883a 	add	r2,r2,r2
  802450:	1085883a 	add	r2,r2,r2
  802454:	e13fe504 	addi	r4,fp,-108
  802458:	1105883a 	add	r2,r2,r4
  80245c:	10800504 	addi	r2,r2,20
  802460:	10800017 	ldw	r2,0(r2)
  802464:	1889c83a 	sub	r4,r3,r2
  802468:	080ff900 	call	80ff90 <__floatsisf>
  80246c:	1007883a 	mov	r3,r2
  802470:	e0bfe517 	ldw	r2,-108(fp)
  802474:	108000c4 	addi	r2,r2,3
  802478:	1085883a 	add	r2,r2,r2
  80247c:	1085883a 	add	r2,r2,r2
  802480:	e13fe504 	addi	r4,fp,-108
  802484:	1105883a 	add	r2,r2,r4
  802488:	10801104 	addi	r2,r2,68
  80248c:	10800017 	ldw	r2,0(r2)
  802490:	1809883a 	mov	r4,r3
  802494:	100b883a 	mov	r5,r2
  802498:	080fd2c0 	call	80fd2c <__divsf3>
  80249c:	1009883a 	mov	r4,r2
  8024a0:	0150b234 	movhi	r5,17096
  8024a4:	080fb4c0 	call	80fb4c <__mulsf3>
  8024a8:	80800015 	stw	r2,0(r16)
  factoryTrim[5] = (float)(2620/1<<FS)*(pow(1.01 ,((float)selfTest[5] - 1.0) ));

  // Report results as a ratio of (STR - FT)/FT; the change from Factory Trim
  // of the Self-Test Response
  // To get percent, must multiply by 100
  for ( ii =0; ii < 3; ii = ii+1)
  8024ac:	e0bfe517 	ldw	r2,-108(fp)
  8024b0:	10800044 	addi	r2,r2,1
  8024b4:	e0bfe515 	stw	r2,-108(fp)
  8024b8:	e0bfe517 	ldw	r2,-108(fp)
  8024bc:	108000d0 	cmplti	r2,r2,3
  8024c0:	103fae1e 	bne	r2,zero,80237c <MPU9250SelfTest+0xe84>
    // printf("destination[%d] = %f\n",ii+3, destination[ii+3]);
    //printf("test1 difference: %f\n",aSTAvg[ii] - aAvg[ii]);
    //printf("test q: %f\n",416 / 6479.571777);

  }
}
  8024c4:	e037883a 	mov	sp,fp
  8024c8:	dfc00317 	ldw	ra,12(sp)
  8024cc:	df000217 	ldw	fp,8(sp)
  8024d0:	dc400117 	ldw	r17,4(sp)
  8024d4:	dc000017 	ldw	r16,0(sp)
  8024d8:	dec00404 	addi	sp,sp,16
  8024dc:	f800283a 	ret

008024e0 <audioInit>:

#include "DrumAnyWhere.h"

// sets our codec up, sets the appropriate registers
// set up fro sampling rate of 44100
void audioInit(alt_up_av_config_dev * audio_config_dev) {
  8024e0:	defff904 	addi	sp,sp,-28
  8024e4:	dfc00615 	stw	ra,24(sp)
  8024e8:	df000515 	stw	fp,20(sp)
  8024ec:	df000504 	addi	fp,sp,20
  8024f0:	e13fff15 	stw	r4,-4(fp)

	if ( audio_config_dev == NULL)
  8024f4:	e0bfff17 	ldw	r2,-4(fp)
  8024f8:	1004c03a 	cmpne	r2,r2,zero
  8024fc:	1000041e 	bne	r2,zero,802510 <audioInit+0x30>
		printf("Error: could not open audio config device \n");
  802500:	010020b4 	movhi	r4,130
  802504:	211d3f04 	addi	r4,r4,29948
  802508:	08124f00 	call	8124f0 <puts>
  80250c:	00000306 	br	80251c <audioInit+0x3c>
	else
		printf("Opened audio config device \n");
  802510:	010020b4 	movhi	r4,130
  802514:	211d4a04 	addi	r4,r4,29992
  802518:	08124f00 	call	8124f0 <puts>

	audio_dev = alt_up_audio_open_dev ("/dev/audio_0");
  80251c:	010020b4 	movhi	r4,130
  802520:	211d5104 	addi	r4,r4,30020
  802524:	0824a3c0 	call	824a3c <alt_up_audio_open_dev>
  802528:	d0a03315 	stw	r2,-32564(gp)
	if ( audio_dev == NULL)
  80252c:	d0a03317 	ldw	r2,-32564(gp)
  802530:	1004c03a 	cmpne	r2,r2,zero
  802534:	1000041e 	bne	r2,zero,802548 <audioInit+0x68>
		printf("Error: could not open audio device \n");
  802538:	010020b4 	movhi	r4,130
  80253c:	211d5504 	addi	r4,r4,30036
  802540:	08124f00 	call	8124f0 <puts>
  802544:	00000306 	br	802554 <audioInit+0x74>
	else
		printf("Opened audio device \n");
  802548:	010020b4 	movhi	r4,130
  80254c:	211d5e04 	addi	r4,r4,30072
  802550:	08124f00 	call	8124f0 <puts>

	alt_up_av_config_reset(audio_config_dev);
  802554:	e13fff17 	ldw	r4,-4(fp)
  802558:	082539c0 	call	82539c <alt_up_av_config_reset>
	alt_up_audio_reset_audio_core(audio_dev);
  80255c:	d1203317 	ldw	r4,-32564(gp)
  802560:	0824c2c0 	call	824c2c <alt_up_audio_reset_audio_core>

	/* Write to configuration registers in the audio codec; see datasheet for what these values mean */
	alt_up_av_config_write_audio_cfg_register(audio_config_dev, 0x0, 0x17);
  802564:	e13fff17 	ldw	r4,-4(fp)
  802568:	000b883a 	mov	r5,zero
  80256c:	018005c4 	movi	r6,23
  802570:	08254dc0 	call	8254dc <alt_up_av_config_write_audio_cfg_register>
	alt_up_av_config_write_audio_cfg_register(audio_config_dev, 0x1, 0x17);
  802574:	e13fff17 	ldw	r4,-4(fp)
  802578:	01400044 	movi	r5,1
  80257c:	018005c4 	movi	r6,23
  802580:	08254dc0 	call	8254dc <alt_up_av_config_write_audio_cfg_register>
	alt_up_av_config_write_audio_cfg_register(audio_config_dev, 0x2, 0x68);
  802584:	e13fff17 	ldw	r4,-4(fp)
  802588:	01400084 	movi	r5,2
  80258c:	01801a04 	movi	r6,104
  802590:	08254dc0 	call	8254dc <alt_up_av_config_write_audio_cfg_register>
	alt_up_av_config_write_audio_cfg_register(audio_config_dev, 0x3, 0x68);
  802594:	e13fff17 	ldw	r4,-4(fp)
  802598:	014000c4 	movi	r5,3
  80259c:	01801a04 	movi	r6,104
  8025a0:	08254dc0 	call	8254dc <alt_up_av_config_write_audio_cfg_register>
	alt_up_av_config_write_audio_cfg_register(audio_config_dev, 0x4, 0x15);
  8025a4:	e13fff17 	ldw	r4,-4(fp)
  8025a8:	01400104 	movi	r5,4
  8025ac:	01800544 	movi	r6,21
  8025b0:	08254dc0 	call	8254dc <alt_up_av_config_write_audio_cfg_register>
	alt_up_av_config_write_audio_cfg_register(audio_config_dev, 0x5, 0x06);
  8025b4:	e13fff17 	ldw	r4,-4(fp)
  8025b8:	01400144 	movi	r5,5
  8025bc:	01800184 	movi	r6,6
  8025c0:	08254dc0 	call	8254dc <alt_up_av_config_write_audio_cfg_register>
	alt_up_av_config_write_audio_cfg_register(audio_config_dev, 0x6, 0x00);
  8025c4:	e13fff17 	ldw	r4,-4(fp)
  8025c8:	01400184 	movi	r5,6
  8025cc:	000d883a 	mov	r6,zero
  8025d0:	08254dc0 	call	8254dc <alt_up_av_config_write_audio_cfg_register>
	alt_up_av_config_write_audio_cfg_register(audio_config_dev, 0x8, 0x22);
  8025d4:	e13fff17 	ldw	r4,-4(fp)
  8025d8:	01400204 	movi	r5,8
  8025dc:	01800884 	movi	r6,34
  8025e0:	08254dc0 	call	8254dc <alt_up_av_config_write_audio_cfg_register>

	alt_up_audio_disable_read_interrupt(audio_dev);
  8025e4:	d1203317 	ldw	r4,-32564(gp)
  8025e8:	0824ac80 	call	824ac8 <alt_up_audio_disable_read_interrupt>
	alt_up_audio_disable_write_interrupt(audio_dev);
  8025ec:	d1203317 	ldw	r4,-32564(gp)
  8025f0:	0824b640 	call	824b64 <alt_up_audio_disable_write_interrupt>

	alt_irq_register(AUDIO_0_IRQ, 0x0, audio_isr);
  8025f4:	010000c4 	movi	r4,3
  8025f8:	000b883a 	mov	r5,zero
  8025fc:	01802034 	movhi	r6,128
  802600:	3189a404 	addi	r6,r6,9872
  802604:	081ab180 	call	81ab18 <alt_irq_register>
  802608:	008000c4 	movi	r2,3
  80260c:	e0bffd15 	stw	r2,-12(fp)
static ALT_INLINE alt_irq_context ALT_ALWAYS_INLINE 
       alt_irq_disable_all (void)
{
  alt_irq_context context;

  NIOS2_READ_STATUS (context);
  802610:	0005303a 	rdctl	r2,status
  802614:	e0bffc15 	stw	r2,-16(fp)

  NIOS2_WRITE_STATUS (context & ~NIOS2_STATUS_PIE_MSK);
  802618:	e0fffc17 	ldw	r3,-16(fp)
  80261c:	00bfff84 	movi	r2,-2
  802620:	1884703a 	and	r2,r3,r2
  802624:	1001703a 	wrctl	status,r2
  
  return context;
  802628:	e0bffc17 	ldw	r2,-16(fp)
static ALT_INLINE int ALT_ALWAYS_INLINE alt_irq_enable (alt_u32 id)
{
  alt_irq_context  status;
  extern volatile alt_u32 alt_irq_active;

  status = alt_irq_disable_all ();
  80262c:	e0bffe15 	stw	r2,-8(fp)

  alt_irq_active |= (1 << id);
  802630:	e0fffd17 	ldw	r3,-12(fp)
  802634:	00800044 	movi	r2,1
  802638:	10c4983a 	sll	r2,r2,r3
  80263c:	1007883a 	mov	r3,r2
  802640:	008020f4 	movhi	r2,131
  802644:	10a9d304 	addi	r2,r2,-22708
  802648:	10800017 	ldw	r2,0(r2)
  80264c:	1886b03a 	or	r3,r3,r2
  802650:	008020f4 	movhi	r2,131
  802654:	10a9d304 	addi	r2,r2,-22708
  802658:	10c00015 	stw	r3,0(r2)
  NIOS2_WRITE_IENABLE (alt_irq_active);
  80265c:	008020f4 	movhi	r2,131
  802660:	10a9d304 	addi	r2,r2,-22708
  802664:	10800017 	ldw	r2,0(r2)
  802668:	100170fa 	wrctl	ienable,r2
  80266c:	e0bffe17 	ldw	r2,-8(fp)
  802670:	e0bffb15 	stw	r2,-20(fp)
  status &= ~NIOS2_STATUS_PIE_MSK;
  status |= (context & NIOS2_STATUS_PIE_MSK);
  
  NIOS2_WRITE_STATUS (status);
#else
  NIOS2_WRITE_STATUS (context);
  802674:	e0bffb17 	ldw	r2,-20(fp)
  802678:	1001703a 	wrctl	status,r2
	alt_irq_enable(AUDIO_0_IRQ);
}
  80267c:	e037883a 	mov	sp,fp
  802680:	dfc00117 	ldw	ra,4(sp)
  802684:	df000017 	ldw	fp,0(sp)
  802688:	dec00204 	addi	sp,sp,8
  80268c:	f800283a 	ret

00802690 <audio_isr>:


// audio interrupt fires upon having FIFO 75% empty
// will try to play from nextToPlay which contains
// sound waves that are to play
void audio_isr(void* context, alt_u32 id) {
  802690:	defff904 	addi	sp,sp,-28
  802694:	dfc00615 	stw	ra,24(sp)
  802698:	df000515 	stw	fp,20(sp)
  80269c:	df000504 	addi	fp,sp,20
  8026a0:	e13ffe15 	stw	r4,-8(fp)
  8026a4:	e17fff15 	stw	r5,-4(fp)
	//FIFO 75% empty
	int i;
	int fifospace = alt_up_audio_write_fifo_space(audio_dev, ALT_UP_AUDIO_RIGHT);
  8026a8:	d1203317 	ldw	r4,-32564(gp)
  8026ac:	01400044 	movi	r5,1
  8026b0:	0824e040 	call	824e04 <alt_up_audio_write_fifo_space>
  8026b4:	e0bffc15 	stw	r2,-16(fp)

	if(fifospace >= SAMPLE_SIZE) {
  8026b8:	e0bffc17 	ldw	r2,-16(fp)
  8026bc:	10800410 	cmplti	r2,r2,16
  8026c0:	10001e1e 	bne	r2,zero,80273c <audio_isr+0xac>
		alt_up_audio_write_fifo(audio_dev, nextToPlay, SAMPLE_SIZE, ALT_UP_AUDIO_RIGHT);
  8026c4:	d1203317 	ldw	r4,-32564(gp)
  8026c8:	01402174 	movhi	r5,133
  8026cc:	29580604 	addi	r5,r5,24600
  8026d0:	01800404 	movi	r6,16
  8026d4:	01c00044 	movi	r7,1
  8026d8:	082505c0 	call	82505c <alt_up_audio_write_fifo>
		alt_up_audio_write_fifo(audio_dev, nextToPlay, SAMPLE_SIZE, ALT_UP_AUDIO_LEFT);
  8026dc:	d1203317 	ldw	r4,-32564(gp)
  8026e0:	01402174 	movhi	r5,133
  8026e4:	29580604 	addi	r5,r5,24600
  8026e8:	01800404 	movi	r6,16
  8026ec:	000f883a 	mov	r7,zero
  8026f0:	082505c0 	call	82505c <alt_up_audio_write_fifo>
		for(i = 0; i < SAMPLE_SIZE; i++) {
  8026f4:	e03ffd15 	stw	zero,-12(fp)
  8026f8:	00000a06 	br	802724 <audio_isr+0x94>
			nextToPlay[i] = 0;
  8026fc:	e0bffd17 	ldw	r2,-12(fp)
  802700:	00c02174 	movhi	r3,133
  802704:	18d80604 	addi	r3,r3,24600
  802708:	1085883a 	add	r2,r2,r2
  80270c:	1085883a 	add	r2,r2,r2
  802710:	10c5883a 	add	r2,r2,r3
  802714:	10000015 	stw	zero,0(r2)
	int fifospace = alt_up_audio_write_fifo_space(audio_dev, ALT_UP_AUDIO_RIGHT);

	if(fifospace >= SAMPLE_SIZE) {
		alt_up_audio_write_fifo(audio_dev, nextToPlay, SAMPLE_SIZE, ALT_UP_AUDIO_RIGHT);
		alt_up_audio_write_fifo(audio_dev, nextToPlay, SAMPLE_SIZE, ALT_UP_AUDIO_LEFT);
		for(i = 0; i < SAMPLE_SIZE; i++) {
  802718:	e0bffd17 	ldw	r2,-12(fp)
  80271c:	10800044 	addi	r2,r2,1
  802720:	e0bffd15 	stw	r2,-12(fp)
  802724:	e0bffd17 	ldw	r2,-12(fp)
  802728:	10800410 	cmplti	r2,r2,16
  80272c:	103ff31e 	bne	r2,zero,8026fc <audio_isr+0x6c>
			nextToPlay[i] = 0;
		}
		INT8U error;
		error = OSSemPost(semaphore);
  802730:	d1203217 	ldw	r4,-32568(gp)
  802734:	08217bc0 	call	8217bc <OSSemPost>
  802738:	e0bffb05 	stb	r2,-20(fp)
	}
	alt_up_audio_disable_write_interrupt(audio_dev);
  80273c:	d1203317 	ldw	r4,-32564(gp)
  802740:	0824b640 	call	824b64 <alt_up_audio_disable_write_interrupt>
}
  802744:	e037883a 	mov	sp,fp
  802748:	dfc00117 	ldw	ra,4(sp)
  80274c:	df000017 	ldw	fp,0(sp)
  802750:	dec00204 	addi	sp,sp,8
  802754:	f800283a 	ret

00802758 <synthesize>:

// handles the digital signal processing
// for the DE2, adds the waveforms together, 
// scaling and decay. 
void synthesize(void* pdata) {
  802758:	defff904 	addi	sp,sp,-28
  80275c:	dfc00615 	stw	ra,24(sp)
  802760:	df000515 	stw	fp,20(sp)
  802764:	df000504 	addi	fp,sp,20
  802768:	e13fff15 	stw	r4,-4(fp)
	int i;
	int k;
	int temp;
	while(1) {
		// check for new sounds
		for(i = 0; i < 7; i++) {
  80276c:	e03ffd15 	stw	zero,-12(fp)
  802770:	00008f06 	br	8029b0 <synthesize+0x258>
			if(isPlaying[i] == 1) {
  802774:	e0bffd17 	ldw	r2,-12(fp)
  802778:	00c020f4 	movhi	r3,131
  80277c:	18e9fb04 	addi	r3,r3,-22548
  802780:	1085883a 	add	r2,r2,r2
  802784:	1085883a 	add	r2,r2,r2
  802788:	10c5883a 	add	r2,r2,r3
  80278c:	10800017 	ldw	r2,0(r2)
  802790:	10800058 	cmpnei	r2,r2,1
  802794:	1000831e 	bne	r2,zero,8029a4 <synthesize+0x24c>
				// append waveforms if needed
				for(k = 0; k < SAMPLE_SIZE; k++) {
  802798:	e03ffc15 	stw	zero,-16(fp)
  80279c:	00004c06 	br	8028d0 <synthesize+0x178>
					temp = drums[i]->waveform[drums[i]->index + k];
  8027a0:	e0bffd17 	ldw	r2,-12(fp)
  8027a4:	00c02374 	movhi	r3,141
  8027a8:	18cedb04 	addi	r3,r3,15212
  8027ac:	1085883a 	add	r2,r2,r2
  8027b0:	1085883a 	add	r2,r2,r2
  8027b4:	10c5883a 	add	r2,r2,r3
  8027b8:	10800017 	ldw	r2,0(r2)
  8027bc:	11000017 	ldw	r4,0(r2)
  8027c0:	e0bffd17 	ldw	r2,-12(fp)
  8027c4:	00c02374 	movhi	r3,141
  8027c8:	18cedb04 	addi	r3,r3,15212
  8027cc:	1085883a 	add	r2,r2,r2
  8027d0:	1085883a 	add	r2,r2,r2
  8027d4:	10c5883a 	add	r2,r2,r3
  8027d8:	10800017 	ldw	r2,0(r2)
  8027dc:	10c00117 	ldw	r3,4(r2)
  8027e0:	e0bffc17 	ldw	r2,-16(fp)
  8027e4:	1885883a 	add	r2,r3,r2
  8027e8:	1085883a 	add	r2,r2,r2
  8027ec:	1085883a 	add	r2,r2,r2
  8027f0:	2085883a 	add	r2,r4,r2
  8027f4:	10800017 	ldw	r2,0(r2)
  8027f8:	e0bffb15 	stw	r2,-20(fp)
					if(temp > 32768) {
  8027fc:	e0fffb17 	ldw	r3,-20(fp)
  802800:	00a00014 	movui	r2,32768
  802804:	10c0140e 	bge	r2,r3,802858 <synthesize+0x100>
						temp = 65535 - temp;
  802808:	00ffffd4 	movui	r3,65535
  80280c:	e0bffb17 	ldw	r2,-20(fp)
  802810:	1885c83a 	sub	r2,r3,r2
  802814:	e0bffb15 	stw	r2,-20(fp)
						temp *= drums[i]->scale;
  802818:	e0bffd17 	ldw	r2,-12(fp)
  80281c:	00c02374 	movhi	r3,141
  802820:	18cedb04 	addi	r3,r3,15212
  802824:	1085883a 	add	r2,r2,r2
  802828:	1085883a 	add	r2,r2,r2
  80282c:	10c5883a 	add	r2,r2,r3
  802830:	10800017 	ldw	r2,0(r2)
  802834:	10c00217 	ldw	r3,8(r2)
  802838:	e0bffb17 	ldw	r2,-20(fp)
  80283c:	10c5383a 	mul	r2,r2,r3
  802840:	e0bffb15 	stw	r2,-20(fp)
						temp = 65535 - temp;
  802844:	00ffffd4 	movui	r3,65535
  802848:	e0bffb17 	ldw	r2,-20(fp)
  80284c:	1885c83a 	sub	r2,r3,r2
  802850:	e0bffb15 	stw	r2,-20(fp)
  802854:	00000b06 	br	802884 <synthesize+0x12c>
					} else {
						temp *= drums[i]->scale;
  802858:	e0bffd17 	ldw	r2,-12(fp)
  80285c:	00c02374 	movhi	r3,141
  802860:	18cedb04 	addi	r3,r3,15212
  802864:	1085883a 	add	r2,r2,r2
  802868:	1085883a 	add	r2,r2,r2
  80286c:	10c5883a 	add	r2,r2,r3
  802870:	10800017 	ldw	r2,0(r2)
  802874:	10c00217 	ldw	r3,8(r2)
  802878:	e0bffb17 	ldw	r2,-20(fp)
  80287c:	10c5383a 	mul	r2,r2,r3
  802880:	e0bffb15 	stw	r2,-20(fp)
					}
					nextToPlay[k] += temp;
  802884:	e17ffc17 	ldw	r5,-16(fp)
  802888:	e0bffc17 	ldw	r2,-16(fp)
  80288c:	00c02174 	movhi	r3,133
  802890:	18d80604 	addi	r3,r3,24600
  802894:	1085883a 	add	r2,r2,r2
  802898:	1085883a 	add	r2,r2,r2
  80289c:	10c5883a 	add	r2,r2,r3
  8028a0:	10c00017 	ldw	r3,0(r2)
  8028a4:	e0bffb17 	ldw	r2,-20(fp)
  8028a8:	1889883a 	add	r4,r3,r2
  8028ac:	00c02174 	movhi	r3,133
  8028b0:	18d80604 	addi	r3,r3,24600
  8028b4:	2945883a 	add	r2,r5,r5
  8028b8:	1085883a 	add	r2,r2,r2
  8028bc:	10c5883a 	add	r2,r2,r3
  8028c0:	11000015 	stw	r4,0(r2)
	while(1) {
		// check for new sounds
		for(i = 0; i < 7; i++) {
			if(isPlaying[i] == 1) {
				// append waveforms if needed
				for(k = 0; k < SAMPLE_SIZE; k++) {
  8028c4:	e0bffc17 	ldw	r2,-16(fp)
  8028c8:	10800044 	addi	r2,r2,1
  8028cc:	e0bffc15 	stw	r2,-16(fp)
  8028d0:	e0bffc17 	ldw	r2,-16(fp)
  8028d4:	10800410 	cmplti	r2,r2,16
  8028d8:	103fb11e 	bne	r2,zero,8027a0 <synthesize+0x48>
						temp *= drums[i]->scale;
					}
					nextToPlay[k] += temp;
				}

				drums[i]->index += SAMPLE_SIZE;
  8028dc:	e0bffd17 	ldw	r2,-12(fp)
  8028e0:	00c02374 	movhi	r3,141
  8028e4:	18cedb04 	addi	r3,r3,15212
  8028e8:	1085883a 	add	r2,r2,r2
  8028ec:	1085883a 	add	r2,r2,r2
  8028f0:	10c5883a 	add	r2,r2,r3
  8028f4:	11000017 	ldw	r4,0(r2)
  8028f8:	e0bffd17 	ldw	r2,-12(fp)
  8028fc:	00c02374 	movhi	r3,141
  802900:	18cedb04 	addi	r3,r3,15212
  802904:	1085883a 	add	r2,r2,r2
  802908:	1085883a 	add	r2,r2,r2
  80290c:	10c5883a 	add	r2,r2,r3
  802910:	10800017 	ldw	r2,0(r2)
  802914:	10800117 	ldw	r2,4(r2)
  802918:	10800404 	addi	r2,r2,16
  80291c:	20800115 	stw	r2,4(r4)
				if(drums[i]->index >= drums[i]->numberOfSamples - SAMPLE_SIZE) {
  802920:	e0bffd17 	ldw	r2,-12(fp)
  802924:	00c02374 	movhi	r3,141
  802928:	18cedb04 	addi	r3,r3,15212
  80292c:	1085883a 	add	r2,r2,r2
  802930:	1085883a 	add	r2,r2,r2
  802934:	10c5883a 	add	r2,r2,r3
  802938:	10800017 	ldw	r2,0(r2)
  80293c:	11000117 	ldw	r4,4(r2)
  802940:	e0bffd17 	ldw	r2,-12(fp)
  802944:	00c02374 	movhi	r3,141
  802948:	18cedb04 	addi	r3,r3,15212
  80294c:	1085883a 	add	r2,r2,r2
  802950:	1085883a 	add	r2,r2,r2
  802954:	10c5883a 	add	r2,r2,r3
  802958:	10800017 	ldw	r2,0(r2)
  80295c:	10800317 	ldw	r2,12(r2)
  802960:	10bffc04 	addi	r2,r2,-16
  802964:	20800f16 	blt	r4,r2,8029a4 <synthesize+0x24c>
					drums[i]->index = 0;
  802968:	e0bffd17 	ldw	r2,-12(fp)
  80296c:	00c02374 	movhi	r3,141
  802970:	18cedb04 	addi	r3,r3,15212
  802974:	1085883a 	add	r2,r2,r2
  802978:	1085883a 	add	r2,r2,r2
  80297c:	10c5883a 	add	r2,r2,r3
  802980:	10800017 	ldw	r2,0(r2)
  802984:	10000115 	stw	zero,4(r2)
					isPlaying[i] = 0;
  802988:	e0bffd17 	ldw	r2,-12(fp)
  80298c:	00c020f4 	movhi	r3,131
  802990:	18e9fb04 	addi	r3,r3,-22548
  802994:	1085883a 	add	r2,r2,r2
  802998:	1085883a 	add	r2,r2,r2
  80299c:	10c5883a 	add	r2,r2,r3
  8029a0:	10000015 	stw	zero,0(r2)
	int i;
	int k;
	int temp;
	while(1) {
		// check for new sounds
		for(i = 0; i < 7; i++) {
  8029a4:	e0bffd17 	ldw	r2,-12(fp)
  8029a8:	10800044 	addi	r2,r2,1
  8029ac:	e0bffd15 	stw	r2,-12(fp)
  8029b0:	e0bffd17 	ldw	r2,-12(fp)
  8029b4:	108001d0 	cmplti	r2,r2,7
  8029b8:	103f6e1e 	bne	r2,zero,802774 <synthesize+0x1c>
					drums[i]->index = 0;
					isPlaying[i] = 0;
				}
			}
		}
		alt_up_audio_enable_write_interrupt(audio_dev);
  8029bc:	d1203317 	ldw	r4,-32564(gp)
  8029c0:	0824b180 	call	824b18 <alt_up_audio_enable_write_interrupt>
		//PEND SEM
		INT8U err;
		OSSemPend(semaphore, 0, &err);
  8029c4:	d1203217 	ldw	r4,-32568(gp)
  8029c8:	e1bffe04 	addi	r6,fp,-8
  8029cc:	000b883a 	mov	r5,zero
  8029d0:	08213c40 	call	8213c4 <OSSemPend>
	}
  8029d4:	003f6506 	br	80276c <synthesize+0x14>

008029d8 <init_button_pio>:
*/

#include "DrumAnyWhere.h"


void init_button_pio() {
  8029d8:	defffd04 	addi	sp,sp,-12
  8029dc:	dfc00215 	stw	ra,8(sp)
  8029e0:	df000115 	stw	fp,4(sp)
  8029e4:	df000104 	addi	fp,sp,4
	void* edge_capture_ptr = (void*) &edge_capture;
  8029e8:	d0a03104 	addi	r2,gp,-32572
  8029ec:	e0bfff15 	stw	r2,-4(fp)
	/* Enable all 4 button interrupts. */
	IOWR_ALTERA_AVALON_PIO_IRQ_MASK(BUTTONS_BASE, 0xf);
  8029f0:	00c06474 	movhi	r3,401
  8029f4:	18e42a04 	addi	r3,r3,-28504
  8029f8:	008003c4 	movi	r2,15
  8029fc:	18800035 	stwio	r2,0(r3)
	/* Reset the edge capture register. */
	IOWR_ALTERA_AVALON_PIO_EDGE_CAP(BUTTONS_BASE, 0x0);
  802a00:	00806474 	movhi	r2,401
  802a04:	10a42b04 	addi	r2,r2,-28500
  802a08:	10000035 	stwio	zero,0(r2)
	/* Register the ISR. */
	alt_irq_register(BUTTONS_IRQ, edge_capture_ptr, interrupt_isr_buttonPress);
  802a0c:	01000144 	movi	r4,5
  802a10:	e17fff17 	ldw	r5,-4(fp)
  802a14:	01802034 	movhi	r6,128
  802a18:	318a8d04 	addi	r6,r6,10804
  802a1c:	081ab180 	call	81ab18 <alt_irq_register>
}
  802a20:	e037883a 	mov	sp,fp
  802a24:	dfc00117 	ldw	ra,4(sp)
  802a28:	df000017 	ldw	fp,0(sp)
  802a2c:	dec00204 	addi	sp,sp,8
  802a30:	f800283a 	ret

00802a34 <interrupt_isr_buttonPress>:


void interrupt_isr_buttonPress(void *context, alt_u32 id) {
  802a34:	defffb04 	addi	sp,sp,-20
  802a38:	dfc00415 	stw	ra,16(sp)
  802a3c:	df000315 	stw	fp,12(sp)
  802a40:	df000304 	addi	fp,sp,12
  802a44:	e13ffe15 	stw	r4,-8(fp)
  802a48:	e17fff15 	stw	r5,-4(fp)

	volatile int* edge_capture_ptr = (volatile int*) context;
  802a4c:	e0bffe17 	ldw	r2,-8(fp)
  802a50:	e0bffd15 	stw	r2,-12(fp)
	*edge_capture_ptr = IORD_ALTERA_AVALON_PIO_EDGE_CAP(BUTTONS_BASE);
  802a54:	00806474 	movhi	r2,401
  802a58:	10a42b04 	addi	r2,r2,-28500
  802a5c:	10c00037 	ldwio	r3,0(r2)
  802a60:	e0bffd17 	ldw	r2,-12(fp)
  802a64:	10c00015 	stw	r3,0(r2)

	button = IORD_ALTERA_AVALON_PIO_DATA(BUTTONS_BASE);
  802a68:	00806474 	movhi	r2,401
  802a6c:	10a42804 	addi	r2,r2,-28512
  802a70:	10800037 	ldwio	r2,0(r2)
  802a74:	d0a03415 	stw	r2,-32560(gp)
	alt_up_audio_enable_write_interrupt(audio_dev);
  802a78:	d1203317 	ldw	r4,-32564(gp)
  802a7c:	0824b180 	call	824b18 <alt_up_audio_enable_write_interrupt>

	if((button & 0x8) == 0) {
  802a80:	d0a03417 	ldw	r2,-32560(gp)
  802a84:	1080020c 	andi	r2,r2,8
  802a88:	1004c03a 	cmpne	r2,r2,zero
  802a8c:	10000c1e 	bne	r2,zero,802ac0 <interrupt_isr_buttonPress+0x8c>
		alt_up_character_lcd_init(myLCD);
  802a90:	d1203517 	ldw	r4,-32556(gp)
  802a94:	0825a800 	call	825a80 <alt_up_character_lcd_init>
		alt_up_character_lcd_set_cursor_pos(myLCD, 0, 1);
  802a98:	d1203517 	ldw	r4,-32556(gp)
  802a9c:	000b883a 	mov	r5,zero
  802aa0:	01800044 	movi	r6,1
  802aa4:	0825c300 	call	825c30 <alt_up_character_lcd_set_cursor_pos>
		alt_up_character_lcd_string(myLCD, "kick");
  802aa8:	d1203517 	ldw	r4,-32556(gp)
  802aac:	014020b4 	movhi	r5,130
  802ab0:	295d6404 	addi	r5,r5,30096
  802ab4:	0825b6c0 	call	825b6c <alt_up_character_lcd_string>
		setDrum(kickConst);
  802ab8:	01000104 	movi	r4,4
  802abc:	0802bb00 	call	802bb0 <setDrum>
	}
	if((button & 0x4) == 0) {
  802ac0:	d0a03417 	ldw	r2,-32560(gp)
  802ac4:	1080010c 	andi	r2,r2,4
  802ac8:	1004c03a 	cmpne	r2,r2,zero
  802acc:	10000c1e 	bne	r2,zero,802b00 <interrupt_isr_buttonPress+0xcc>
		alt_up_character_lcd_init(myLCD);
  802ad0:	d1203517 	ldw	r4,-32556(gp)
  802ad4:	0825a800 	call	825a80 <alt_up_character_lcd_init>
		alt_up_character_lcd_set_cursor_pos(myLCD, 0, 1);
  802ad8:	d1203517 	ldw	r4,-32556(gp)
  802adc:	000b883a 	mov	r5,zero
  802ae0:	01800044 	movi	r6,1
  802ae4:	0825c300 	call	825c30 <alt_up_character_lcd_set_cursor_pos>
		alt_up_character_lcd_string(myLCD, "hihat");
  802ae8:	d1203517 	ldw	r4,-32556(gp)
  802aec:	014020b4 	movhi	r5,130
  802af0:	295d6604 	addi	r5,r5,30104
  802af4:	0825b6c0 	call	825b6c <alt_up_character_lcd_string>
		setDrum(kickConst);
  802af8:	01000104 	movi	r4,4
  802afc:	0802bb00 	call	802bb0 <setDrum>
	}
	if((button & 0x2) == 0) {
  802b00:	d0a03417 	ldw	r2,-32560(gp)
  802b04:	1080008c 	andi	r2,r2,2
  802b08:	1004c03a 	cmpne	r2,r2,zero
  802b0c:	10000c1e 	bne	r2,zero,802b40 <interrupt_isr_buttonPress+0x10c>
		alt_up_character_lcd_init(myLCD);
  802b10:	d1203517 	ldw	r4,-32556(gp)
  802b14:	0825a800 	call	825a80 <alt_up_character_lcd_init>
		alt_up_character_lcd_set_cursor_pos(myLCD, 0, 1);
  802b18:	d1203517 	ldw	r4,-32556(gp)
  802b1c:	000b883a 	mov	r5,zero
  802b20:	01800044 	movi	r6,1
  802b24:	0825c300 	call	825c30 <alt_up_character_lcd_set_cursor_pos>
		alt_up_character_lcd_string(myLCD, "hihat2");
  802b28:	d1203517 	ldw	r4,-32556(gp)
  802b2c:	014020b4 	movhi	r5,130
  802b30:	295d6804 	addi	r5,r5,30112
  802b34:	0825b6c0 	call	825b6c <alt_up_character_lcd_string>
		setDrum(hihatConst);
  802b38:	01000084 	movi	r4,2
  802b3c:	0802bb00 	call	802bb0 <setDrum>
	}
	if((button & 0x1) == 0) {
  802b40:	d0a03417 	ldw	r2,-32560(gp)
  802b44:	1080004c 	andi	r2,r2,1
  802b48:	1004c03a 	cmpne	r2,r2,zero
  802b4c:	10000c1e 	bne	r2,zero,802b80 <interrupt_isr_buttonPress+0x14c>
		alt_up_character_lcd_init(myLCD);
  802b50:	d1203517 	ldw	r4,-32556(gp)
  802b54:	0825a800 	call	825a80 <alt_up_character_lcd_init>
		alt_up_character_lcd_set_cursor_pos(myLCD, 0, 1);
  802b58:	d1203517 	ldw	r4,-32556(gp)
  802b5c:	000b883a 	mov	r5,zero
  802b60:	01800044 	movi	r6,1
  802b64:	0825c300 	call	825c30 <alt_up_character_lcd_set_cursor_pos>
		alt_up_character_lcd_string(myLCD, "snare");
  802b68:	d1203517 	ldw	r4,-32556(gp)
  802b6c:	014020b4 	movhi	r5,130
  802b70:	295d6a04 	addi	r5,r5,30120
  802b74:	0825b6c0 	call	825b6c <alt_up_character_lcd_string>
		setDrum(snareConst);
  802b78:	0009883a 	mov	r4,zero
  802b7c:	0802bb00 	call	802bb0 <setDrum>
	}

	IOWR_ALTERA_AVALON_PIO_EDGE_CAP(BUTTONS_BASE, 0x01);
  802b80:	00c06474 	movhi	r3,401
  802b84:	18e42b04 	addi	r3,r3,-28500
  802b88:	00800044 	movi	r2,1
  802b8c:	18800035 	stwio	r2,0(r3)
	IORD_ALTERA_AVALON_PIO_EDGE_CAP(BUTTONS_BASE);
  802b90:	00806474 	movhi	r2,401
  802b94:	10a42b04 	addi	r2,r2,-28500
  802b98:	10800037 	ldwio	r2,0(r2)
}
  802b9c:	e037883a 	mov	sp,fp
  802ba0:	dfc00117 	ldw	ra,4(sp)
  802ba4:	df000017 	ldw	fp,0(sp)
  802ba8:	dec00204 	addi	sp,sp,8
  802bac:	f800283a 	ret

00802bb0 <setDrum>:

void setDrum(int drum) {
  802bb0:	defffe04 	addi	sp,sp,-8
  802bb4:	df000115 	stw	fp,4(sp)
  802bb8:	df000104 	addi	fp,sp,4
  802bbc:	e13fff15 	stw	r4,-4(fp)
	if(isPlaying[drum] == 0) {
  802bc0:	e0bfff17 	ldw	r2,-4(fp)
  802bc4:	00c020f4 	movhi	r3,131
  802bc8:	18e9fb04 	addi	r3,r3,-22548
  802bcc:	1085883a 	add	r2,r2,r2
  802bd0:	1085883a 	add	r2,r2,r2
  802bd4:	10c5883a 	add	r2,r2,r3
  802bd8:	10800017 	ldw	r2,0(r2)
  802bdc:	1004c03a 	cmpne	r2,r2,zero
  802be0:	1000091e 	bne	r2,zero,802c08 <setDrum+0x58>
		isPlaying[drum] = 1;
  802be4:	e0bfff17 	ldw	r2,-4(fp)
  802be8:	00c020f4 	movhi	r3,131
  802bec:	18e9fb04 	addi	r3,r3,-22548
  802bf0:	1085883a 	add	r2,r2,r2
  802bf4:	1085883a 	add	r2,r2,r2
  802bf8:	10c7883a 	add	r3,r2,r3
  802bfc:	00800044 	movi	r2,1
  802c00:	18800015 	stw	r2,0(r3)
  802c04:	00000806 	br	802c28 <setDrum+0x78>
	} else {
		drums[drum]->index = 0;
  802c08:	e0bfff17 	ldw	r2,-4(fp)
  802c0c:	00c02374 	movhi	r3,141
  802c10:	18cedb04 	addi	r3,r3,15212
  802c14:	1085883a 	add	r2,r2,r2
  802c18:	1085883a 	add	r2,r2,r2
  802c1c:	10c5883a 	add	r2,r2,r3
  802c20:	10800017 	ldw	r2,0(r2)
  802c24:	10000115 	stw	zero,4(r2)
	}
}
  802c28:	e037883a 	mov	sp,fp
  802c2c:	df000017 	ldw	fp,0(sp)
  802c30:	dec00104 	addi	sp,sp,4
  802c34:	f800283a 	ret

00802c38 <dir_getFileStructure>:
 * Description: This function stores the filerecord located at loc in filerec.
 * It fetches the required sector for this.
 * Return value: void
*/
void dir_getFileStructure(FileSystem *fs,FileRecord *filerec,FileLocation *loc)
{
  802c38:	defffa04 	addi	sp,sp,-24
  802c3c:	dfc00515 	stw	ra,20(sp)
  802c40:	df000415 	stw	fp,16(sp)
  802c44:	df000404 	addi	fp,sp,16
  802c48:	e13ffd15 	stw	r4,-12(fp)
  802c4c:	e17ffe15 	stw	r5,-8(fp)
  802c50:	e1bfff15 	stw	r6,-4(fp)
	euint8 *buf;

	buf=part_getSect(fs->part,loc->Sector,IOM_MODE_READONLY);
  802c54:	e0bffd17 	ldw	r2,-12(fp)
  802c58:	11000017 	ldw	r4,0(r2)
  802c5c:	e0bfff17 	ldw	r2,-4(fp)
  802c60:	11400017 	ldw	r5,0(r2)
  802c64:	01800044 	movi	r6,1
  802c68:	080a5cc0 	call	80a5cc <part_getSect>
  802c6c:	e0bffc15 	stw	r2,-16(fp)
	*filerec=*(((FileRecord*)buf)+loc->Offset);
  802c70:	e0bfff17 	ldw	r2,-4(fp)
  802c74:	10800103 	ldbu	r2,4(r2)
  802c78:	10803fcc 	andi	r2,r2,255
  802c7c:	1004917a 	slli	r2,r2,5
  802c80:	1007883a 	mov	r3,r2
  802c84:	e0bffc17 	ldw	r2,-16(fp)
  802c88:	1887883a 	add	r3,r3,r2
  802c8c:	e13ffe17 	ldw	r4,-8(fp)
  802c90:	18800017 	ldw	r2,0(r3)
  802c94:	20800015 	stw	r2,0(r4)
  802c98:	18800117 	ldw	r2,4(r3)
  802c9c:	20800115 	stw	r2,4(r4)
  802ca0:	18800217 	ldw	r2,8(r3)
  802ca4:	20800215 	stw	r2,8(r4)
  802ca8:	18800317 	ldw	r2,12(r3)
  802cac:	20800315 	stw	r2,12(r4)
  802cb0:	18800417 	ldw	r2,16(r3)
  802cb4:	20800415 	stw	r2,16(r4)
  802cb8:	18800517 	ldw	r2,20(r3)
  802cbc:	20800515 	stw	r2,20(r4)
  802cc0:	18800617 	ldw	r2,24(r3)
  802cc4:	20800615 	stw	r2,24(r4)
  802cc8:	18800717 	ldw	r2,28(r3)
  802ccc:	20800715 	stw	r2,28(r4)
	part_relSect(fs->part,buf);
  802cd0:	e0bffd17 	ldw	r2,-12(fp)
  802cd4:	11000017 	ldw	r4,0(r2)
  802cd8:	e17ffc17 	ldw	r5,-16(fp)
  802cdc:	080a62c0 	call	80a62c <part_relSect>
}	
  802ce0:	e037883a 	mov	sp,fp
  802ce4:	dfc00117 	ldw	ra,4(sp)
  802ce8:	df000017 	ldw	fp,0(sp)
  802cec:	dec00204 	addi	sp,sp,8
  802cf0:	f800283a 	ret

00802cf4 <dir_createDirectoryEntry>:
 * Description: This function writes the filerecord stored in filerec to disc at
 * location loc. 
 * Return value: void
*/
void dir_createDirectoryEntry(FileSystem *fs,FileRecord *filerec,FileLocation *loc)
{
  802cf4:	defffa04 	addi	sp,sp,-24
  802cf8:	dfc00515 	stw	ra,20(sp)
  802cfc:	df000415 	stw	fp,16(sp)
  802d00:	df000404 	addi	fp,sp,16
  802d04:	e13ffd15 	stw	r4,-12(fp)
  802d08:	e17ffe15 	stw	r5,-8(fp)
  802d0c:	e1bfff15 	stw	r6,-4(fp)
	euint8 *buf;
	
	buf = part_getSect(fs->part,loc->Sector,IOM_MODE_READWRITE);
  802d10:	e0bffd17 	ldw	r2,-12(fp)
  802d14:	11000017 	ldw	r4,0(r2)
  802d18:	e0bfff17 	ldw	r2,-4(fp)
  802d1c:	11400017 	ldw	r5,0(r2)
  802d20:	01800084 	movi	r6,2
  802d24:	080a5cc0 	call	80a5cc <part_getSect>
  802d28:	e0bffc15 	stw	r2,-16(fp)
	memCpy(filerec,buf+(loc->Offset*sizeof(*filerec)),sizeof(*filerec));
  802d2c:	e0bfff17 	ldw	r2,-4(fp)
  802d30:	10800103 	ldbu	r2,4(r2)
  802d34:	10803fcc 	andi	r2,r2,255
  802d38:	1004917a 	slli	r2,r2,5
  802d3c:	1007883a 	mov	r3,r2
  802d40:	e0bffc17 	ldw	r2,-16(fp)
  802d44:	188b883a 	add	r5,r3,r2
  802d48:	e13ffe17 	ldw	r4,-8(fp)
  802d4c:	01800804 	movi	r6,32
  802d50:	080a86c0 	call	80a86c <memCpy>
	part_relSect(fs->part,buf);
  802d54:	e0bffd17 	ldw	r2,-12(fp)
  802d58:	11000017 	ldw	r4,0(r2)
  802d5c:	e17ffc17 	ldw	r5,-16(fp)
  802d60:	080a62c0 	call	80a62c <part_relSect>
}
  802d64:	e037883a 	mov	sp,fp
  802d68:	dfc00117 	ldw	ra,4(sp)
  802d6c:	df000017 	ldw	fp,0(sp)
  802d70:	dec00204 	addi	sp,sp,8
  802d74:	f800283a 	ret

00802d78 <dir_createDefaultEntry>:
 * a given fatfilename. If your system has a means of knowing time, here is an 
 * excellent place to apply it to the filerecord.  
 * Return value: void
*/
void dir_createDefaultEntry(FileSystem *fs,FileRecord *filerec,eint8* fatfilename)
{
  802d78:	defffb04 	addi	sp,sp,-20
  802d7c:	dfc00415 	stw	ra,16(sp)
  802d80:	df000315 	stw	fp,12(sp)
  802d84:	df000304 	addi	fp,sp,12
  802d88:	e13ffd15 	stw	r4,-12(fp)
  802d8c:	e17ffe15 	stw	r5,-8(fp)
  802d90:	e1bfff15 	stw	r6,-4(fp)
	memCpy(fatfilename,filerec->FileName,11);
  802d94:	e17ffe17 	ldw	r5,-8(fp)
  802d98:	e13fff17 	ldw	r4,-4(fp)
  802d9c:	018002c4 	movi	r6,11
  802da0:	080a86c0 	call	80a86c <memCpy>
	filerec->Attribute=0x00;
  802da4:	e0bffe17 	ldw	r2,-8(fp)
  802da8:	100002c5 	stb	zero,11(r2)
	filerec->NTReserved=0x00;
  802dac:	e0bffe17 	ldw	r2,-8(fp)
  802db0:	10000305 	stb	zero,12(r2)
	filerec->MilliSecTimeStamp=0x00;
  802db4:	e0bffe17 	ldw	r2,-8(fp)
  802db8:	10000345 	stb	zero,13(r2)
	filerec->CreatedTime=time_getTime();
  802dbc:	e0bffe17 	ldw	r2,-8(fp)
  802dc0:	1000038d 	sth	zero,14(r2)
	filerec->CreatedDate=time_getDate(); 
  802dc4:	e0bffe17 	ldw	r2,-8(fp)
  802dc8:	1000040d 	sth	zero,16(r2)
	filerec->AccessDate=filerec->CreatedDate;
  802dcc:	e0bffe17 	ldw	r2,-8(fp)
  802dd0:	10c0040b 	ldhu	r3,16(r2)
  802dd4:	e0bffe17 	ldw	r2,-8(fp)
  802dd8:	10c0048d 	sth	r3,18(r2)
	filerec->FirstClusterHigh=0x0000;
  802ddc:	e0bffe17 	ldw	r2,-8(fp)
  802de0:	1000050d 	sth	zero,20(r2)
	filerec->WriteTime=filerec->CreatedTime;
  802de4:	e0bffe17 	ldw	r2,-8(fp)
  802de8:	10c0038b 	ldhu	r3,14(r2)
  802dec:	e0bffe17 	ldw	r2,-8(fp)
  802df0:	10c0058d 	sth	r3,22(r2)
	filerec->WriteDate=filerec->CreatedDate;
  802df4:	e0bffe17 	ldw	r2,-8(fp)
  802df8:	10c0040b 	ldhu	r3,16(r2)
  802dfc:	e0bffe17 	ldw	r2,-8(fp)
  802e00:	10c0060d 	sth	r3,24(r2)
	filerec->FirstClusterLow=0x0000;
  802e04:	e0bffe17 	ldw	r2,-8(fp)
  802e08:	1000068d 	sth	zero,26(r2)
	filerec->FileSize=0x00000000;
  802e0c:	e0bffe17 	ldw	r2,-8(fp)
  802e10:	10000715 	stw	zero,28(r2)
}
  802e14:	e037883a 	mov	sp,fp
  802e18:	dfc00117 	ldw	ra,4(sp)
  802e1c:	df000017 	ldw	fp,0(sp)
  802e20:	dec00204 	addi	sp,sp,8
  802e24:	f800283a 	ret

00802e28 <dir_setFirstCluster>:
 * Description: This function requires modification to release it from
 * depending on the file object.
 * Return value:
*/
void dir_setFirstCluster(FileSystem *fs,FileLocation *loc,euint32 cluster_addr)
{
  802e28:	defffa04 	addi	sp,sp,-24
  802e2c:	dfc00515 	stw	ra,20(sp)
  802e30:	df000415 	stw	fp,16(sp)
  802e34:	df000404 	addi	fp,sp,16
  802e38:	e13ffd15 	stw	r4,-12(fp)
  802e3c:	e17ffe15 	stw	r5,-8(fp)
  802e40:	e1bfff15 	stw	r6,-4(fp)
	euint8 *buf;
 	
 	buf = part_getSect(fs->part,loc->Sector,IOM_MODE_READWRITE);
  802e44:	e0bffd17 	ldw	r2,-12(fp)
  802e48:	11000017 	ldw	r4,0(r2)
  802e4c:	e0bffe17 	ldw	r2,-8(fp)
  802e50:	11400017 	ldw	r5,0(r2)
  802e54:	01800084 	movi	r6,2
  802e58:	080a5cc0 	call	80a5cc <part_getSect>
  802e5c:	e0bffc15 	stw	r2,-16(fp)
	(((FileRecord*)buf)+loc->Offset)->FirstClusterHigh=cluster_addr>>16;
  802e60:	e0bffe17 	ldw	r2,-8(fp)
  802e64:	10800103 	ldbu	r2,4(r2)
  802e68:	10803fcc 	andi	r2,r2,255
  802e6c:	1004917a 	slli	r2,r2,5
  802e70:	1007883a 	mov	r3,r2
  802e74:	e0bffc17 	ldw	r2,-16(fp)
  802e78:	1887883a 	add	r3,r3,r2
  802e7c:	e0bfff17 	ldw	r2,-4(fp)
  802e80:	1004d43a 	srli	r2,r2,16
  802e84:	1880050d 	sth	r2,20(r3)
	(((FileRecord*)buf)+loc->Offset)->FirstClusterLow=cluster_addr&0xFFFF;	
  802e88:	e0bffe17 	ldw	r2,-8(fp)
  802e8c:	10800103 	ldbu	r2,4(r2)
  802e90:	10803fcc 	andi	r2,r2,255
  802e94:	1004917a 	slli	r2,r2,5
  802e98:	1007883a 	mov	r3,r2
  802e9c:	e0bffc17 	ldw	r2,-16(fp)
  802ea0:	1887883a 	add	r3,r3,r2
  802ea4:	e0bfff17 	ldw	r2,-4(fp)
  802ea8:	1880068d 	sth	r2,26(r3)
	part_relSect(fs->part,buf);
  802eac:	e0bffd17 	ldw	r2,-12(fp)
  802eb0:	11000017 	ldw	r4,0(r2)
  802eb4:	e17ffc17 	ldw	r5,-16(fp)
  802eb8:	080a62c0 	call	80a62c <part_relSect>
}
  802ebc:	e037883a 	mov	sp,fp
  802ec0:	dfc00117 	ldw	ra,4(sp)
  802ec4:	df000017 	ldw	fp,0(sp)
  802ec8:	dec00204 	addi	sp,sp,8
  802ecc:	f800283a 	ret

00802ed0 <dir_setFileSize>:
 * Description: This function changes the filesize recorded at loc->Sector
 * to 'numbytes'.
 * Return value: void
*/
void dir_setFileSize(FileSystem *fs, FileLocation *loc,euint32 numbytes)
{
  802ed0:	defffa04 	addi	sp,sp,-24
  802ed4:	dfc00515 	stw	ra,20(sp)
  802ed8:	df000415 	stw	fp,16(sp)
  802edc:	df000404 	addi	fp,sp,16
  802ee0:	e13ffd15 	stw	r4,-12(fp)
  802ee4:	e17ffe15 	stw	r5,-8(fp)
  802ee8:	e1bfff15 	stw	r6,-4(fp)
	euint8 *buf;
	
	buf = part_getSect(fs->part,loc->Sector,IOM_MODE_READWRITE);
  802eec:	e0bffd17 	ldw	r2,-12(fp)
  802ef0:	11000017 	ldw	r4,0(r2)
  802ef4:	e0bffe17 	ldw	r2,-8(fp)
  802ef8:	11400017 	ldw	r5,0(r2)
  802efc:	01800084 	movi	r6,2
  802f00:	080a5cc0 	call	80a5cc <part_getSect>
  802f04:	e0bffc15 	stw	r2,-16(fp)
	(((FileRecord*)buf)+loc->Offset)->FileSize=numbytes;
  802f08:	e0bffe17 	ldw	r2,-8(fp)
  802f0c:	10800103 	ldbu	r2,4(r2)
  802f10:	10803fcc 	andi	r2,r2,255
  802f14:	1004917a 	slli	r2,r2,5
  802f18:	1007883a 	mov	r3,r2
  802f1c:	e0bffc17 	ldw	r2,-16(fp)
  802f20:	1887883a 	add	r3,r3,r2
  802f24:	e0bfff17 	ldw	r2,-4(fp)
  802f28:	18800715 	stw	r2,28(r3)
	part_relSect(fs->part,buf);
  802f2c:	e0bffd17 	ldw	r2,-12(fp)
  802f30:	11000017 	ldw	r4,0(r2)
  802f34:	e17ffc17 	ldw	r5,-16(fp)
  802f38:	080a62c0 	call	80a62c <part_relSect>
}
  802f3c:	e037883a 	mov	sp,fp
  802f40:	dfc00117 	ldw	ra,4(sp)
  802f44:	df000017 	ldw	fp,0(sp)
  802f48:	dec00204 	addi	sp,sp,8
  802f4c:	f800283a 	ret

00802f50 <dir_updateDirectoryEntry>:
 * This function changes the entire entity stores at loc to the data recorded
 * in entry. This is for custom updates to the directoryentry.
 * Return value: 0 on success, -1 on failure
*/
esint8 dir_updateDirectoryEntry(FileSystem *fs,FileRecord *entry,FileLocation *loc)
{
  802f50:	defffa04 	addi	sp,sp,-24
  802f54:	dfc00515 	stw	ra,20(sp)
  802f58:	df000415 	stw	fp,16(sp)
  802f5c:	df000404 	addi	fp,sp,16
  802f60:	e13ffd15 	stw	r4,-12(fp)
  802f64:	e17ffe15 	stw	r5,-8(fp)
  802f68:	e1bfff15 	stw	r6,-4(fp)
	euint8 *buf;
	
	buf = part_getSect(fs->part,loc->Sector,IOM_MODE_READWRITE);
  802f6c:	e0bffd17 	ldw	r2,-12(fp)
  802f70:	11000017 	ldw	r4,0(r2)
  802f74:	e0bfff17 	ldw	r2,-4(fp)
  802f78:	11400017 	ldw	r5,0(r2)
  802f7c:	01800084 	movi	r6,2
  802f80:	080a5cc0 	call	80a5cc <part_getSect>
  802f84:	e0bffc15 	stw	r2,-16(fp)
	memCpy(entry,buf+(loc->Offset*sizeof(*entry)),sizeof(*entry));
  802f88:	e0bfff17 	ldw	r2,-4(fp)
  802f8c:	10800103 	ldbu	r2,4(r2)
  802f90:	10803fcc 	andi	r2,r2,255
  802f94:	1004917a 	slli	r2,r2,5
  802f98:	1007883a 	mov	r3,r2
  802f9c:	e0bffc17 	ldw	r2,-16(fp)
  802fa0:	188b883a 	add	r5,r3,r2
  802fa4:	e13ffe17 	ldw	r4,-8(fp)
  802fa8:	01800804 	movi	r6,32
  802fac:	080a86c0 	call	80a86c <memCpy>
	part_relSect(fs->part,buf);
  802fb0:	e0bffd17 	ldw	r2,-12(fp)
  802fb4:	11000017 	ldw	r4,0(r2)
  802fb8:	e17ffc17 	ldw	r5,-16(fp)
  802fbc:	080a62c0 	call	80a62c <part_relSect>
	return(0);
  802fc0:	0005883a 	mov	r2,zero
}
  802fc4:	e037883a 	mov	sp,fp
  802fc8:	dfc00117 	ldw	ra,4(sp)
  802fcc:	df000017 	ldw	fp,0(sp)
  802fd0:	dec00204 	addi	sp,sp,8
  802fd4:	f800283a 	ret

00802fd8 <dir_findFileinBuf>:
 * If loc is 0, then it's members are not touched.
 * Return value: This function returns 0 when it cannot find the file,
 * if it can find the file it will return the first cluster number.
*/
euint32 dir_findFileinBuf(euint8 *buf, eint8 *fatname, FileLocation *loc)
{
  802fd8:	defff104 	addi	sp,sp,-60
  802fdc:	dfc00e15 	stw	ra,56(sp)
  802fe0:	df000d15 	stw	fp,52(sp)
  802fe4:	df000d04 	addi	fp,sp,52
  802fe8:	e13ffc15 	stw	r4,-16(fp)
  802fec:	e17ffd15 	stw	r5,-12(fp)
  802ff0:	e1bffe15 	stw	r6,-8(fp)
	FileRecord fileEntry;
	euint8 c;
	
	for(c=0; c<16; c++)
  802ff4:	e03ff305 	stb	zero,-52(fp)
  802ff8:	00004306 	br	803108 <dir_findFileinBuf+0x130>
	{
		fileEntry = *(((FileRecord*)buf) + c);
  802ffc:	e0bff303 	ldbu	r2,-52(fp)
  803000:	1004917a 	slli	r2,r2,5
  803004:	1007883a 	mov	r3,r2
  803008:	e0bffc17 	ldw	r2,-16(fp)
  80300c:	1887883a 	add	r3,r3,r2
  803010:	18800017 	ldw	r2,0(r3)
  803014:	e0bff415 	stw	r2,-48(fp)
  803018:	18800117 	ldw	r2,4(r3)
  80301c:	e0bff515 	stw	r2,-44(fp)
  803020:	18800217 	ldw	r2,8(r3)
  803024:	e0bff615 	stw	r2,-40(fp)
  803028:	18800317 	ldw	r2,12(r3)
  80302c:	e0bff715 	stw	r2,-36(fp)
  803030:	18800417 	ldw	r2,16(r3)
  803034:	e0bff815 	stw	r2,-32(fp)
  803038:	18800517 	ldw	r2,20(r3)
  80303c:	e0bff915 	stw	r2,-28(fp)
  803040:	18800617 	ldw	r2,24(r3)
  803044:	e0bffa15 	stw	r2,-24(fp)
  803048:	18800717 	ldw	r2,28(r3)
  80304c:	e0bffb15 	stw	r2,-20(fp)
		/* Check if the entry is for short filenames */
		if( !( (fileEntry.Attribute & 0x0F) == 0x0F ) )
  803050:	e0bff6c3 	ldbu	r2,-37(fp)
  803054:	10803fcc 	andi	r2,r2,255
  803058:	108003cc 	andi	r2,r2,15
  80305c:	108003e0 	cmpeqi	r2,r2,15
  803060:	1000261e 	bne	r2,zero,8030fc <dir_findFileinBuf+0x124>
		{
			if( strMatch((eint8*)fileEntry.FileName,fatname,11) == 0 )
  803064:	e13ff404 	addi	r4,fp,-48
  803068:	e17ffd17 	ldw	r5,-12(fp)
  80306c:	018002c4 	movi	r6,11
  803070:	080a7d40 	call	80a7d4 <strMatch>
  803074:	10bfffcc 	andi	r2,r2,65535
  803078:	1004c03a 	cmpne	r2,r2,zero
  80307c:	10001f1e 	bne	r2,zero,8030fc <dir_findFileinBuf+0x124>
			{
				/* The entry has been found, return the location in the dir */
				if(loc)loc->Offset = c;
  803080:	e0bffe17 	ldw	r2,-8(fp)
  803084:	1005003a 	cmpeq	r2,r2,zero
  803088:	1000031e 	bne	r2,zero,803098 <dir_findFileinBuf+0xc0>
  80308c:	e0fffe17 	ldw	r3,-8(fp)
  803090:	e0bff303 	ldbu	r2,-52(fp)
  803094:	18800105 	stb	r2,4(r3)
				if(loc)loc->attrib = fileEntry.Attribute;
  803098:	e0bffe17 	ldw	r2,-8(fp)
  80309c:	1005003a 	cmpeq	r2,r2,zero
  8030a0:	1000031e 	bne	r2,zero,8030b0 <dir_findFileinBuf+0xd8>
  8030a4:	e0fff6c3 	ldbu	r3,-37(fp)
  8030a8:	e0bffe17 	ldw	r2,-8(fp)
  8030ac:	10c00145 	stb	r3,5(r2)
				if((((euint32 )fileEntry.FirstClusterHigh)<<16)+ fileEntry.FirstClusterLow==0){
  8030b0:	e0bff90b 	ldhu	r2,-28(fp)
  8030b4:	10bfffcc 	andi	r2,r2,65535
  8030b8:	1006943a 	slli	r3,r2,16
  8030bc:	e0bffa8b 	ldhu	r2,-22(fp)
  8030c0:	10bfffcc 	andi	r2,r2,65535
  8030c4:	1885883a 	add	r2,r3,r2
  8030c8:	1004c03a 	cmpne	r2,r2,zero
  8030cc:	1000031e 	bne	r2,zero,8030dc <dir_findFileinBuf+0x104>
					return(1); /* Lie about cluster, 0 means not found! */
  8030d0:	00800044 	movi	r2,1
  8030d4:	e0bfff15 	stw	r2,-4(fp)
  8030d8:	00000f06 	br	803118 <dir_findFileinBuf+0x140>
				}else{
					return
  8030dc:	e0bff90b 	ldhu	r2,-28(fp)
  8030e0:	10bfffcc 	andi	r2,r2,65535
  8030e4:	1006943a 	slli	r3,r2,16
  8030e8:	e0bffa8b 	ldhu	r2,-22(fp)
  8030ec:	10bfffcc 	andi	r2,r2,65535
  8030f0:	1887883a 	add	r3,r3,r2
  8030f4:	e0ffff15 	stw	r3,-4(fp)
  8030f8:	00000706 	br	803118 <dir_findFileinBuf+0x140>
euint32 dir_findFileinBuf(euint8 *buf, eint8 *fatname, FileLocation *loc)
{
	FileRecord fileEntry;
	euint8 c;
	
	for(c=0; c<16; c++)
  8030fc:	e0bff303 	ldbu	r2,-52(fp)
  803100:	10800044 	addi	r2,r2,1
  803104:	e0bff305 	stb	r2,-52(fp)
  803108:	e0bff303 	ldbu	r2,-52(fp)
  80310c:	10800430 	cmpltui	r2,r2,16
  803110:	103fba1e 	bne	r2,zero,802ffc <dir_findFileinBuf+0x24>
							);
				}
			}
		}
	}
	return(0);
  803114:	e03fff15 	stw	zero,-4(fp)
  803118:	e0bfff17 	ldw	r2,-4(fp)
}
  80311c:	e037883a 	mov	sp,fp
  803120:	dfc00117 	ldw	ra,4(sp)
  803124:	df000017 	ldw	fp,0(sp)
  803128:	dec00204 	addi	sp,sp,8
  80312c:	f800283a 	ret

00803130 <dir_findFreeEntryinBuf>:
 * This function searches for a free entry in a given sector 'buf'.
 * It will put the offset into the loc->Offset field, given that loc is not 0.
 * Return value: 1 when it found a free spot, 0 if it hasn't.
*/
euint32 dir_findFreeEntryinBuf(euint8* buf, FileLocation *loc)
{
  803130:	defff304 	addi	sp,sp,-52
  803134:	df000c15 	stw	fp,48(sp)
  803138:	df000c04 	addi	fp,sp,48
  80313c:	e13ffd15 	stw	r4,-12(fp)
  803140:	e17ffe15 	stw	r5,-8(fp)
	FileRecord fileEntry;
	euint8 c;
	
	for(c=0;c<16;c++){
  803144:	e03ff405 	stb	zero,-48(fp)
  803148:	00002e06 	br	803204 <dir_findFreeEntryinBuf+0xd4>
		fileEntry = *(((FileRecord*)buf) + c);
  80314c:	e0bff403 	ldbu	r2,-48(fp)
  803150:	1004917a 	slli	r2,r2,5
  803154:	1007883a 	mov	r3,r2
  803158:	e0bffd17 	ldw	r2,-12(fp)
  80315c:	1887883a 	add	r3,r3,r2
  803160:	18800017 	ldw	r2,0(r3)
  803164:	e0bff515 	stw	r2,-44(fp)
  803168:	18800117 	ldw	r2,4(r3)
  80316c:	e0bff615 	stw	r2,-40(fp)
  803170:	18800217 	ldw	r2,8(r3)
  803174:	e0bff715 	stw	r2,-36(fp)
  803178:	18800317 	ldw	r2,12(r3)
  80317c:	e0bff815 	stw	r2,-32(fp)
  803180:	18800417 	ldw	r2,16(r3)
  803184:	e0bff915 	stw	r2,-28(fp)
  803188:	18800517 	ldw	r2,20(r3)
  80318c:	e0bffa15 	stw	r2,-24(fp)
  803190:	18800617 	ldw	r2,24(r3)
  803194:	e0bffb15 	stw	r2,-20(fp)
  803198:	18800717 	ldw	r2,28(r3)
  80319c:	e0bffc15 	stw	r2,-16(fp)
		if( !( (fileEntry.Attribute & 0x0F) == 0x0F ) ){
  8031a0:	e0bff7c3 	ldbu	r2,-33(fp)
  8031a4:	10803fcc 	andi	r2,r2,255
  8031a8:	108003cc 	andi	r2,r2,15
  8031ac:	108003e0 	cmpeqi	r2,r2,15
  8031b0:	1000111e 	bne	r2,zero,8031f8 <dir_findFreeEntryinBuf+0xc8>
			if(fileEntry.FileName[0] == 0x00 ||
  8031b4:	e0bff503 	ldbu	r2,-44(fp)
  8031b8:	10803fcc 	andi	r2,r2,255
  8031bc:	1005003a 	cmpeq	r2,r2,zero
  8031c0:	1000041e 	bne	r2,zero,8031d4 <dir_findFreeEntryinBuf+0xa4>
  8031c4:	e0bff503 	ldbu	r2,-44(fp)
  8031c8:	10803fcc 	andi	r2,r2,255
  8031cc:	10803958 	cmpnei	r2,r2,229
  8031d0:	1000091e 	bne	r2,zero,8031f8 <dir_findFreeEntryinBuf+0xc8>
			   fileEntry.FileName[0] == 0xE5 ){
				if(loc)loc->Offset=c;
  8031d4:	e0bffe17 	ldw	r2,-8(fp)
  8031d8:	1005003a 	cmpeq	r2,r2,zero
  8031dc:	1000031e 	bne	r2,zero,8031ec <dir_findFreeEntryinBuf+0xbc>
  8031e0:	e0fffe17 	ldw	r3,-8(fp)
  8031e4:	e0bff403 	ldbu	r2,-48(fp)
  8031e8:	18800105 	stb	r2,4(r3)
				return(1);
  8031ec:	00800044 	movi	r2,1
  8031f0:	e0bfff15 	stw	r2,-4(fp)
  8031f4:	00000706 	br	803214 <dir_findFreeEntryinBuf+0xe4>
euint32 dir_findFreeEntryinBuf(euint8* buf, FileLocation *loc)
{
	FileRecord fileEntry;
	euint8 c;
	
	for(c=0;c<16;c++){
  8031f8:	e0bff403 	ldbu	r2,-48(fp)
  8031fc:	10800044 	addi	r2,r2,1
  803200:	e0bff405 	stb	r2,-48(fp)
  803204:	e0bff403 	ldbu	r2,-48(fp)
  803208:	10800430 	cmpltui	r2,r2,16
  80320c:	103fcf1e 	bne	r2,zero,80314c <dir_findFreeEntryinBuf+0x1c>
				if(loc)loc->Offset=c;
				return(1);
			}
		}
	}
	return(0);
  803210:	e03fff15 	stw	zero,-4(fp)
  803214:	e0bfff17 	ldw	r2,-4(fp)
}
  803218:	e037883a 	mov	sp,fp
  80321c:	df000017 	ldw	fp,0(sp)
  803220:	dec00104 	addi	sp,sp,4
  803224:	f800283a 	ret

00803228 <dir_findinBuf>:
 * euint32  dir_findinBuf(euint8 *buf, eint8 *fatname, FileLocation *loc)
 * Description: This function searches for a given fatfilename in a buffer.
 * Return value: Returns 0 on not found, and the firstcluster when the name is found.
*/
euint32  dir_findinBuf(euint8 *buf, eint8 *fatname, FileLocation *loc, euint8 mode)
{
  803228:	defff804 	addi	sp,sp,-32
  80322c:	dfc00715 	stw	ra,28(sp)
  803230:	df000615 	stw	fp,24(sp)
  803234:	df000604 	addi	fp,sp,24
  803238:	e13ffa15 	stw	r4,-24(fp)
  80323c:	e17ffb15 	stw	r5,-20(fp)
  803240:	e1bffc15 	stw	r6,-16(fp)
  803244:	e1fffd05 	stb	r7,-12(fp)
	switch(mode){
  803248:	e0bffd03 	ldbu	r2,-12(fp)
  80324c:	e0bfff15 	stw	r2,-4(fp)
  803250:	e0ffff17 	ldw	r3,-4(fp)
  803254:	1805003a 	cmpeq	r2,r3,zero
  803258:	1000041e 	bne	r2,zero,80326c <dir_findinBuf+0x44>
  80325c:	e0ffff17 	ldw	r3,-4(fp)
  803260:	18800060 	cmpeqi	r2,r3,1
  803264:	1000071e 	bne	r2,zero,803284 <dir_findinBuf+0x5c>
  803268:	00000b06 	br	803298 <dir_findinBuf+0x70>
		case DIRFIND_FILE:
			return(dir_findFileinBuf(buf,fatname,loc));
  80326c:	e13ffa17 	ldw	r4,-24(fp)
  803270:	e17ffb17 	ldw	r5,-20(fp)
  803274:	e1bffc17 	ldw	r6,-16(fp)
  803278:	0802fd80 	call	802fd8 <dir_findFileinBuf>
  80327c:	e0bffe15 	stw	r2,-8(fp)
  803280:	00000606 	br	80329c <dir_findinBuf+0x74>
			break;
		case DIRFIND_FREE:
			return(dir_findFreeEntryinBuf(buf,loc));
  803284:	e13ffa17 	ldw	r4,-24(fp)
  803288:	e17ffc17 	ldw	r5,-16(fp)
  80328c:	08031300 	call	803130 <dir_findFreeEntryinBuf>
  803290:	e0bffe15 	stw	r2,-8(fp)
  803294:	00000106 	br	80329c <dir_findinBuf+0x74>
			break;
		default:
			return(0);
  803298:	e03ffe15 	stw	zero,-8(fp)
  80329c:	e0bffe17 	ldw	r2,-8(fp)
			break;
	}
	return(0);
}
  8032a0:	e037883a 	mov	sp,fp
  8032a4:	dfc00117 	ldw	ra,4(sp)
  8032a8:	df000017 	ldw	fp,0(sp)
  8032ac:	dec00204 	addi	sp,sp,8
  8032b0:	f800283a 	ret

008032b4 <dir_findinCluster>:
 * This function will search for an existing (fatname) or free directory entry
 * in a full cluster.
 * Return value: 0 on failure, firstcluster on finding file, and 1 on finding free spot.
*/
euint32 dir_findinCluster(FileSystem *fs,euint32 cluster,eint8 *fatname, FileLocation *loc, euint8 mode)
{
  8032b4:	defff404 	addi	sp,sp,-48
  8032b8:	dfc00b15 	stw	ra,44(sp)
  8032bc:	df000a15 	stw	fp,40(sp)
  8032c0:	dc000915 	stw	r16,36(sp)
  8032c4:	df000904 	addi	fp,sp,36
  8032c8:	e13ffa15 	stw	r4,-24(fp)
  8032cc:	e17ffb15 	stw	r5,-20(fp)
  8032d0:	e1bffc15 	stw	r6,-16(fp)
  8032d4:	e1fffd15 	stw	r7,-12(fp)
  8032d8:	e0800317 	ldw	r2,12(fp)
  8032dc:	e0bffe05 	stb	r2,-8(fp)
	euint8 c,*buf=0;
  8032e0:	e03ff815 	stw	zero,-32(fp)
	euint32 fclus;
	
	for(c=0;c<fs->volumeId.SectorsPerCluster;c++){
  8032e4:	e03ff905 	stb	zero,-28(fp)
  8032e8:	00002e06 	br	8033a4 <dir_findinCluster+0xf0>
		buf = part_getSect(fs->part,fs_clusterToSector(fs,cluster)+c,IOM_MODE_READONLY);
  8032ec:	e0bffa17 	ldw	r2,-24(fp)
  8032f0:	14000017 	ldw	r16,0(r2)
  8032f4:	e13ffa17 	ldw	r4,-24(fp)
  8032f8:	e17ffb17 	ldw	r5,-20(fp)
  8032fc:	0806b700 	call	806b70 <fs_clusterToSector>
  803300:	1007883a 	mov	r3,r2
  803304:	e0bff903 	ldbu	r2,-28(fp)
  803308:	188b883a 	add	r5,r3,r2
  80330c:	8009883a 	mov	r4,r16
  803310:	01800044 	movi	r6,1
  803314:	080a5cc0 	call	80a5cc <part_getSect>
  803318:	e0bff815 	stw	r2,-32(fp)
		if((fclus=dir_findinBuf(buf,fatname,loc,mode))){
  80331c:	e1fffe03 	ldbu	r7,-8(fp)
  803320:	e13ff817 	ldw	r4,-32(fp)
  803324:	e17ffc17 	ldw	r5,-16(fp)
  803328:	e1bffd17 	ldw	r6,-12(fp)
  80332c:	08032280 	call	803228 <dir_findinBuf>
  803330:	e0bff715 	stw	r2,-36(fp)
  803334:	e0bff717 	ldw	r2,-36(fp)
  803338:	1005003a 	cmpeq	r2,r2,zero
  80333c:	1000121e 	bne	r2,zero,803388 <dir_findinCluster+0xd4>
			if(loc)loc->Sector=fs_clusterToSector(fs,cluster)+c;
  803340:	e0bffd17 	ldw	r2,-12(fp)
  803344:	1005003a 	cmpeq	r2,r2,zero
  803348:	1000081e 	bne	r2,zero,80336c <dir_findinCluster+0xb8>
  80334c:	e13ffa17 	ldw	r4,-24(fp)
  803350:	e17ffb17 	ldw	r5,-20(fp)
  803354:	0806b700 	call	806b70 <fs_clusterToSector>
  803358:	1007883a 	mov	r3,r2
  80335c:	e0bff903 	ldbu	r2,-28(fp)
  803360:	1887883a 	add	r3,r3,r2
  803364:	e0bffd17 	ldw	r2,-12(fp)
  803368:	10c00015 	stw	r3,0(r2)
			part_relSect(fs->part,buf);
  80336c:	e0bffa17 	ldw	r2,-24(fp)
  803370:	11000017 	ldw	r4,0(r2)
  803374:	e17ff817 	ldw	r5,-32(fp)
  803378:	080a62c0 	call	80a62c <part_relSect>
			return(fclus);
  80337c:	e0bff717 	ldw	r2,-36(fp)
  803380:	e0bfff15 	stw	r2,-4(fp)
  803384:	00000d06 	br	8033bc <dir_findinCluster+0x108>
		}
		part_relSect(fs->part,buf); /* Thanks Mike ;) */
  803388:	e0bffa17 	ldw	r2,-24(fp)
  80338c:	11000017 	ldw	r4,0(r2)
  803390:	e17ff817 	ldw	r5,-32(fp)
  803394:	080a62c0 	call	80a62c <part_relSect>
euint32 dir_findinCluster(FileSystem *fs,euint32 cluster,eint8 *fatname, FileLocation *loc, euint8 mode)
{
	euint8 c,*buf=0;
	euint32 fclus;
	
	for(c=0;c<fs->volumeId.SectorsPerCluster;c++){
  803398:	e0bff903 	ldbu	r2,-28(fp)
  80339c:	10800044 	addi	r2,r2,1
  8033a0:	e0bff905 	stb	r2,-28(fp)
  8033a4:	e0bffa17 	ldw	r2,-24(fp)
  8033a8:	10800183 	ldbu	r2,6(r2)
  8033ac:	10c03fcc 	andi	r3,r2,255
  8033b0:	e0bff903 	ldbu	r2,-28(fp)
  8033b4:	10ffcd36 	bltu	r2,r3,8032ec <dir_findinCluster+0x38>
			part_relSect(fs->part,buf);
			return(fclus);
		}
		part_relSect(fs->part,buf); /* Thanks Mike ;) */
	}
	return(0);
  8033b8:	e03fff15 	stw	zero,-4(fp)
  8033bc:	e0bfff17 	ldw	r2,-4(fp)
}
  8033c0:	e037883a 	mov	sp,fp
  8033c4:	dfc00217 	ldw	ra,8(sp)
  8033c8:	df000117 	ldw	fp,4(sp)
  8033cc:	dc000017 	ldw	r16,0(sp)
  8033d0:	dec00304 	addi	sp,sp,12
  8033d4:	f800283a 	ret

008033d8 <dir_findinDir>:
 * This function will search for an existing (fatname) or free directory entry
 * in a directory, following the clusterchains.
 * Return value: 0 on failure, firstcluster on finding file, and 1 on finding free spot.
*/
euint32 dir_findinDir(FileSystem *fs, eint8* fatname,euint32 firstcluster, FileLocation *loc, euint8 mode)
{
  8033d8:	deffef04 	addi	sp,sp,-68
  8033dc:	dfc01015 	stw	ra,64(sp)
  8033e0:	df000f15 	stw	fp,60(sp)
  8033e4:	df000f04 	addi	fp,sp,60
  8033e8:	e13ffa15 	stw	r4,-24(fp)
  8033ec:	e17ffb15 	stw	r5,-20(fp)
  8033f0:	e1bffc15 	stw	r6,-16(fp)
  8033f4:	e1fffd15 	stw	r7,-12(fp)
  8033f8:	e0800217 	ldw	r2,8(fp)
  8033fc:	e0bffe05 	stb	r2,-8(fp)
	euint32 c=0,cluster;
  803400:	e03ff315 	stw	zero,-52(fp)
	ClusterChain Cache;
	
	Cache.DiscCluster = Cache.FirstCluster = firstcluster;
  803404:	e0bffc17 	ldw	r2,-16(fp)
  803408:	e0bff715 	stw	r2,-36(fp)
  80340c:	e0bff717 	ldw	r2,-36(fp)
  803410:	e0bff615 	stw	r2,-40(fp)
	Cache.LogicCluster = Cache.LastCluster = Cache.Linear = 0;
  803414:	e03ff405 	stb	zero,-48(fp)
  803418:	e03ff815 	stw	zero,-32(fp)
  80341c:	e0bff817 	ldw	r2,-32(fp)
  803420:	e0bff515 	stw	r2,-44(fp)
	
	if(firstcluster <= 1){
  803424:	e0bffc17 	ldw	r2,-16(fp)
  803428:	108000a8 	cmpgeui	r2,r2,2
  80342c:	1000151e 	bne	r2,zero,803484 <dir_findinDir+0xac>
		return(dir_findinRootArea(fs,fatname,loc,mode));	
  803430:	e1fffe03 	ldbu	r7,-8(fp)
  803434:	e13ffa17 	ldw	r4,-24(fp)
  803438:	e17ffb17 	ldw	r5,-20(fp)
  80343c:	e1bffd17 	ldw	r6,-12(fp)
  803440:	08034d00 	call	8034d0 <dir_findinRootArea>
  803444:	e0bfff15 	stw	r2,-4(fp)
  803448:	00001b06 	br	8034b8 <dir_findinDir+0xe0>
	}
	
	while(!fat_LogicToDiscCluster(fs,&Cache,c++)){
		if((cluster=dir_findinCluster(fs,Cache.DiscCluster,fatname,loc,mode))){
  80344c:	e17ff617 	ldw	r5,-40(fp)
  803450:	e0bffe03 	ldbu	r2,-8(fp)
  803454:	d8800015 	stw	r2,0(sp)
  803458:	e13ffa17 	ldw	r4,-24(fp)
  80345c:	e1bffb17 	ldw	r6,-20(fp)
  803460:	e1fffd17 	ldw	r7,-12(fp)
  803464:	08032b40 	call	8032b4 <dir_findinCluster>
  803468:	e0bff215 	stw	r2,-56(fp)
  80346c:	e0bff217 	ldw	r2,-56(fp)
  803470:	1005003a 	cmpeq	r2,r2,zero
  803474:	1000031e 	bne	r2,zero,803484 <dir_findinDir+0xac>
			return(cluster);
  803478:	e0bff217 	ldw	r2,-56(fp)
  80347c:	e0bfff15 	stw	r2,-4(fp)
  803480:	00000d06 	br	8034b8 <dir_findinDir+0xe0>
	
	if(firstcluster <= 1){
		return(dir_findinRootArea(fs,fatname,loc,mode));	
	}
	
	while(!fat_LogicToDiscCluster(fs,&Cache,c++)){
  803484:	e1bff317 	ldw	r6,-52(fp)
  803488:	e0bff317 	ldw	r2,-52(fp)
  80348c:	10800044 	addi	r2,r2,1
  803490:	e0bff315 	stw	r2,-52(fp)
  803494:	e17ff404 	addi	r5,fp,-48
  803498:	e13ffa17 	ldw	r4,-24(fp)
  80349c:	0804b340 	call	804b34 <fat_LogicToDiscCluster>
  8034a0:	10bfffcc 	andi	r2,r2,65535
  8034a4:	10a0001c 	xori	r2,r2,32768
  8034a8:	10a00004 	addi	r2,r2,-32768
  8034ac:	1005003a 	cmpeq	r2,r2,zero
  8034b0:	103fe61e 	bne	r2,zero,80344c <dir_findinDir+0x74>
		if((cluster=dir_findinCluster(fs,Cache.DiscCluster,fatname,loc,mode))){
			return(cluster);
		}
	}
	return(0);
  8034b4:	e03fff15 	stw	zero,-4(fp)
  8034b8:	e0bfff17 	ldw	r2,-4(fp)
}
  8034bc:	e037883a 	mov	sp,fp
  8034c0:	dfc00117 	ldw	ra,4(sp)
  8034c4:	df000017 	ldw	fp,0(sp)
  8034c8:	dec00204 	addi	sp,sp,8
  8034cc:	f800283a 	ret

008034d0 <dir_findinRootArea>:
 * This function will search for an existing (fatname) or free directory entry
 * in the rootdirectory-area of a FAT12/FAT16 filesystem.
 * Return value: 0 on failure, firstcluster on finding file, and 1 on finding free spot.
*/
euint32 dir_findinRootArea(FileSystem *fs,eint8* fatname, FileLocation *loc, euint8 mode)
{
  8034d0:	defff604 	addi	sp,sp,-40
  8034d4:	dfc00915 	stw	ra,36(sp)
  8034d8:	df000815 	stw	fp,32(sp)
  8034dc:	df000804 	addi	fp,sp,32
  8034e0:	e13ffb15 	stw	r4,-20(fp)
  8034e4:	e17ffc15 	stw	r5,-16(fp)
  8034e8:	e1bffd15 	stw	r6,-12(fp)
  8034ec:	e1fffe05 	stb	r7,-8(fp)
	euint32 c,fclus;
	euint8 *buf=0;
  8034f0:	e03ff815 	stw	zero,-32(fp)
	
	if((fs->type != FAT12) && (fs->type != FAT16))return(0);
  8034f4:	e0bffb17 	ldw	r2,-20(fp)
  8034f8:	10800f03 	ldbu	r2,60(r2)
  8034fc:	10803fcc 	andi	r2,r2,255
  803500:	10800060 	cmpeqi	r2,r2,1
  803504:	1000071e 	bne	r2,zero,803524 <dir_findinRootArea+0x54>
  803508:	e0bffb17 	ldw	r2,-20(fp)
  80350c:	10800f03 	ldbu	r2,60(r2)
  803510:	10803fcc 	andi	r2,r2,255
  803514:	108000a0 	cmpeqi	r2,r2,2
  803518:	1000021e 	bne	r2,zero,803524 <dir_findinRootArea+0x54>
  80351c:	e03fff15 	stw	zero,-4(fp)
  803520:	00003606 	br	8035fc <dir_findinRootArea+0x12c>
	
	for(c=fs->FirstSectorRootDir;c<(fs->FirstSectorRootDir+fs->volumeId.RootEntryCount/32);c++){
  803524:	e0bffb17 	ldw	r2,-20(fp)
  803528:	10800b17 	ldw	r2,44(r2)
  80352c:	e0bffa15 	stw	r2,-24(fp)
  803530:	00002306 	br	8035c0 <dir_findinRootArea+0xf0>
		buf = part_getSect(fs->part,c,IOM_MODE_READONLY);
  803534:	e0bffb17 	ldw	r2,-20(fp)
  803538:	11000017 	ldw	r4,0(r2)
  80353c:	e17ffa17 	ldw	r5,-24(fp)
  803540:	01800044 	movi	r6,1
  803544:	080a5cc0 	call	80a5cc <part_getSect>
  803548:	e0bff815 	stw	r2,-32(fp)
		if((fclus=dir_findinBuf(buf,fatname,loc,mode))){
  80354c:	e1fffe03 	ldbu	r7,-8(fp)
  803550:	e13ff817 	ldw	r4,-32(fp)
  803554:	e17ffc17 	ldw	r5,-16(fp)
  803558:	e1bffd17 	ldw	r6,-12(fp)
  80355c:	08032280 	call	803228 <dir_findinBuf>
  803560:	e0bff915 	stw	r2,-28(fp)
  803564:	e0bff917 	ldw	r2,-28(fp)
  803568:	1005003a 	cmpeq	r2,r2,zero
  80356c:	10000d1e 	bne	r2,zero,8035a4 <dir_findinRootArea+0xd4>
			if(loc)loc->Sector=c;
  803570:	e0bffd17 	ldw	r2,-12(fp)
  803574:	1005003a 	cmpeq	r2,r2,zero
  803578:	1000031e 	bne	r2,zero,803588 <dir_findinRootArea+0xb8>
  80357c:	e0fffd17 	ldw	r3,-12(fp)
  803580:	e0bffa17 	ldw	r2,-24(fp)
  803584:	18800015 	stw	r2,0(r3)
			part_relSect(fs->part,buf);
  803588:	e0bffb17 	ldw	r2,-20(fp)
  80358c:	11000017 	ldw	r4,0(r2)
  803590:	e17ff817 	ldw	r5,-32(fp)
  803594:	080a62c0 	call	80a62c <part_relSect>
			return(fclus);
  803598:	e0bff917 	ldw	r2,-28(fp)
  80359c:	e0bfff15 	stw	r2,-4(fp)
  8035a0:	00001606 	br	8035fc <dir_findinRootArea+0x12c>
		}	
		part_relSect(fs->part,buf);	
  8035a4:	e0bffb17 	ldw	r2,-20(fp)
  8035a8:	11000017 	ldw	r4,0(r2)
  8035ac:	e17ff817 	ldw	r5,-32(fp)
  8035b0:	080a62c0 	call	80a62c <part_relSect>
	euint32 c,fclus;
	euint8 *buf=0;
	
	if((fs->type != FAT12) && (fs->type != FAT16))return(0);
	
	for(c=fs->FirstSectorRootDir;c<(fs->FirstSectorRootDir+fs->volumeId.RootEntryCount/32);c++){
  8035b4:	e0bffa17 	ldw	r2,-24(fp)
  8035b8:	10800044 	addi	r2,r2,1
  8035bc:	e0bffa15 	stw	r2,-24(fp)
  8035c0:	e0bffb17 	ldw	r2,-20(fp)
  8035c4:	10c00b17 	ldw	r3,44(r2)
  8035c8:	e0bffb17 	ldw	r2,-20(fp)
  8035cc:	1080030b 	ldhu	r2,12(r2)
  8035d0:	10bfffcc 	andi	r2,r2,65535
  8035d4:	1004d17a 	srli	r2,r2,5
  8035d8:	10bfffcc 	andi	r2,r2,65535
  8035dc:	1887883a 	add	r3,r3,r2
  8035e0:	e0bffa17 	ldw	r2,-24(fp)
  8035e4:	10ffd336 	bltu	r2,r3,803534 <dir_findinRootArea+0x64>
			part_relSect(fs->part,buf);
			return(fclus);
		}	
		part_relSect(fs->part,buf);	
	}
	part_relSect(fs->part,buf);
  8035e8:	e0bffb17 	ldw	r2,-20(fp)
  8035ec:	11000017 	ldw	r4,0(r2)
  8035f0:	e17ff817 	ldw	r5,-32(fp)
  8035f4:	080a62c0 	call	80a62c <part_relSect>
	return(0);
  8035f8:	e03fff15 	stw	zero,-4(fp)
  8035fc:	e0bfff17 	ldw	r2,-4(fp)
}
  803600:	e037883a 	mov	sp,fp
  803604:	dfc00117 	ldw	ra,4(sp)
  803608:	df000017 	ldw	fp,0(sp)
  80360c:	dec00204 	addi	sp,sp,8
  803610:	f800283a 	ret

00803614 <dir_getFatFileName>:
 * This function will take a full directory path, and strip off all leading
 * dirs and characters, leaving you with the MS-DOS notation of the actual filename.
 * Return value: 1 on success, 0 on not being able to produca a filename
*/
esint8 dir_getFatFileName(eint8* filename, eint8* fatfilename)
{
  803614:	defff604 	addi	sp,sp,-40
  803618:	dfc00915 	stw	ra,36(sp)
  80361c:	df000815 	stw	fp,32(sp)
  803620:	df000804 	addi	fp,sp,32
  803624:	e13ffd15 	stw	r4,-12(fp)
  803628:	e17ffe15 	stw	r5,-8(fp)
	eint8 ffnamec[11],*next,nn=0;
  80362c:	e03ff805 	stb	zero,-32(fp)
	
	memClr(ffnamec,11); memClr(fatfilename,11);
  803630:	e13ffa04 	addi	r4,fp,-24
  803634:	014002c4 	movi	r5,11
  803638:	080a8d80 	call	80a8d8 <memClr>
  80363c:	e13ffe17 	ldw	r4,-8(fp)
  803640:	014002c4 	movi	r5,11
  803644:	080a8d80 	call	80a8d8 <memClr>
	next = filename;
  803648:	e0bffd17 	ldw	r2,-12(fp)
  80364c:	e0bff915 	stw	r2,-28(fp)
	
	if(*filename=='/')next++;
  803650:	e0bffd17 	ldw	r2,-12(fp)
  803654:	10800003 	ldbu	r2,0(r2)
  803658:	10803fcc 	andi	r2,r2,255
  80365c:	1080201c 	xori	r2,r2,128
  803660:	10bfe004 	addi	r2,r2,-128
  803664:	10800bd8 	cmpnei	r2,r2,47
  803668:	10000b1e 	bne	r2,zero,803698 <dir_getFatFileName+0x84>
  80366c:	e0bff917 	ldw	r2,-28(fp)
  803670:	10800044 	addi	r2,r2,1
  803674:	e0bff915 	stw	r2,-28(fp)
	
	while((next=file_normalToFatName(next,ffnamec))){
  803678:	00000706 	br	803698 <dir_getFatFileName+0x84>
		memCpy(ffnamec,fatfilename,11);	
  80367c:	e13ffa04 	addi	r4,fp,-24
  803680:	e17ffe17 	ldw	r5,-8(fp)
  803684:	018002c4 	movi	r6,11
  803688:	080a86c0 	call	80a86c <memCpy>
		nn++;
  80368c:	e0bff803 	ldbu	r2,-32(fp)
  803690:	10800044 	addi	r2,r2,1
  803694:	e0bff805 	stb	r2,-32(fp)
	memClr(ffnamec,11); memClr(fatfilename,11);
	next = filename;
	
	if(*filename=='/')next++;
	
	while((next=file_normalToFatName(next,ffnamec))){
  803698:	e17ffa04 	addi	r5,fp,-24
  80369c:	e13ff917 	ldw	r4,-28(fp)
  8036a0:	0805f180 	call	805f18 <file_normalToFatName>
  8036a4:	e0bff915 	stw	r2,-28(fp)
  8036a8:	e0bff917 	ldw	r2,-28(fp)
  8036ac:	1004c03a 	cmpne	r2,r2,zero
  8036b0:	103ff21e 	bne	r2,zero,80367c <dir_getFatFileName+0x68>
		memCpy(ffnamec,fatfilename,11);	
		nn++;
	}
	if(nn)return(1);
  8036b4:	e0bff807 	ldb	r2,-32(fp)
  8036b8:	1005003a 	cmpeq	r2,r2,zero
  8036bc:	1000031e 	bne	r2,zero,8036cc <dir_getFatFileName+0xb8>
  8036c0:	00800044 	movi	r2,1
  8036c4:	e0bfff15 	stw	r2,-4(fp)
  8036c8:	00000106 	br	8036d0 <dir_getFatFileName+0xbc>
	return(0);
  8036cc:	e03fff15 	stw	zero,-4(fp)
  8036d0:	e0bfff17 	ldw	r2,-4(fp)
}
  8036d4:	e037883a 	mov	sp,fp
  8036d8:	dfc00117 	ldw	ra,4(sp)
  8036dc:	df000017 	ldw	fp,0(sp)
  8036e0:	dec00204 	addi	sp,sp,8
  8036e4:	f800283a 	ret

008036e8 <dir_addCluster>:
 * clusters you want pre-allocated. It will also delete the contents of that
 * cluster. (or clusters)
 * Return value: 0 on success, -1 on fail
*/
esint8 dir_addCluster(FileSystem *fs,euint32 firstCluster)
{
  8036e8:	defff304 	addi	sp,sp,-52
  8036ec:	dfc00c15 	stw	ra,48(sp)
  8036f0:	df000b15 	stw	fp,44(sp)
  8036f4:	df000b04 	addi	fp,sp,44
  8036f8:	e13ffd15 	stw	r4,-12(fp)
  8036fc:	e17ffe15 	stw	r5,-8(fp)
	euint32 lastc,logicalc;
	ClusterChain cache;
		
	fs_initClusterChain(fs,&cache,firstCluster);
  803700:	e17ff704 	addi	r5,fp,-36
  803704:	e13ffd17 	ldw	r4,-12(fp)
  803708:	e1bffe17 	ldw	r6,-8(fp)
  80370c:	08072680 	call	807268 <fs_initClusterChain>
	if(fat_allocClusterChain(fs,&cache,1)){
  803710:	e17ff704 	addi	r5,fp,-36
  803714:	e13ffd17 	ldw	r4,-12(fp)
  803718:	01800044 	movi	r6,1
  80371c:	0804c640 	call	804c64 <fat_allocClusterChain>
  803720:	10bfffcc 	andi	r2,r2,65535
  803724:	10a0001c 	xori	r2,r2,32768
  803728:	10a00004 	addi	r2,r2,-32768
  80372c:	1005003a 	cmpeq	r2,r2,zero
  803730:	1000031e 	bne	r2,zero,803740 <dir_addCluster+0x58>
		return(-1);
  803734:	00bfffc4 	movi	r2,-1
  803738:	e0bfff15 	stw	r2,-4(fp)
  80373c:	00000806 	br	803760 <dir_addCluster+0x78>
	}
	lastc = fs_getLastCluster(fs,&cache);
  803740:	e17ff704 	addi	r5,fp,-36
  803744:	e13ffd17 	ldw	r4,-12(fp)
  803748:	080713c0 	call	80713c <fs_getLastCluster>
  80374c:	e0bff615 	stw	r2,-40(fp)
		logicalc = fat_DiscToLogicCluster(fs,firstCluster,lastc);
		while(!fat_LogicToDiscCluster(fs,&cache,++logicalc)){
			fs_clearCluster(fs,cache.DiscCluster);
		}
	}else{
			fs_clearCluster(fs,lastc);
  803750:	e13ffd17 	ldw	r4,-12(fp)
  803754:	e17ff617 	ldw	r5,-40(fp)
  803758:	08073980 	call	807398 <fs_clearCluster>
	}
	return(0);
  80375c:	e03fff15 	stw	zero,-4(fp)
  803760:	e0bfff17 	ldw	r2,-4(fp)
}
  803764:	e037883a 	mov	sp,fp
  803768:	dfc00117 	ldw	ra,4(sp)
  80376c:	df000017 	ldw	fp,0(sp)
  803770:	dec00204 	addi	sp,sp,8
  803774:	f800283a 	ret

00803778 <disc_initDisc>:
 * void disc_initDisc(Disc *disc,hcInterface* source)
 * Description: This initialises the disc by loading the MBR and setting the
 * pointer to the hardware object.
*/
void disc_initDisc(Disc *disc,IOManager* ioman)
{
  803778:	defffc04 	addi	sp,sp,-16
  80377c:	dfc00315 	stw	ra,12(sp)
  803780:	df000215 	stw	fp,8(sp)
  803784:	df000204 	addi	fp,sp,8
  803788:	e13ffe15 	stw	r4,-8(fp)
  80378c:	e17fff15 	stw	r5,-4(fp)
	disc->ioman=ioman;
  803790:	e0bffe17 	ldw	r2,-8(fp)
  803794:	e0ffff17 	ldw	r3,-4(fp)
  803798:	10c00015 	stw	r3,0(r2)
	disc_setError(disc,DISC_NOERROR);
  80379c:	e0bffe17 	ldw	r2,-8(fp)
  8037a0:	10000105 	stb	zero,4(r2)
	disc_loadMBR(disc);
  8037a4:	e13ffe17 	ldw	r4,-8(fp)
  8037a8:	08037c00 	call	8037c0 <disc_loadMBR>
}
  8037ac:	e037883a 	mov	sp,fp
  8037b0:	dfc00117 	ldw	ra,4(sp)
  8037b4:	df000017 	ldw	fp,0(sp)
  8037b8:	dec00204 	addi	sp,sp,8
  8037bc:	f800283a 	ret

008037c0 <disc_loadMBR>:
/* ****************************************************************************  
 * void disc_loadMBR(Disc *disc)
 * Description: This functions copies the partitiontable to the partitions field.
*/
void disc_loadMBR(Disc *disc)
{
  8037c0:	defffb04 	addi	sp,sp,-20
  8037c4:	dfc00415 	stw	ra,16(sp)
  8037c8:	df000315 	stw	fp,12(sp)
  8037cc:	df000304 	addi	fp,sp,12
  8037d0:	e13fff15 	stw	r4,-4(fp)
	euint8 x;
	euint8 *buf;
	
	buf=ioman_getSector(disc->ioman,LBA_ADDR_MBR,IOM_MODE_READONLY|IOM_MODE_EXP_REQ);
  8037d4:	e0bfff17 	ldw	r2,-4(fp)
  8037d8:	11000017 	ldw	r4,0(r2)
  8037dc:	000b883a 	mov	r5,zero
  8037e0:	01800144 	movi	r6,5
  8037e4:	0808be40 	call	808be4 <ioman_getSector>
  8037e8:	e0bffd15 	stw	r2,-12(fp)
	for(x=0;x<4;x++){
  8037ec:	e03ffe05 	stb	zero,-8(fp)
  8037f0:	00000e06 	br	80382c <disc_loadMBR+0x6c>
		ex_getPartitionField(buf,&(disc->partitions[x]),PARTITION_TABLE_OFFSET+(x*SIZE_PARTITION_FIELD));
  8037f4:	e0bfff17 	ldw	r2,-4(fp)
  8037f8:	10c00204 	addi	r3,r2,8
  8037fc:	e0bffe03 	ldbu	r2,-8(fp)
  803800:	1004913a 	slli	r2,r2,4
  803804:	188b883a 	add	r5,r3,r2
  803808:	e0bffe03 	ldbu	r2,-8(fp)
  80380c:	1004913a 	slli	r2,r2,4
  803810:	10806f84 	addi	r2,r2,446
  803814:	100d883a 	mov	r6,r2
  803818:	e13ffd17 	ldw	r4,-12(fp)
  80381c:	0803b640 	call	803b64 <ex_getPartitionField>
{
	euint8 x;
	euint8 *buf;
	
	buf=ioman_getSector(disc->ioman,LBA_ADDR_MBR,IOM_MODE_READONLY|IOM_MODE_EXP_REQ);
	for(x=0;x<4;x++){
  803820:	e0bffe03 	ldbu	r2,-8(fp)
  803824:	10800044 	addi	r2,r2,1
  803828:	e0bffe05 	stb	r2,-8(fp)
  80382c:	e0bffe03 	ldbu	r2,-8(fp)
  803830:	10800130 	cmpltui	r2,r2,4
  803834:	103fef1e 	bne	r2,zero,8037f4 <disc_loadMBR+0x34>
		ex_getPartitionField(buf,&(disc->partitions[x]),PARTITION_TABLE_OFFSET+(x*SIZE_PARTITION_FIELD));
	}
	ioman_releaseSector(disc->ioman,buf);
  803838:	e0bfff17 	ldw	r2,-4(fp)
  80383c:	11000017 	ldw	r4,0(r2)
  803840:	e17ffd17 	ldw	r5,-12(fp)
  803844:	0808ef00 	call	808ef0 <ioman_releaseSector>
}
  803848:	e037883a 	mov	sp,fp
  80384c:	dfc00117 	ldw	ra,4(sp)
  803850:	df000017 	ldw	fp,0(sp)
  803854:	dec00204 	addi	sp,sp,8
  803858:	f800283a 	ret

0080385c <efs_init>:
 * Description: This function initialises all subelements of a filesystem.
 * It sets the pointerchain and verifies each step.
 * Return value: 0 on success and -1 on failure.
*/
esint8 efs_init(EmbeddedFileSystem * efs,eint8* opts)
{
  80385c:	defffb04 	addi	sp,sp,-20
  803860:	dfc00415 	stw	ra,16(sp)
  803864:	df000315 	stw	fp,12(sp)
  803868:	df000304 	addi	fp,sp,12
  80386c:	e13ffd15 	stw	r4,-12(fp)
  803870:	e17ffe15 	stw	r5,-8(fp)
	if(if_initInterface(&efs->myCard, opts)==0)
  803874:	e13ffd17 	ldw	r4,-12(fp)
  803878:	e17ffe17 	ldw	r5,-8(fp)
  80387c:	0809d740 	call	809d74 <if_initInterface>
  803880:	10803fcc 	andi	r2,r2,255
  803884:	1080201c 	xori	r2,r2,128
  803888:	10bfe004 	addi	r2,r2,-128
  80388c:	1004c03a 	cmpne	r2,r2,zero
  803890:	1000341e 	bne	r2,zero,803964 <efs_init+0x108>
	{
		ioman_init(&efs->myIOman,&efs->myCard,0);
  803894:	e0bffd17 	ldw	r2,-12(fp)
  803898:	11000104 	addi	r4,r2,4
  80389c:	e17ffd17 	ldw	r5,-12(fp)
  8038a0:	000d883a 	mov	r6,zero
  8038a4:	08076140 	call	807614 <ioman_init>
		disc_initDisc(&efs->myDisc, &efs->myIOman);
  8038a8:	e0bffd17 	ldw	r2,-12(fp)
  8038ac:	11022504 	addi	r4,r2,2196
  8038b0:	e0bffd17 	ldw	r2,-12(fp)
  8038b4:	11400104 	addi	r5,r2,4
  8038b8:	08037780 	call	803778 <disc_initDisc>
		part_initPartition(&efs->myPart, &efs->myDisc);
  8038bc:	e0bffd17 	ldw	r2,-12(fp)
  8038c0:	11023704 	addi	r4,r2,2268
  8038c4:	e0bffd17 	ldw	r2,-12(fp)
  8038c8:	11422504 	addi	r5,r2,2196
  8038cc:	080a3680 	call	80a368 <part_initPartition>
		if(efs->myPart.activePartition==-1){
  8038d0:	e0bffd17 	ldw	r2,-12(fp)
  8038d4:	10823803 	ldbu	r2,2272(r2)
  8038d8:	10803fcc 	andi	r2,r2,255
  8038dc:	1080201c 	xori	r2,r2,128
  8038e0:	10bfe004 	addi	r2,r2,-128
  8038e4:	10bfffd8 	cmpnei	r2,r2,-1
  8038e8:	10000f1e 	bne	r2,zero,803928 <efs_init+0xcc>
			efs->myDisc.partitions[0].type=0x0B;
  8038ec:	e0fffd17 	ldw	r3,-12(fp)
  8038f0:	008002c4 	movi	r2,11
  8038f4:	18822805 	stb	r2,2208(r3)
			efs->myDisc.partitions[0].LBA_begin=0;
  8038f8:	e0bffd17 	ldw	r2,-12(fp)
  8038fc:	10022915 	stw	zero,2212(r2)
			efs->myDisc.partitions[0].numSectors=efs->myCard.sectorCount;	
  803900:	e0bffd17 	ldw	r2,-12(fp)
  803904:	10800017 	ldw	r2,0(r2)
  803908:	1007883a 	mov	r3,r2
  80390c:	e0bffd17 	ldw	r2,-12(fp)
  803910:	10c22a15 	stw	r3,2216(r2)
			/*efs->myPart.activePartition = 0;*/
			/*efs->myPart.disc = &(efs->myDisc);*/
			part_initPartition(&efs->myPart, &efs->myDisc);
  803914:	e0bffd17 	ldw	r2,-12(fp)
  803918:	11023704 	addi	r4,r2,2268
  80391c:	e0bffd17 	ldw	r2,-12(fp)
  803920:	11422504 	addi	r5,r2,2196
  803924:	080a3680 	call	80a368 <part_initPartition>
		}
		/*part_initPartition(&efs->myPart, &efs->myDisc);*/
		if(fs_initFs(&efs->myFs, &efs->myPart))
  803928:	e0bffd17 	ldw	r2,-12(fp)
  80392c:	11023904 	addi	r4,r2,2276
  803930:	e0bffd17 	ldw	r2,-12(fp)
  803934:	11423704 	addi	r5,r2,2268
  803938:	08064980 	call	806498 <fs_initFs>
  80393c:	10bfffcc 	andi	r2,r2,65535
  803940:	10a0001c 	xori	r2,r2,32768
  803944:	10a00004 	addi	r2,r2,-32768
  803948:	1005003a 	cmpeq	r2,r2,zero
  80394c:	1000031e 	bne	r2,zero,80395c <efs_init+0x100>
			return(-2);
  803950:	00bfff84 	movi	r2,-2
  803954:	e0bfff15 	stw	r2,-4(fp)
  803958:	00000406 	br	80396c <efs_init+0x110>
		return(0);
  80395c:	e03fff15 	stw	zero,-4(fp)
  803960:	00000206 	br	80396c <efs_init+0x110>
	}
	return(-1);
  803964:	00bfffc4 	movi	r2,-1
  803968:	e0bfff15 	stw	r2,-4(fp)
  80396c:	e0bfff17 	ldw	r2,-4(fp)
}
  803970:	e037883a 	mov	sp,fp
  803974:	dfc00117 	ldw	ra,4(sp)
  803978:	df000017 	ldw	fp,0(sp)
  80397c:	dec00204 	addi	sp,sp,8
  803980:	f800283a 	ret

00803984 <ex_getb16>:
/*****************************************************************************/



euint16 ex_getb16(euint8* buf,euint32 offset)
{
  803984:	defffd04 	addi	sp,sp,-12
  803988:	df000215 	stw	fp,8(sp)
  80398c:	df000204 	addi	fp,sp,8
  803990:	e13ffe15 	stw	r4,-8(fp)
  803994:	e17fff15 	stw	r5,-4(fp)
	return(ltb_end16(((*(buf+offset+1))<<8) + ((*(buf+offset+0))<<0)));
  803998:	e0ffff17 	ldw	r3,-4(fp)
  80399c:	e0bffe17 	ldw	r2,-8(fp)
  8039a0:	1885883a 	add	r2,r3,r2
  8039a4:	10800044 	addi	r2,r2,1
  8039a8:	10800003 	ldbu	r2,0(r2)
  8039ac:	10803fcc 	andi	r2,r2,255
  8039b0:	1004923a 	slli	r2,r2,8
  8039b4:	1009883a 	mov	r4,r2
  8039b8:	e0ffff17 	ldw	r3,-4(fp)
  8039bc:	e0bffe17 	ldw	r2,-8(fp)
  8039c0:	1885883a 	add	r2,r3,r2
  8039c4:	10800003 	ldbu	r2,0(r2)
  8039c8:	10803fcc 	andi	r2,r2,255
  8039cc:	2085883a 	add	r2,r4,r2
  8039d0:	10bfffcc 	andi	r2,r2,65535
}
  8039d4:	e037883a 	mov	sp,fp
  8039d8:	df000017 	ldw	fp,0(sp)
  8039dc:	dec00104 	addi	sp,sp,4
  8039e0:	f800283a 	ret

008039e4 <ex_getb32>:
/*****************************************************************************/

euint32 ex_getb32(euint8* buf,euint32 offset)
{
  8039e4:	defffd04 	addi	sp,sp,-12
  8039e8:	df000215 	stw	fp,8(sp)
  8039ec:	df000204 	addi	fp,sp,8
  8039f0:	e13ffe15 	stw	r4,-8(fp)
  8039f4:	e17fff15 	stw	r5,-4(fp)
	return(ltb_end32(((euint32)buf[offset+3]<<24)+
  8039f8:	e0ffff17 	ldw	r3,-4(fp)
  8039fc:	e0bffe17 	ldw	r2,-8(fp)
  803a00:	1885883a 	add	r2,r3,r2
  803a04:	108000c4 	addi	r2,r2,3
  803a08:	10800003 	ldbu	r2,0(r2)
  803a0c:	10803fcc 	andi	r2,r2,255
  803a10:	1008963a 	slli	r4,r2,24
  803a14:	e0ffff17 	ldw	r3,-4(fp)
  803a18:	e0bffe17 	ldw	r2,-8(fp)
  803a1c:	1885883a 	add	r2,r3,r2
  803a20:	10800084 	addi	r2,r2,2
  803a24:	10800003 	ldbu	r2,0(r2)
  803a28:	10803fcc 	andi	r2,r2,255
  803a2c:	1004943a 	slli	r2,r2,16
  803a30:	2089883a 	add	r4,r4,r2
  803a34:	e0ffff17 	ldw	r3,-4(fp)
  803a38:	e0bffe17 	ldw	r2,-8(fp)
  803a3c:	1885883a 	add	r2,r3,r2
  803a40:	10800044 	addi	r2,r2,1
  803a44:	10800003 	ldbu	r2,0(r2)
  803a48:	10803fcc 	andi	r2,r2,255
  803a4c:	1004923a 	slli	r2,r2,8
  803a50:	2089883a 	add	r4,r4,r2
  803a54:	e0ffff17 	ldw	r3,-4(fp)
  803a58:	e0bffe17 	ldw	r2,-8(fp)
  803a5c:	1885883a 	add	r2,r3,r2
  803a60:	10800003 	ldbu	r2,0(r2)
  803a64:	10803fcc 	andi	r2,r2,255
  803a68:	2085883a 	add	r2,r4,r2
	      ((euint32)buf[offset+2]<<16)+
	      ((euint32)buf[offset+1]<<8)+
	      ((euint32)buf[offset+0]<<0)));
}
  803a6c:	e037883a 	mov	sp,fp
  803a70:	df000017 	ldw	fp,0(sp)
  803a74:	dec00104 	addi	sp,sp,4
  803a78:	f800283a 	ret

00803a7c <ex_setb16>:
/*****************************************************************************/

void ex_setb16(euint8* buf,euint32 offset,euint16 data)
{
  803a7c:	defffc04 	addi	sp,sp,-16
  803a80:	df000315 	stw	fp,12(sp)
  803a84:	df000304 	addi	fp,sp,12
  803a88:	e13ffd15 	stw	r4,-12(fp)
  803a8c:	e17ffe15 	stw	r5,-8(fp)
  803a90:	e1bfff0d 	sth	r6,-4(fp)
#ifdef BIG_ENDIAN
	*(buf+offset+1) = data>>0;
	*(buf+offset+0) = data>>8;
#else
	*(buf+offset+0) = data>>0;
  803a94:	e0fffe17 	ldw	r3,-8(fp)
  803a98:	e0bffd17 	ldw	r2,-12(fp)
  803a9c:	1887883a 	add	r3,r3,r2
  803aa0:	e0bfff0b 	ldhu	r2,-4(fp)
  803aa4:	18800005 	stb	r2,0(r3)
	*(buf+offset+1) = data>>8;
  803aa8:	e0fffe17 	ldw	r3,-8(fp)
  803aac:	e0bffd17 	ldw	r2,-12(fp)
  803ab0:	1885883a 	add	r2,r3,r2
  803ab4:	10c00044 	addi	r3,r2,1
  803ab8:	e0bfff0b 	ldhu	r2,-4(fp)
  803abc:	1004d23a 	srli	r2,r2,8
  803ac0:	18800005 	stb	r2,0(r3)
#endif
}
  803ac4:	e037883a 	mov	sp,fp
  803ac8:	df000017 	ldw	fp,0(sp)
  803acc:	dec00104 	addi	sp,sp,4
  803ad0:	f800283a 	ret

00803ad4 <ex_setb32>:
/*****************************************************************************/

void ex_setb32(euint8* buf,euint32 offset,euint32 data)
{
  803ad4:	defffc04 	addi	sp,sp,-16
  803ad8:	df000315 	stw	fp,12(sp)
  803adc:	df000304 	addi	fp,sp,12
  803ae0:	e13ffd15 	stw	r4,-12(fp)
  803ae4:	e17ffe15 	stw	r5,-8(fp)
  803ae8:	e1bfff15 	stw	r6,-4(fp)
	*(buf+offset+3) = data>> 0;
	*(buf+offset+2) = data>> 8;
	*(buf+offset+1) = data>>16;
	*(buf+offset+0) = data>>24;
#else
	*(buf+offset+0) = data>> 0;
  803aec:	e0fffe17 	ldw	r3,-8(fp)
  803af0:	e0bffd17 	ldw	r2,-12(fp)
  803af4:	1887883a 	add	r3,r3,r2
  803af8:	e0bfff17 	ldw	r2,-4(fp)
  803afc:	18800005 	stb	r2,0(r3)
	*(buf+offset+1) = data>> 8;
  803b00:	e0fffe17 	ldw	r3,-8(fp)
  803b04:	e0bffd17 	ldw	r2,-12(fp)
  803b08:	1885883a 	add	r2,r3,r2
  803b0c:	10c00044 	addi	r3,r2,1
  803b10:	e0bfff17 	ldw	r2,-4(fp)
  803b14:	1004d23a 	srli	r2,r2,8
  803b18:	18800005 	stb	r2,0(r3)
	*(buf+offset+2) = data>>16;
  803b1c:	e0fffe17 	ldw	r3,-8(fp)
  803b20:	e0bffd17 	ldw	r2,-12(fp)
  803b24:	1885883a 	add	r2,r3,r2
  803b28:	10c00084 	addi	r3,r2,2
  803b2c:	e0bfff17 	ldw	r2,-4(fp)
  803b30:	1004d43a 	srli	r2,r2,16
  803b34:	18800005 	stb	r2,0(r3)
	*(buf+offset+3) = data>>24;
  803b38:	e0fffe17 	ldw	r3,-8(fp)
  803b3c:	e0bffd17 	ldw	r2,-12(fp)
  803b40:	1885883a 	add	r2,r3,r2
  803b44:	10c000c4 	addi	r3,r2,3
  803b48:	e0bfff17 	ldw	r2,-4(fp)
  803b4c:	1004d63a 	srli	r2,r2,24
  803b50:	18800005 	stb	r2,0(r3)
#endif
}
  803b54:	e037883a 	mov	sp,fp
  803b58:	df000017 	ldw	fp,0(sp)
  803b5c:	dec00104 	addi	sp,sp,4
  803b60:	f800283a 	ret

00803b64 <ex_getPartitionField>:
/*****************************************************************************/

void ex_getPartitionField(euint8* buf,PartitionField* pf, euint32 offset)
{
  803b64:	defffb04 	addi	sp,sp,-20
  803b68:	dfc00415 	stw	ra,16(sp)
  803b6c:	df000315 	stw	fp,12(sp)
  803b70:	df000304 	addi	fp,sp,12
  803b74:	e13ffd15 	stw	r4,-12(fp)
  803b78:	e17ffe15 	stw	r5,-8(fp)
  803b7c:	e1bfff15 	stw	r6,-4(fp)
	pf->bootFlag       = *(buf + offset);
  803b80:	e0ffff17 	ldw	r3,-4(fp)
  803b84:	e0bffd17 	ldw	r2,-12(fp)
  803b88:	1885883a 	add	r2,r3,r2
  803b8c:	10c00003 	ldbu	r3,0(r2)
  803b90:	e0bffe17 	ldw	r2,-8(fp)
  803b94:	10c00005 	stb	r3,0(r2)
	pf->CHS_begin[0]   = *(buf + offset + 1);
  803b98:	e0ffff17 	ldw	r3,-4(fp)
  803b9c:	e0bffd17 	ldw	r2,-12(fp)
  803ba0:	1885883a 	add	r2,r3,r2
  803ba4:	10800044 	addi	r2,r2,1
  803ba8:	10c00003 	ldbu	r3,0(r2)
  803bac:	e0bffe17 	ldw	r2,-8(fp)
  803bb0:	10c00045 	stb	r3,1(r2)
	pf->CHS_begin[1]   = *(buf + offset + 2);
  803bb4:	e0ffff17 	ldw	r3,-4(fp)
  803bb8:	e0bffd17 	ldw	r2,-12(fp)
  803bbc:	1885883a 	add	r2,r3,r2
  803bc0:	10800084 	addi	r2,r2,2
  803bc4:	10c00003 	ldbu	r3,0(r2)
  803bc8:	e0bffe17 	ldw	r2,-8(fp)
  803bcc:	10c00085 	stb	r3,2(r2)
	pf->CHS_begin[2]   = *(buf + offset + 3);
  803bd0:	e0ffff17 	ldw	r3,-4(fp)
  803bd4:	e0bffd17 	ldw	r2,-12(fp)
  803bd8:	1885883a 	add	r2,r3,r2
  803bdc:	108000c4 	addi	r2,r2,3
  803be0:	10c00003 	ldbu	r3,0(r2)
  803be4:	e0bffe17 	ldw	r2,-8(fp)
  803be8:	10c000c5 	stb	r3,3(r2)
	pf->type           = *(buf + offset + 4);
  803bec:	e0ffff17 	ldw	r3,-4(fp)
  803bf0:	e0bffd17 	ldw	r2,-12(fp)
  803bf4:	1885883a 	add	r2,r3,r2
  803bf8:	10800104 	addi	r2,r2,4
  803bfc:	10c00003 	ldbu	r3,0(r2)
  803c00:	e0bffe17 	ldw	r2,-8(fp)
  803c04:	10c00105 	stb	r3,4(r2)
	pf->CHS_end[0]     = *(buf + offset + 5);
  803c08:	e0ffff17 	ldw	r3,-4(fp)
  803c0c:	e0bffd17 	ldw	r2,-12(fp)
  803c10:	1885883a 	add	r2,r3,r2
  803c14:	10800144 	addi	r2,r2,5
  803c18:	10c00003 	ldbu	r3,0(r2)
  803c1c:	e0bffe17 	ldw	r2,-8(fp)
  803c20:	10c00145 	stb	r3,5(r2)
	pf->CHS_end[1]     = *(buf + offset + 6);
  803c24:	e0ffff17 	ldw	r3,-4(fp)
  803c28:	e0bffd17 	ldw	r2,-12(fp)
  803c2c:	1885883a 	add	r2,r3,r2
  803c30:	10800184 	addi	r2,r2,6
  803c34:	10c00003 	ldbu	r3,0(r2)
  803c38:	e0bffe17 	ldw	r2,-8(fp)
  803c3c:	10c00185 	stb	r3,6(r2)
	pf->CHS_end[2]     = *(buf + offset + 7);
  803c40:	e0ffff17 	ldw	r3,-4(fp)
  803c44:	e0bffd17 	ldw	r2,-12(fp)
  803c48:	1885883a 	add	r2,r3,r2
  803c4c:	108001c4 	addi	r2,r2,7
  803c50:	10c00003 	ldbu	r3,0(r2)
  803c54:	e0bffe17 	ldw	r2,-8(fp)
  803c58:	10c001c5 	stb	r3,7(r2)
	pf->LBA_begin      = ex_getb32(buf + offset,8);
  803c5c:	e0ffff17 	ldw	r3,-4(fp)
  803c60:	e0bffd17 	ldw	r2,-12(fp)
  803c64:	1889883a 	add	r4,r3,r2
  803c68:	01400204 	movi	r5,8
  803c6c:	08039e40 	call	8039e4 <ex_getb32>
  803c70:	1007883a 	mov	r3,r2
  803c74:	e0bffe17 	ldw	r2,-8(fp)
  803c78:	10c00215 	stw	r3,8(r2)
	pf->numSectors     = ex_getb32(buf + offset,12);
  803c7c:	e0ffff17 	ldw	r3,-4(fp)
  803c80:	e0bffd17 	ldw	r2,-12(fp)
  803c84:	1889883a 	add	r4,r3,r2
  803c88:	01400304 	movi	r5,12
  803c8c:	08039e40 	call	8039e4 <ex_getb32>
  803c90:	1007883a 	mov	r3,r2
  803c94:	e0bffe17 	ldw	r2,-8(fp)
  803c98:	10c00315 	stw	r3,12(r2)
}
  803c9c:	e037883a 	mov	sp,fp
  803ca0:	dfc00117 	ldw	ra,4(sp)
  803ca4:	df000017 	ldw	fp,0(sp)
  803ca8:	dec00204 	addi	sp,sp,8
  803cac:	f800283a 	ret

00803cb0 <ex_setPartitionField>:
/*****************************************************************************/

void ex_setPartitionField(euint8* buf,PartitionField* pf, euint32 offset)
{
  803cb0:	defffc04 	addi	sp,sp,-16
  803cb4:	df000315 	stw	fp,12(sp)
  803cb8:	df000304 	addi	fp,sp,12
  803cbc:	e13ffd15 	stw	r4,-12(fp)
  803cc0:	e17ffe15 	stw	r5,-8(fp)
  803cc4:	e1bfff15 	stw	r6,-4(fp)

}
  803cc8:	e037883a 	mov	sp,fp
  803ccc:	df000017 	ldw	fp,0(sp)
  803cd0:	dec00104 	addi	sp,sp,4
  803cd4:	f800283a 	ret

00803cd8 <fat_getSectorAddressFatEntry>:
 * Description: Returns the sectornumber that holds the fat entry for cluster cluster_addr.
 * This works for all FAT types.
 * Return value: Sectornumber, or 0. Warning, no boundary check.
*/
euint32 fat_getSectorAddressFatEntry(FileSystem *fs,euint32 cluster_addr)
{ 
  803cd8:	defff904 	addi	sp,sp,-28
  803cdc:	df000615 	stw	fp,24(sp)
  803ce0:	df000604 	addi	fp,sp,24
  803ce4:	e13ffc15 	stw	r4,-16(fp)
  803ce8:	e17ffd15 	stw	r5,-12(fp)
	euint32 base = fs->volumeId.ReservedSectorCount,res;
  803cec:	e0bffc17 	ldw	r2,-16(fp)
  803cf0:	1080020b 	ldhu	r2,8(r2)
  803cf4:	10bfffcc 	andi	r2,r2,65535
  803cf8:	e0bffb15 	stw	r2,-20(fp)
	
	switch(fs->type){
  803cfc:	e0bffc17 	ldw	r2,-16(fp)
  803d00:	10800f03 	ldbu	r2,60(r2)
  803d04:	10803fcc 	andi	r2,r2,255
  803d08:	e0bfff15 	stw	r2,-4(fp)
  803d0c:	e0ffff17 	ldw	r3,-4(fp)
  803d10:	188000a0 	cmpeqi	r2,r3,2
  803d14:	1000181e 	bne	r2,zero,803d78 <fat_getSectorAddressFatEntry+0xa0>
  803d18:	e0ffff17 	ldw	r3,-4(fp)
  803d1c:	188000e0 	cmpeqi	r2,r3,3
  803d20:	1000231e 	bne	r2,zero,803db0 <fat_getSectorAddressFatEntry+0xd8>
  803d24:	e0ffff17 	ldw	r3,-4(fp)
  803d28:	18800060 	cmpeqi	r2,r3,1
  803d2c:	1000011e 	bne	r2,zero,803d34 <fat_getSectorAddressFatEntry+0x5c>
  803d30:	00002d06 	br	803de8 <fat_getSectorAddressFatEntry+0x110>
		case FAT12:
			res=(cluster_addr*3/1024);
  803d34:	e0fffd17 	ldw	r3,-12(fp)
  803d38:	1805883a 	mov	r2,r3
  803d3c:	1085883a 	add	r2,r2,r2
  803d40:	10c5883a 	add	r2,r2,r3
  803d44:	1004d2ba 	srli	r2,r2,10
  803d48:	e0bffa15 	stw	r2,-24(fp)
			if(res>=fs->FatSectorCount){
  803d4c:	e0bffc17 	ldw	r2,-16(fp)
  803d50:	10c00917 	ldw	r3,36(r2)
  803d54:	e0bffa17 	ldw	r2,-24(fp)
  803d58:	10c00236 	bltu	r2,r3,803d64 <fat_getSectorAddressFatEntry+0x8c>
				return(0);
  803d5c:	e03ffe15 	stw	zero,-8(fp)
  803d60:	00002206 	br	803dec <fat_getSectorAddressFatEntry+0x114>
			}else{
				return(base+res);
  803d64:	e0fffb17 	ldw	r3,-20(fp)
  803d68:	e0bffa17 	ldw	r2,-24(fp)
  803d6c:	1887883a 	add	r3,r3,r2
  803d70:	e0fffe15 	stw	r3,-8(fp)
  803d74:	00001d06 	br	803dec <fat_getSectorAddressFatEntry+0x114>
			}
			break;
		case FAT16:
			res=cluster_addr/256;
  803d78:	e0bffd17 	ldw	r2,-12(fp)
  803d7c:	1004d23a 	srli	r2,r2,8
  803d80:	e0bffa15 	stw	r2,-24(fp)
			if(res>=fs->FatSectorCount){
  803d84:	e0bffc17 	ldw	r2,-16(fp)
  803d88:	10c00917 	ldw	r3,36(r2)
  803d8c:	e0bffa17 	ldw	r2,-24(fp)
  803d90:	10c00236 	bltu	r2,r3,803d9c <fat_getSectorAddressFatEntry+0xc4>
				return(0);
  803d94:	e03ffe15 	stw	zero,-8(fp)
  803d98:	00001406 	br	803dec <fat_getSectorAddressFatEntry+0x114>
			}else{
				return(base+res);
  803d9c:	e0fffb17 	ldw	r3,-20(fp)
  803da0:	e0bffa17 	ldw	r2,-24(fp)
  803da4:	1887883a 	add	r3,r3,r2
  803da8:	e0fffe15 	stw	r3,-8(fp)
  803dac:	00000f06 	br	803dec <fat_getSectorAddressFatEntry+0x114>
			}
			break;
		case FAT32:
			res=cluster_addr/128;
  803db0:	e0bffd17 	ldw	r2,-12(fp)
  803db4:	1004d1fa 	srli	r2,r2,7
  803db8:	e0bffa15 	stw	r2,-24(fp)
			if(res>=fs->FatSectorCount){
  803dbc:	e0bffc17 	ldw	r2,-16(fp)
  803dc0:	10c00917 	ldw	r3,36(r2)
  803dc4:	e0bffa17 	ldw	r2,-24(fp)
  803dc8:	10c00236 	bltu	r2,r3,803dd4 <fat_getSectorAddressFatEntry+0xfc>
				return(0);
  803dcc:	e03ffe15 	stw	zero,-8(fp)
  803dd0:	00000606 	br	803dec <fat_getSectorAddressFatEntry+0x114>
			}else{
				return(base+res);
  803dd4:	e0fffb17 	ldw	r3,-20(fp)
  803dd8:	e0bffa17 	ldw	r2,-24(fp)
  803ddc:	1887883a 	add	r3,r3,r2
  803de0:	e0fffe15 	stw	r3,-8(fp)
  803de4:	00000106 	br	803dec <fat_getSectorAddressFatEntry+0x114>
			}
			break; 
	}
	return(0);
  803de8:	e03ffe15 	stw	zero,-8(fp)
  803dec:	e0bffe17 	ldw	r2,-8(fp)
}
  803df0:	e037883a 	mov	sp,fp
  803df4:	df000017 	ldw	fp,0(sp)
  803df8:	dec00104 	addi	sp,sp,4
  803dfc:	f800283a 	ret

00803e00 <fat_getNextClusterAddress>:
 * for cluster_addr. It then fetches and (if required) calculates it's value.
 * This value is the EoC marker -or- the number of the next cluster in the chain.
 * Return value: Clusternumber or EoC
*/
euint32 fat_getNextClusterAddress(FileSystem *fs,euint32 cluster_addr,euint16 *linear)
{
  803e00:	defff504 	addi	sp,sp,-44
  803e04:	dfc00a15 	stw	ra,40(sp)
  803e08:	df000915 	stw	fp,36(sp)
  803e0c:	df000904 	addi	fp,sp,36
  803e10:	e13ffb15 	stw	r4,-20(fp)
  803e14:	e17ffc15 	stw	r5,-16(fp)
  803e18:	e1bffd15 	stw	r6,-12(fp)
	euint8 *buf; 
	euint8 hb,lb;
	euint16 offset;
	euint32 sector;
	euint32 nextcluster=0;
  803e1c:	e03ff715 	stw	zero,-36(fp)
	
	sector=fat_getSectorAddressFatEntry(fs,cluster_addr);
  803e20:	e13ffb17 	ldw	r4,-20(fp)
  803e24:	e17ffc17 	ldw	r5,-16(fp)
  803e28:	0803cd80 	call	803cd8 <fat_getSectorAddressFatEntry>
  803e2c:	e0bff815 	stw	r2,-32(fp)
	if( (fs->FatSectorCount <= (sector-fs->volumeId.ReservedSectorCount)) || sector==0 )
  803e30:	e0bffb17 	ldw	r2,-20(fp)
  803e34:	11000917 	ldw	r4,36(r2)
  803e38:	e0bffb17 	ldw	r2,-20(fp)
  803e3c:	1080020b 	ldhu	r2,8(r2)
  803e40:	10ffffcc 	andi	r3,r2,65535
  803e44:	e0bff817 	ldw	r2,-32(fp)
  803e48:	10c5c83a 	sub	r2,r2,r3
  803e4c:	1100032e 	bgeu	r2,r4,803e5c <fat_getNextClusterAddress+0x5c>
  803e50:	e0bff817 	ldw	r2,-32(fp)
  803e54:	1004c03a 	cmpne	r2,r2,zero
  803e58:	1000021e 	bne	r2,zero,803e64 <fat_getNextClusterAddress+0x64>
	{
		return(0);
  803e5c:	e03fff15 	stw	zero,-4(fp)
  803e60:	00006b06 	br	804010 <fat_getNextClusterAddress+0x210>
	}
	
	buf=part_getSect(fs->part,sector,IOM_MODE_READONLY);
  803e64:	e0bffb17 	ldw	r2,-20(fp)
  803e68:	11000017 	ldw	r4,0(r2)
  803e6c:	e17ff817 	ldw	r5,-32(fp)
  803e70:	01800044 	movi	r6,1
  803e74:	080a5cc0 	call	80a5cc <part_getSect>
  803e78:	e0bffa15 	stw	r2,-24(fp)
		
	switch(fs->type)
  803e7c:	e0bffb17 	ldw	r2,-20(fp)
  803e80:	10800f03 	ldbu	r2,60(r2)
  803e84:	10803fcc 	andi	r2,r2,255
  803e88:	e0bffe15 	stw	r2,-8(fp)
  803e8c:	e0fffe17 	ldw	r3,-8(fp)
  803e90:	188000a0 	cmpeqi	r2,r3,2
  803e94:	1000411e 	bne	r2,zero,803f9c <fat_getNextClusterAddress+0x19c>
  803e98:	e0fffe17 	ldw	r3,-8(fp)
  803e9c:	188000e0 	cmpeqi	r2,r3,3
  803ea0:	10004a1e 	bne	r2,zero,803fcc <fat_getNextClusterAddress+0x1cc>
  803ea4:	e0fffe17 	ldw	r3,-8(fp)
  803ea8:	18800060 	cmpeqi	r2,r3,1
  803eac:	1000011e 	bne	r2,zero,803eb4 <fat_getNextClusterAddress+0xb4>
  803eb0:	00005106 	br	803ff8 <fat_getNextClusterAddress+0x1f8>
	{
		case FAT12:
			offset = ((cluster_addr%1024)*3/2)%512;
  803eb4:	e0bffc17 	ldw	r2,-16(fp)
  803eb8:	10c0ffcc 	andi	r3,r2,1023
  803ebc:	1805883a 	mov	r2,r3
  803ec0:	1085883a 	add	r2,r2,r2
  803ec4:	10c5883a 	add	r2,r2,r3
  803ec8:	1004d07a 	srli	r2,r2,1
  803ecc:	10807fcc 	andi	r2,r2,511
  803ed0:	e0bff90d 	sth	r2,-28(fp)
			hb = buf[offset];
  803ed4:	e0bff90b 	ldhu	r2,-28(fp)
  803ed8:	1007883a 	mov	r3,r2
  803edc:	e0bffa17 	ldw	r2,-24(fp)
  803ee0:	1885883a 	add	r2,r3,r2
  803ee4:	10800003 	ldbu	r2,0(r2)
  803ee8:	e0bff9c5 	stb	r2,-25(fp)
			if(offset == 511){
  803eec:	e0bff90b 	ldhu	r2,-28(fp)
  803ef0:	10807fd8 	cmpnei	r2,r2,511
  803ef4:	10000f1e 	bne	r2,zero,803f34 <fat_getNextClusterAddress+0x134>
				part_relSect(fs->part,buf);
  803ef8:	e0bffb17 	ldw	r2,-20(fp)
  803efc:	11000017 	ldw	r4,0(r2)
  803f00:	e17ffa17 	ldw	r5,-24(fp)
  803f04:	080a62c0 	call	80a62c <part_relSect>
				buf=part_getSect(fs->part,sector+1,IOM_MODE_READONLY);
  803f08:	e0bffb17 	ldw	r2,-20(fp)
  803f0c:	11000017 	ldw	r4,0(r2)
  803f10:	e0bff817 	ldw	r2,-32(fp)
  803f14:	11400044 	addi	r5,r2,1
