Archive member included because of file (symbol)

/OPT/altera/12.1/nios2eds/bin/gnu/H-i686-pc-linux-gnu/bin/../lib/gcc/nios2-elf/4.1.2/../../../../nios2-elf/lib/mno-hw-mul/libm.a(lib_a-s_sin.o)
                              obj/default/hello_ucosii.o (sin)
/OPT/altera/12.1/nios2eds/bin/gnu/H-i686-pc-linux-gnu/bin/../lib/gcc/nios2-elf/4.1.2/../../../../nios2-elf/lib/mno-hw-mul/libm.a(lib_a-e_rem_pio2.o)
                              /OPT/altera/12.1/nios2eds/bin/gnu/H-i686-pc-linux-gnu/bin/../lib/gcc/nios2-elf/4.1.2/../../../../nios2-elf/lib/mno-hw-mul/libm.a(lib_a-s_sin.o) (__ieee754_rem_pio2)
/OPT/altera/12.1/nios2eds/bin/gnu/H-i686-pc-linux-gnu/bin/../lib/gcc/nios2-elf/4.1.2/../../../../nios2-elf/lib/mno-hw-mul/libm.a(lib_a-k_cos.o)
                              /OPT/altera/12.1/nios2eds/bin/gnu/H-i686-pc-linux-gnu/bin/../lib/gcc/nios2-elf/4.1.2/../../../../nios2-elf/lib/mno-hw-mul/libm.a(lib_a-s_sin.o) (__kernel_cos)
/OPT/altera/12.1/nios2eds/bin/gnu/H-i686-pc-linux-gnu/bin/../lib/gcc/nios2-elf/4.1.2/../../../../nios2-elf/lib/mno-hw-mul/libm.a(lib_a-k_rem_pio2.o)
                              /OPT/altera/12.1/nios2eds/bin/gnu/H-i686-pc-linux-gnu/bin/../lib/gcc/nios2-elf/4.1.2/../../../../nios2-elf/lib/mno-hw-mul/libm.a(lib_a-e_rem_pio2.o) (__kernel_rem_pio2)
/OPT/altera/12.1/nios2eds/bin/gnu/H-i686-pc-linux-gnu/bin/../lib/gcc/nios2-elf/4.1.2/../../../../nios2-elf/lib/mno-hw-mul/libm.a(lib_a-k_sin.o)
                              /OPT/altera/12.1/nios2eds/bin/gnu/H-i686-pc-linux-gnu/bin/../lib/gcc/nios2-elf/4.1.2/../../../../nios2-elf/lib/mno-hw-mul/libm.a(lib_a-s_sin.o) (__kernel_sin)
/OPT/altera/12.1/nios2eds/bin/gnu/H-i686-pc-linux-gnu/bin/../lib/gcc/nios2-elf/4.1.2/../../../../nios2-elf/lib/mno-hw-mul/libm.a(lib_a-s_fabs.o)
                              /OPT/altera/12.1/nios2eds/bin/gnu/H-i686-pc-linux-gnu/bin/../lib/gcc/nios2-elf/4.1.2/../../../../nios2-elf/lib/mno-hw-mul/libm.a(lib_a-e_rem_pio2.o) (fabs)
/OPT/altera/12.1/nios2eds/bin/gnu/H-i686-pc-linux-gnu/bin/../lib/gcc/nios2-elf/4.1.2/../../../../nios2-elf/lib/mno-hw-mul/libm.a(lib_a-s_floor.o)
                              /OPT/altera/12.1/nios2eds/bin/gnu/H-i686-pc-linux-gnu/bin/../lib/gcc/nios2-elf/4.1.2/../../../../nios2-elf/lib/mno-hw-mul/libm.a(lib_a-k_rem_pio2.o) (floor)
/OPT/altera/12.1/nios2eds/bin/gnu/H-i686-pc-linux-gnu/bin/../lib/gcc/nios2-elf/4.1.2/../../../../nios2-elf/lib/mno-hw-mul/libm.a(lib_a-s_scalbn.o)
                              /OPT/altera/12.1/nios2eds/bin/gnu/H-i686-pc-linux-gnu/bin/../lib/gcc/nios2-elf/4.1.2/../../../../nios2-elf/lib/mno-hw-mul/libm.a(lib_a-k_rem_pio2.o) (scalbn)
/OPT/altera/12.1/nios2eds/bin/gnu/H-i686-pc-linux-gnu/bin/../lib/gcc/nios2-elf/4.1.2/../../../../nios2-elf/lib/mno-hw-mul/libm.a(lib_a-s_copysign.o)
                              /OPT/altera/12.1/nios2eds/bin/gnu/H-i686-pc-linux-gnu/bin/../lib/gcc/nios2-elf/4.1.2/../../../../nios2-elf/lib/mno-hw-mul/libm.a(lib_a-s_scalbn.o) (copysign)
/OPT/altera/12.1/nios2eds/bin/gnu/H-i686-pc-linux-gnu/bin/../lib/gcc/nios2-elf/4.1.2/mno-hw-mul/libgcc.a(_fixunsdfsi.o)
                              obj/default/hello_ucosii.o (__fixunsdfsi)
/OPT/altera/12.1/nios2eds/bin/gnu/H-i686-pc-linux-gnu/bin/../lib/gcc/nios2-elf/4.1.2/mno-hw-mul/libgcc.a(_addsub_df.o)
                              /OPT/altera/12.1/nios2eds/bin/gnu/H-i686-pc-linux-gnu/bin/../lib/gcc/nios2-elf/4.1.2/../../../../nios2-elf/lib/mno-hw-mul/libm.a(lib_a-s_sin.o) (__subdf3)
/OPT/altera/12.1/nios2eds/bin/gnu/H-i686-pc-linux-gnu/bin/../lib/gcc/nios2-elf/4.1.2/mno-hw-mul/libgcc.a(_mul_df.o)
                              obj/default/hello_ucosii.o (__muldf3)
/OPT/altera/12.1/nios2eds/bin/gnu/H-i686-pc-linux-gnu/bin/../lib/gcc/nios2-elf/4.1.2/mno-hw-mul/libgcc.a(_div_df.o)
                              obj/default/hello_ucosii.o (__divdf3)
/OPT/altera/12.1/nios2eds/bin/gnu/H-i686-pc-linux-gnu/bin/../lib/gcc/nios2-elf/4.1.2/mno-hw-mul/libgcc.a(_eq_df.o)
                              /OPT/altera/12.1/nios2eds/bin/gnu/H-i686-pc-linux-gnu/bin/../lib/gcc/nios2-elf/4.1.2/../../../../nios2-elf/lib/mno-hw-mul/libm.a(lib_a-e_rem_pio2.o) (__eqdf2)
/OPT/altera/12.1/nios2eds/bin/gnu/H-i686-pc-linux-gnu/bin/../lib/gcc/nios2-elf/4.1.2/mno-hw-mul/libgcc.a(_gt_df.o)
                              /OPT/altera/12.1/nios2eds/bin/gnu/H-i686-pc-linux-gnu/bin/../lib/gcc/nios2-elf/4.1.2/../../../../nios2-elf/lib/mno-hw-mul/libm.a(lib_a-s_floor.o) (__gtdf2)
/OPT/altera/12.1/nios2eds/bin/gnu/H-i686-pc-linux-gnu/bin/../lib/gcc/nios2-elf/4.1.2/mno-hw-mul/libgcc.a(_ge_df.o)
                              /OPT/altera/12.1/nios2eds/bin/gnu/H-i686-pc-linux-gnu/bin/../lib/gcc/nios2-elf/4.1.2/../../../../nios2-elf/lib/mno-hw-mul/libm.a(lib_a-k_rem_pio2.o) (__gedf2)
/OPT/altera/12.1/nios2eds/bin/gnu/H-i686-pc-linux-gnu/bin/../lib/gcc/nios2-elf/4.1.2/mno-hw-mul/libgcc.a(_si_to_df.o)
                              obj/default/hello_ucosii.o (__floatsidf)
/OPT/altera/12.1/nios2eds/bin/gnu/H-i686-pc-linux-gnu/bin/../lib/gcc/nios2-elf/4.1.2/mno-hw-mul/libgcc.a(_df_to_si.o)
                              /OPT/altera/12.1/nios2eds/bin/gnu/H-i686-pc-linux-gnu/bin/../lib/gcc/nios2-elf/4.1.2/../../../../nios2-elf/lib/mno-hw-mul/libm.a(lib_a-e_rem_pio2.o) (__fixdfsi)
/OPT/altera/12.1/nios2eds/bin/gnu/H-i686-pc-linux-gnu/bin/../lib/gcc/nios2-elf/4.1.2/mno-hw-mul/libgcc.a(_thenan_df.o)
                              /OPT/altera/12.1/nios2eds/bin/gnu/H-i686-pc-linux-gnu/bin/../lib/gcc/nios2-elf/4.1.2/mno-hw-mul/libgcc.a(_addsub_df.o) (__thenan_df)
/OPT/altera/12.1/nios2eds/bin/gnu/H-i686-pc-linux-gnu/bin/../lib/gcc/nios2-elf/4.1.2/mno-hw-mul/libgcc.a(lib2-divmod.o)
                              /OPT/altera/12.1/nios2eds/bin/gnu/H-i686-pc-linux-gnu/bin/../lib/gcc/nios2-elf/4.1.2/../../../../nios2-elf/lib/mno-hw-mul/libm.a(lib_a-k_rem_pio2.o) (__divsi3)
/OPT/altera/12.1/nios2eds/bin/gnu/H-i686-pc-linux-gnu/bin/../lib/gcc/nios2-elf/4.1.2/mno-hw-mul/libgcc.a(lib2-mul.o)
                              /OPT/altera/12.1/nios2eds/bin/gnu/H-i686-pc-linux-gnu/bin/../lib/gcc/nios2-elf/4.1.2/../../../../nios2-elf/lib/mno-hw-mul/libm.a(lib_a-k_rem_pio2.o) (__mulsi3)
/OPT/altera/12.1/nios2eds/bin/gnu/H-i686-pc-linux-gnu/bin/../lib/gcc/nios2-elf/4.1.2/mno-hw-mul/libgcc.a(_muldi3.o)
                              /OPT/altera/12.1/nios2eds/bin/gnu/H-i686-pc-linux-gnu/bin/../lib/gcc/nios2-elf/4.1.2/mno-hw-mul/libgcc.a(_mul_df.o) (__muldi3)
/OPT/altera/12.1/nios2eds/bin/gnu/H-i686-pc-linux-gnu/bin/../lib/gcc/nios2-elf/4.1.2/mno-hw-mul/libgcc.a(_clzsi2.o)
                              /OPT/altera/12.1/nios2eds/bin/gnu/H-i686-pc-linux-gnu/bin/../lib/gcc/nios2-elf/4.1.2/mno-hw-mul/libgcc.a(_si_to_df.o) (__clzsi2)
/OPT/altera/12.1/nios2eds/bin/gnu/H-i686-pc-linux-gnu/bin/../lib/gcc/nios2-elf/4.1.2/mno-hw-mul/libgcc.a(_pack_df.o)
                              /OPT/altera/12.1/nios2eds/bin/gnu/H-i686-pc-linux-gnu/bin/../lib/gcc/nios2-elf/4.1.2/mno-hw-mul/libgcc.a(_addsub_df.o) (__pack_d)
/OPT/altera/12.1/nios2eds/bin/gnu/H-i686-pc-linux-gnu/bin/../lib/gcc/nios2-elf/4.1.2/mno-hw-mul/libgcc.a(_unpack_df.o)
                              /OPT/altera/12.1/nios2eds/bin/gnu/H-i686-pc-linux-gnu/bin/../lib/gcc/nios2-elf/4.1.2/mno-hw-mul/libgcc.a(_addsub_df.o) (__unpack_d)
/OPT/altera/12.1/nios2eds/bin/gnu/H-i686-pc-linux-gnu/bin/../lib/gcc/nios2-elf/4.1.2/mno-hw-mul/libgcc.a(_fpcmp_parts_df.o)
                              /OPT/altera/12.1/nios2eds/bin/gnu/H-i686-pc-linux-gnu/bin/../lib/gcc/nios2-elf/4.1.2/mno-hw-mul/libgcc.a(_eq_df.o) (__fpcmp_parts_d)
/OPT/altera/12.1/nios2eds/bin/gnu/H-i686-pc-linux-gnu/bin/../lib/gcc/nios2-elf/4.1.2/mno-hw-mul/libgcc.a(_clz.o)
                              /OPT/altera/12.1/nios2eds/bin/gnu/H-i686-pc-linux-gnu/bin/../lib/gcc/nios2-elf/4.1.2/mno-hw-mul/libgcc.a(_clzsi2.o) (__clz_tab)
/OPT/altera/12.1/nios2eds/bin/gnu/H-i686-pc-linux-gnu/bin/../lib/gcc/nios2-elf/4.1.2/../../../../nios2-elf/lib/mno-hw-mul/libc.a(lib_a-puts.o)
                              obj/default/hello_ucosii.o (puts)
/OPT/altera/12.1/nios2eds/bin/gnu/H-i686-pc-linux-gnu/bin/../lib/gcc/nios2-elf/4.1.2/../../../../nios2-elf/lib/mno-hw-mul/libc.a(lib_a-strlen.o)
                              /OPT/altera/12.1/nios2eds/bin/gnu/H-i686-pc-linux-gnu/bin/../lib/gcc/nios2-elf/4.1.2/../../../../nios2-elf/lib/mno-hw-mul/libc.a(lib_a-puts.o) (strlen)
/OPT/altera/12.1/nios2eds/bin/gnu/H-i686-pc-linux-gnu/bin/../lib/gcc/nios2-elf/4.1.2/../../../../nios2-elf/lib/mno-hw-mul/libc.a(lib_a-fvwrite.o)
                              /OPT/altera/12.1/nios2eds/bin/gnu/H-i686-pc-linux-gnu/bin/../lib/gcc/nios2-elf/4.1.2/../../../../nios2-elf/lib/mno-hw-mul/libc.a(lib_a-puts.o) (__sfvwrite_r)
/OPT/altera/12.1/nios2eds/bin/gnu/H-i686-pc-linux-gnu/bin/../lib/gcc/nios2-elf/4.1.2/../../../../nios2-elf/lib/mno-hw-mul/libc.a(lib_a-impure.o)
                              /OPT/altera/12.1/nios2eds/bin/gnu/H-i686-pc-linux-gnu/bin/../lib/gcc/nios2-elf/4.1.2/../../../../nios2-elf/lib/mno-hw-mul/libc.a(lib_a-puts.o) (_impure_ptr)
/OPT/altera/12.1/nios2eds/bin/gnu/H-i686-pc-linux-gnu/bin/../lib/gcc/nios2-elf/4.1.2/../../../../nios2-elf/lib/mno-hw-mul/libc.a(lib_a-mallocr.o)
                              /OPT/altera/12.1/nios2eds/bin/gnu/H-i686-pc-linux-gnu/bin/../lib/gcc/nios2-elf/4.1.2/../../../../nios2-elf/lib/mno-hw-mul/libc.a(lib_a-fvwrite.o) (_malloc_r)
/OPT/altera/12.1/nios2eds/bin/gnu/H-i686-pc-linux-gnu/bin/../lib/gcc/nios2-elf/4.1.2/../../../../nios2-elf/lib/mno-hw-mul/libc.a(lib_a-memchr.o)
                              /OPT/altera/12.1/nios2eds/bin/gnu/H-i686-pc-linux-gnu/bin/../lib/gcc/nios2-elf/4.1.2/../../../../nios2-elf/lib/mno-hw-mul/libc.a(lib_a-fvwrite.o) (memchr)
/OPT/altera/12.1/nios2eds/bin/gnu/H-i686-pc-linux-gnu/bin/../lib/gcc/nios2-elf/4.1.2/../../../../nios2-elf/lib/mno-hw-mul/libc.a(lib_a-memcpy.o)
                              /OPT/altera/12.1/nios2eds/bin/gnu/H-i686-pc-linux-gnu/bin/../lib/gcc/nios2-elf/4.1.2/../../../../nios2-elf/lib/mno-hw-mul/libc.a(lib_a-fvwrite.o) (memcpy)
/OPT/altera/12.1/nios2eds/bin/gnu/H-i686-pc-linux-gnu/bin/../lib/gcc/nios2-elf/4.1.2/../../../../nios2-elf/lib/mno-hw-mul/libc.a(lib_a-memmove.o)
                              /OPT/altera/12.1/nios2eds/bin/gnu/H-i686-pc-linux-gnu/bin/../lib/gcc/nios2-elf/4.1.2/../../../../nios2-elf/lib/mno-hw-mul/libc.a(lib_a-fvwrite.o) (memmove)
/OPT/altera/12.1/nios2eds/bin/gnu/H-i686-pc-linux-gnu/bin/../lib/gcc/nios2-elf/4.1.2/../../../../nios2-elf/lib/mno-hw-mul/libc.a(lib_a-reallocr.o)
                              /OPT/altera/12.1/nios2eds/bin/gnu/H-i686-pc-linux-gnu/bin/../lib/gcc/nios2-elf/4.1.2/../../../../nios2-elf/lib/mno-hw-mul/libc.a(lib_a-fvwrite.o) (_realloc_r)
/OPT/altera/12.1/nios2eds/bin/gnu/H-i686-pc-linux-gnu/bin/../lib/gcc/nios2-elf/4.1.2/../../../../nios2-elf/lib/mno-hw-mul/libc.a(lib_a-sbrkr.o)
                              /OPT/altera/12.1/nios2eds/bin/gnu/H-i686-pc-linux-gnu/bin/../lib/gcc/nios2-elf/4.1.2/../../../../nios2-elf/lib/mno-hw-mul/libc.a(lib_a-mallocr.o) (_sbrk_r)
/OPT/altera/12.1/nios2eds/bin/gnu/H-i686-pc-linux-gnu/bin/../lib/gcc/nios2-elf/4.1.2/../../../../nios2-elf/lib/mno-hw-mul/libc.a(lib_a-wsetup.o)
                              /OPT/altera/12.1/nios2eds/bin/gnu/H-i686-pc-linux-gnu/bin/../lib/gcc/nios2-elf/4.1.2/../../../../nios2-elf/lib/mno-hw-mul/libc.a(lib_a-fvwrite.o) (__swsetup_r)
/OPT/altera/12.1/nios2eds/bin/gnu/H-i686-pc-linux-gnu/bin/../lib/gcc/nios2-elf/4.1.2/../../../../nios2-elf/lib/mno-hw-mul/libc.a(lib_a-fflush.o)
                              /OPT/altera/12.1/nios2eds/bin/gnu/H-i686-pc-linux-gnu/bin/../lib/gcc/nios2-elf/4.1.2/../../../../nios2-elf/lib/mno-hw-mul/libc.a(lib_a-fvwrite.o) (_fflush_r)
/OPT/altera/12.1/nios2eds/bin/gnu/H-i686-pc-linux-gnu/bin/../lib/gcc/nios2-elf/4.1.2/../../../../nios2-elf/lib/mno-hw-mul/libc.a(lib_a-findfp.o)
                              /OPT/altera/12.1/nios2eds/bin/gnu/H-i686-pc-linux-gnu/bin/../lib/gcc/nios2-elf/4.1.2/../../../../nios2-elf/lib/mno-hw-mul/libc.a(lib_a-wsetup.o) (__sinit)
/OPT/altera/12.1/nios2eds/bin/gnu/H-i686-pc-linux-gnu/bin/../lib/gcc/nios2-elf/4.1.2/../../../../nios2-elf/lib/mno-hw-mul/libc.a(lib_a-freer.o)
                              /OPT/altera/12.1/nios2eds/bin/gnu/H-i686-pc-linux-gnu/bin/../lib/gcc/nios2-elf/4.1.2/../../../../nios2-elf/lib/mno-hw-mul/libc.a(lib_a-fvwrite.o) (_free_r)
/OPT/altera/12.1/nios2eds/bin/gnu/H-i686-pc-linux-gnu/bin/../lib/gcc/nios2-elf/4.1.2/../../../../nios2-elf/lib/mno-hw-mul/libc.a(lib_a-fwalk.o)
                              /OPT/altera/12.1/nios2eds/bin/gnu/H-i686-pc-linux-gnu/bin/../lib/gcc/nios2-elf/4.1.2/../../../../nios2-elf/lib/mno-hw-mul/libc.a(lib_a-fflush.o) (_fwalk_reent)
/OPT/altera/12.1/nios2eds/bin/gnu/H-i686-pc-linux-gnu/bin/../lib/gcc/nios2-elf/4.1.2/../../../../nios2-elf/lib/mno-hw-mul/libc.a(lib_a-int_errno.o)
                              /OPT/altera/12.1/nios2eds/bin/gnu/H-i686-pc-linux-gnu/bin/../lib/gcc/nios2-elf/4.1.2/../../../../nios2-elf/lib/mno-hw-mul/libc.a(lib_a-sbrkr.o) (errno)
/OPT/altera/12.1/nios2eds/bin/gnu/H-i686-pc-linux-gnu/bin/../lib/gcc/nios2-elf/4.1.2/../../../../nios2-elf/lib/mno-hw-mul/libc.a(lib_a-makebuf.o)
                              /OPT/altera/12.1/nios2eds/bin/gnu/H-i686-pc-linux-gnu/bin/../lib/gcc/nios2-elf/4.1.2/../../../../nios2-elf/lib/mno-hw-mul/libc.a(lib_a-wsetup.o) (__smakebuf_r)
/OPT/altera/12.1/nios2eds/bin/gnu/H-i686-pc-linux-gnu/bin/../lib/gcc/nios2-elf/4.1.2/../../../../nios2-elf/lib/mno-hw-mul/libc.a(lib_a-memset.o)
                              /OPT/altera/12.1/nios2eds/bin/gnu/H-i686-pc-linux-gnu/bin/../lib/gcc/nios2-elf/4.1.2/../../../../nios2-elf/lib/mno-hw-mul/libc.a(lib_a-findfp.o) (memset)
/OPT/altera/12.1/nios2eds/bin/gnu/H-i686-pc-linux-gnu/bin/../lib/gcc/nios2-elf/4.1.2/../../../../nios2-elf/lib/mno-hw-mul/libc.a(lib_a-stdio.o)
                              /OPT/altera/12.1/nios2eds/bin/gnu/H-i686-pc-linux-gnu/bin/../lib/gcc/nios2-elf/4.1.2/../../../../nios2-elf/lib/mno-hw-mul/libc.a(lib_a-findfp.o) (__sclose)
/OPT/altera/12.1/nios2eds/bin/gnu/H-i686-pc-linux-gnu/bin/../lib/gcc/nios2-elf/4.1.2/../../../../nios2-elf/lib/mno-hw-mul/libc.a(lib_a-writer.o)
                              /OPT/altera/12.1/nios2eds/bin/gnu/H-i686-pc-linux-gnu/bin/../lib/gcc/nios2-elf/4.1.2/../../../../nios2-elf/lib/mno-hw-mul/libc.a(lib_a-stdio.o) (_write_r)
/OPT/altera/12.1/nios2eds/bin/gnu/H-i686-pc-linux-gnu/bin/../lib/gcc/nios2-elf/4.1.2/../../../../nios2-elf/lib/mno-hw-mul/libc.a(lib_a-closer.o)
                              /OPT/altera/12.1/nios2eds/bin/gnu/H-i686-pc-linux-gnu/bin/../lib/gcc/nios2-elf/4.1.2/../../../../nios2-elf/lib/mno-hw-mul/libc.a(lib_a-stdio.o) (_close_r)
/OPT/altera/12.1/nios2eds/bin/gnu/H-i686-pc-linux-gnu/bin/../lib/gcc/nios2-elf/4.1.2/../../../../nios2-elf/lib/mno-hw-mul/libc.a(lib_a-fclose.o)
                              /OPT/altera/12.1/nios2eds/bin/gnu/H-i686-pc-linux-gnu/bin/../lib/gcc/nios2-elf/4.1.2/../../../../nios2-elf/lib/mno-hw-mul/libc.a(lib_a-findfp.o) (fclose)
/OPT/altera/12.1/nios2eds/bin/gnu/H-i686-pc-linux-gnu/bin/../lib/gcc/nios2-elf/4.1.2/../../../../nios2-elf/lib/mno-hw-mul/libc.a(lib_a-fstatr.o)
                              /OPT/altera/12.1/nios2eds/bin/gnu/H-i686-pc-linux-gnu/bin/../lib/gcc/nios2-elf/4.1.2/../../../../nios2-elf/lib/mno-hw-mul/libc.a(lib_a-makebuf.o) (_fstat_r)
/OPT/altera/12.1/nios2eds/bin/gnu/H-i686-pc-linux-gnu/bin/../lib/gcc/nios2-elf/4.1.2/../../../../nios2-elf/lib/mno-hw-mul/libc.a(lib_a-isattyr.o)
                              /OPT/altera/12.1/nios2eds/bin/gnu/H-i686-pc-linux-gnu/bin/../lib/gcc/nios2-elf/4.1.2/../../../../nios2-elf/lib/mno-hw-mul/libc.a(lib_a-makebuf.o) (_isatty_r)
/OPT/altera/12.1/nios2eds/bin/gnu/H-i686-pc-linux-gnu/bin/../lib/gcc/nios2-elf/4.1.2/../../../../nios2-elf/lib/mno-hw-mul/libc.a(lib_a-lseekr.o)
                              /OPT/altera/12.1/nios2eds/bin/gnu/H-i686-pc-linux-gnu/bin/../lib/gcc/nios2-elf/4.1.2/../../../../nios2-elf/lib/mno-hw-mul/libc.a(lib_a-stdio.o) (_lseek_r)
/OPT/altera/12.1/nios2eds/bin/gnu/H-i686-pc-linux-gnu/bin/../lib/gcc/nios2-elf/4.1.2/../../../../nios2-elf/lib/mno-hw-mul/libc.a(lib_a-readr.o)
                              /OPT/altera/12.1/nios2eds/bin/gnu/H-i686-pc-linux-gnu/bin/../lib/gcc/nios2-elf/4.1.2/../../../../nios2-elf/lib/mno-hw-mul/libc.a(lib_a-stdio.o) (_read_r)
../attempt2_bsp//libucosii_bsp.a(alt_close.o)
                              /OPT/altera/12.1/nios2eds/bin/gnu/H-i686-pc-linux-gnu/bin/../lib/gcc/nios2-elf/4.1.2/../../../../nios2-elf/lib/mno-hw-mul/libc.a(lib_a-closer.o) (close)
../attempt2_bsp//libucosii_bsp.a(alt_dev.o)
                              ../attempt2_bsp//libucosii_bsp.a(alt_close.o) (alt_fd_list)
../attempt2_bsp//libucosii_bsp.a(alt_errno.o)
                              ../attempt2_bsp//libucosii_bsp.a(alt_close.o) (alt_errno)
../attempt2_bsp//libucosii_bsp.a(alt_fstat.o)
                              /OPT/altera/12.1/nios2eds/bin/gnu/H-i686-pc-linux-gnu/bin/../lib/gcc/nios2-elf/4.1.2/../../../../nios2-elf/lib/mno-hw-mul/libc.a(lib_a-fstatr.o) (fstat)
../attempt2_bsp//libucosii_bsp.a(alt_isatty.o)
                              /OPT/altera/12.1/nios2eds/bin/gnu/H-i686-pc-linux-gnu/bin/../lib/gcc/nios2-elf/4.1.2/../../../../nios2-elf/lib/mno-hw-mul/libc.a(lib_a-isattyr.o) (isatty)
../attempt2_bsp//libucosii_bsp.a(alt_load.o)
                              ../attempt2_bsp//obj/HAL/src/crt0.o (alt_load)
../attempt2_bsp//libucosii_bsp.a(alt_lseek.o)
                              /OPT/altera/12.1/nios2eds/bin/gnu/H-i686-pc-linux-gnu/bin/../lib/gcc/nios2-elf/4.1.2/../../../../nios2-elf/lib/mno-hw-mul/libc.a(lib_a-lseekr.o) (lseek)
../attempt2_bsp//libucosii_bsp.a(alt_main.o)
                              ../attempt2_bsp//obj/HAL/src/crt0.o (alt_main)
../attempt2_bsp//libucosii_bsp.a(alt_read.o)
                              /OPT/altera/12.1/nios2eds/bin/gnu/H-i686-pc-linux-gnu/bin/../lib/gcc/nios2-elf/4.1.2/../../../../nios2-elf/lib/mno-hw-mul/libc.a(lib_a-readr.o) (read)
../attempt2_bsp//libucosii_bsp.a(alt_release_fd.o)
                              ../attempt2_bsp//libucosii_bsp.a(alt_close.o) (alt_release_fd)
../attempt2_bsp//libucosii_bsp.a(alt_sbrk.o)
                              /OPT/altera/12.1/nios2eds/bin/gnu/H-i686-pc-linux-gnu/bin/../lib/gcc/nios2-elf/4.1.2/../../../../nios2-elf/lib/mno-hw-mul/libc.a(lib_a-sbrkr.o) (sbrk)
../attempt2_bsp//libucosii_bsp.a(alt_write.o)
                              /OPT/altera/12.1/nios2eds/bin/gnu/H-i686-pc-linux-gnu/bin/../lib/gcc/nios2-elf/4.1.2/../../../../nios2-elf/lib/mno-hw-mul/libc.a(lib_a-writer.o) (write)
../attempt2_bsp//libucosii_bsp.a(alt_env_lock.o)
                              ../attempt2_bsp//libucosii_bsp.a(alt_main.o) (alt_envsem)
../attempt2_bsp//libucosii_bsp.a(alt_malloc_lock.o)
                              /OPT/altera/12.1/nios2eds/bin/gnu/H-i686-pc-linux-gnu/bin/../lib/gcc/nios2-elf/4.1.2/../../../../nios2-elf/lib/mno-hw-mul/libc.a(lib_a-mallocr.o) (__malloc_lock)
../attempt2_bsp//libucosii_bsp.a(os_core.o)
                              ../attempt2_bsp//libucosii_bsp.a(alt_main.o) (OSInit)
../attempt2_bsp//libucosii_bsp.a(os_dbg.o)
                              ../attempt2_bsp//libucosii_bsp.a(os_core.o) (OSDebugInit)
../attempt2_bsp//libucosii_bsp.a(os_flag.o)
                              ../attempt2_bsp//libucosii_bsp.a(os_core.o) (OS_FlagInit)
../attempt2_bsp//libucosii_bsp.a(os_mem.o)
                              ../attempt2_bsp//libucosii_bsp.a(os_core.o) (OS_MemInit)
../attempt2_bsp//libucosii_bsp.a(os_q.o)
                              ../attempt2_bsp//libucosii_bsp.a(os_core.o) (OS_QInit)
../attempt2_bsp//libucosii_bsp.a(os_sem.o)
                              obj/default/hello_ucosii.o (OSSemCreate)
../attempt2_bsp//libucosii_bsp.a(os_task.o)
                              obj/default/hello_ucosii.o (OSTaskCreateExt)
../attempt2_bsp//libucosii_bsp.a(os_time.o)
                              ../attempt2_bsp//libucosii_bsp.a(os_core.o) (OSTimeDly)
../attempt2_bsp//libucosii_bsp.a(alt_sys_init.o)
                              ../attempt2_bsp//libucosii_bsp.a(alt_main.o) (alt_irq_init)
../attempt2_bsp//libucosii_bsp.a(altera_avalon_jtag_uart_fd.o)
                              ../attempt2_bsp//libucosii_bsp.a(alt_sys_init.o) (altera_avalon_jtag_uart_read_fd)
../attempt2_bsp//libucosii_bsp.a(altera_avalon_jtag_uart_init.o)
                              ../attempt2_bsp//libucosii_bsp.a(alt_sys_init.o) (altera_avalon_jtag_uart_init)
../attempt2_bsp//libucosii_bsp.a(altera_avalon_jtag_uart_ioctl.o)
                              ../attempt2_bsp//libucosii_bsp.a(altera_avalon_jtag_uart_fd.o) (altera_avalon_jtag_uart_ioctl)
../attempt2_bsp//libucosii_bsp.a(altera_avalon_jtag_uart_read.o)
                              ../attempt2_bsp//libucosii_bsp.a(altera_avalon_jtag_uart_fd.o) (altera_avalon_jtag_uart_read)
../attempt2_bsp//libucosii_bsp.a(altera_avalon_jtag_uart_write.o)
                              ../attempt2_bsp//libucosii_bsp.a(altera_avalon_jtag_uart_fd.o) (altera_avalon_jtag_uart_write)
../attempt2_bsp//libucosii_bsp.a(altera_avalon_timer_sc.o)
                              ../attempt2_bsp//libucosii_bsp.a(alt_sys_init.o) (alt_avalon_timer_sc_init)
../attempt2_bsp//libucosii_bsp.a(altera_up_avalon_audio.o)
                              obj/default/hello_ucosii.o (alt_up_audio_open_dev)
../attempt2_bsp//libucosii_bsp.a(altera_up_avalon_audio_and_video_config.o)
                              obj/default/hello_ucosii.o (alt_up_av_config_open_dev)
../attempt2_bsp//libucosii_bsp.a(altera_up_avalon_character_lcd.o)
                              ../attempt2_bsp//libucosii_bsp.a(alt_sys_init.o) (alt_up_character_lcd_init)
../attempt2_bsp//libucosii_bsp.a(alt_alarm_start.o)
                              ../attempt2_bsp//libucosii_bsp.a(altera_avalon_jtag_uart_init.o) (alt_alarm_start)
../attempt2_bsp//libucosii_bsp.a(alt_dcache_flush_all.o)
                              ../attempt2_bsp//libucosii_bsp.a(alt_load.o) (alt_dcache_flush_all)
../attempt2_bsp//libucosii_bsp.a(alt_dev_llist_insert.o)
                              ../attempt2_bsp//libucosii_bsp.a(alt_sys_init.o) (alt_dev_llist_insert)
../attempt2_bsp//libucosii_bsp.a(alt_do_ctors.o)
                              ../attempt2_bsp//libucosii_bsp.a(alt_main.o) (_do_ctors)
../attempt2_bsp//libucosii_bsp.a(alt_do_dtors.o)
                              ../attempt2_bsp//libucosii_bsp.a(alt_main.o) (_do_dtors)
../attempt2_bsp//libucosii_bsp.a(alt_find_dev.o)
                              ../attempt2_bsp//libucosii_bsp.a(altera_up_avalon_audio.o) (alt_find_dev)
../attempt2_bsp//libucosii_bsp.a(alt_icache_flush_all.o)
                              ../attempt2_bsp//libucosii_bsp.a(alt_load.o) (alt_icache_flush_all)
../attempt2_bsp//libucosii_bsp.a(alt_io_redirect.o)
                              ../attempt2_bsp//libucosii_bsp.a(alt_main.o) (alt_io_redirect)
../attempt2_bsp//libucosii_bsp.a(alt_irq_register.o)
                              ../attempt2_bsp//libucosii_bsp.a(altera_avalon_jtag_uart_init.o) (alt_irq_register)
../attempt2_bsp//libucosii_bsp.a(alt_irq_vars.o)
                              ../attempt2_bsp//libucosii_bsp.a(alt_irq_register.o) (alt_irq_active)
../attempt2_bsp//libucosii_bsp.a(alt_open.o)
                              ../attempt2_bsp//libucosii_bsp.a(alt_io_redirect.o) (open)
../attempt2_bsp//libucosii_bsp.a(alt_tick.o)
                              ../attempt2_bsp//libucosii_bsp.a(altera_avalon_jtag_uart_init.o) (_alt_tick_rate)
../attempt2_bsp//libucosii_bsp.a(altera_nios2_qsys_irq.o)
                              ../attempt2_bsp//libucosii_bsp.a(alt_sys_init.o) (altera_nios2_qsys_irq_init)
../attempt2_bsp//libucosii_bsp.a(os_cpu_a.o)
                              ../attempt2_bsp//libucosii_bsp.a(os_core.o) (OSIntCtxSw)
../attempt2_bsp//libucosii_bsp.a(os_cpu_c.o)
                              ../attempt2_bsp//libucosii_bsp.a(os_task.o) (OSTaskStkInit)
../attempt2_bsp//libucosii_bsp.a(alt_find_file.o)
                              ../attempt2_bsp//libucosii_bsp.a(alt_open.o) (alt_find_file)
../attempt2_bsp//libucosii_bsp.a(alt_get_fd.o)
                              ../attempt2_bsp//libucosii_bsp.a(alt_open.o) (alt_get_fd)
../attempt2_bsp//libucosii_bsp.a(alt_irq_entry.o)
                              ../attempt2_bsp//libucosii_bsp.a(alt_irq_register.o) (alt_irq_entry)
../attempt2_bsp//libucosii_bsp.a(alt_irq_handler.o)
                              ../attempt2_bsp//libucosii_bsp.a(alt_irq_register.o) (alt_irq_handler)
../attempt2_bsp//libucosii_bsp.a(alt_exception_entry.o)
                              ../attempt2_bsp//libucosii_bsp.a(alt_irq_entry.o) (alt_exception)
/OPT/altera/12.1/nios2eds/bin/gnu/H-i686-pc-linux-gnu/bin/../lib/gcc/nios2-elf/4.1.2/../../../../nios2-elf/lib/mno-hw-mul/libc.a(lib_a-atexit.o)
                              ../attempt2_bsp//libucosii_bsp.a(alt_main.o) (atexit)
/OPT/altera/12.1/nios2eds/bin/gnu/H-i686-pc-linux-gnu/bin/../lib/gcc/nios2-elf/4.1.2/../../../../nios2-elf/lib/mno-hw-mul/libc.a(lib_a-exit.o)
                              ../attempt2_bsp//libucosii_bsp.a(alt_main.o) (exit)
/OPT/altera/12.1/nios2eds/bin/gnu/H-i686-pc-linux-gnu/bin/../lib/gcc/nios2-elf/4.1.2/../../../../nios2-elf/lib/mno-hw-mul/libc.a(lib_a-memcmp.o)
                              ../attempt2_bsp//libucosii_bsp.a(alt_find_dev.o) (memcmp)
/OPT/altera/12.1/nios2eds/bin/gnu/H-i686-pc-linux-gnu/bin/../lib/gcc/nios2-elf/4.1.2/../../../../nios2-elf/lib/mno-hw-mul/libc.a(lib_a-__atexit.o)
                              /OPT/altera/12.1/nios2eds/bin/gnu/H-i686-pc-linux-gnu/bin/../lib/gcc/nios2-elf/4.1.2/../../../../nios2-elf/lib/mno-hw-mul/libc.a(lib_a-atexit.o) (__register_exitproc)
/OPT/altera/12.1/nios2eds/bin/gnu/H-i686-pc-linux-gnu/bin/../lib/gcc/nios2-elf/4.1.2/../../../../nios2-elf/lib/mno-hw-mul/libc.a(lib_a-__call_atexit.o)
                              /OPT/altera/12.1/nios2eds/bin/gnu/H-i686-pc-linux-gnu/bin/../lib/gcc/nios2-elf/4.1.2/../../../../nios2-elf/lib/mno-hw-mul/libc.a(lib_a-exit.o) (__call_exitprocs)
../attempt2_bsp//libucosii_bsp.a(alt_exit.o)
                              /OPT/altera/12.1/nios2eds/bin/gnu/H-i686-pc-linux-gnu/bin/../lib/gcc/nios2-elf/4.1.2/../../../../nios2-elf/lib/mno-hw-mul/libc.a(lib_a-exit.o) (_exit)

Allocating common symbols
Common symbol       size              file

alt_irq             0x100             ../attempt2_bsp//libucosii_bsp.a(alt_irq_handler.o)
task1_stk           0x2000            obj/default/hello_ucosii.o
OSLockNesting       0x1               ../attempt2_bsp//libucosii_bsp.a(os_core.o)
OSRunning           0x1               ../attempt2_bsp//libucosii_bsp.a(os_core.o)
OSIdleCtr           0x4               ../attempt2_bsp//libucosii_bsp.a(os_core.o)
OSPrioHighRdy       0x1               ../attempt2_bsp//libucosii_bsp.a(os_core.o)
errno               0x4               /OPT/altera/12.1/nios2eds/bin/gnu/H-i686-pc-linux-gnu/bin/../lib/gcc/nios2-elf/4.1.2/../../../../nios2-elf/lib/mno-hw-mul/libc.a(lib_a-int_errno.o)
alt_heapsem         0x4               ../attempt2_bsp//libucosii_bsp.a(alt_malloc_lock.o)
OSFlagTbl           0x370             ../attempt2_bsp//libucosii_bsp.a(os_core.o)
OSPrioCur           0x1               ../attempt2_bsp//libucosii_bsp.a(os_core.o)
OSTCBList           0x4               ../attempt2_bsp//libucosii_bsp.a(os_core.o)
alt_fd_list_lock    0x4               ../attempt2_bsp//libucosii_bsp.a(alt_dev.o)
OSMemTbl            0xc30             ../attempt2_bsp//libucosii_bsp.a(os_core.o)
OSTickStepState     0x1               ../attempt2_bsp//libucosii_bsp.a(os_core.o)
OSTaskStatStk       0x800             ../attempt2_bsp//libucosii_bsp.a(os_core.o)
OSCtxSwCtr          0x4               ../attempt2_bsp//libucosii_bsp.a(os_core.o)
OSIdleCtrMax        0x4               ../attempt2_bsp//libucosii_bsp.a(os_core.o)
OSTCBFreeList       0x4               ../attempt2_bsp//libucosii_bsp.a(os_core.o)
OSCPUUsage          0x1               ../attempt2_bsp//libucosii_bsp.a(os_core.o)
OSTaskCtr           0x1               ../attempt2_bsp//libucosii_bsp.a(os_core.o)
OSMemFreeList       0x4               ../attempt2_bsp//libucosii_bsp.a(os_core.o)
OSQTbl              0x1e0             ../attempt2_bsp//libucosii_bsp.a(os_core.o)
OSTCBHighRdy        0x4               ../attempt2_bsp//libucosii_bsp.a(os_core.o)
OSQFreeList         0x4               ../attempt2_bsp//libucosii_bsp.a(os_core.o)
OSRdyGrp            0x1               ../attempt2_bsp//libucosii_bsp.a(os_core.o)
lcd_sem             0x4               obj/default/hello_ucosii.o
task2_stk           0x2000            obj/default/hello_ucosii.o
_atexit0            0x190             /OPT/altera/12.1/nios2eds/bin/gnu/H-i686-pc-linux-gnu/bin/../lib/gcc/nios2-elf/4.1.2/../../../../nios2-elf/lib/mno-hw-mul/libc.a(lib_a-atexit.o)
task3_stk           0x2000            obj/default/hello_ucosii.o
OSRdyTbl            0x3               ../attempt2_bsp//libucosii_bsp.a(os_core.o)
OSEventFreeList     0x4               ../attempt2_bsp//libucosii_bsp.a(os_core.o)
OSIntNesting        0x1               ../attempt2_bsp//libucosii_bsp.a(os_core.o)
OSTCBCur            0x4               ../attempt2_bsp//libucosii_bsp.a(os_core.o)
OSTime              0x4               ../attempt2_bsp//libucosii_bsp.a(os_core.o)
OSTaskIdleStk       0x800             ../attempt2_bsp//libucosii_bsp.a(os_core.o)
OSEventTbl          0xb40             ../attempt2_bsp//libucosii_bsp.a(os_core.o)
OSTCBTbl            0x510             ../attempt2_bsp//libucosii_bsp.a(os_core.o)
OSFlagFreeList      0x4               ../attempt2_bsp//libucosii_bsp.a(os_core.o)
OSStatRdy           0x1               ../attempt2_bsp//libucosii_bsp.a(os_core.o)
OSTCBPrioTbl        0x54              ../attempt2_bsp//libucosii_bsp.a(os_core.o)
alt_envsem          0x4               ../attempt2_bsp//libucosii_bsp.a(alt_env_lock.o)
OSIdleCtrRun        0x4               ../attempt2_bsp//libucosii_bsp.a(os_core.o)

Memory Configuration

Name             Origin             Length             Attributes
sdram_0          0x00800000         0x00800000
sram_0           0x01080000         0x00080000
reset            0x01104000         0x00000020
onchip_memory2_0 0x01104020         0x00003fe0
*default*        0x00000000         0xffffffff

Linker script and memory map

LOAD ../attempt2_bsp//obj/HAL/src/crt0.o
LOAD obj/default/hello_ucosii.o
LOAD /OPT/altera/12.1/nios2eds/bin/gnu/H-i686-pc-linux-gnu/bin/../lib/gcc/nios2-elf/4.1.2/../../../../nios2-elf/lib/mno-hw-mul/libstdc++.a
LOAD /OPT/altera/12.1/nios2eds/bin/gnu/H-i686-pc-linux-gnu/bin/../lib/gcc/nios2-elf/4.1.2/../../../../nios2-elf/lib/mno-hw-mul/libm.a
LOAD /OPT/altera/12.1/nios2eds/bin/gnu/H-i686-pc-linux-gnu/bin/../lib/gcc/nios2-elf/4.1.2/mno-hw-mul/libgcc.a
START GROUP
LOAD /OPT/altera/12.1/nios2eds/bin/gnu/H-i686-pc-linux-gnu/bin/../lib/gcc/nios2-elf/4.1.2/../../../../nios2-elf/lib/mno-hw-mul/libc.a
LOAD /OPT/altera/12.1/nios2eds/bin/gnu/H-i686-pc-linux-gnu/bin/../lib/gcc/nios2-elf/4.1.2/mno-hw-mul/libgcc.a
LOAD ../attempt2_bsp//libucosii_bsp.a
END GROUP
LOAD /OPT/altera/12.1/nios2eds/bin/gnu/H-i686-pc-linux-gnu/bin/../lib/gcc/nios2-elf/4.1.2/mno-hw-mul/libgcc.a
                0x00800000                __alt_mem_sdram_0 = 0x800000
                0x01080000                __alt_mem_sram_0 = 0x1080000
                0x01104000                __alt_mem_onchip_memory2_0 = 0x1104000

.entry          0x01104000       0x20
 *(.entry)
 .entry         0x01104000       0x20 ../attempt2_bsp//obj/HAL/src/crt0.o
                0x01104000                __reset

.exceptions     0x01104020      0x1a0 load address 0x00800000
                0x01104020                PROVIDE (__ram_exceptions_start, ABSOLUTE (.))
                0x01104020                . = ALIGN (0x20)
 *(.irq)
 *(.exceptions.entry.label)
 .exceptions.entry.label
                0x01104020        0x0 ../attempt2_bsp//libucosii_bsp.a(alt_irq_entry.o)
                0x01104020                alt_irq_entry
 .exceptions.entry.label
                0x01104020        0x0 ../attempt2_bsp//libucosii_bsp.a(alt_exception_entry.o)
                0x01104020                alt_exception
 *(.exceptions.entry.user)
 *(.exceptions.entry)
 .exceptions.entry
                0x01104020       0x54 ../attempt2_bsp//libucosii_bsp.a(alt_exception_entry.o)
 *(.exceptions.irqtest.user)
 *(.exceptions.irqtest)
 .exceptions.irqtest
                0x01104074       0x10 ../attempt2_bsp//libucosii_bsp.a(alt_irq_entry.o)
 *(.exceptions.irqhandler.user)
 *(.exceptions.irqhandler)
 .exceptions.irqhandler
                0x01104084        0x4 ../attempt2_bsp//libucosii_bsp.a(alt_irq_entry.o)
 *(.exceptions.irqreturn.user)
 *(.exceptions.irqreturn)
 .exceptions.irqreturn
                0x01104088        0x4 ../attempt2_bsp//libucosii_bsp.a(alt_irq_entry.o)
 *(.exceptions.notirq.label)
 .exceptions.notirq.label
                0x0110408c        0x0 ../attempt2_bsp//libucosii_bsp.a(alt_irq_entry.o)
 *(.exceptions.notirq.user)
 *(.exceptions.notirq)
 .exceptions.notirq
                0x0110408c        0x8 ../attempt2_bsp//libucosii_bsp.a(alt_exception_entry.o)
 *(.exceptions.soft.user)
 *(.exceptions.soft)
 *(.exceptions.unknown.user)
 *(.exceptions.unknown)
 .exceptions.unknown
                0x01104094        0x4 ../attempt2_bsp//libucosii_bsp.a(alt_exception_entry.o)
 *(.exceptions.exit.label)
 .exceptions.exit.label
                0x01104098        0x0 ../attempt2_bsp//libucosii_bsp.a(alt_irq_entry.o)
 .exceptions.exit.label
                0x01104098        0x0 ../attempt2_bsp//libucosii_bsp.a(alt_exception_entry.o)
 *(.exceptions.exit.user)
 *(.exceptions.exit)
 .exceptions.exit
                0x01104098       0x54 ../attempt2_bsp//libucosii_bsp.a(alt_exception_entry.o)
 *(.exceptions)
 .exceptions    0x011040ec       0xd4 ../attempt2_bsp//libucosii_bsp.a(alt_irq_handler.o)
                0x011040ec                alt_irq_handler
                0x011041c0                PROVIDE (__ram_exceptions_end, ABSOLUTE (.))
                0x00800000                PROVIDE (__flash_exceptions_start, LOADADDR (.exceptions))

.text           0x008001a0    0x13554
                0x008001a0                PROVIDE (stext, ABSOLUTE (.))
 *(.interp)
 *(.hash)
 *(.dynsym)
 *(.dynstr)
 *(.gnu.version)
 *(.gnu.version_d)
 *(.gnu.version_r)
 *(.rel.init)
 *(.rela.init)
 *(.rel.text .rel.text.* .rel.gnu.linkonce.t.*)
 *(.rela.text .rela.text.* .rela.gnu.linkonce.t.*)
 *(.rel.fini)
 *(.rela.fini)
 *(.rel.rodata .rel.rodata.* .rel.gnu.linkonce.r.*)
 *(.rela.rodata .rela.rodata.* .rela.gnu.linkonce.r.*)
 *(.rel.data .rel.data.* .rel.gnu.linkonce.d.*)
 *(.rela.data .rela.data.* .rela.gnu.linkonce.d.*)
 *(.rel.tdata .rel.tdata.* .rel.gnu.linkonce.td.*)
 *(.rela.tdata .rela.tdata.* .rela.gnu.linkonce.td.*)
 *(.rel.tbss .rel.tbss.* .rel.gnu.linkonce.tb.*)
 *(.rela.tbss .rela.tbss.* .rela.gnu.linkonce.tb.*)
 *(.rel.ctors)
 *(.rela.ctors)
 *(.rel.dtors)
 *(.rela.dtors)
 *(.rel.got)
 *(.rela.got)
 *(.rel.sdata .rel.sdata.* .rel.gnu.linkonce.s.*)
 *(.rela.sdata .rela.sdata.* .rela.gnu.linkonce.s.*)
 *(.rel.sbss .rel.sbss.* .rel.gnu.linkonce.sb.*)
 *(.rela.sbss .rela.sbss.* .rela.gnu.linkonce.sb.*)
 *(.rel.sdata2 .rel.sdata2.* .rel.gnu.linkonce.s2.*)
 *(.rela.sdata2 .rela.sdata2.* .rela.gnu.linkonce.s2.*)
 *(.rel.sbss2 .rel.sbss2.* .rel.gnu.linkonce.sb2.*)
 *(.rela.sbss2 .rela.sbss2.* .rela.gnu.linkonce.sb2.*)
 *(.rel.bss .rel.bss.* .rel.gnu.linkonce.b.*)
 *(.rela.bss .rela.bss.* .rela.gnu.linkonce.b.*)
 *(.rel.plt)
 *(.rela.plt)
 *(.rel.dyn)
 *(.init)
 *(.plt)
 *(.text .stub .text.* .gnu.linkonce.t.*)
 .text          0x008001a0       0x3c ../attempt2_bsp//obj/HAL/src/crt0.o
                0x008001a0                _start
 .text          0x008001dc      0x3ec obj/default/hello_ucosii.o
                0x008001dc                task1
                0x00800250                task2
                0x00800288                audio_data_task
                0x008004d0                main
 .text          0x008005c8      0x16c /OPT/altera/12.1/nios2eds/bin/gnu/H-i686-pc-linux-gnu/bin/../lib/gcc/nios2-elf/4.1.2/../../../../nios2-elf/lib/mno-hw-mul/libm.a(lib_a-s_sin.o)
                0x008005c8                sin
 .text          0x00800734      0x828 /OPT/altera/12.1/nios2eds/bin/gnu/H-i686-pc-linux-gnu/bin/../lib/gcc/nios2-elf/4.1.2/../../../../nios2-elf/lib/mno-hw-mul/libm.a(lib_a-e_rem_pio2.o)
                0x00800734                __ieee754_rem_pio2
 .text          0x00800f5c      0x52c /OPT/altera/12.1/nios2eds/bin/gnu/H-i686-pc-linux-gnu/bin/../lib/gcc/nios2-elf/4.1.2/../../../../nios2-elf/lib/mno-hw-mul/libm.a(lib_a-k_cos.o)
                0x00800f5c                __kernel_cos
 .text          0x00801488      0xe84 /OPT/altera/12.1/nios2eds/bin/gnu/H-i686-pc-linux-gnu/bin/../lib/gcc/nios2-elf/4.1.2/../../../../nios2-elf/lib/mno-hw-mul/libm.a(lib_a-k_rem_pio2.o)
                0x00801488                __kernel_rem_pio2
 .text          0x0080230c      0x318 /OPT/altera/12.1/nios2eds/bin/gnu/H-i686-pc-linux-gnu/bin/../lib/gcc/nios2-elf/4.1.2/../../../../nios2-elf/lib/mno-hw-mul/libm.a(lib_a-k_sin.o)
                0x0080230c                __kernel_sin
 .text          0x00802624       0x18 /OPT/altera/12.1/nios2eds/bin/gnu/H-i686-pc-linux-gnu/bin/../lib/gcc/nios2-elf/4.1.2/../../../../nios2-elf/lib/mno-hw-mul/libm.a(lib_a-s_fabs.o)
                0x00802624                fabs
 .text          0x0080263c      0x224 /OPT/altera/12.1/nios2eds/bin/gnu/H-i686-pc-linux-gnu/bin/../lib/gcc/nios2-elf/4.1.2/../../../../nios2-elf/lib/mno-hw-mul/libm.a(lib_a-s_floor.o)
                0x0080263c                floor
 .text          0x00802860      0x1e0 /OPT/altera/12.1/nios2eds/bin/gnu/H-i686-pc-linux-gnu/bin/../lib/gcc/nios2-elf/4.1.2/../../../../nios2-elf/lib/mno-hw-mul/libm.a(lib_a-s_scalbn.o)
                0x00802860                scalbn
 .text          0x00802a40       0x24 /OPT/altera/12.1/nios2eds/bin/gnu/H-i686-pc-linux-gnu/bin/../lib/gcc/nios2-elf/4.1.2/../../../../nios2-elf/lib/mno-hw-mul/libm.a(lib_a-s_copysign.o)
                0x00802a40                copysign
 .text          0x00802a64       0xa4 /OPT/altera/12.1/nios2eds/bin/gnu/H-i686-pc-linux-gnu/bin/../lib/gcc/nios2-elf/4.1.2/mno-hw-mul/libgcc.a(_fixunsdfsi.o)
                0x00802a64                __fixunsdfsi
 .text          0x00802b08      0x504 /OPT/altera/12.1/nios2eds/bin/gnu/H-i686-pc-linux-gnu/bin/../lib/gcc/nios2-elf/4.1.2/mno-hw-mul/libgcc.a(_addsub_df.o)
                0x00802f18                __subdf3
                0x00802f98                __adddf3
 .text          0x0080300c      0x3c4 /OPT/altera/12.1/nios2eds/bin/gnu/H-i686-pc-linux-gnu/bin/../lib/gcc/nios2-elf/4.1.2/mno-hw-mul/libgcc.a(_mul_df.o)
                0x0080300c                __muldf3
 .text          0x008033d0      0x258 /OPT/altera/12.1/nios2eds/bin/gnu/H-i686-pc-linux-gnu/bin/../lib/gcc/nios2-elf/4.1.2/mno-hw-mul/libgcc.a(_div_df.o)
                0x008033d0                __divdf3
 .text          0x00803628       0x88 /OPT/altera/12.1/nios2eds/bin/gnu/H-i686-pc-linux-gnu/bin/../lib/gcc/nios2-elf/4.1.2/mno-hw-mul/libgcc.a(_eq_df.o)
                0x00803628                __eqdf2
 .text          0x008036b0       0x88 /OPT/altera/12.1/nios2eds/bin/gnu/H-i686-pc-linux-gnu/bin/../lib/gcc/nios2-elf/4.1.2/mno-hw-mul/libgcc.a(_gt_df.o)
                0x008036b0                __gtdf2
 .text          0x00803738       0x88 /OPT/altera/12.1/nios2eds/bin/gnu/H-i686-pc-linux-gnu/bin/../lib/gcc/nios2-elf/4.1.2/mno-hw-mul/libgcc.a(_ge_df.o)
                0x00803738                __gedf2
 .text          0x008037c0       0xf8 /OPT/altera/12.1/nios2eds/bin/gnu/H-i686-pc-linux-gnu/bin/../lib/gcc/nios2-elf/4.1.2/mno-hw-mul/libgcc.a(_si_to_df.o)
                0x008037c0                __floatsidf
 .text          0x008038b8       0xd8 /OPT/altera/12.1/nios2eds/bin/gnu/H-i686-pc-linux-gnu/bin/../lib/gcc/nios2-elf/4.1.2/mno-hw-mul/libgcc.a(_df_to_si.o)
                0x008038b8                __fixdfsi
 .text          0x00803990        0x0 /OPT/altera/12.1/nios2eds/bin/gnu/H-i686-pc-linux-gnu/bin/../lib/gcc/nios2-elf/4.1.2/mno-hw-mul/libgcc.a(_thenan_df.o)
 .text          0x00803990      0x14c /OPT/altera/12.1/nios2eds/bin/gnu/H-i686-pc-linux-gnu/bin/../lib/gcc/nios2-elf/4.1.2/mno-hw-mul/libgcc.a(lib2-divmod.o)
                0x00803a0c                __divsi3
                0x00803a6c                __modsi3
                0x00803acc                __udivsi3
                0x00803ad4                __umodsi3
 .text          0x00803adc       0x38 /OPT/altera/12.1/nios2eds/bin/gnu/H-i686-pc-linux-gnu/bin/../lib/gcc/nios2-elf/4.1.2/mno-hw-mul/libgcc.a(lib2-mul.o)
                0x00803adc                __mulsi3
 .text          0x00803b14      0x124 /OPT/altera/12.1/nios2eds/bin/gnu/H-i686-pc-linux-gnu/bin/../lib/gcc/nios2-elf/4.1.2/mno-hw-mul/libgcc.a(_muldi3.o)
                0x00803b14                __muldi3
 .text          0x00803c38       0x80 /OPT/altera/12.1/nios2eds/bin/gnu/H-i686-pc-linux-gnu/bin/../lib/gcc/nios2-elf/4.1.2/mno-hw-mul/libgcc.a(_clzsi2.o)
                0x00803c38                __clzsi2
 .text          0x00803cb8      0x314 /OPT/altera/12.1/nios2eds/bin/gnu/H-i686-pc-linux-gnu/bin/../lib/gcc/nios2-elf/4.1.2/mno-hw-mul/libgcc.a(_pack_df.o)
                0x00803cb8                __pack_d
 .text          0x00803fcc      0x138 /OPT/altera/12.1/nios2eds/bin/gnu/H-i686-pc-linux-gnu/bin/../lib/gcc/nios2-elf/4.1.2/mno-hw-mul/libgcc.a(_unpack_df.o)
                0x00803fcc                __unpack_d
 .text          0x00804104       0xc8 /OPT/altera/12.1/nios2eds/bin/gnu/H-i686-pc-linux-gnu/bin/../lib/gcc/nios2-elf/4.1.2/mno-hw-mul/libgcc.a(_fpcmp_parts_df.o)
                0x00804104                __fpcmp_parts_d
 .text          0x008041cc        0x0 /OPT/altera/12.1/nios2eds/bin/gnu/H-i686-pc-linux-gnu/bin/../lib/gcc/nios2-elf/4.1.2/mno-hw-mul/libgcc.a(_clz.o)
 .text          0x008041cc       0xb4 /OPT/altera/12.1/nios2eds/bin/gnu/H-i686-pc-linux-gnu/bin/../lib/gcc/nios2-elf/4.1.2/../../../../nios2-elf/lib/mno-hw-mul/libc.a(lib_a-puts.o)
                0x008041cc                _puts_r
                0x0080426c                puts
 .text          0x00804280       0x74 /OPT/altera/12.1/nios2eds/bin/gnu/H-i686-pc-linux-gnu/bin/../lib/gcc/nios2-elf/4.1.2/../../../../nios2-elf/lib/mno-hw-mul/libc.a(lib_a-strlen.o)
                0x00804280                strlen
 .text          0x008042f4      0x49c /OPT/altera/12.1/nios2eds/bin/gnu/H-i686-pc-linux-gnu/bin/../lib/gcc/nios2-elf/4.1.2/../../../../nios2-elf/lib/mno-hw-mul/libc.a(lib_a-fvwrite.o)
                0x008042f4                __sfvwrite_r
 .text          0x00804790        0x0 /OPT/altera/12.1/nios2eds/bin/gnu/H-i686-pc-linux-gnu/bin/../lib/gcc/nios2-elf/4.1.2/../../../../nios2-elf/lib/mno-hw-mul/libc.a(lib_a-impure.o)
 .text          0x00804790      0x740 /OPT/altera/12.1/nios2eds/bin/gnu/H-i686-pc-linux-gnu/bin/../lib/gcc/nios2-elf/4.1.2/../../../../nios2-elf/lib/mno-hw-mul/libc.a(lib_a-mallocr.o)
                0x00804790                _malloc_r
 .text          0x00804ed0       0xe4 /OPT/altera/12.1/nios2eds/bin/gnu/H-i686-pc-linux-gnu/bin/../lib/gcc/nios2-elf/4.1.2/../../../../nios2-elf/lib/mno-hw-mul/libc.a(lib_a-memchr.o)
                0x00804ed0                memchr
 .text          0x00804fb4       0xa0 /OPT/altera/12.1/nios2eds/bin/gnu/H-i686-pc-linux-gnu/bin/../lib/gcc/nios2-elf/4.1.2/../../../../nios2-elf/lib/mno-hw-mul/libc.a(lib_a-memcpy.o)
                0x00804fb4                memcpy
 .text          0x00805054       0xe0 /OPT/altera/12.1/nios2eds/bin/gnu/H-i686-pc-linux-gnu/bin/../lib/gcc/nios2-elf/4.1.2/../../../../nios2-elf/lib/mno-hw-mul/libc.a(lib_a-memmove.o)
                0x00805054                memmove
 .text          0x00805134      0x5f4 /OPT/altera/12.1/nios2eds/bin/gnu/H-i686-pc-linux-gnu/bin/../lib/gcc/nios2-elf/4.1.2/../../../../nios2-elf/lib/mno-hw-mul/libc.a(lib_a-reallocr.o)
                0x00805134                _realloc_r
 .text          0x00805728       0x70 /OPT/altera/12.1/nios2eds/bin/gnu/H-i686-pc-linux-gnu/bin/../lib/gcc/nios2-elf/4.1.2/../../../../nios2-elf/lib/mno-hw-mul/libc.a(lib_a-sbrkr.o)
                0x00805728                _sbrk_r
 .text          0x00805798      0x13c /OPT/altera/12.1/nios2eds/bin/gnu/H-i686-pc-linux-gnu/bin/../lib/gcc/nios2-elf/4.1.2/../../../../nios2-elf/lib/mno-hw-mul/libc.a(lib_a-wsetup.o)
                0x00805798                __swsetup_r
 .text          0x008058d4      0x230 /OPT/altera/12.1/nios2eds/bin/gnu/H-i686-pc-linux-gnu/bin/../lib/gcc/nios2-elf/4.1.2/../../../../nios2-elf/lib/mno-hw-mul/libc.a(lib_a-fflush.o)
                0x008058d4                _fflush_r
                0x00805ad0                fflush
 .text          0x00805b04      0x2f4 /OPT/altera/12.1/nios2eds/bin/gnu/H-i686-pc-linux-gnu/bin/../lib/gcc/nios2-elf/4.1.2/../../../../nios2-elf/lib/mno-hw-mul/libc.a(lib_a-findfp.o)
                0x00805b5c                __sfp_lock_acquire
                0x00805b60                __sfp_lock_release
                0x00805b64                __sinit_lock_acquire
                0x00805b68                __sinit_lock_release
                0x00805b6c                __sinit
                0x00805c20                __fp_unlock_all
                0x00805c38                __fp_lock_all
                0x00805c50                _cleanup_r
                0x00805c5c                _cleanup
                0x00805c6c                __sfmoreglue
                0x00805d08                __sfp
 .text          0x00805df8      0x440 /OPT/altera/12.1/nios2eds/bin/gnu/H-i686-pc-linux-gnu/bin/../lib/gcc/nios2-elf/4.1.2/../../../../nios2-elf/lib/mno-hw-mul/libc.a(lib_a-freer.o)
                0x00805df8                _malloc_trim_r
                0x00805f24                _free_r
 .text          0x00806238      0x180 /OPT/altera/12.1/nios2eds/bin/gnu/H-i686-pc-linux-gnu/bin/../lib/gcc/nios2-elf/4.1.2/../../../../nios2-elf/lib/mno-hw-mul/libc.a(lib_a-fwalk.o)
                0x00806238                _fwalk_reent
                0x00806300                _fwalk
 .text          0x008063b8        0x0 /OPT/altera/12.1/nios2eds/bin/gnu/H-i686-pc-linux-gnu/bin/../lib/gcc/nios2-elf/4.1.2/../../../../nios2-elf/lib/mno-hw-mul/libc.a(lib_a-int_errno.o)
 .text          0x008063b8      0x194 /OPT/altera/12.1/nios2eds/bin/gnu/H-i686-pc-linux-gnu/bin/../lib/gcc/nios2-elf/4.1.2/../../../../nios2-elf/lib/mno-hw-mul/libc.a(lib_a-makebuf.o)
                0x008063b8                __smakebuf_r
 .text          0x0080654c       0x98 /OPT/altera/12.1/nios2eds/bin/gnu/H-i686-pc-linux-gnu/bin/../lib/gcc/nios2-elf/4.1.2/../../../../nios2-elf/lib/mno-hw-mul/libc.a(lib_a-memset.o)
                0x0080654c                memset
 .text          0x008065e4      0x14c /OPT/altera/12.1/nios2eds/bin/gnu/H-i686-pc-linux-gnu/bin/../lib/gcc/nios2-elf/4.1.2/../../../../nios2-elf/lib/mno-hw-mul/libc.a(lib_a-stdio.o)
                0x008065e4                __sclose
                0x008065ec                __sseek
                0x00806654                __swrite
                0x008066d0                __sread
 .text          0x00806730       0x78 /OPT/altera/12.1/nios2eds/bin/gnu/H-i686-pc-linux-gnu/bin/../lib/gcc/nios2-elf/4.1.2/../../../../nios2-elf/lib/mno-hw-mul/libc.a(lib_a-writer.o)
                0x00806730                _write_r
 .text          0x008067a8       0x70 /OPT/altera/12.1/nios2eds/bin/gnu/H-i686-pc-linux-gnu/bin/../lib/gcc/nios2-elf/4.1.2/../../../../nios2-elf/lib/mno-hw-mul/libc.a(lib_a-closer.o)
                0x008067a8                _close_r
 .text          0x00806818      0x124 /OPT/altera/12.1/nios2eds/bin/gnu/H-i686-pc-linux-gnu/bin/../lib/gcc/nios2-elf/4.1.2/../../../../nios2-elf/lib/mno-hw-mul/libc.a(lib_a-fclose.o)
                0x00806818                _fclose_r
                0x00806928                fclose
 .text          0x0080693c       0x74 /OPT/altera/12.1/nios2eds/bin/gnu/H-i686-pc-linux-gnu/bin/../lib/gcc/nios2-elf/4.1.2/../../../../nios2-elf/lib/mno-hw-mul/libc.a(lib_a-fstatr.o)
                0x0080693c                _fstat_r
 .text          0x008069b0       0x70 /OPT/altera/12.1/nios2eds/bin/gnu/H-i686-pc-linux-gnu/bin/../lib/gcc/nios2-elf/4.1.2/../../../../nios2-elf/lib/mno-hw-mul/libc.a(lib_a-isattyr.o)
                0x008069b0                _isatty_r
 .text          0x00806a20       0x78 /OPT/altera/12.1/nios2eds/bin/gnu/H-i686-pc-linux-gnu/bin/../lib/gcc/nios2-elf/4.1.2/../../../../nios2-elf/lib/mno-hw-mul/libc.a(lib_a-lseekr.o)
                0x00806a20                _lseek_r
 .text          0x00806a98       0x78 /OPT/altera/12.1/nios2eds/bin/gnu/H-i686-pc-linux-gnu/bin/../lib/gcc/nios2-elf/4.1.2/../../../../nios2-elf/lib/mno-hw-mul/libc.a(lib_a-readr.o)
                0x00806a98                _read_r
 .text          0x00806b10      0x160 ../attempt2_bsp//libucosii_bsp.a(alt_close.o)
                0x00806b10                close
 .text          0x00806c70       0x2c ../attempt2_bsp//libucosii_bsp.a(alt_dev.o)
 .text          0x00806c9c        0x0 ../attempt2_bsp//libucosii_bsp.a(alt_errno.o)
 .text          0x00806c9c      0x138 ../attempt2_bsp//libucosii_bsp.a(alt_fstat.o)
                0x00806c9c                fstat
 .text          0x00806dd4      0x124 ../attempt2_bsp//libucosii_bsp.a(alt_isatty.o)
                0x00806dd4                isatty
 .text          0x00806ef8       0xec ../attempt2_bsp//libucosii_bsp.a(alt_load.o)
                0x00806ef8                alt_load
 .text          0x00806fe4      0x154 ../attempt2_bsp//libucosii_bsp.a(alt_lseek.o)
                0x00806fe4                lseek
 .text          0x00807138       0xc8 ../attempt2_bsp//libucosii_bsp.a(alt_main.o)
                0x00807138                alt_main
 .text          0x00807200      0x184 ../attempt2_bsp//libucosii_bsp.a(alt_read.o)
                0x00807200                read
 .text          0x00807384       0x78 ../attempt2_bsp//libucosii_bsp.a(alt_release_fd.o)
                0x00807384                alt_release_fd
 .text          0x008073fc       0xbc ../attempt2_bsp//libucosii_bsp.a(alt_sbrk.o)
                0x008073fc                sbrk
 .text          0x008074b8      0x184 ../attempt2_bsp//libucosii_bsp.a(alt_write.o)
                0x008074b8                write
 .text          0x0080763c      0x108 ../attempt2_bsp//libucosii_bsp.a(alt_env_lock.o)
                0x0080763c                __env_lock
                0x008076e8                __env_unlock
 .text          0x00807744      0x1d8 ../attempt2_bsp//libucosii_bsp.a(alt_malloc_lock.o)
                0x00807744                __malloc_lock
                0x0080784c                __malloc_unlock
 .text          0x0080791c     0x2128 ../attempt2_bsp//libucosii_bsp.a(os_core.o)
                0x0080791c                OSEventNameGet
                0x00807a4c                OSEventNameSet
                0x00807b90                OSEventPendMulti
                0x00808244                OSInit
                0x00808298                OSIntEnter
                0x00808314                OSIntExit
                0x00808414                OSSchedLock
                0x008084a0                OSSchedUnlock
                0x00808584                OSStart
                0x008085f4                OSStatInit
                0x008086a0                OSTimeTick
                0x008088e0                OSVersion
                0x00808900                OS_Dummy
                0x0080891c                OS_EventTaskRdy
                0x00808ab0                OS_EventTaskWait
                0x00808bc0                OS_EventTaskWaitMulti
                0x00808d14                OS_EventTaskRemove
                0x00808dcc                OS_EventTaskRemoveMulti
                0x00808ed0                OS_EventWaitListInit
                0x0080929c                OS_MemClr
                0x008092f0                OS_MemCopy
                0x0080935c                OS_Sched
                0x008094a0                OS_StrCopy
                0x00809520                OS_StrLen
                0x00809578                OS_TaskIdle
                0x008095d4                OS_TaskStat
                0x0080969c                OS_TaskStatStkChk
                0x00809764                OS_TCBInit
 .text          0x00809a44      0x18c ../attempt2_bsp//libucosii_bsp.a(os_dbg.o)
                0x00809a44                OSDebugInit
 .text          0x00809bd0     0x193c ../attempt2_bsp//libucosii_bsp.a(os_flag.o)
                0x00809bd0                OSFlagAccept
                0x00809f04                OSFlagCreate
                0x0080a040                OSFlagDel
                0x0080a2e8                OSFlagNameGet
                0x0080a42c                OSFlagNameSet
                0x0080a580                OSFlagPend
                0x0080abc4                OSFlagPendGetFlagsRdy
                0x0080ac2c                OSFlagPost
                0x0080afd4                OSFlagQuery
                0x0080b26c                OS_FlagInit
                0x0080b460                OS_FlagUnlink
 .text          0x0080b50c      0x80c ../attempt2_bsp//libucosii_bsp.a(os_mem.o)
                0x0080b50c                OSMemCreate
                0x0080b728                OSMemGet
                0x0080b82c                OSMemNameGet
                0x0080b938                OSMemNameSet
                0x0080ba58                OSMemPut
                0x0080bb48                OSMemQuery
                0x0080bc44                OS_MemInit
 .text          0x0080bd18     0x1334 ../attempt2_bsp//libucosii_bsp.a(os_q.o)
                0x0080bd18                OSQAccept
                0x0080be6c                OSQCreate
                0x0080c080                OSQDel
                0x0080c380                OSQFlush
                0x0080c448                OSQPend
                0x0080c768                OSQPendAbort
                0x0080c8e4                OSQPost
                0x0080ca64                OSQPostFront
                0x0080cbec                OSQPostOpt
                0x0080ce20                OSQQuery
                0x0080cfa0                OS_QInit
 .text          0x0080d04c      0xbc8 ../attempt2_bsp//libucosii_bsp.a(os_sem.o)
                0x0080d04c                OSSemAccept
                0x0080d10c                OSSemCreate
                0x0080d220                OSSemDel
                0x0080d4c0                OSSemPend
                0x0080d73c                OSSemPendAbort
                0x0080d8b8                OSSemPost
                0x0080d9e0                OSSemQuery
                0x0080db10                OSSemSet
 .text          0x0080dc14     0x1a40 ../attempt2_bsp//libucosii_bsp.a(os_task.o)
                0x0080dc14                OSTaskChangePrio
                0x0080e188                OSTaskCreate
                0x0080e35c                OSTaskCreateExt
                0x0080e55c                OSTaskDel
                0x0080e968                OSTaskDelReq
                0x0080ead8                OSTaskNameGet
                0x0080ec90                OSTaskNameSet
                0x0080ee54                OSTaskResume
                0x0080f06c                OSTaskStkChk
                0x0080f268                OSTaskSuspend
                0x0080f494                OSTaskQuery
                0x0080f5d8                OS_TaskStkClr
 .text          0x0080f654      0x5b4 ../attempt2_bsp//libucosii_bsp.a(os_time.o)
                0x0080f654                OSTimeDly
                0x0080f7a0                OSTimeDlyHMSM
                0x0080f930                OSTimeDlyResume
                0x0080fb40                OSTimeGet
                0x0080fba4                OSTimeSet
 .text          0x0080fc08       0xf8 ../attempt2_bsp//libucosii_bsp.a(alt_sys_init.o)
                0x0080fc08                alt_irq_init
                0x0080fc3c                alt_sys_init
 .text          0x0080fd00      0x148 ../attempt2_bsp//libucosii_bsp.a(altera_avalon_jtag_uart_fd.o)
                0x0080fd00                altera_avalon_jtag_uart_read_fd
                0x0080fd58                altera_avalon_jtag_uart_write_fd
                0x0080fdb0                altera_avalon_jtag_uart_close_fd
                0x0080fdf8                altera_avalon_jtag_uart_ioctl_fd
 .text          0x0080fe48      0x580 ../attempt2_bsp//libucosii_bsp.a(altera_avalon_jtag_uart_init.o)
                0x0080fe48                altera_avalon_jtag_uart_init
                0x00810354                altera_avalon_jtag_uart_close
 .text          0x008103c8       0xf4 ../attempt2_bsp//libucosii_bsp.a(altera_avalon_jtag_uart_ioctl.o)
                0x008103c8                altera_avalon_jtag_uart_ioctl
 .text          0x008104bc      0x2c0 ../attempt2_bsp//libucosii_bsp.a(altera_avalon_jtag_uart_read.o)
                0x008104bc                altera_avalon_jtag_uart_read
 .text          0x0081077c      0x2dc ../attempt2_bsp//libucosii_bsp.a(altera_avalon_jtag_uart_write.o)
                0x0081077c                altera_avalon_jtag_uart_write
 .text          0x00810a58       0xfc ../attempt2_bsp//libucosii_bsp.a(altera_avalon_timer_sc.o)
                0x00810acc                alt_avalon_timer_sc_init
 .text          0x00810b54      0x80c ../attempt2_bsp//libucosii_bsp.a(altera_up_avalon_audio.o)
                0x00810b54                alt_up_audio_open_dev
                0x00810b94                alt_up_audio_enable_read_interrupt
                0x00810be0                alt_up_audio_disable_read_interrupt
                0x00810c30                alt_up_audio_enable_write_interrupt
                0x00810c7c                alt_up_audio_disable_write_interrupt
                0x00810ccc                alt_up_audio_read_interrupt_pending
                0x00810d08                alt_up_audio_write_interrupt_pending
                0x00810d44                alt_up_audio_reset_audio_core
                0x00810dcc                alt_up_audio_read_fifo_avail
                0x00810e3c                alt_up_audio_record_r
                0x00810eac                alt_up_audio_record_l
                0x00810f1c                alt_up_audio_write_fifo_space
                0x00810f90                alt_up_audio_play_r
                0x00811000                alt_up_audio_play_l
                0x00811070                alt_up_audio_read_fifo
                0x00811174                alt_up_audio_write_fifo
                0x008112a0                alt_up_audio_read_fifo_head
                0x00811300                alt_up_audio_write_fifo_head
 .text          0x00811360      0x788 ../attempt2_bsp//libucosii_bsp.a(altera_up_avalon_audio_and_video_config.o)
                0x00811360                alt_up_av_config_open_dev
                0x008113c4                alt_up_av_config_write_data
                0x00811428                alt_up_av_config_read_data
                0x008114b4                alt_up_av_config_reset
                0x008114ec                alt_up_av_config_enable_interrupt
                0x00811524                alt_up_av_config_disable_interrupt
                0x00811554                alt_up_av_config_read_acknowledge
                0x008115bc                alt_up_av_config_read_ready
                0x008115f4                alt_up_av_config_write_audio_cfg_register
                0x008116a0                alt_up_av_config_read_video_cfg_register
                0x00811798                alt_up_av_config_write_video_cfg_register
                0x00811890                alt_up_av_config_read_DC2_cfg_register
                0x008118f4                alt_up_av_config_write_DC2_cfg_register
                0x00811958                alt_up_av_config_read_D5M_cfg_register
                0x008119bc                alt_up_av_config_write_D5M_cfg_register
                0x00811a20                alt_up_av_config_read_LTM_cfg_register
                0x00811a84                alt_up_av_config_write_LTM_cfg_register
 .text          0x00811ae8      0x530 ../attempt2_bsp//libucosii_bsp.a(altera_up_avalon_character_lcd.o)
                0x00811ae8                get_DDRAM_addr
                0x00811b64                alt_up_character_lcd_send_cmd
                0x00811b98                alt_up_character_lcd_init
                0x00811bcc                alt_up_character_lcd_open_dev
                0x00811c0c                alt_up_character_lcd_write
                0x00811c84                alt_up_character_lcd_string
                0x00811cfc                alt_up_character_lcd_write_fd
                0x00811d48                alt_up_character_lcd_set_cursor_pos
                0x00811dc0                alt_up_character_lcd_shift_cursor
                0x00811e70                alt_up_character_lcd_shift_display
                0x00811f20                alt_up_character_lcd_erase_pos
                0x00811fb0                alt_up_character_lcd_cursor_off
                0x00811fe4                alt_up_character_lcd_cursor_blink_on
 .text          0x00812018      0x154 ../attempt2_bsp//libucosii_bsp.a(alt_alarm_start.o)
                0x00812018                alt_alarm_start
 .text          0x0081216c       0x1c ../attempt2_bsp//libucosii_bsp.a(alt_dcache_flush_all.o)
                0x0081216c                alt_dcache_flush_all
 .text          0x00812188      0x114 ../attempt2_bsp//libucosii_bsp.a(alt_dev_llist_insert.o)
                0x00812188                alt_dev_llist_insert
 .text          0x0081229c       0x64 ../attempt2_bsp//libucosii_bsp.a(alt_do_ctors.o)
                0x0081229c                _do_ctors
 .text          0x00812300       0x64 ../attempt2_bsp//libucosii_bsp.a(alt_do_dtors.o)
                0x00812300                _do_dtors
 .text          0x00812364       0x94 ../attempt2_bsp//libucosii_bsp.a(alt_find_dev.o)
                0x00812364                alt_find_dev
 .text          0x008123f8       0x1c ../attempt2_bsp//libucosii_bsp.a(alt_icache_flush_all.o)
                0x008123f8                alt_icache_flush_all
 .text          0x00812414      0x150 ../attempt2_bsp//libucosii_bsp.a(alt_io_redirect.o)
                0x008124ec                alt_io_redirect
 .text          0x00812564      0x1c0 ../attempt2_bsp//libucosii_bsp.a(alt_irq_register.o)
                0x00812564                alt_irq_register
 .text          0x00812724        0x0 ../attempt2_bsp//libucosii_bsp.a(alt_irq_vars.o)
 .text          0x00812724      0x2e4 ../attempt2_bsp//libucosii_bsp.a(alt_open.o)
                0x0081281c                open
 .text          0x00812a08      0x1a8 ../attempt2_bsp//libucosii_bsp.a(alt_tick.o)
                0x00812a08                alt_alarm_stop
                0x00812aa0                alt_tick
 .text          0x00812bb0       0x20 ../attempt2_bsp//libucosii_bsp.a(altera_nios2_qsys_irq.o)
                0x00812bb0                altera_nios2_qsys_irq_init
 .text          0x00812bd0       0xd0 ../attempt2_bsp//libucosii_bsp.a(os_cpu_a.o)
                0x00812bd0                OSCtxSw
                0x00812bd0                OSIntCtxSw
                0x00812c5c                OSStartHighRdy
                0x00812c7c                OSStartTsk
 .text          0x00812ca0      0x418 ../attempt2_bsp//libucosii_bsp.a(os_cpu_c.o)
                0x00812ca0                OSTaskStkInit
                0x00812fb0                OSTaskCreateHook
                0x00812fd0                OSTaskDelHook
                0x00812ff0                OSTaskSwHook
                0x0081300c                OSTaskStatHook
                0x00813028                OSTimeTickHook
                0x00813044                OSInitHookBegin
                0x00813060                OSInitHookEnd
                0x0081307c                OSTaskIdleHook
                0x00813098                OSTCBInitHook
 .text          0x008130b8      0x120 ../attempt2_bsp//libucosii_bsp.a(alt_find_file.o)
                0x008130b8                alt_find_file
 .text          0x008131d8      0x104 ../attempt2_bsp//libucosii_bsp.a(alt_get_fd.o)
                0x008131d8                alt_get_fd
 .text          0x008132dc        0x0 ../attempt2_bsp//libucosii_bsp.a(alt_irq_entry.o)
 .text          0x008132dc        0x0 ../attempt2_bsp//libucosii_bsp.a(alt_irq_handler.o)
 .text          0x008132dc        0x0 ../attempt2_bsp//libucosii_bsp.a(alt_exception_entry.o)
 .text          0x008132dc       0x14 /OPT/altera/12.1/nios2eds/bin/gnu/H-i686-pc-linux-gnu/bin/../lib/gcc/nios2-elf/4.1.2/../../../../nios2-elf/lib/mno-hw-mul/libc.a(lib_a-atexit.o)
                0x008132dc                atexit
 .text          0x008132f0       0x38 /OPT/altera/12.1/nios2eds/bin/gnu/H-i686-pc-linux-gnu/bin/../lib/gcc/nios2-elf/4.1.2/../../../../nios2-elf/lib/mno-hw-mul/libc.a(lib_a-exit.o)
                0x008132f0                exit
 .text          0x00813328       0x74 /OPT/altera/12.1/nios2eds/bin/gnu/H-i686-pc-linux-gnu/bin/../lib/gcc/nios2-elf/4.1.2/../../../../nios2-elf/lib/mno-hw-mul/libc.a(lib_a-memcmp.o)
                0x00813328                memcmp
 .text          0x0081339c      0x134 /OPT/altera/12.1/nios2eds/bin/gnu/H-i686-pc-linux-gnu/bin/../lib/gcc/nios2-elf/4.1.2/../../../../nios2-elf/lib/mno-hw-mul/libc.a(lib_a-__atexit.o)
                0x0081339c                __register_exitproc
 .text          0x008134d0      0x1b4 /OPT/altera/12.1/nios2eds/bin/gnu/H-i686-pc-linux-gnu/bin/../lib/gcc/nios2-elf/4.1.2/../../../../nios2-elf/lib/mno-hw-mul/libc.a(lib_a-__call_atexit.o)
                0x008134d4                __call_exitprocs
 .text          0x00813684       0x6c ../attempt2_bsp//libucosii_bsp.a(alt_exit.o)
                0x008136c4                _exit
 *(.gnu.warning.*)
 *(.fini)
                0x008136f0                PROVIDE (__etext, ABSOLUTE (.))
                0x008136f0                PROVIDE (_etext, ABSOLUTE (.))
                0x008136f0                PROVIDE (etext, ABSOLUTE (.))
 *(.eh_frame_hdr)
                0x008136f0                . = ALIGN (0x4)
                0x008136f0                PROVIDE (__preinit_array_start, ABSOLUTE (.))
 *(.preinit_array)
                0x008136f0                PROVIDE (__preinit_array_end, ABSOLUTE (.))
                0x008136f0                PROVIDE (__init_array_start, ABSOLUTE (.))
 *(.init_array)
                0x008136f0                PROVIDE (__init_array_end, ABSOLUTE (.))
                0x008136f0                PROVIDE (__fini_array_start, ABSOLUTE (.))
 *(.fini_array)
                0x008136f0                PROVIDE (__fini_array_end, ABSOLUTE (.))
 *(.eh_frame)
 *(.gcc_except_table)
 *(.dynamic)
                0x008136f0                PROVIDE (__CTOR_LIST__, ABSOLUTE (.))
 *(.ctors)
 *(SORT(.ctors.*))
 .ctors.65535   0x008136f0        0x4 /OPT/altera/12.1/nios2eds/bin/gnu/H-i686-pc-linux-gnu/bin/../lib/gcc/nios2-elf/4.1.2/../../../../nios2-elf/lib/mno-hw-mul/libc.a(lib_a-__call_atexit.o)
                0x008136f4                PROVIDE (__CTOR_END__, ABSOLUTE (.))
                0x008136f4                PROVIDE (__DTOR_LIST__, ABSOLUTE (.))
 *(.dtors)
 *(SORT(.dtors.*))
                0x008136f4                PROVIDE (__DTOR_END__, ABSOLUTE (.))
 *(.jcr)
                0x008136f4                . = ALIGN (0x4)

.rodata         0x008136f4      0x55c
                0x008136f4                PROVIDE (__ram_rodata_start, ABSOLUTE (.))
                0x008136f4                . = ALIGN (0x4)
 *(.rodata .rodata.* .gnu.linkonce.r.*)
 .rodata        0x008136f4       0xc8 obj/default/hello_ucosii.o
 .rodata        0x008137bc      0x188 /OPT/altera/12.1/nios2eds/bin/gnu/H-i686-pc-linux-gnu/bin/../lib/gcc/nios2-elf/4.1.2/../../../../nios2-elf/lib/mno-hw-mul/libm.a(lib_a-e_rem_pio2.o)
 .rodata        0x00813944       0x50 /OPT/altera/12.1/nios2eds/bin/gnu/H-i686-pc-linux-gnu/bin/../lib/gcc/nios2-elf/4.1.2/../../../../nios2-elf/lib/mno-hw-mul/libm.a(lib_a-k_rem_pio2.o)
 .rodata        0x00813994       0x14 /OPT/altera/12.1/nios2eds/bin/gnu/H-i686-pc-linux-gnu/bin/../lib/gcc/nios2-elf/4.1.2/mno-hw-mul/libgcc.a(_thenan_df.o)
                0x00813994                __thenan_df
 .rodata        0x008139a8      0x100 /OPT/altera/12.1/nios2eds/bin/gnu/H-i686-pc-linux-gnu/bin/../lib/gcc/nios2-elf/4.1.2/mno-hw-mul/libgcc.a(_clz.o)
                0x008139a8                __clz_tab
 .rodata.str1.4
                0x00813aa8        0x2 /OPT/altera/12.1/nios2eds/bin/gnu/H-i686-pc-linux-gnu/bin/../lib/gcc/nios2-elf/4.1.2/../../../../nios2-elf/lib/mno-hw-mul/libc.a(lib_a-puts.o)
                                  0x4 (size before relaxing)
 *fill*         0x00813aaa        0x2 00
 .rodata.str1.4
                0x00813aac        0x4 /OPT/altera/12.1/nios2eds/bin/gnu/H-i686-pc-linux-gnu/bin/../lib/gcc/nios2-elf/4.1.2/../../../../nios2-elf/lib/mno-hw-mul/libc.a(lib_a-impure.o)
 .rodata        0x00813ab0        0xc ../attempt2_bsp//libucosii_bsp.a(alt_dev.o)
 .rodata        0x00813abc       0x14 ../attempt2_bsp//libucosii_bsp.a(alt_main.o)
 .rodata        0x00813ad0      0x120 ../attempt2_bsp//libucosii_bsp.a(os_core.o)
                0x00813ad0                OSUnMapTbl
 .rodata        0x00813bf0       0x5c ../attempt2_bsp//libucosii_bsp.a(alt_sys_init.o)
 .rodata        0x00813c4c        0x4 ../attempt2_bsp//libucosii_bsp.a(os_cpu_c.o)
 *(.rodata1)
                0x00813c50                . = ALIGN (0x4)
                0x00813c50                PROVIDE (__ram_rodata_end, ABSOLUTE (.))
                0x008136f4                PROVIDE (__flash_rodata_start, LOADADDR (.rodata))

.rwdata         0x00813c50     0x1b5c load address 0x008157ac
                0x00813c50                PROVIDE (__ram_rwdata_start, ABSOLUTE (.))
                0x00813c50                . = ALIGN (0x4)
 *(.got.plt)
 *(.got)
 *(.data1)
 *(.data .data.* .gnu.linkonce.d.*)
 .data          0x00813c50        0x0 ../attempt2_bsp//obj/HAL/src/crt0.o
 .data          0x00813c50        0x0 obj/default/hello_ucosii.o
 .data          0x00813c50        0x0 /OPT/altera/12.1/nios2eds/bin/gnu/H-i686-pc-linux-gnu/bin/../lib/gcc/nios2-elf/4.1.2/../../../../nios2-elf/lib/mno-hw-mul/libm.a(lib_a-s_sin.o)
 .data          0x00813c50        0x0 /OPT/altera/12.1/nios2eds/bin/gnu/H-i686-pc-linux-gnu/bin/../lib/gcc/nios2-elf/4.1.2/../../../../nios2-elf/lib/mno-hw-mul/libm.a(lib_a-e_rem_pio2.o)
 .data          0x00813c50        0x0 /OPT/altera/12.1/nios2eds/bin/gnu/H-i686-pc-linux-gnu/bin/../lib/gcc/nios2-elf/4.1.2/../../../../nios2-elf/lib/mno-hw-mul/libm.a(lib_a-k_cos.o)
 .data          0x00813c50        0x0 /OPT/altera/12.1/nios2eds/bin/gnu/H-i686-pc-linux-gnu/bin/../lib/gcc/nios2-elf/4.1.2/../../../../nios2-elf/lib/mno-hw-mul/libm.a(lib_a-k_rem_pio2.o)
 .data          0x00813c50        0x0 /OPT/altera/12.1/nios2eds/bin/gnu/H-i686-pc-linux-gnu/bin/../lib/gcc/nios2-elf/4.1.2/../../../../nios2-elf/lib/mno-hw-mul/libm.a(lib_a-k_sin.o)
 .data          0x00813c50        0x0 /OPT/altera/12.1/nios2eds/bin/gnu/H-i686-pc-linux-gnu/bin/../lib/gcc/nios2-elf/4.1.2/../../../../nios2-elf/lib/mno-hw-mul/libm.a(lib_a-s_fabs.o)
 .data          0x00813c50        0x0 /OPT/altera/12.1/nios2eds/bin/gnu/H-i686-pc-linux-gnu/bin/../lib/gcc/nios2-elf/4.1.2/../../../../nios2-elf/lib/mno-hw-mul/libm.a(lib_a-s_floor.o)
 .data          0x00813c50        0x0 /OPT/altera/12.1/nios2eds/bin/gnu/H-i686-pc-linux-gnu/bin/../lib/gcc/nios2-elf/4.1.2/../../../../nios2-elf/lib/mno-hw-mul/libm.a(lib_a-s_scalbn.o)
 .data          0x00813c50        0x0 /OPT/altera/12.1/nios2eds/bin/gnu/H-i686-pc-linux-gnu/bin/../lib/gcc/nios2-elf/4.1.2/../../../../nios2-elf/lib/mno-hw-mul/libm.a(lib_a-s_copysign.o)
 .data          0x00813c50        0x0 /OPT/altera/12.1/nios2eds/bin/gnu/H-i686-pc-linux-gnu/bin/../lib/gcc/nios2-elf/4.1.2/mno-hw-mul/libgcc.a(_fixunsdfsi.o)
 .data          0x00813c50        0x0 /OPT/altera/12.1/nios2eds/bin/gnu/H-i686-pc-linux-gnu/bin/../lib/gcc/nios2-elf/4.1.2/mno-hw-mul/libgcc.a(_addsub_df.o)
 .data          0x00813c50        0x0 /OPT/altera/12.1/nios2eds/bin/gnu/H-i686-pc-linux-gnu/bin/../lib/gcc/nios2-elf/4.1.2/mno-hw-mul/libgcc.a(_mul_df.o)
 .data          0x00813c50        0x0 /OPT/altera/12.1/nios2eds/bin/gnu/H-i686-pc-linux-gnu/bin/../lib/gcc/nios2-elf/4.1.2/mno-hw-mul/libgcc.a(_div_df.o)
 .data          0x00813c50        0x0 /OPT/altera/12.1/nios2eds/bin/gnu/H-i686-pc-linux-gnu/bin/../lib/gcc/nios2-elf/4.1.2/mno-hw-mul/libgcc.a(_eq_df.o)
 .data          0x00813c50        0x0 /OPT/altera/12.1/nios2eds/bin/gnu/H-i686-pc-linux-gnu/bin/../lib/gcc/nios2-elf/4.1.2/mno-hw-mul/libgcc.a(_gt_df.o)
 .data          0x00813c50        0x0 /OPT/altera/12.1/nios2eds/bin/gnu/H-i686-pc-linux-gnu/bin/../lib/gcc/nios2-elf/4.1.2/mno-hw-mul/libgcc.a(_ge_df.o)
 .data          0x00813c50        0x0 /OPT/altera/12.1/nios2eds/bin/gnu/H-i686-pc-linux-gnu/bin/../lib/gcc/nios2-elf/4.1.2/mno-hw-mul/libgcc.a(_si_to_df.o)
 .data          0x00813c50        0x0 /OPT/altera/12.1/nios2eds/bin/gnu/H-i686-pc-linux-gnu/bin/../lib/gcc/nios2-elf/4.1.2/mno-hw-mul/libgcc.a(_df_to_si.o)
 .data          0x00813c50        0x0 /OPT/altera/12.1/nios2eds/bin/gnu/H-i686-pc-linux-gnu/bin/../lib/gcc/nios2-elf/4.1.2/mno-hw-mul/libgcc.a(_thenan_df.o)
 .data          0x00813c50        0x0 /OPT/altera/12.1/nios2eds/bin/gnu/H-i686-pc-linux-gnu/bin/../lib/gcc/nios2-elf/4.1.2/mno-hw-mul/libgcc.a(lib2-divmod.o)
 .data          0x00813c50        0x0 /OPT/altera/12.1/nios2eds/bin/gnu/H-i686-pc-linux-gnu/bin/../lib/gcc/nios2-elf/4.1.2/mno-hw-mul/libgcc.a(lib2-mul.o)
 .data          0x00813c50        0x0 /OPT/altera/12.1/nios2eds/bin/gnu/H-i686-pc-linux-gnu/bin/../lib/gcc/nios2-elf/4.1.2/mno-hw-mul/libgcc.a(_muldi3.o)
 .data          0x00813c50        0x0 /OPT/altera/12.1/nios2eds/bin/gnu/H-i686-pc-linux-gnu/bin/../lib/gcc/nios2-elf/4.1.2/mno-hw-mul/libgcc.a(_clzsi2.o)
 .data          0x00813c50        0x0 /OPT/altera/12.1/nios2eds/bin/gnu/H-i686-pc-linux-gnu/bin/../lib/gcc/nios2-elf/4.1.2/mno-hw-mul/libgcc.a(_pack_df.o)
 .data          0x00813c50        0x0 /OPT/altera/12.1/nios2eds/bin/gnu/H-i686-pc-linux-gnu/bin/../lib/gcc/nios2-elf/4.1.2/mno-hw-mul/libgcc.a(_unpack_df.o)
 .data          0x00813c50        0x0 /OPT/altera/12.1/nios2eds/bin/gnu/H-i686-pc-linux-gnu/bin/../lib/gcc/nios2-elf/4.1.2/mno-hw-mul/libgcc.a(_fpcmp_parts_df.o)
 .data          0x00813c50        0x0 /OPT/altera/12.1/nios2eds/bin/gnu/H-i686-pc-linux-gnu/bin/../lib/gcc/nios2-elf/4.1.2/mno-hw-mul/libgcc.a(_clz.o)
 .data          0x00813c50        0x0 /OPT/altera/12.1/nios2eds/bin/gnu/H-i686-pc-linux-gnu/bin/../lib/gcc/nios2-elf/4.1.2/../../../../nios2-elf/lib/mno-hw-mul/libc.a(lib_a-puts.o)
 .data          0x00813c50        0x0 /OPT/altera/12.1/nios2eds/bin/gnu/H-i686-pc-linux-gnu/bin/../lib/gcc/nios2-elf/4.1.2/../../../../nios2-elf/lib/mno-hw-mul/libc.a(lib_a-strlen.o)
 .data          0x00813c50        0x0 /OPT/altera/12.1/nios2eds/bin/gnu/H-i686-pc-linux-gnu/bin/../lib/gcc/nios2-elf/4.1.2/../../../../nios2-elf/lib/mno-hw-mul/libc.a(lib_a-fvwrite.o)
 .data          0x00813c50      0x400 /OPT/altera/12.1/nios2eds/bin/gnu/H-i686-pc-linux-gnu/bin/../lib/gcc/nios2-elf/4.1.2/../../../../nios2-elf/lib/mno-hw-mul/libc.a(lib_a-impure.o)
 .data          0x00814050      0x408 /OPT/altera/12.1/nios2eds/bin/gnu/H-i686-pc-linux-gnu/bin/../lib/gcc/nios2-elf/4.1.2/../../../../nios2-elf/lib/mno-hw-mul/libc.a(lib_a-mallocr.o)
                0x00814050                __malloc_av_
 .data          0x00814458        0x0 /OPT/altera/12.1/nios2eds/bin/gnu/H-i686-pc-linux-gnu/bin/../lib/gcc/nios2-elf/4.1.2/../../../../nios2-elf/lib/mno-hw-mul/libc.a(lib_a-memchr.o)
 .data          0x00814458        0x0 /OPT/altera/12.1/nios2eds/bin/gnu/H-i686-pc-linux-gnu/bin/../lib/gcc/nios2-elf/4.1.2/../../../../nios2-elf/lib/mno-hw-mul/libc.a(lib_a-memcpy.o)
 .data          0x00814458        0x0 /OPT/altera/12.1/nios2eds/bin/gnu/H-i686-pc-linux-gnu/bin/../lib/gcc/nios2-elf/4.1.2/../../../../nios2-elf/lib/mno-hw-mul/libc.a(lib_a-memmove.o)
 .data          0x00814458        0x0 /OPT/altera/12.1/nios2eds/bin/gnu/H-i686-pc-linux-gnu/bin/../lib/gcc/nios2-elf/4.1.2/../../../../nios2-elf/lib/mno-hw-mul/libc.a(lib_a-reallocr.o)
 .data          0x00814458        0x0 /OPT/altera/12.1/nios2eds/bin/gnu/H-i686-pc-linux-gnu/bin/../lib/gcc/nios2-elf/4.1.2/../../../../nios2-elf/lib/mno-hw-mul/libc.a(lib_a-sbrkr.o)
 .data          0x00814458        0x0 /OPT/altera/12.1/nios2eds/bin/gnu/H-i686-pc-linux-gnu/bin/../lib/gcc/nios2-elf/4.1.2/../../../../nios2-elf/lib/mno-hw-mul/libc.a(lib_a-wsetup.o)
 .data          0x00814458        0x0 /OPT/altera/12.1/nios2eds/bin/gnu/H-i686-pc-linux-gnu/bin/../lib/gcc/nios2-elf/4.1.2/../../../../nios2-elf/lib/mno-hw-mul/libc.a(lib_a-fflush.o)
 .data          0x00814458        0x0 /OPT/altera/12.1/nios2eds/bin/gnu/H-i686-pc-linux-gnu/bin/../lib/gcc/nios2-elf/4.1.2/../../../../nios2-elf/lib/mno-hw-mul/libc.a(lib_a-findfp.o)
 .data          0x00814458        0x0 /OPT/altera/12.1/nios2eds/bin/gnu/H-i686-pc-linux-gnu/bin/../lib/gcc/nios2-elf/4.1.2/../../../../nios2-elf/lib/mno-hw-mul/libc.a(lib_a-freer.o)
 .data          0x00814458        0x0 /OPT/altera/12.1/nios2eds/bin/gnu/H-i686-pc-linux-gnu/bin/../lib/gcc/nios2-elf/4.1.2/../../../../nios2-elf/lib/mno-hw-mul/libc.a(lib_a-fwalk.o)
 .data          0x00814458        0x0 /OPT/altera/12.1/nios2eds/bin/gnu/H-i686-pc-linux-gnu/bin/../lib/gcc/nios2-elf/4.1.2/../../../../nios2-elf/lib/mno-hw-mul/libc.a(lib_a-int_errno.o)
 .data          0x00814458        0x0 /OPT/altera/12.1/nios2eds/bin/gnu/H-i686-pc-linux-gnu/bin/../lib/gcc/nios2-elf/4.1.2/../../../../nios2-elf/lib/mno-hw-mul/libc.a(lib_a-makebuf.o)
 .data          0x00814458        0x0 /OPT/altera/12.1/nios2eds/bin/gnu/H-i686-pc-linux-gnu/bin/../lib/gcc/nios2-elf/4.1.2/../../../../nios2-elf/lib/mno-hw-mul/libc.a(lib_a-memset.o)
 .data          0x00814458        0x0 /OPT/altera/12.1/nios2eds/bin/gnu/H-i686-pc-linux-gnu/bin/../lib/gcc/nios2-elf/4.1.2/../../../../nios2-elf/lib/mno-hw-mul/libc.a(lib_a-stdio.o)
 .data          0x00814458        0x0 /OPT/altera/12.1/nios2eds/bin/gnu/H-i686-pc-linux-gnu/bin/../lib/gcc/nios2-elf/4.1.2/../../../../nios2-elf/lib/mno-hw-mul/libc.a(lib_a-writer.o)
 .data          0x00814458        0x0 /OPT/altera/12.1/nios2eds/bin/gnu/H-i686-pc-linux-gnu/bin/../lib/gcc/nios2-elf/4.1.2/../../../../nios2-elf/lib/mno-hw-mul/libc.a(lib_a-closer.o)
 .data          0x00814458        0x0 /OPT/altera/12.1/nios2eds/bin/gnu/H-i686-pc-linux-gnu/bin/../lib/gcc/nios2-elf/4.1.2/../../../../nios2-elf/lib/mno-hw-mul/libc.a(lib_a-fclose.o)
 .data          0x00814458        0x0 /OPT/altera/12.1/nios2eds/bin/gnu/H-i686-pc-linux-gnu/bin/../lib/gcc/nios2-elf/4.1.2/../../../../nios2-elf/lib/mno-hw-mul/libc.a(lib_a-fstatr.o)
 .data          0x00814458        0x0 /OPT/altera/12.1/nios2eds/bin/gnu/H-i686-pc-linux-gnu/bin/../lib/gcc/nios2-elf/4.1.2/../../../../nios2-elf/lib/mno-hw-mul/libc.a(lib_a-isattyr.o)
 .data          0x00814458        0x0 /OPT/altera/12.1/nios2eds/bin/gnu/H-i686-pc-linux-gnu/bin/../lib/gcc/nios2-elf/4.1.2/../../../../nios2-elf/lib/mno-hw-mul/libc.a(lib_a-lseekr.o)
 .data          0x00814458        0x0 /OPT/altera/12.1/nios2eds/bin/gnu/H-i686-pc-linux-gnu/bin/../lib/gcc/nios2-elf/4.1.2/../../../../nios2-elf/lib/mno-hw-mul/libc.a(lib_a-readr.o)
 .data          0x00814458        0x0 ../attempt2_bsp//libucosii_bsp.a(alt_close.o)
 .data          0x00814458      0x1a8 ../attempt2_bsp//libucosii_bsp.a(alt_dev.o)
                0x00814458                alt_dev_null
                0x00814480                alt_fd_list
 .data          0x00814600        0x0 ../attempt2_bsp//libucosii_bsp.a(alt_errno.o)
 .data          0x00814600        0x0 ../attempt2_bsp//libucosii_bsp.a(alt_fstat.o)
 .data          0x00814600        0x0 ../attempt2_bsp//libucosii_bsp.a(alt_isatty.o)
 .data          0x00814600        0x0 ../attempt2_bsp//libucosii_bsp.a(alt_load.o)
 .data          0x00814600        0x0 ../attempt2_bsp//libucosii_bsp.a(alt_lseek.o)
 .data          0x00814600        0x0 ../attempt2_bsp//libucosii_bsp.a(alt_main.o)
 .data          0x00814600        0x0 ../attempt2_bsp//libucosii_bsp.a(alt_read.o)
 .data          0x00814600        0x0 ../attempt2_bsp//libucosii_bsp.a(alt_release_fd.o)
 .data          0x00814600        0x0 ../attempt2_bsp//libucosii_bsp.a(alt_sbrk.o)
 .data          0x00814600        0x0 ../attempt2_bsp//libucosii_bsp.a(alt_write.o)
 .data          0x00814600        0x0 ../attempt2_bsp//libucosii_bsp.a(alt_env_lock.o)
 .data          0x00814600        0x0 ../attempt2_bsp//libucosii_bsp.a(alt_malloc_lock.o)
 .data          0x00814600        0x0 ../attempt2_bsp//libucosii_bsp.a(os_core.o)
 .data          0x00814600        0x0 ../attempt2_bsp//libucosii_bsp.a(os_dbg.o)
 .data          0x00814600        0x0 ../attempt2_bsp//libucosii_bsp.a(os_flag.o)
 .data          0x00814600        0x0 ../attempt2_bsp//libucosii_bsp.a(os_mem.o)
 .data          0x00814600        0x0 ../attempt2_bsp//libucosii_bsp.a(os_q.o)
 .data          0x00814600        0x0 ../attempt2_bsp//libucosii_bsp.a(os_sem.o)
 .data          0x00814600        0x0 ../attempt2_bsp//libucosii_bsp.a(os_task.o)
 .data          0x00814600        0x0 ../attempt2_bsp//libucosii_bsp.a(os_time.o)
 .data          0x00814600     0x10f8 ../attempt2_bsp//libucosii_bsp.a(alt_sys_init.o)
 .data          0x008156f8        0x0 ../attempt2_bsp//libucosii_bsp.a(altera_avalon_jtag_uart_fd.o)
 .data          0x008156f8        0x0 ../attempt2_bsp//libucosii_bsp.a(altera_avalon_jtag_uart_init.o)
 .data          0x008156f8        0x0 ../attempt2_bsp//libucosii_bsp.a(altera_avalon_jtag_uart_ioctl.o)
 .data          0x008156f8        0x0 ../attempt2_bsp//libucosii_bsp.a(altera_avalon_jtag_uart_read.o)
 .data          0x008156f8        0x0 ../attempt2_bsp//libucosii_bsp.a(altera_avalon_jtag_uart_write.o)
 .data          0x008156f8        0x0 ../attempt2_bsp//libucosii_bsp.a(altera_avalon_timer_sc.o)
 .data          0x008156f8        0x0 ../attempt2_bsp//libucosii_bsp.a(altera_up_avalon_audio.o)
 .data          0x008156f8        0x0 ../attempt2_bsp//libucosii_bsp.a(altera_up_avalon_audio_and_video_config.o)
 .data          0x008156f8        0x0 ../attempt2_bsp//libucosii_bsp.a(altera_up_avalon_character_lcd.o)
 .data          0x008156f8        0x0 ../attempt2_bsp//libucosii_bsp.a(alt_alarm_start.o)
 .data          0x008156f8        0x0 ../attempt2_bsp//libucosii_bsp.a(alt_dcache_flush_all.o)
 .data          0x008156f8        0x0 ../attempt2_bsp//libucosii_bsp.a(alt_dev_llist_insert.o)
 .data          0x008156f8        0x0 ../attempt2_bsp//libucosii_bsp.a(alt_do_ctors.o)
 .data          0x008156f8        0x0 ../attempt2_bsp//libucosii_bsp.a(alt_do_dtors.o)
 .data          0x008156f8        0x0 ../attempt2_bsp//libucosii_bsp.a(alt_find_dev.o)
 .data          0x008156f8        0x0 ../attempt2_bsp//libucosii_bsp.a(alt_icache_flush_all.o)
 .data          0x008156f8        0x0 ../attempt2_bsp//libucosii_bsp.a(alt_io_redirect.o)
 .data          0x008156f8        0x0 ../attempt2_bsp//libucosii_bsp.a(alt_irq_register.o)
 .data          0x008156f8        0x0 ../attempt2_bsp//libucosii_bsp.a(alt_irq_vars.o)
 .data          0x008156f8        0x0 ../attempt2_bsp//libucosii_bsp.a(alt_open.o)
 .data          0x008156f8        0x0 ../attempt2_bsp//libucosii_bsp.a(alt_tick.o)
 .data          0x008156f8        0x0 ../attempt2_bsp//libucosii_bsp.a(altera_nios2_qsys_irq.o)
 .data          0x008156f8        0x0 ../attempt2_bsp//libucosii_bsp.a(os_cpu_a.o)
 .data          0x008156f8        0x0 ../attempt2_bsp//libucosii_bsp.a(os_cpu_c.o)
 .data          0x008156f8        0x0 ../attempt2_bsp//libucosii_bsp.a(alt_find_file.o)
 .data          0x008156f8        0x0 ../attempt2_bsp//libucosii_bsp.a(alt_get_fd.o)
 .data          0x008156f8        0x0 ../attempt2_bsp//libucosii_bsp.a(alt_irq_entry.o)
 .data          0x008156f8        0x0 ../attempt2_bsp//libucosii_bsp.a(alt_irq_handler.o)
 .data          0x008156f8        0x0 ../attempt2_bsp//libucosii_bsp.a(alt_exception_entry.o)
 .data          0x008156f8        0x0 /OPT/altera/12.1/nios2eds/bin/gnu/H-i686-pc-linux-gnu/bin/../lib/gcc/nios2-elf/4.1.2/../../../../nios2-elf/lib/mno-hw-mul/libc.a(lib_a-atexit.o)
 .data          0x008156f8        0x0 /OPT/altera/12.1/nios2eds/bin/gnu/H-i686-pc-linux-gnu/bin/../lib/gcc/nios2-elf/4.1.2/../../../../nios2-elf/lib/mno-hw-mul/libc.a(lib_a-exit.o)
 .data          0x008156f8        0x0 /OPT/altera/12.1/nios2eds/bin/gnu/H-i686-pc-linux-gnu/bin/../lib/gcc/nios2-elf/4.1.2/../../../../nios2-elf/lib/mno-hw-mul/libc.a(lib_a-memcmp.o)
 .data          0x008156f8        0x0 /OPT/altera/12.1/nios2eds/bin/gnu/H-i686-pc-linux-gnu/bin/../lib/gcc/nios2-elf/4.1.2/../../../../nios2-elf/lib/mno-hw-mul/libc.a(lib_a-__atexit.o)
 .data          0x008156f8        0x0 /OPT/altera/12.1/nios2eds/bin/gnu/H-i686-pc-linux-gnu/bin/../lib/gcc/nios2-elf/4.1.2/../../../../nios2-elf/lib/mno-hw-mul/libc.a(lib_a-__call_atexit.o)
 .data          0x008156f8        0x0 ../attempt2_bsp//libucosii_bsp.a(alt_exit.o)
                0x0081d6f8                _gp = ABSOLUTE ((. + 0x8000))
                0x0081d6f8                PROVIDE (gp, _gp)
 *(.rwdata .rwdata.*)
 *(.sdata .sdata.* .gnu.linkonce.s.*)
 .sdata         0x008156f8        0x8 /OPT/altera/12.1/nios2eds/bin/gnu/H-i686-pc-linux-gnu/bin/../lib/gcc/nios2-elf/4.1.2/../../../../nios2-elf/lib/mno-hw-mul/libc.a(lib_a-impure.o)
                0x008156f8                _impure_ptr
                0x008156fc                _global_impure_ptr
 .sdata         0x00815700        0x8 /OPT/altera/12.1/nios2eds/bin/gnu/H-i686-pc-linux-gnu/bin/../lib/gcc/nios2-elf/4.1.2/../../../../nios2-elf/lib/mno-hw-mul/libc.a(lib_a-mallocr.o)
                0x00815700                __malloc_trim_threshold
                0x00815704                __malloc_sbrk_base
 .sdata         0x00815708       0x14 ../attempt2_bsp//libucosii_bsp.a(alt_dev.o)
                0x00815708                alt_fs_list
                0x00815710                alt_dev_list
                0x00815718                alt_max_fd
 .sdata         0x0081571c        0x4 ../attempt2_bsp//libucosii_bsp.a(alt_errno.o)
                0x0081571c                alt_errno
 .sdata         0x00815720        0x4 ../attempt2_bsp//libucosii_bsp.a(alt_sbrk.o)
 .sdata         0x00815724        0x4 ../attempt2_bsp//libucosii_bsp.a(alt_env_lock.o)
 .sdata         0x00815728        0x4 ../attempt2_bsp//libucosii_bsp.a(alt_malloc_lock.o)
 .sdata         0x0081572c       0x74 ../attempt2_bsp//libucosii_bsp.a(os_dbg.o)
                0x0081572c                OSDebugEn
                0x00815730                OSEndiannessTest
                0x00815734                OSEventEn
                0x00815736                OSEventMax
                0x00815738                OSEventNameSize
                0x0081573a                OSEventSize
                0x0081573c                OSEventTblSize
                0x0081573e                OSEventMultiEn
                0x00815740                OSFlagEn
                0x00815742                OSFlagGrpSize
                0x00815744                OSFlagNodeSize
                0x00815746                OSFlagWidth
                0x00815748                OSFlagMax
                0x0081574a                OSFlagNameSize
                0x0081574c                OSLowestPrio
                0x0081574e                OSMboxEn
                0x00815750                OSMemEn
                0x00815752                OSMemMax
                0x00815754                OSMemNameSize
                0x00815756                OSMemSize
                0x00815758                OSMemTblSize
                0x0081575a                OSMutexEn
                0x0081575c                OSPtrSize
                0x0081575e                OSQEn
                0x00815760                OSQMax
                0x00815762                OSQSize
                0x00815764                OSRdyTblSize
                0x00815766                OSSemEn
                0x00815768                OSStkWidth
                0x0081576a                OSTaskCreateEn
                0x0081576c                OSTaskCreateExtEn
                0x0081576e                OSTaskDelEn
                0x00815770                OSTaskIdleStkSize
                0x00815772                OSTaskProfileEn
                0x00815774                OSTaskMax
                0x00815776                OSTaskNameSize
                0x00815778                OSTaskStatEn
                0x0081577a                OSTaskStatStkSize
                0x0081577c                OSTaskStatStkChkEn
                0x0081577e                OSTaskSwHookEn
                0x00815780                OSTCBPrioTblMax
                0x00815782                OSTCBSize
                0x00815784                OSTicksPerSec
                0x00815786                OSTimeTickHookEn
                0x00815788                OSVersionNbr
                0x0081578a                OSTmrEn
                0x0081578c                OSTmrCfgMax
                0x0081578e                OSTmrCfgNameSize
                0x00815790                OSTmrCfgWheelSize
                0x00815792                OSTmrCfgTicksPerSec
                0x00815794                OSTmrSize
                0x00815796                OSTmrTblSize
                0x00815798                OSTmrWheelSize
                0x0081579a                OSTmrWheelTblSize
                0x0081579c                OSDataSize
 .sdata         0x008157a0        0x4 ../attempt2_bsp//libucosii_bsp.a(alt_irq_vars.o)
                0x008157a0                alt_priority_mask
 .sdata         0x008157a4        0x8 ../attempt2_bsp//libucosii_bsp.a(alt_tick.o)
                0x008157a4                alt_alarm_list
 *(.sdata2 .sdata2.* .gnu.linkonce.s2.*)
                0x008157ac                . = ALIGN (0x4)
                0x008157ac                _edata = ABSOLUTE (.)
                0x008157ac                PROVIDE (edata, ABSOLUTE (.))
                0x008157ac                PROVIDE (__ram_rwdata_end, ABSOLUTE (.))
                0x008157ac                PROVIDE (__flash_rwdata_start, LOADADDR (.rwdata))

.bss            0x00817308     0x956c
                0x00817308                __bss_start = ABSOLUTE (.)
                0x00817308                PROVIDE (__sbss_start, ABSOLUTE (.))
                0x00817308                PROVIDE (___sbss_start, ABSOLUTE (.))
 *(.dynsbss)
 *(.sbss .sbss.* .gnu.linkonce.sb.*)
 .sbss          0x00817308        0x4 obj/default/hello_ucosii.o
                0x00817308                lcd_sem
 .sbss          0x0081730c        0xc /OPT/altera/12.1/nios2eds/bin/gnu/H-i686-pc-linux-gnu/bin/../lib/gcc/nios2-elf/4.1.2/../../../../nios2-elf/lib/mno-hw-mul/libc.a(lib_a-mallocr.o)
                0x0081730c                __malloc_top_pad
                0x00817310                __malloc_max_sbrked_mem
                0x00817314                __malloc_max_total_mem
 .sbss          0x00817318        0x4 /OPT/altera/12.1/nios2eds/bin/gnu/H-i686-pc-linux-gnu/bin/../lib/gcc/nios2-elf/4.1.2/../../../../nios2-elf/lib/mno-hw-mul/libc.a(lib_a-int_errno.o)
                0x00817318                errno
 .sbss          0x0081731c        0x4 ../attempt2_bsp//libucosii_bsp.a(alt_dev.o)
                0x0081731c                alt_fd_list_lock
 .sbss          0x00817320        0xc ../attempt2_bsp//libucosii_bsp.a(alt_main.o)
                0x00817320                alt_argc
                0x00817324                alt_argv
                0x00817328                alt_envp
 .sbss          0x0081732c        0x8 ../attempt2_bsp//libucosii_bsp.a(alt_env_lock.o)
                0x00817330                alt_envsem
 .sbss          0x00817334        0x8 ../attempt2_bsp//libucosii_bsp.a(alt_malloc_lock.o)
                0x00817338                alt_heapsem
 .sbss          0x0081733c       0x50 ../attempt2_bsp//libucosii_bsp.a(os_core.o)
                0x0081733c                OSLockNesting
                0x0081733d                OSRunning
                0x00817340                OSIdleCtr
                0x00817344                OSPrioHighRdy
                0x00817345                OSPrioCur
                0x00817348                OSTCBList
                0x0081734c                OSTickStepState
                0x00817350                OSCtxSwCtr
                0x00817354                OSIdleCtrMax
                0x00817358                OSTCBFreeList
                0x0081735c                OSCPUUsage
                0x0081735d                OSTaskCtr
                0x00817360                OSMemFreeList
                0x00817364                OSTCBHighRdy
                0x00817368                OSQFreeList
                0x0081736c                OSRdyGrp
                0x0081736d                OSRdyTbl
                0x00817370                OSEventFreeList
                0x00817374                OSIntNesting
                0x00817378                OSTCBCur
                0x0081737c                OSTime
                0x00817380                OSFlagFreeList
                0x00817384                OSStatRdy
                0x00817388                OSIdleCtrRun
 .sbss          0x0081738c        0x4 ../attempt2_bsp//libucosii_bsp.a(alt_irq_vars.o)
                0x0081738c                alt_irq_active
 .sbss          0x00817390        0x8 ../attempt2_bsp//libucosii_bsp.a(alt_tick.o)
                0x00817390                _alt_tick_rate
                0x00817394                _alt_nticks
 *(.sbss2 .sbss2.* .gnu.linkonce.sb2.*)
 *(.scommon)
                0x00817398                PROVIDE (__sbss_end, ABSOLUTE (.))
                0x00817398                PROVIDE (___sbss_end, ABSOLUTE (.))
 *(.dynbss)
 *(.bss .bss.* .gnu.linkonce.b.*)
 .bss           0x00817398        0x0 ../attempt2_bsp//obj/HAL/src/crt0.o
 .bss           0x00817398        0x0 obj/default/hello_ucosii.o
 .bss           0x00817398        0x0 /OPT/altera/12.1/nios2eds/bin/gnu/H-i686-pc-linux-gnu/bin/../lib/gcc/nios2-elf/4.1.2/../../../../nios2-elf/lib/mno-hw-mul/libm.a(lib_a-s_sin.o)
 .bss           0x00817398        0x0 /OPT/altera/12.1/nios2eds/bin/gnu/H-i686-pc-linux-gnu/bin/../lib/gcc/nios2-elf/4.1.2/../../../../nios2-elf/lib/mno-hw-mul/libm.a(lib_a-e_rem_pio2.o)
 .bss           0x00817398        0x0 /OPT/altera/12.1/nios2eds/bin/gnu/H-i686-pc-linux-gnu/bin/../lib/gcc/nios2-elf/4.1.2/../../../../nios2-elf/lib/mno-hw-mul/libm.a(lib_a-k_cos.o)
 .bss           0x00817398        0x0 /OPT/altera/12.1/nios2eds/bin/gnu/H-i686-pc-linux-gnu/bin/../lib/gcc/nios2-elf/4.1.2/../../../../nios2-elf/lib/mno-hw-mul/libm.a(lib_a-k_rem_pio2.o)
 .bss           0x00817398        0x0 /OPT/altera/12.1/nios2eds/bin/gnu/H-i686-pc-linux-gnu/bin/../lib/gcc/nios2-elf/4.1.2/../../../../nios2-elf/lib/mno-hw-mul/libm.a(lib_a-k_sin.o)
 .bss           0x00817398        0x0 /OPT/altera/12.1/nios2eds/bin/gnu/H-i686-pc-linux-gnu/bin/../lib/gcc/nios2-elf/4.1.2/../../../../nios2-elf/lib/mno-hw-mul/libm.a(lib_a-s_fabs.o)
 .bss           0x00817398        0x0 /OPT/altera/12.1/nios2eds/bin/gnu/H-i686-pc-linux-gnu/bin/../lib/gcc/nios2-elf/4.1.2/../../../../nios2-elf/lib/mno-hw-mul/libm.a(lib_a-s_floor.o)
 .bss           0x00817398        0x0 /OPT/altera/12.1/nios2eds/bin/gnu/H-i686-pc-linux-gnu/bin/../lib/gcc/nios2-elf/4.1.2/../../../../nios2-elf/lib/mno-hw-mul/libm.a(lib_a-s_scalbn.o)
 .bss           0x00817398        0x0 /OPT/altera/12.1/nios2eds/bin/gnu/H-i686-pc-linux-gnu/bin/../lib/gcc/nios2-elf/4.1.2/../../../../nios2-elf/lib/mno-hw-mul/libm.a(lib_a-s_copysign.o)
 .bss           0x00817398        0x0 /OPT/altera/12.1/nios2eds/bin/gnu/H-i686-pc-linux-gnu/bin/../lib/gcc/nios2-elf/4.1.2/mno-hw-mul/libgcc.a(_fixunsdfsi.o)
 .bss           0x00817398        0x0 /OPT/altera/12.1/nios2eds/bin/gnu/H-i686-pc-linux-gnu/bin/../lib/gcc/nios2-elf/4.1.2/mno-hw-mul/libgcc.a(_addsub_df.o)
 .bss           0x00817398        0x0 /OPT/altera/12.1/nios2eds/bin/gnu/H-i686-pc-linux-gnu/bin/../lib/gcc/nios2-elf/4.1.2/mno-hw-mul/libgcc.a(_mul_df.o)
 .bss           0x00817398        0x0 /OPT/altera/12.1/nios2eds/bin/gnu/H-i686-pc-linux-gnu/bin/../lib/gcc/nios2-elf/4.1.2/mno-hw-mul/libgcc.a(_div_df.o)
 .bss           0x00817398        0x0 /OPT/altera/12.1/nios2eds/bin/gnu/H-i686-pc-linux-gnu/bin/../lib/gcc/nios2-elf/4.1.2/mno-hw-mul/libgcc.a(_eq_df.o)
 .bss           0x00817398        0x0 /OPT/altera/12.1/nios2eds/bin/gnu/H-i686-pc-linux-gnu/bin/../lib/gcc/nios2-elf/4.1.2/mno-hw-mul/libgcc.a(_gt_df.o)
 .bss           0x00817398        0x0 /OPT/altera/12.1/nios2eds/bin/gnu/H-i686-pc-linux-gnu/bin/../lib/gcc/nios2-elf/4.1.2/mno-hw-mul/libgcc.a(_ge_df.o)
 .bss           0x00817398        0x0 /OPT/altera/12.1/nios2eds/bin/gnu/H-i686-pc-linux-gnu/bin/../lib/gcc/nios2-elf/4.1.2/mno-hw-mul/libgcc.a(_si_to_df.o)
 .bss           0x00817398        0x0 /OPT/altera/12.1/nios2eds/bin/gnu/H-i686-pc-linux-gnu/bin/../lib/gcc/nios2-elf/4.1.2/mno-hw-mul/libgcc.a(_df_to_si.o)
 .bss           0x00817398        0x0 /OPT/altera/12.1/nios2eds/bin/gnu/H-i686-pc-linux-gnu/bin/../lib/gcc/nios2-elf/4.1.2/mno-hw-mul/libgcc.a(_thenan_df.o)
 .bss           0x00817398        0x0 /OPT/altera/12.1/nios2eds/bin/gnu/H-i686-pc-linux-gnu/bin/../lib/gcc/nios2-elf/4.1.2/mno-hw-mul/libgcc.a(lib2-divmod.o)
 .bss           0x00817398        0x0 /OPT/altera/12.1/nios2eds/bin/gnu/H-i686-pc-linux-gnu/bin/../lib/gcc/nios2-elf/4.1.2/mno-hw-mul/libgcc.a(lib2-mul.o)
 .bss           0x00817398        0x0 /OPT/altera/12.1/nios2eds/bin/gnu/H-i686-pc-linux-gnu/bin/../lib/gcc/nios2-elf/4.1.2/mno-hw-mul/libgcc.a(_muldi3.o)
 .bss           0x00817398        0x0 /OPT/altera/12.1/nios2eds/bin/gnu/H-i686-pc-linux-gnu/bin/../lib/gcc/nios2-elf/4.1.2/mno-hw-mul/libgcc.a(_clzsi2.o)
 .bss           0x00817398        0x0 /OPT/altera/12.1/nios2eds/bin/gnu/H-i686-pc-linux-gnu/bin/../lib/gcc/nios2-elf/4.1.2/mno-hw-mul/libgcc.a(_pack_df.o)
 .bss           0x00817398        0x0 /OPT/altera/12.1/nios2eds/bin/gnu/H-i686-pc-linux-gnu/bin/../lib/gcc/nios2-elf/4.1.2/mno-hw-mul/libgcc.a(_unpack_df.o)
 .bss           0x00817398        0x0 /OPT/altera/12.1/nios2eds/bin/gnu/H-i686-pc-linux-gnu/bin/../lib/gcc/nios2-elf/4.1.2/mno-hw-mul/libgcc.a(_fpcmp_parts_df.o)
 .bss           0x00817398        0x0 /OPT/altera/12.1/nios2eds/bin/gnu/H-i686-pc-linux-gnu/bin/../lib/gcc/nios2-elf/4.1.2/mno-hw-mul/libgcc.a(_clz.o)
 .bss           0x00817398        0x0 /OPT/altera/12.1/nios2eds/bin/gnu/H-i686-pc-linux-gnu/bin/../lib/gcc/nios2-elf/4.1.2/../../../../nios2-elf/lib/mno-hw-mul/libc.a(lib_a-puts.o)
 .bss           0x00817398        0x0 /OPT/altera/12.1/nios2eds/bin/gnu/H-i686-pc-linux-gnu/bin/../lib/gcc/nios2-elf/4.1.2/../../../../nios2-elf/lib/mno-hw-mul/libc.a(lib_a-strlen.o)
 .bss           0x00817398        0x0 /OPT/altera/12.1/nios2eds/bin/gnu/H-i686-pc-linux-gnu/bin/../lib/gcc/nios2-elf/4.1.2/../../../../nios2-elf/lib/mno-hw-mul/libc.a(lib_a-fvwrite.o)
 .bss           0x00817398        0x0 /OPT/altera/12.1/nios2eds/bin/gnu/H-i686-pc-linux-gnu/bin/../lib/gcc/nios2-elf/4.1.2/../../../../nios2-elf/lib/mno-hw-mul/libc.a(lib_a-impure.o)
 .bss           0x00817398       0x28 /OPT/altera/12.1/nios2eds/bin/gnu/H-i686-pc-linux-gnu/bin/../lib/gcc/nios2-elf/4.1.2/../../../../nios2-elf/lib/mno-hw-mul/libc.a(lib_a-mallocr.o)
                0x00817398                __malloc_current_mallinfo
 .bss           0x008173c0        0x0 /OPT/altera/12.1/nios2eds/bin/gnu/H-i686-pc-linux-gnu/bin/../lib/gcc/nios2-elf/4.1.2/../../../../nios2-elf/lib/mno-hw-mul/libc.a(lib_a-memchr.o)
 .bss           0x008173c0        0x0 /OPT/altera/12.1/nios2eds/bin/gnu/H-i686-pc-linux-gnu/bin/../lib/gcc/nios2-elf/4.1.2/../../../../nios2-elf/lib/mno-hw-mul/libc.a(lib_a-memcpy.o)
 .bss           0x008173c0        0x0 /OPT/altera/12.1/nios2eds/bin/gnu/H-i686-pc-linux-gnu/bin/../lib/gcc/nios2-elf/4.1.2/../../../../nios2-elf/lib/mno-hw-mul/libc.a(lib_a-memmove.o)
 .bss           0x008173c0        0x0 /OPT/altera/12.1/nios2eds/bin/gnu/H-i686-pc-linux-gnu/bin/../lib/gcc/nios2-elf/4.1.2/../../../../nios2-elf/lib/mno-hw-mul/libc.a(lib_a-reallocr.o)
 .bss           0x008173c0        0x0 /OPT/altera/12.1/nios2eds/bin/gnu/H-i686-pc-linux-gnu/bin/../lib/gcc/nios2-elf/4.1.2/../../../../nios2-elf/lib/mno-hw-mul/libc.a(lib_a-sbrkr.o)
 .bss           0x008173c0        0x0 /OPT/altera/12.1/nios2eds/bin/gnu/H-i686-pc-linux-gnu/bin/../lib/gcc/nios2-elf/4.1.2/../../../../nios2-elf/lib/mno-hw-mul/libc.a(lib_a-wsetup.o)
 .bss           0x008173c0        0x0 /OPT/altera/12.1/nios2eds/bin/gnu/H-i686-pc-linux-gnu/bin/../lib/gcc/nios2-elf/4.1.2/../../../../nios2-elf/lib/mno-hw-mul/libc.a(lib_a-fflush.o)
 .bss           0x008173c0        0x0 /OPT/altera/12.1/nios2eds/bin/gnu/H-i686-pc-linux-gnu/bin/../lib/gcc/nios2-elf/4.1.2/../../../../nios2-elf/lib/mno-hw-mul/libc.a(lib_a-findfp.o)
 .bss           0x008173c0        0x0 /OPT/altera/12.1/nios2eds/bin/gnu/H-i686-pc-linux-gnu/bin/../lib/gcc/nios2-elf/4.1.2/../../../../nios2-elf/lib/mno-hw-mul/libc.a(lib_a-freer.o)
 .bss           0x008173c0        0x0 /OPT/altera/12.1/nios2eds/bin/gnu/H-i686-pc-linux-gnu/bin/../lib/gcc/nios2-elf/4.1.2/../../../../nios2-elf/lib/mno-hw-mul/libc.a(lib_a-fwalk.o)
 .bss           0x008173c0        0x0 /OPT/altera/12.1/nios2eds/bin/gnu/H-i686-pc-linux-gnu/bin/../lib/gcc/nios2-elf/4.1.2/../../../../nios2-elf/lib/mno-hw-mul/libc.a(lib_a-int_errno.o)
 .bss           0x008173c0        0x0 /OPT/altera/12.1/nios2eds/bin/gnu/H-i686-pc-linux-gnu/bin/../lib/gcc/nios2-elf/4.1.2/../../../../nios2-elf/lib/mno-hw-mul/libc.a(lib_a-makebuf.o)
 .bss           0x008173c0        0x0 /OPT/altera/12.1/nios2eds/bin/gnu/H-i686-pc-linux-gnu/bin/../lib/gcc/nios2-elf/4.1.2/../../../../nios2-elf/lib/mno-hw-mul/libc.a(lib_a-memset.o)
 .bss           0x008173c0        0x0 /OPT/altera/12.1/nios2eds/bin/gnu/H-i686-pc-linux-gnu/bin/../lib/gcc/nios2-elf/4.1.2/../../../../nios2-elf/lib/mno-hw-mul/libc.a(lib_a-stdio.o)
 .bss           0x008173c0        0x0 /OPT/altera/12.1/nios2eds/bin/gnu/H-i686-pc-linux-gnu/bin/../lib/gcc/nios2-elf/4.1.2/../../../../nios2-elf/lib/mno-hw-mul/libc.a(lib_a-writer.o)
 .bss           0x008173c0        0x0 /OPT/altera/12.1/nios2eds/bin/gnu/H-i686-pc-linux-gnu/bin/../lib/gcc/nios2-elf/4.1.2/../../../../nios2-elf/lib/mno-hw-mul/libc.a(lib_a-closer.o)
 .bss           0x008173c0        0x0 /OPT/altera/12.1/nios2eds/bin/gnu/H-i686-pc-linux-gnu/bin/../lib/gcc/nios2-elf/4.1.2/../../../../nios2-elf/lib/mno-hw-mul/libc.a(lib_a-fclose.o)
 .bss           0x008173c0        0x0 /OPT/altera/12.1/nios2eds/bin/gnu/H-i686-pc-linux-gnu/bin/../lib/gcc/nios2-elf/4.1.2/../../../../nios2-elf/lib/mno-hw-mul/libc.a(lib_a-fstatr.o)
 .bss           0x008173c0        0x0 /OPT/altera/12.1/nios2eds/bin/gnu/H-i686-pc-linux-gnu/bin/../lib/gcc/nios2-elf/4.1.2/../../../../nios2-elf/lib/mno-hw-mul/libc.a(lib_a-isattyr.o)
 .bss           0x008173c0        0x0 /OPT/altera/12.1/nios2eds/bin/gnu/H-i686-pc-linux-gnu/bin/../lib/gcc/nios2-elf/4.1.2/../../../../nios2-elf/lib/mno-hw-mul/libc.a(lib_a-lseekr.o)
 .bss           0x008173c0        0x0 /OPT/altera/12.1/nios2eds/bin/gnu/H-i686-pc-linux-gnu/bin/../lib/gcc/nios2-elf/4.1.2/../../../../nios2-elf/lib/mno-hw-mul/libc.a(lib_a-readr.o)
 .bss           0x008173c0        0x0 ../attempt2_bsp//libucosii_bsp.a(alt_close.o)
 .bss           0x008173c0        0x0 ../attempt2_bsp//libucosii_bsp.a(alt_dev.o)
 .bss           0x008173c0        0x0 ../attempt2_bsp//libucosii_bsp.a(alt_errno.o)
 .bss           0x008173c0        0x0 ../attempt2_bsp//libucosii_bsp.a(alt_fstat.o)
 .bss           0x008173c0        0x0 ../attempt2_bsp//libucosii_bsp.a(alt_isatty.o)
 .bss           0x008173c0        0x0 ../attempt2_bsp//libucosii_bsp.a(alt_load.o)
 .bss           0x008173c0        0x0 ../attempt2_bsp//libucosii_bsp.a(alt_lseek.o)
 .bss           0x008173c0        0x0 ../attempt2_bsp//libucosii_bsp.a(alt_main.o)
 .bss           0x008173c0        0x0 ../attempt2_bsp//libucosii_bsp.a(alt_read.o)
 .bss           0x008173c0        0x0 ../attempt2_bsp//libucosii_bsp.a(alt_release_fd.o)
 .bss           0x008173c0        0x0 ../attempt2_bsp//libucosii_bsp.a(alt_sbrk.o)
 .bss           0x008173c0        0x0 ../attempt2_bsp//libucosii_bsp.a(alt_write.o)
 .bss           0x008173c0        0x0 ../attempt2_bsp//libucosii_bsp.a(alt_env_lock.o)
 .bss           0x008173c0        0x0 ../attempt2_bsp//libucosii_bsp.a(alt_malloc_lock.o)
 .bss           0x008173c0        0x0 ../attempt2_bsp//libucosii_bsp.a(os_core.o)
 .bss           0x008173c0        0x0 ../attempt2_bsp//libucosii_bsp.a(os_dbg.o)
 .bss           0x008173c0        0x0 ../attempt2_bsp//libucosii_bsp.a(os_flag.o)
 .bss           0x008173c0        0x0 ../attempt2_bsp//libucosii_bsp.a(os_mem.o)
 .bss           0x008173c0        0x0 ../attempt2_bsp//libucosii_bsp.a(os_q.o)
 .bss           0x008173c0        0x0 ../attempt2_bsp//libucosii_bsp.a(os_sem.o)
 .bss           0x008173c0        0x0 ../attempt2_bsp//libucosii_bsp.a(os_task.o)
 .bss           0x008173c0        0x0 ../attempt2_bsp//libucosii_bsp.a(os_time.o)
 .bss           0x008173c0        0x0 ../attempt2_bsp//libucosii_bsp.a(alt_sys_init.o)
 .bss           0x008173c0        0x0 ../attempt2_bsp//libucosii_bsp.a(altera_avalon_jtag_uart_fd.o)
 .bss           0x008173c0        0x0 ../attempt2_bsp//libucosii_bsp.a(altera_avalon_jtag_uart_init.o)
 .bss           0x008173c0        0x0 ../attempt2_bsp//libucosii_bsp.a(altera_avalon_jtag_uart_ioctl.o)
 .bss           0x008173c0        0x0 ../attempt2_bsp//libucosii_bsp.a(altera_avalon_jtag_uart_read.o)
 .bss           0x008173c0        0x0 ../attempt2_bsp//libucosii_bsp.a(altera_avalon_jtag_uart_write.o)
 .bss           0x008173c0        0x0 ../attempt2_bsp//libucosii_bsp.a(altera_avalon_timer_sc.o)
 .bss           0x008173c0        0x0 ../attempt2_bsp//libucosii_bsp.a(altera_up_avalon_audio.o)
 .bss           0x008173c0        0x0 ../attempt2_bsp//libucosii_bsp.a(altera_up_avalon_audio_and_video_config.o)
 .bss           0x008173c0        0x0 ../attempt2_bsp//libucosii_bsp.a(altera_up_avalon_character_lcd.o)
 .bss           0x008173c0        0x0 ../attempt2_bsp//libucosii_bsp.a(alt_alarm_start.o)
 .bss           0x008173c0        0x0 ../attempt2_bsp//libucosii_bsp.a(alt_dcache_flush_all.o)
 .bss           0x008173c0        0x0 ../attempt2_bsp//libucosii_bsp.a(alt_dev_llist_insert.o)
 .bss           0x008173c0        0x0 ../attempt2_bsp//libucosii_bsp.a(alt_do_ctors.o)
 .bss           0x008173c0        0x0 ../attempt2_bsp//libucosii_bsp.a(alt_do_dtors.o)
 .bss           0x008173c0        0x0 ../attempt2_bsp//libucosii_bsp.a(alt_find_dev.o)
 .bss           0x008173c0        0x0 ../attempt2_bsp//libucosii_bsp.a(alt_icache_flush_all.o)
 .bss           0x008173c0        0x0 ../attempt2_bsp//libucosii_bsp.a(alt_io_redirect.o)
 .bss           0x008173c0        0x0 ../attempt2_bsp//libucosii_bsp.a(alt_irq_register.o)
 .bss           0x008173c0        0x0 ../attempt2_bsp//libucosii_bsp.a(alt_irq_vars.o)
 .bss           0x008173c0        0x0 ../attempt2_bsp//libucosii_bsp.a(alt_open.o)
 .bss           0x008173c0        0x0 ../attempt2_bsp//libucosii_bsp.a(alt_tick.o)
 .bss           0x008173c0        0x0 ../attempt2_bsp//libucosii_bsp.a(altera_nios2_qsys_irq.o)
 .bss           0x008173c0        0x0 ../attempt2_bsp//libucosii_bsp.a(os_cpu_a.o)
 .bss           0x008173c0        0x0 ../attempt2_bsp//libucosii_bsp.a(os_cpu_c.o)
 .bss           0x008173c0        0x0 ../attempt2_bsp//libucosii_bsp.a(alt_find_file.o)
 .bss           0x008173c0        0x0 ../attempt2_bsp//libucosii_bsp.a(alt_get_fd.o)
 .bss           0x008173c0        0x0 ../attempt2_bsp//libucosii_bsp.a(alt_irq_entry.o)
 .bss           0x008173c0        0x0 ../attempt2_bsp//libucosii_bsp.a(alt_irq_handler.o)
 .bss           0x008173c0        0x0 ../attempt2_bsp//libucosii_bsp.a(alt_exception_entry.o)
 .bss           0x008173c0        0x0 /OPT/altera/12.1/nios2eds/bin/gnu/H-i686-pc-linux-gnu/bin/../lib/gcc/nios2-elf/4.1.2/../../../../nios2-elf/lib/mno-hw-mul/libc.a(lib_a-atexit.o)
 .bss           0x008173c0        0x0 /OPT/altera/12.1/nios2eds/bin/gnu/H-i686-pc-linux-gnu/bin/../lib/gcc/nios2-elf/4.1.2/../../../../nios2-elf/lib/mno-hw-mul/libc.a(lib_a-exit.o)
 .bss           0x008173c0        0x0 /OPT/altera/12.1/nios2eds/bin/gnu/H-i686-pc-linux-gnu/bin/../lib/gcc/nios2-elf/4.1.2/../../../../nios2-elf/lib/mno-hw-mul/libc.a(lib_a-memcmp.o)
 .bss           0x008173c0        0x0 /OPT/altera/12.1/nios2eds/bin/gnu/H-i686-pc-linux-gnu/bin/../lib/gcc/nios2-elf/4.1.2/../../../../nios2-elf/lib/mno-hw-mul/libc.a(lib_a-__atexit.o)
 .bss           0x008173c0        0x0 /OPT/altera/12.1/nios2eds/bin/gnu/H-i686-pc-linux-gnu/bin/../lib/gcc/nios2-elf/4.1.2/../../../../nios2-elf/lib/mno-hw-mul/libc.a(lib_a-__call_atexit.o)
 .bss           0x008173c0        0x0 ../attempt2_bsp//libucosii_bsp.a(alt_exit.o)
 *(COMMON)
 COMMON         0x008173c0     0x6000 obj/default/hello_ucosii.o
                0x008173c0                task1_stk
                0x008193c0                task2_stk
                0x0081b3c0                task3_stk
 COMMON         0x0081d3c0     0x3224 ../attempt2_bsp//libucosii_bsp.a(os_core.o)
                0x0081d3c0                OSFlagTbl
                0x0081d730                OSMemTbl
                0x0081e360                OSTaskStatStk
                0x0081eb60                OSQTbl
                0x0081ed40                OSTaskIdleStk
                0x0081f540                OSEventTbl
                0x00820080                OSTCBTbl
                0x00820590                OSTCBPrioTbl
 COMMON         0x008205e4      0x100 ../attempt2_bsp//libucosii_bsp.a(alt_irq_handler.o)
                0x008205e4                alt_irq
 COMMON         0x008206e4      0x190 /OPT/altera/12.1/nios2eds/bin/gnu/H-i686-pc-linux-gnu/bin/../lib/gcc/nios2-elf/4.1.2/../../../../nios2-elf/lib/mno-hw-mul/libc.a(lib_a-atexit.o)
                0x008206e4                _atexit0
                0x00820874                . = ALIGN (0x4)
                0x00820874                __bss_end = ABSOLUTE (.)

.sdram_0        0x00820874        0x0
                0x00820874                PROVIDE (_alt_partition_sdram_0_start, ABSOLUTE (.))
 *(.sdram_0. sdram_0.*)
                0x00820874                . = ALIGN (0x4)
                0x00820874                PROVIDE (_alt_partition_sdram_0_end, ABSOLUTE (.))
                0x00820874                _end = ABSOLUTE (.)
                0x00820874                end = ABSOLUTE (.)
                0x00820874                __alt_stack_base = ABSOLUTE (.)
                0x00820874                PROVIDE (_alt_partition_sdram_0_load_addr, LOADADDR (.sdram_0))

.sram_0         0x01080000        0x0 load address 0x00820874
                0x01080000                PROVIDE (_alt_partition_sram_0_start, ABSOLUTE (.))
 *(.sram_0. sram_0.*)
                0x01080000                . = ALIGN (0x4)
                0x01080000                PROVIDE (_alt_partition_sram_0_end, ABSOLUTE (.))
                0x00820874                PROVIDE (_alt_partition_sram_0_load_addr, LOADADDR (.sram_0))

.onchip_memory2_0
                0x011041c0        0x0 load address 0x00820874
                0x011041c0                PROVIDE (_alt_partition_onchip_memory2_0_start, ABSOLUTE (.))
 *(.onchip_memory2_0. onchip_memory2_0.*)
                0x011041c0                . = ALIGN (0x4)
                0x011041c0                PROVIDE (_alt_partition_onchip_memory2_0_end, ABSOLUTE (.))
                0x00820874                PROVIDE (_alt_partition_onchip_memory2_0_load_addr, LOADADDR (.onchip_memory2_0))

.stab
 *(.stab)

.stabstr
 *(.stabstr)

.stab.excl
 *(.stab.excl)

.stab.exclstr
 *(.stab.exclstr)

.stab.index
 *(.stab.index)

.stab.indexstr
 *(.stab.indexstr)

.comment        0x00000000       0x26
 *(.comment)
 .comment       0x00000000       0x26 obj/default/hello_ucosii.o
                                 0x27 (size before relaxing)
 .comment       0x00000000       0x27 /OPT/altera/12.1/nios2eds/bin/gnu/H-i686-pc-linux-gnu/bin/../lib/gcc/nios2-elf/4.1.2/../../../../nios2-elf/lib/mno-hw-mul/libm.a(lib_a-s_sin.o)
 .comment       0x00000000       0x27 /OPT/altera/12.1/nios2eds/bin/gnu/H-i686-pc-linux-gnu/bin/../lib/gcc/nios2-elf/4.1.2/../../../../nios2-elf/lib/mno-hw-mul/libm.a(lib_a-e_rem_pio2.o)
 .comment       0x00000000       0x27 /OPT/altera/12.1/nios2eds/bin/gnu/H-i686-pc-linux-gnu/bin/../lib/gcc/nios2-elf/4.1.2/../../../../nios2-elf/lib/mno-hw-mul/libm.a(lib_a-k_cos.o)
 .comment       0x00000000       0x27 /OPT/altera/12.1/nios2eds/bin/gnu/H-i686-pc-linux-gnu/bin/../lib/gcc/nios2-elf/4.1.2/../../../../nios2-elf/lib/mno-hw-mul/libm.a(lib_a-k_rem_pio2.o)
 .comment       0x00000000       0x27 /OPT/altera/12.1/nios2eds/bin/gnu/H-i686-pc-linux-gnu/bin/../lib/gcc/nios2-elf/4.1.2/../../../../nios2-elf/lib/mno-hw-mul/libm.a(lib_a-k_sin.o)
 .comment       0x00000000       0x27 /OPT/altera/12.1/nios2eds/bin/gnu/H-i686-pc-linux-gnu/bin/../lib/gcc/nios2-elf/4.1.2/../../../../nios2-elf/lib/mno-hw-mul/libm.a(lib_a-s_fabs.o)
 .comment       0x00000000       0x27 /OPT/altera/12.1/nios2eds/bin/gnu/H-i686-pc-linux-gnu/bin/../lib/gcc/nios2-elf/4.1.2/../../../../nios2-elf/lib/mno-hw-mul/libm.a(lib_a-s_floor.o)
 .comment       0x00000000       0x27 /OPT/altera/12.1/nios2eds/bin/gnu/H-i686-pc-linux-gnu/bin/../lib/gcc/nios2-elf/4.1.2/../../../../nios2-elf/lib/mno-hw-mul/libm.a(lib_a-s_scalbn.o)
 .comment       0x00000000       0x27 /OPT/altera/12.1/nios2eds/bin/gnu/H-i686-pc-linux-gnu/bin/../lib/gcc/nios2-elf/4.1.2/../../../../nios2-elf/lib/mno-hw-mul/libm.a(lib_a-s_copysign.o)
 .comment       0x00000000       0x27 /OPT/altera/12.1/nios2eds/bin/gnu/H-i686-pc-linux-gnu/bin/../lib/gcc/nios2-elf/4.1.2/mno-hw-mul/libgcc.a(_fixunsdfsi.o)
 .comment       0x00000000       0x27 /OPT/altera/12.1/nios2eds/bin/gnu/H-i686-pc-linux-gnu/bin/../lib/gcc/nios2-elf/4.1.2/mno-hw-mul/libgcc.a(_addsub_df.o)
 .comment       0x00000000       0x27 /OPT/altera/12.1/nios2eds/bin/gnu/H-i686-pc-linux-gnu/bin/../lib/gcc/nios2-elf/4.1.2/mno-hw-mul/libgcc.a(_mul_df.o)
 .comment       0x00000000       0x27 /OPT/altera/12.1/nios2eds/bin/gnu/H-i686-pc-linux-gnu/bin/../lib/gcc/nios2-elf/4.1.2/mno-hw-mul/libgcc.a(_div_df.o)
 .comment       0x00000000       0x27 /OPT/altera/12.1/nios2eds/bin/gnu/H-i686-pc-linux-gnu/bin/../lib/gcc/nios2-elf/4.1.2/mno-hw-mul/libgcc.a(_eq_df.o)
 .comment       0x00000000       0x27 /OPT/altera/12.1/nios2eds/bin/gnu/H-i686-pc-linux-gnu/bin/../lib/gcc/nios2-elf/4.1.2/mno-hw-mul/libgcc.a(_gt_df.o)
 .comment       0x00000000       0x27 /OPT/altera/12.1/nios2eds/bin/gnu/H-i686-pc-linux-gnu/bin/../lib/gcc/nios2-elf/4.1.2/mno-hw-mul/libgcc.a(_ge_df.o)
 .comment       0x00000000       0x27 /OPT/altera/12.1/nios2eds/bin/gnu/H-i686-pc-linux-gnu/bin/../lib/gcc/nios2-elf/4.1.2/mno-hw-mul/libgcc.a(_si_to_df.o)
 .comment       0x00000000       0x27 /OPT/altera/12.1/nios2eds/bin/gnu/H-i686-pc-linux-gnu/bin/../lib/gcc/nios2-elf/4.1.2/mno-hw-mul/libgcc.a(_df_to_si.o)
 .comment       0x00000000       0x27 /OPT/altera/12.1/nios2eds/bin/gnu/H-i686-pc-linux-gnu/bin/../lib/gcc/nios2-elf/4.1.2/mno-hw-mul/libgcc.a(_thenan_df.o)
 .comment       0x00000000       0x27 /OPT/altera/12.1/nios2eds/bin/gnu/H-i686-pc-linux-gnu/bin/../lib/gcc/nios2-elf/4.1.2/mno-hw-mul/libgcc.a(lib2-divmod.o)
 .comment       0x00000000       0x27 /OPT/altera/12.1/nios2eds/bin/gnu/H-i686-pc-linux-gnu/bin/../lib/gcc/nios2-elf/4.1.2/mno-hw-mul/libgcc.a(lib2-mul.o)
 .comment       0x00000000       0x27 /OPT/altera/12.1/nios2eds/bin/gnu/H-i686-pc-linux-gnu/bin/../lib/gcc/nios2-elf/4.1.2/mno-hw-mul/libgcc.a(_muldi3.o)
 .comment       0x00000000       0x27 /OPT/altera/12.1/nios2eds/bin/gnu/H-i686-pc-linux-gnu/bin/../lib/gcc/nios2-elf/4.1.2/mno-hw-mul/libgcc.a(_clzsi2.o)
 .comment       0x00000000       0x27 /OPT/altera/12.1/nios2eds/bin/gnu/H-i686-pc-linux-gnu/bin/../lib/gcc/nios2-elf/4.1.2/mno-hw-mul/libgcc.a(_pack_df.o)
 .comment       0x00000000       0x27 /OPT/altera/12.1/nios2eds/bin/gnu/H-i686-pc-linux-gnu/bin/../lib/gcc/nios2-elf/4.1.2/mno-hw-mul/libgcc.a(_unpack_df.o)
 .comment       0x00000000       0x27 /OPT/altera/12.1/nios2eds/bin/gnu/H-i686-pc-linux-gnu/bin/../lib/gcc/nios2-elf/4.1.2/mno-hw-mul/libgcc.a(_fpcmp_parts_df.o)
 .comment       0x00000000       0x27 /OPT/altera/12.1/nios2eds/bin/gnu/H-i686-pc-linux-gnu/bin/../lib/gcc/nios2-elf/4.1.2/mno-hw-mul/libgcc.a(_clz.o)
 .comment       0x00000000       0x27 /OPT/altera/12.1/nios2eds/bin/gnu/H-i686-pc-linux-gnu/bin/../lib/gcc/nios2-elf/4.1.2/../../../../nios2-elf/lib/mno-hw-mul/libc.a(lib_a-puts.o)
 .comment       0x00000000       0x27 /OPT/altera/12.1/nios2eds/bin/gnu/H-i686-pc-linux-gnu/bin/../lib/gcc/nios2-elf/4.1.2/../../../../nios2-elf/lib/mno-hw-mul/libc.a(lib_a-strlen.o)
 .comment       0x00000000       0x27 /OPT/altera/12.1/nios2eds/bin/gnu/H-i686-pc-linux-gnu/bin/../lib/gcc/nios2-elf/4.1.2/../../../../nios2-elf/lib/mno-hw-mul/libc.a(lib_a-fvwrite.o)
 .comment       0x00000000       0x27 /OPT/altera/12.1/nios2eds/bin/gnu/H-i686-pc-linux-gnu/bin/../lib/gcc/nios2-elf/4.1.2/../../../../nios2-elf/lib/mno-hw-mul/libc.a(lib_a-impure.o)
 .comment       0x00000000       0x27 /OPT/altera/12.1/nios2eds/bin/gnu/H-i686-pc-linux-gnu/bin/../lib/gcc/nios2-elf/4.1.2/../../../../nios2-elf/lib/mno-hw-mul/libc.a(lib_a-mallocr.o)
 .comment       0x00000000       0x27 /OPT/altera/12.1/nios2eds/bin/gnu/H-i686-pc-linux-gnu/bin/../lib/gcc/nios2-elf/4.1.2/../../../../nios2-elf/lib/mno-hw-mul/libc.a(lib_a-memchr.o)
 .comment       0x00000000       0x27 /OPT/altera/12.1/nios2eds/bin/gnu/H-i686-pc-linux-gnu/bin/../lib/gcc/nios2-elf/4.1.2/../../../../nios2-elf/lib/mno-hw-mul/libc.a(lib_a-memcpy.o)
 .comment       0x00000000       0x27 /OPT/altera/12.1/nios2eds/bin/gnu/H-i686-pc-linux-gnu/bin/../lib/gcc/nios2-elf/4.1.2/../../../../nios2-elf/lib/mno-hw-mul/libc.a(lib_a-memmove.o)
 .comment       0x00000000       0x27 /OPT/altera/12.1/nios2eds/bin/gnu/H-i686-pc-linux-gnu/bin/../lib/gcc/nios2-elf/4.1.2/../../../../nios2-elf/lib/mno-hw-mul/libc.a(lib_a-reallocr.o)
 .comment       0x00000000       0x27 /OPT/altera/12.1/nios2eds/bin/gnu/H-i686-pc-linux-gnu/bin/../lib/gcc/nios2-elf/4.1.2/../../../../nios2-elf/lib/mno-hw-mul/libc.a(lib_a-sbrkr.o)
 .comment       0x00000000       0x27 /OPT/altera/12.1/nios2eds/bin/gnu/H-i686-pc-linux-gnu/bin/../lib/gcc/nios2-elf/4.1.2/../../../../nios2-elf/lib/mno-hw-mul/libc.a(lib_a-wsetup.o)
 .comment       0x00000000       0x27 /OPT/altera/12.1/nios2eds/bin/gnu/H-i686-pc-linux-gnu/bin/../lib/gcc/nios2-elf/4.1.2/../../../../nios2-elf/lib/mno-hw-mul/libc.a(lib_a-fflush.o)
 .comment       0x00000000       0x27 /OPT/altera/12.1/nios2eds/bin/gnu/H-i686-pc-linux-gnu/bin/../lib/gcc/nios2-elf/4.1.2/../../../../nios2-elf/lib/mno-hw-mul/libc.a(lib_a-findfp.o)
 .comment       0x00000000       0x27 /OPT/altera/12.1/nios2eds/bin/gnu/H-i686-pc-linux-gnu/bin/../lib/gcc/nios2-elf/4.1.2/../../../../nios2-elf/lib/mno-hw-mul/libc.a(lib_a-freer.o)
 .comment       0x00000000       0x27 /OPT/altera/12.1/nios2eds/bin/gnu/H-i686-pc-linux-gnu/bin/../lib/gcc/nios2-elf/4.1.2/../../../../nios2-elf/lib/mno-hw-mul/libc.a(lib_a-fwalk.o)
 .comment       0x00000000       0x27 /OPT/altera/12.1/nios2eds/bin/gnu/H-i686-pc-linux-gnu/bin/../lib/gcc/nios2-elf/4.1.2/../../../../nios2-elf/lib/mno-hw-mul/libc.a(lib_a-int_errno.o)
 .comment       0x00000000       0x27 /OPT/altera/12.1/nios2eds/bin/gnu/H-i686-pc-linux-gnu/bin/../lib/gcc/nios2-elf/4.1.2/../../../../nios2-elf/lib/mno-hw-mul/libc.a(lib_a-makebuf.o)
 .comment       0x00000000       0x27 /OPT/altera/12.1/nios2eds/bin/gnu/H-i686-pc-linux-gnu/bin/../lib/gcc/nios2-elf/4.1.2/../../../../nios2-elf/lib/mno-hw-mul/libc.a(lib_a-memset.o)
 .comment       0x00000000       0x27 /OPT/altera/12.1/nios2eds/bin/gnu/H-i686-pc-linux-gnu/bin/../lib/gcc/nios2-elf/4.1.2/../../../../nios2-elf/lib/mno-hw-mul/libc.a(lib_a-stdio.o)
 .comment       0x00000000       0x27 /OPT/altera/12.1/nios2eds/bin/gnu/H-i686-pc-linux-gnu/bin/../lib/gcc/nios2-elf/4.1.2/../../../../nios2-elf/lib/mno-hw-mul/libc.a(lib_a-writer.o)
 .comment       0x00000000       0x27 /OPT/altera/12.1/nios2eds/bin/gnu/H-i686-pc-linux-gnu/bin/../lib/gcc/nios2-elf/4.1.2/../../../../nios2-elf/lib/mno-hw-mul/libc.a(lib_a-closer.o)
 .comment       0x00000000       0x27 /OPT/altera/12.1/nios2eds/bin/gnu/H-i686-pc-linux-gnu/bin/../lib/gcc/nios2-elf/4.1.2/../../../../nios2-elf/lib/mno-hw-mul/libc.a(lib_a-fclose.o)
 .comment       0x00000000       0x27 /OPT/altera/12.1/nios2eds/bin/gnu/H-i686-pc-linux-gnu/bin/../lib/gcc/nios2-elf/4.1.2/../../../../nios2-elf/lib/mno-hw-mul/libc.a(lib_a-fstatr.o)
 .comment       0x00000000       0x27 /OPT/altera/12.1/nios2eds/bin/gnu/H-i686-pc-linux-gnu/bin/../lib/gcc/nios2-elf/4.1.2/../../../../nios2-elf/lib/mno-hw-mul/libc.a(lib_a-isattyr.o)
 .comment       0x00000000       0x27 /OPT/altera/12.1/nios2eds/bin/gnu/H-i686-pc-linux-gnu/bin/../lib/gcc/nios2-elf/4.1.2/../../../../nios2-elf/lib/mno-hw-mul/libc.a(lib_a-lseekr.o)
 .comment       0x00000000       0x27 /OPT/altera/12.1/nios2eds/bin/gnu/H-i686-pc-linux-gnu/bin/../lib/gcc/nios2-elf/4.1.2/../../../../nios2-elf/lib/mno-hw-mul/libc.a(lib_a-readr.o)
 .comment       0x00000000       0x27 ../attempt2_bsp//libucosii_bsp.a(alt_close.o)
 .comment       0x00000000       0x27 ../attempt2_bsp//libucosii_bsp.a(alt_dev.o)
 .comment       0x00000000       0x27 ../attempt2_bsp//libucosii_bsp.a(alt_errno.o)
 .comment       0x00000000       0x27 ../attempt2_bsp//libucosii_bsp.a(alt_fstat.o)
 .comment       0x00000000       0x27 ../attempt2_bsp//libucosii_bsp.a(alt_isatty.o)
 .comment       0x00000000       0x27 ../attempt2_bsp//libucosii_bsp.a(alt_load.o)
 .comment       0x00000000       0x27 ../attempt2_bsp//libucosii_bsp.a(alt_lseek.o)
 .comment       0x00000000       0x27 ../attempt2_bsp//libucosii_bsp.a(alt_main.o)
 .comment       0x00000000       0x27 ../attempt2_bsp//libucosii_bsp.a(alt_read.o)
 .comment       0x00000000       0x27 ../attempt2_bsp//libucosii_bsp.a(alt_release_fd.o)
 .comment       0x00000000       0x27 ../attempt2_bsp//libucosii_bsp.a(alt_sbrk.o)
 .comment       0x00000000       0x27 ../attempt2_bsp//libucosii_bsp.a(alt_write.o)
 .comment       0x00000000       0x27 ../attempt2_bsp//libucosii_bsp.a(alt_env_lock.o)
 .comment       0x00000000       0x27 ../attempt2_bsp//libucosii_bsp.a(alt_malloc_lock.o)
 .comment       0x00000000       0x27 ../attempt2_bsp//libucosii_bsp.a(os_core.o)
 .comment       0x00000000       0x27 ../attempt2_bsp//libucosii_bsp.a(os_dbg.o)
 .comment       0x00000000       0x27 ../attempt2_bsp//libucosii_bsp.a(os_flag.o)
 .comment       0x00000000       0x27 ../attempt2_bsp//libucosii_bsp.a(os_mem.o)
 .comment       0x00000000       0x27 ../attempt2_bsp//libucosii_bsp.a(os_q.o)
 .comment       0x00000000       0x27 ../attempt2_bsp//libucosii_bsp.a(os_sem.o)
 .comment       0x00000000       0x27 ../attempt2_bsp//libucosii_bsp.a(os_task.o)
 .comment       0x00000000       0x27 ../attempt2_bsp//libucosii_bsp.a(os_time.o)
 .comment       0x00000000       0x27 ../attempt2_bsp//libucosii_bsp.a(alt_sys_init.o)
 .comment       0x00000000       0x27 ../attempt2_bsp//libucosii_bsp.a(altera_avalon_jtag_uart_fd.o)
 .comment       0x00000000       0x27 ../attempt2_bsp//libucosii_bsp.a(altera_avalon_jtag_uart_init.o)
 .comment       0x00000000       0x27 ../attempt2_bsp//libucosii_bsp.a(altera_avalon_jtag_uart_ioctl.o)
 .comment       0x00000000       0x27 ../attempt2_bsp//libucosii_bsp.a(altera_avalon_jtag_uart_read.o)
 .comment       0x00000000       0x27 ../attempt2_bsp//libucosii_bsp.a(altera_avalon_jtag_uart_write.o)
 .comment       0x00000000       0x27 ../attempt2_bsp//libucosii_bsp.a(altera_avalon_timer_sc.o)
 .comment       0x00000000       0x27 ../attempt2_bsp//libucosii_bsp.a(altera_up_avalon_audio.o)
 .comment       0x00000000       0x27 ../attempt2_bsp//libucosii_bsp.a(altera_up_avalon_audio_and_video_config.o)
 .comment       0x00000000       0x27 ../attempt2_bsp//libucosii_bsp.a(altera_up_avalon_character_lcd.o)
 .comment       0x00000000       0x27 ../attempt2_bsp//libucosii_bsp.a(alt_alarm_start.o)
 .comment       0x00000000       0x27 ../attempt2_bsp//libucosii_bsp.a(alt_dcache_flush_all.o)
 .comment       0x00000000       0x27 ../attempt2_bsp//libucosii_bsp.a(alt_dev_llist_insert.o)
 .comment       0x00000000       0x27 ../attempt2_bsp//libucosii_bsp.a(alt_do_ctors.o)
 .comment       0x00000000       0x27 ../attempt2_bsp//libucosii_bsp.a(alt_do_dtors.o)
 .comment       0x00000000       0x27 ../attempt2_bsp//libucosii_bsp.a(alt_find_dev.o)
 .comment       0x00000000       0x27 ../attempt2_bsp//libucosii_bsp.a(alt_icache_flush_all.o)
 .comment       0x00000000       0x27 ../attempt2_bsp//libucosii_bsp.a(alt_io_redirect.o)
 .comment       0x00000000       0x27 ../attempt2_bsp//libucosii_bsp.a(alt_irq_register.o)
 .comment       0x00000000       0x27 ../attempt2_bsp//libucosii_bsp.a(alt_irq_vars.o)
 .comment       0x00000000       0x27 ../attempt2_bsp//libucosii_bsp.a(alt_open.o)
 .comment       0x00000000       0x27 ../attempt2_bsp//libucosii_bsp.a(alt_tick.o)
 .comment       0x00000000       0x27 ../attempt2_bsp//libucosii_bsp.a(altera_nios2_qsys_irq.o)
 .comment       0x00000000       0x27 ../attempt2_bsp//libucosii_bsp.a(os_cpu_c.o)
 .comment       0x00000000       0x27 ../attempt2_bsp//libucosii_bsp.a(alt_find_file.o)
 .comment       0x00000000       0x27 ../attempt2_bsp//libucosii_bsp.a(alt_get_fd.o)
 .comment       0x00000000       0x27 ../attempt2_bsp//libucosii_bsp.a(alt_irq_handler.o)
 .comment       0x00000000       0x27 /OPT/altera/12.1/nios2eds/bin/gnu/H-i686-pc-linux-gnu/bin/../lib/gcc/nios2-elf/4.1.2/../../../../nios2-elf/lib/mno-hw-mul/libc.a(lib_a-atexit.o)
 .comment       0x00000000       0x27 /OPT/altera/12.1/nios2eds/bin/gnu/H-i686-pc-linux-gnu/bin/../lib/gcc/nios2-elf/4.1.2/../../../../nios2-elf/lib/mno-hw-mul/libc.a(lib_a-exit.o)
 .comment       0x00000000       0x27 /OPT/altera/12.1/nios2eds/bin/gnu/H-i686-pc-linux-gnu/bin/../lib/gcc/nios2-elf/4.1.2/../../../../nios2-elf/lib/mno-hw-mul/libc.a(lib_a-memcmp.o)
 .comment       0x00000000       0x27 /OPT/altera/12.1/nios2eds/bin/gnu/H-i686-pc-linux-gnu/bin/../lib/gcc/nios2-elf/4.1.2/../../../../nios2-elf/lib/mno-hw-mul/libc.a(lib_a-__atexit.o)
 .comment       0x00000000       0x27 /OPT/altera/12.1/nios2eds/bin/gnu/H-i686-pc-linux-gnu/bin/../lib/gcc/nios2-elf/4.1.2/../../../../nios2-elf/lib/mno-hw-mul/libc.a(lib_a-__call_atexit.o)
 .comment       0x00000000       0x27 ../attempt2_bsp//libucosii_bsp.a(alt_exit.o)

.debug
 *(.debug)

.line
 *(.line)

.debug_srcinfo
 *(.debug_srcinfo)

.debug_sfnames
 *(.debug_sfnames)

.debug_aranges  0x00000000      0xd98
 *(.debug_aranges)
 .debug_aranges
                0x00000000       0x28 ../attempt2_bsp//obj/HAL/src/crt0.o
 .debug_aranges
                0x00000028       0x20 obj/default/hello_ucosii.o
 .debug_aranges
                0x00000048       0x20 /OPT/altera/12.1/nios2eds/bin/gnu/H-i686-pc-linux-gnu/bin/../lib/gcc/nios2-elf/4.1.2/../../../../nios2-elf/lib/mno-hw-mul/libm.a(lib_a-s_sin.o)
 .debug_aranges
                0x00000068       0x20 /OPT/altera/12.1/nios2eds/bin/gnu/H-i686-pc-linux-gnu/bin/../lib/gcc/nios2-elf/4.1.2/../../../../nios2-elf/lib/mno-hw-mul/libm.a(lib_a-e_rem_pio2.o)
 .debug_aranges
                0x00000088       0x20 /OPT/altera/12.1/nios2eds/bin/gnu/H-i686-pc-linux-gnu/bin/../lib/gcc/nios2-elf/4.1.2/../../../../nios2-elf/lib/mno-hw-mul/libm.a(lib_a-k_cos.o)
 .debug_aranges
                0x000000a8       0x20 /OPT/altera/12.1/nios2eds/bin/gnu/H-i686-pc-linux-gnu/bin/../lib/gcc/nios2-elf/4.1.2/../../../../nios2-elf/lib/mno-hw-mul/libm.a(lib_a-k_rem_pio2.o)
 .debug_aranges
                0x000000c8       0x20 /OPT/altera/12.1/nios2eds/bin/gnu/H-i686-pc-linux-gnu/bin/../lib/gcc/nios2-elf/4.1.2/../../../../nios2-elf/lib/mno-hw-mul/libm.a(lib_a-k_sin.o)
 .debug_aranges
                0x000000e8       0x20 /OPT/altera/12.1/nios2eds/bin/gnu/H-i686-pc-linux-gnu/bin/../lib/gcc/nios2-elf/4.1.2/../../../../nios2-elf/lib/mno-hw-mul/libm.a(lib_a-s_fabs.o)
 .debug_aranges
                0x00000108       0x20 /OPT/altera/12.1/nios2eds/bin/gnu/H-i686-pc-linux-gnu/bin/../lib/gcc/nios2-elf/4.1.2/../../../../nios2-elf/lib/mno-hw-mul/libm.a(lib_a-s_floor.o)
 .debug_aranges
                0x00000128       0x20 /OPT/altera/12.1/nios2eds/bin/gnu/H-i686-pc-linux-gnu/bin/../lib/gcc/nios2-elf/4.1.2/../../../../nios2-elf/lib/mno-hw-mul/libm.a(lib_a-s_scalbn.o)
 .debug_aranges
                0x00000148       0x20 /OPT/altera/12.1/nios2eds/bin/gnu/H-i686-pc-linux-gnu/bin/../lib/gcc/nios2-elf/4.1.2/../../../../nios2-elf/lib/mno-hw-mul/libm.a(lib_a-s_copysign.o)
 .debug_aranges
                0x00000168       0x20 /OPT/altera/12.1/nios2eds/bin/gnu/H-i686-pc-linux-gnu/bin/../lib/gcc/nios2-elf/4.1.2/mno-hw-mul/libgcc.a(_fixunsdfsi.o)
 .debug_aranges
                0x00000188       0x20 /OPT/altera/12.1/nios2eds/bin/gnu/H-i686-pc-linux-gnu/bin/../lib/gcc/nios2-elf/4.1.2/mno-hw-mul/libgcc.a(_addsub_df.o)
 .debug_aranges
                0x000001a8       0x20 /OPT/altera/12.1/nios2eds/bin/gnu/H-i686-pc-linux-gnu/bin/../lib/gcc/nios2-elf/4.1.2/mno-hw-mul/libgcc.a(_mul_df.o)
 .debug_aranges
                0x000001c8       0x20 /OPT/altera/12.1/nios2eds/bin/gnu/H-i686-pc-linux-gnu/bin/../lib/gcc/nios2-elf/4.1.2/mno-hw-mul/libgcc.a(_div_df.o)
 .debug_aranges
                0x000001e8       0x20 /OPT/altera/12.1/nios2eds/bin/gnu/H-i686-pc-linux-gnu/bin/../lib/gcc/nios2-elf/4.1.2/mno-hw-mul/libgcc.a(_eq_df.o)
 .debug_aranges
                0x00000208       0x20 /OPT/altera/12.1/nios2eds/bin/gnu/H-i686-pc-linux-gnu/bin/../lib/gcc/nios2-elf/4.1.2/mno-hw-mul/libgcc.a(_gt_df.o)
 .debug_aranges
                0x00000228       0x20 /OPT/altera/12.1/nios2eds/bin/gnu/H-i686-pc-linux-gnu/bin/../lib/gcc/nios2-elf/4.1.2/mno-hw-mul/libgcc.a(_ge_df.o)
 .debug_aranges
                0x00000248       0x20 /OPT/altera/12.1/nios2eds/bin/gnu/H-i686-pc-linux-gnu/bin/../lib/gcc/nios2-elf/4.1.2/mno-hw-mul/libgcc.a(_si_to_df.o)
 .debug_aranges
                0x00000268       0x20 /OPT/altera/12.1/nios2eds/bin/gnu/H-i686-pc-linux-gnu/bin/../lib/gcc/nios2-elf/4.1.2/mno-hw-mul/libgcc.a(_df_to_si.o)
 .debug_aranges
                0x00000288       0x20 /OPT/altera/12.1/nios2eds/bin/gnu/H-i686-pc-linux-gnu/bin/../lib/gcc/nios2-elf/4.1.2/mno-hw-mul/libgcc.a(lib2-divmod.o)
 .debug_aranges
                0x000002a8       0x20 /OPT/altera/12.1/nios2eds/bin/gnu/H-i686-pc-linux-gnu/bin/../lib/gcc/nios2-elf/4.1.2/mno-hw-mul/libgcc.a(lib2-mul.o)
 .debug_aranges
                0x000002c8       0x20 /OPT/altera/12.1/nios2eds/bin/gnu/H-i686-pc-linux-gnu/bin/../lib/gcc/nios2-elf/4.1.2/mno-hw-mul/libgcc.a(_muldi3.o)
 .debug_aranges
                0x000002e8       0x20 /OPT/altera/12.1/nios2eds/bin/gnu/H-i686-pc-linux-gnu/bin/../lib/gcc/nios2-elf/4.1.2/mno-hw-mul/libgcc.a(_clzsi2.o)
 .debug_aranges
                0x00000308       0x20 /OPT/altera/12.1/nios2eds/bin/gnu/H-i686-pc-linux-gnu/bin/../lib/gcc/nios2-elf/4.1.2/mno-hw-mul/libgcc.a(_pack_df.o)
 .debug_aranges
                0x00000328       0x20 /OPT/altera/12.1/nios2eds/bin/gnu/H-i686-pc-linux-gnu/bin/../lib/gcc/nios2-elf/4.1.2/mno-hw-mul/libgcc.a(_unpack_df.o)
 .debug_aranges
                0x00000348       0x20 /OPT/altera/12.1/nios2eds/bin/gnu/H-i686-pc-linux-gnu/bin/../lib/gcc/nios2-elf/4.1.2/mno-hw-mul/libgcc.a(_fpcmp_parts_df.o)
 .debug_aranges
                0x00000368       0x20 /OPT/altera/12.1/nios2eds/bin/gnu/H-i686-pc-linux-gnu/bin/../lib/gcc/nios2-elf/4.1.2/../../../../nios2-elf/lib/mno-hw-mul/libc.a(lib_a-puts.o)
 .debug_aranges
                0x00000388       0x20 /OPT/altera/12.1/nios2eds/bin/gnu/H-i686-pc-linux-gnu/bin/../lib/gcc/nios2-elf/4.1.2/../../../../nios2-elf/lib/mno-hw-mul/libc.a(lib_a-strlen.o)
 .debug_aranges
                0x000003a8       0x20 /OPT/altera/12.1/nios2eds/bin/gnu/H-i686-pc-linux-gnu/bin/../lib/gcc/nios2-elf/4.1.2/../../../../nios2-elf/lib/mno-hw-mul/libc.a(lib_a-fvwrite.o)
 .debug_aranges
                0x000003c8       0x20 /OPT/altera/12.1/nios2eds/bin/gnu/H-i686-pc-linux-gnu/bin/../lib/gcc/nios2-elf/4.1.2/../../../../nios2-elf/lib/mno-hw-mul/libc.a(lib_a-mallocr.o)
 .debug_aranges
                0x000003e8       0x20 /OPT/altera/12.1/nios2eds/bin/gnu/H-i686-pc-linux-gnu/bin/../lib/gcc/nios2-elf/4.1.2/../../../../nios2-elf/lib/mno-hw-mul/libc.a(lib_a-memchr.o)
 .debug_aranges
                0x00000408       0x20 /OPT/altera/12.1/nios2eds/bin/gnu/H-i686-pc-linux-gnu/bin/../lib/gcc/nios2-elf/4.1.2/../../../../nios2-elf/lib/mno-hw-mul/libc.a(lib_a-memcpy.o)
 .debug_aranges
                0x00000428       0x20 /OPT/altera/12.1/nios2eds/bin/gnu/H-i686-pc-linux-gnu/bin/../lib/gcc/nios2-elf/4.1.2/../../../../nios2-elf/lib/mno-hw-mul/libc.a(lib_a-memmove.o)
 .debug_aranges
                0x00000448       0x20 /OPT/altera/12.1/nios2eds/bin/gnu/H-i686-pc-linux-gnu/bin/../lib/gcc/nios2-elf/4.1.2/../../../../nios2-elf/lib/mno-hw-mul/libc.a(lib_a-reallocr.o)
 .debug_aranges
                0x00000468       0x20 /OPT/altera/12.1/nios2eds/bin/gnu/H-i686-pc-linux-gnu/bin/../lib/gcc/nios2-elf/4.1.2/../../../../nios2-elf/lib/mno-hw-mul/libc.a(lib_a-sbrkr.o)
 .debug_aranges
                0x00000488       0x20 /OPT/altera/12.1/nios2eds/bin/gnu/H-i686-pc-linux-gnu/bin/../lib/gcc/nios2-elf/4.1.2/../../../../nios2-elf/lib/mno-hw-mul/libc.a(lib_a-wsetup.o)
 .debug_aranges
                0x000004a8       0x20 /OPT/altera/12.1/nios2eds/bin/gnu/H-i686-pc-linux-gnu/bin/../lib/gcc/nios2-elf/4.1.2/../../../../nios2-elf/lib/mno-hw-mul/libc.a(lib_a-fflush.o)
 .debug_aranges
                0x000004c8       0x20 /OPT/altera/12.1/nios2eds/bin/gnu/H-i686-pc-linux-gnu/bin/../lib/gcc/nios2-elf/4.1.2/../../../../nios2-elf/lib/mno-hw-mul/libc.a(lib_a-findfp.o)
 .debug_aranges
                0x000004e8       0x20 /OPT/altera/12.1/nios2eds/bin/gnu/H-i686-pc-linux-gnu/bin/../lib/gcc/nios2-elf/4.1.2/../../../../nios2-elf/lib/mno-hw-mul/libc.a(lib_a-freer.o)
 .debug_aranges
                0x00000508       0x20 /OPT/altera/12.1/nios2eds/bin/gnu/H-i686-pc-linux-gnu/bin/../lib/gcc/nios2-elf/4.1.2/../../../../nios2-elf/lib/mno-hw-mul/libc.a(lib_a-fwalk.o)
 .debug_aranges
                0x00000528       0x20 /OPT/altera/12.1/nios2eds/bin/gnu/H-i686-pc-linux-gnu/bin/../lib/gcc/nios2-elf/4.1.2/../../../../nios2-elf/lib/mno-hw-mul/libc.a(lib_a-makebuf.o)
 .debug_aranges
                0x00000548       0x20 /OPT/altera/12.1/nios2eds/bin/gnu/H-i686-pc-linux-gnu/bin/../lib/gcc/nios2-elf/4.1.2/../../../../nios2-elf/lib/mno-hw-mul/libc.a(lib_a-memset.o)
 .debug_aranges
                0x00000568       0x20 /OPT/altera/12.1/nios2eds/bin/gnu/H-i686-pc-linux-gnu/bin/../lib/gcc/nios2-elf/4.1.2/../../../../nios2-elf/lib/mno-hw-mul/libc.a(lib_a-stdio.o)
 .debug_aranges
                0x00000588       0x20 /OPT/altera/12.1/nios2eds/bin/gnu/H-i686-pc-linux-gnu/bin/../lib/gcc/nios2-elf/4.1.2/../../../../nios2-elf/lib/mno-hw-mul/libc.a(lib_a-writer.o)
 .debug_aranges
                0x000005a8       0x20 /OPT/altera/12.1/nios2eds/bin/gnu/H-i686-pc-linux-gnu/bin/../lib/gcc/nios2-elf/4.1.2/../../../../nios2-elf/lib/mno-hw-mul/libc.a(lib_a-closer.o)
 .debug_aranges
                0x000005c8       0x20 /OPT/altera/12.1/nios2eds/bin/gnu/H-i686-pc-linux-gnu/bin/../lib/gcc/nios2-elf/4.1.2/../../../../nios2-elf/lib/mno-hw-mul/libc.a(lib_a-fclose.o)
 .debug_aranges
                0x000005e8       0x20 /OPT/altera/12.1/nios2eds/bin/gnu/H-i686-pc-linux-gnu/bin/../lib/gcc/nios2-elf/4.1.2/../../../../nios2-elf/lib/mno-hw-mul/libc.a(lib_a-fstatr.o)
 .debug_aranges
                0x00000608       0x20 /OPT/altera/12.1/nios2eds/bin/gnu/H-i686-pc-linux-gnu/bin/../lib/gcc/nios2-elf/4.1.2/../../../../nios2-elf/lib/mno-hw-mul/libc.a(lib_a-isattyr.o)
 .debug_aranges
                0x00000628       0x20 /OPT/altera/12.1/nios2eds/bin/gnu/H-i686-pc-linux-gnu/bin/../lib/gcc/nios2-elf/4.1.2/../../../../nios2-elf/lib/mno-hw-mul/libc.a(lib_a-lseekr.o)
 .debug_aranges
                0x00000648       0x20 /OPT/altera/12.1/nios2eds/bin/gnu/H-i686-pc-linux-gnu/bin/../lib/gcc/nios2-elf/4.1.2/../../../../nios2-elf/lib/mno-hw-mul/libc.a(lib_a-readr.o)
 .debug_aranges
                0x00000668       0x20 ../attempt2_bsp//libucosii_bsp.a(alt_close.o)
 .debug_aranges
                0x00000688       0x20 ../attempt2_bsp//libucosii_bsp.a(alt_dev.o)
 .debug_aranges
                0x000006a8       0x20 ../attempt2_bsp//libucosii_bsp.a(alt_fstat.o)
 .debug_aranges
                0x000006c8       0x20 ../attempt2_bsp//libucosii_bsp.a(alt_isatty.o)
 .debug_aranges
                0x000006e8       0x20 ../attempt2_bsp//libucosii_bsp.a(alt_load.o)
 .debug_aranges
                0x00000708       0x20 ../attempt2_bsp//libucosii_bsp.a(alt_lseek.o)
 .debug_aranges
                0x00000728       0x20 ../attempt2_bsp//libucosii_bsp.a(alt_main.o)
 .debug_aranges
                0x00000748       0x20 ../attempt2_bsp//libucosii_bsp.a(alt_read.o)
 .debug_aranges
                0x00000768       0x20 ../attempt2_bsp//libucosii_bsp.a(alt_release_fd.o)
 .debug_aranges
                0x00000788       0x20 ../attempt2_bsp//libucosii_bsp.a(alt_sbrk.o)
 .debug_aranges
                0x000007a8       0x20 ../attempt2_bsp//libucosii_bsp.a(alt_write.o)
 .debug_aranges
                0x000007c8       0x20 ../attempt2_bsp//libucosii_bsp.a(alt_env_lock.o)
 .debug_aranges
                0x000007e8       0x20 ../attempt2_bsp//libucosii_bsp.a(alt_malloc_lock.o)
 .debug_aranges
                0x00000808       0x20 ../attempt2_bsp//libucosii_bsp.a(os_core.o)
 .debug_aranges
                0x00000828       0x20 ../attempt2_bsp//libucosii_bsp.a(os_dbg.o)
 .debug_aranges
                0x00000848       0x20 ../attempt2_bsp//libucosii_bsp.a(os_flag.o)
 .debug_aranges
                0x00000868       0x20 ../attempt2_bsp//libucosii_bsp.a(os_mem.o)
 .debug_aranges
                0x00000888       0x20 ../attempt2_bsp//libucosii_bsp.a(os_q.o)
 .debug_aranges
                0x000008a8       0x20 ../attempt2_bsp//libucosii_bsp.a(os_sem.o)
 .debug_aranges
                0x000008c8       0x20 ../attempt2_bsp//libucosii_bsp.a(os_task.o)
 .debug_aranges
                0x000008e8       0x20 ../attempt2_bsp//libucosii_bsp.a(os_time.o)
 .debug_aranges
                0x00000908       0x20 ../attempt2_bsp//libucosii_bsp.a(alt_sys_init.o)
 .debug_aranges
                0x00000928       0x20 ../attempt2_bsp//libucosii_bsp.a(altera_avalon_jtag_uart_fd.o)
 .debug_aranges
                0x00000948       0x20 ../attempt2_bsp//libucosii_bsp.a(altera_avalon_jtag_uart_init.o)
 .debug_aranges
                0x00000968       0x20 ../attempt2_bsp//libucosii_bsp.a(altera_avalon_jtag_uart_ioctl.o)
 .debug_aranges
                0x00000988       0x20 ../attempt2_bsp//libucosii_bsp.a(altera_avalon_jtag_uart_read.o)
 .debug_aranges
                0x000009a8       0x20 ../attempt2_bsp//libucosii_bsp.a(altera_avalon_jtag_uart_write.o)
 .debug_aranges
                0x000009c8       0x20 ../attempt2_bsp//libucosii_bsp.a(altera_avalon_timer_sc.o)
 .debug_aranges
                0x000009e8       0x20 ../attempt2_bsp//libucosii_bsp.a(altera_up_avalon_audio.o)
 .debug_aranges
                0x00000a08       0x20 ../attempt2_bsp//libucosii_bsp.a(altera_up_avalon_audio_and_video_config.o)
 .debug_aranges
                0x00000a28       0x20 ../attempt2_bsp//libucosii_bsp.a(altera_up_avalon_character_lcd.o)
 .debug_aranges
                0x00000a48       0x20 ../attempt2_bsp//libucosii_bsp.a(alt_alarm_start.o)
 .debug_aranges
                0x00000a68       0x20 ../attempt2_bsp//libucosii_bsp.a(alt_dcache_flush_all.o)
 .debug_aranges
                0x00000a88       0x20 ../attempt2_bsp//libucosii_bsp.a(alt_dev_llist_insert.o)
 .debug_aranges
                0x00000aa8       0x20 ../attempt2_bsp//libucosii_bsp.a(alt_do_ctors.o)
 .debug_aranges
                0x00000ac8       0x20 ../attempt2_bsp//libucosii_bsp.a(alt_do_dtors.o)
 .debug_aranges
                0x00000ae8       0x20 ../attempt2_bsp//libucosii_bsp.a(alt_find_dev.o)
 .debug_aranges
                0x00000b08       0x20 ../attempt2_bsp//libucosii_bsp.a(alt_icache_flush_all.o)
 .debug_aranges
                0x00000b28       0x20 ../attempt2_bsp//libucosii_bsp.a(alt_io_redirect.o)
 .debug_aranges
                0x00000b48       0x20 ../attempt2_bsp//libucosii_bsp.a(alt_irq_register.o)
 .debug_aranges
                0x00000b68       0x20 ../attempt2_bsp//libucosii_bsp.a(alt_open.o)
 .debug_aranges
                0x00000b88       0x20 ../attempt2_bsp//libucosii_bsp.a(alt_tick.o)
 .debug_aranges
                0x00000ba8       0x20 ../attempt2_bsp//libucosii_bsp.a(altera_nios2_qsys_irq.o)
 .debug_aranges
                0x00000bc8       0x20 ../attempt2_bsp//libucosii_bsp.a(os_cpu_a.o)
 .debug_aranges
                0x00000be8       0x20 ../attempt2_bsp//libucosii_bsp.a(os_cpu_c.o)
 .debug_aranges
                0x00000c08       0x20 ../attempt2_bsp//libucosii_bsp.a(alt_find_file.o)
 .debug_aranges
                0x00000c28       0x20 ../attempt2_bsp//libucosii_bsp.a(alt_get_fd.o)
 .debug_aranges
                0x00000c48       0x30 ../attempt2_bsp//libucosii_bsp.a(alt_irq_entry.o)
 .debug_aranges
                0x00000c78       0x28 ../attempt2_bsp//libucosii_bsp.a(alt_irq_handler.o)
 .debug_aranges
                0x00000ca0       0x38 ../attempt2_bsp//libucosii_bsp.a(alt_exception_entry.o)
 .debug_aranges
                0x00000cd8       0x20 /OPT/altera/12.1/nios2eds/bin/gnu/H-i686-pc-linux-gnu/bin/../lib/gcc/nios2-elf/4.1.2/../../../../nios2-elf/lib/mno-hw-mul/libc.a(lib_a-atexit.o)
 .debug_aranges
                0x00000cf8       0x20 /OPT/altera/12.1/nios2eds/bin/gnu/H-i686-pc-linux-gnu/bin/../lib/gcc/nios2-elf/4.1.2/../../../../nios2-elf/lib/mno-hw-mul/libc.a(lib_a-exit.o)
 .debug_aranges
                0x00000d18       0x20 /OPT/altera/12.1/nios2eds/bin/gnu/H-i686-pc-linux-gnu/bin/../lib/gcc/nios2-elf/4.1.2/../../../../nios2-elf/lib/mno-hw-mul/libc.a(lib_a-memcmp.o)
 .debug_aranges
                0x00000d38       0x20 /OPT/altera/12.1/nios2eds/bin/gnu/H-i686-pc-linux-gnu/bin/../lib/gcc/nios2-elf/4.1.2/../../../../nios2-elf/lib/mno-hw-mul/libc.a(lib_a-__atexit.o)
 .debug_aranges
                0x00000d58       0x20 /OPT/altera/12.1/nios2eds/bin/gnu/H-i686-pc-linux-gnu/bin/../lib/gcc/nios2-elf/4.1.2/../../../../nios2-elf/lib/mno-hw-mul/libc.a(lib_a-__call_atexit.o)
 .debug_aranges
                0x00000d78       0x20 ../attempt2_bsp//libucosii_bsp.a(alt_exit.o)

.debug_pubnames
                0x00000000     0x243c
 *(.debug_pubnames)
 .debug_pubnames
                0x00000000       0x79 obj/default/hello_ucosii.o
 .debug_pubnames
                0x00000079       0x1a /OPT/altera/12.1/nios2eds/bin/gnu/H-i686-pc-linux-gnu/bin/../lib/gcc/nios2-elf/4.1.2/../../../../nios2-elf/lib/mno-hw-mul/libm.a(lib_a-s_sin.o)
 .debug_pubnames
                0x00000093       0x29 /OPT/altera/12.1/nios2eds/bin/gnu/H-i686-pc-linux-gnu/bin/../lib/gcc/nios2-elf/4.1.2/../../../../nios2-elf/lib/mno-hw-mul/libm.a(lib_a-e_rem_pio2.o)
 .debug_pubnames
                0x000000bc       0x23 /OPT/altera/12.1/nios2eds/bin/gnu/H-i686-pc-linux-gnu/bin/../lib/gcc/nios2-elf/4.1.2/../../../../nios2-elf/lib/mno-hw-mul/libm.a(lib_a-k_cos.o)
 .debug_pubnames
                0x000000df       0x28 /OPT/altera/12.1/nios2eds/bin/gnu/H-i686-pc-linux-gnu/bin/../lib/gcc/nios2-elf/4.1.2/../../../../nios2-elf/lib/mno-hw-mul/libm.a(lib_a-k_rem_pio2.o)
 .debug_pubnames
                0x00000107       0x23 /OPT/altera/12.1/nios2eds/bin/gnu/H-i686-pc-linux-gnu/bin/../lib/gcc/nios2-elf/4.1.2/../../../../nios2-elf/lib/mno-hw-mul/libm.a(lib_a-k_sin.o)
 .debug_pubnames
                0x0000012a       0x1b /OPT/altera/12.1/nios2eds/bin/gnu/H-i686-pc-linux-gnu/bin/../lib/gcc/nios2-elf/4.1.2/../../../../nios2-elf/lib/mno-hw-mul/libm.a(lib_a-s_fabs.o)
 .debug_pubnames
                0x00000145       0x1c /OPT/altera/12.1/nios2eds/bin/gnu/H-i686-pc-linux-gnu/bin/../lib/gcc/nios2-elf/4.1.2/../../../../nios2-elf/lib/mno-hw-mul/libm.a(lib_a-s_floor.o)
 .debug_pubnames
                0x00000161       0x1d /OPT/altera/12.1/nios2eds/bin/gnu/H-i686-pc-linux-gnu/bin/../lib/gcc/nios2-elf/4.1.2/../../../../nios2-elf/lib/mno-hw-mul/libm.a(lib_a-s_scalbn.o)
 .debug_pubnames
                0x0000017e       0x1f /OPT/altera/12.1/nios2eds/bin/gnu/H-i686-pc-linux-gnu/bin/../lib/gcc/nios2-elf/4.1.2/../../../../nios2-elf/lib/mno-hw-mul/libm.a(lib_a-s_copysign.o)
 .debug_pubnames
                0x0000019d       0x23 /OPT/altera/12.1/nios2eds/bin/gnu/H-i686-pc-linux-gnu/bin/../lib/gcc/nios2-elf/4.1.2/mno-hw-mul/libgcc.a(_fixunsdfsi.o)
 .debug_pubnames
                0x000001c0       0x2c /OPT/altera/12.1/nios2eds/bin/gnu/H-i686-pc-linux-gnu/bin/../lib/gcc/nios2-elf/4.1.2/mno-hw-mul/libgcc.a(_addsub_df.o)
 .debug_pubnames
                0x000001ec       0x1f /OPT/altera/12.1/nios2eds/bin/gnu/H-i686-pc-linux-gnu/bin/../lib/gcc/nios2-elf/4.1.2/mno-hw-mul/libgcc.a(_mul_df.o)
 .debug_pubnames
                0x0000020b       0x1f /OPT/altera/12.1/nios2eds/bin/gnu/H-i686-pc-linux-gnu/bin/../lib/gcc/nios2-elf/4.1.2/mno-hw-mul/libgcc.a(_div_df.o)
 .debug_pubnames
                0x0000022a       0x1e /OPT/altera/12.1/nios2eds/bin/gnu/H-i686-pc-linux-gnu/bin/../lib/gcc/nios2-elf/4.1.2/mno-hw-mul/libgcc.a(_eq_df.o)
 .debug_pubnames
                0x00000248       0x1e /OPT/altera/12.1/nios2eds/bin/gnu/H-i686-pc-linux-gnu/bin/../lib/gcc/nios2-elf/4.1.2/mno-hw-mul/libgcc.a(_gt_df.o)
 .debug_pubnames
                0x00000266       0x1e /OPT/altera/12.1/nios2eds/bin/gnu/H-i686-pc-linux-gnu/bin/../lib/gcc/nios2-elf/4.1.2/mno-hw-mul/libgcc.a(_ge_df.o)
 .debug_pubnames
                0x00000284       0x22 /OPT/altera/12.1/nios2eds/bin/gnu/H-i686-pc-linux-gnu/bin/../lib/gcc/nios2-elf/4.1.2/mno-hw-mul/libgcc.a(_si_to_df.o)
 .debug_pubnames
                0x000002a6       0x20 /OPT/altera/12.1/nios2eds/bin/gnu/H-i686-pc-linux-gnu/bin/../lib/gcc/nios2-elf/4.1.2/mno-hw-mul/libgcc.a(_df_to_si.o)
 .debug_pubnames
                0x000002c6       0x22 /OPT/altera/12.1/nios2eds/bin/gnu/H-i686-pc-linux-gnu/bin/../lib/gcc/nios2-elf/4.1.2/mno-hw-mul/libgcc.a(_thenan_df.o)
 .debug_pubnames
                0x000002e8       0x48 /OPT/altera/12.1/nios2eds/bin/gnu/H-i686-pc-linux-gnu/bin/../lib/gcc/nios2-elf/4.1.2/mno-hw-mul/libgcc.a(lib2-divmod.o)
 .debug_pubnames
                0x00000330       0x1f /OPT/altera/12.1/nios2eds/bin/gnu/H-i686-pc-linux-gnu/bin/../lib/gcc/nios2-elf/4.1.2/mno-hw-mul/libgcc.a(lib2-mul.o)
 .debug_pubnames
                0x0000034f       0x1f /OPT/altera/12.1/nios2eds/bin/gnu/H-i686-pc-linux-gnu/bin/../lib/gcc/nios2-elf/4.1.2/mno-hw-mul/libgcc.a(_muldi3.o)
 .debug_pubnames
                0x0000036e       0x1f /OPT/altera/12.1/nios2eds/bin/gnu/H-i686-pc-linux-gnu/bin/../lib/gcc/nios2-elf/4.1.2/mno-hw-mul/libgcc.a(_clzsi2.o)
 .debug_pubnames
                0x0000038d       0x1f /OPT/altera/12.1/nios2eds/bin/gnu/H-i686-pc-linux-gnu/bin/../lib/gcc/nios2-elf/4.1.2/mno-hw-mul/libgcc.a(_pack_df.o)
 .debug_pubnames
                0x000003ac       0x21 /OPT/altera/12.1/nios2eds/bin/gnu/H-i686-pc-linux-gnu/bin/../lib/gcc/nios2-elf/4.1.2/mno-hw-mul/libgcc.a(_unpack_df.o)
 .debug_pubnames
                0x000003cd       0x26 /OPT/altera/12.1/nios2eds/bin/gnu/H-i686-pc-linux-gnu/bin/../lib/gcc/nios2-elf/4.1.2/mno-hw-mul/libgcc.a(_fpcmp_parts_df.o)
 .debug_pubnames
                0x000003f3       0x20 /OPT/altera/12.1/nios2eds/bin/gnu/H-i686-pc-linux-gnu/bin/../lib/gcc/nios2-elf/4.1.2/mno-hw-mul/libgcc.a(_clz.o)
 .debug_pubnames
                0x00000413       0x27 /OPT/altera/12.1/nios2eds/bin/gnu/H-i686-pc-linux-gnu/bin/../lib/gcc/nios2-elf/4.1.2/../../../../nios2-elf/lib/mno-hw-mul/libc.a(lib_a-puts.o)
 .debug_pubnames
                0x0000043a       0x1d /OPT/altera/12.1/nios2eds/bin/gnu/H-i686-pc-linux-gnu/bin/../lib/gcc/nios2-elf/4.1.2/../../../../nios2-elf/lib/mno-hw-mul/libc.a(lib_a-strlen.o)
 .debug_pubnames
                0x00000457       0x23 /OPT/altera/12.1/nios2eds/bin/gnu/H-i686-pc-linux-gnu/bin/../lib/gcc/nios2-elf/4.1.2/../../../../nios2-elf/lib/mno-hw-mul/libc.a(lib_a-fvwrite.o)
 .debug_pubnames
                0x0000047a       0x39 /OPT/altera/12.1/nios2eds/bin/gnu/H-i686-pc-linux-gnu/bin/../lib/gcc/nios2-elf/4.1.2/../../../../nios2-elf/lib/mno-hw-mul/libc.a(lib_a-impure.o)
 .debug_pubnames
                0x000004b3       0xce /OPT/altera/12.1/nios2eds/bin/gnu/H-i686-pc-linux-gnu/bin/../lib/gcc/nios2-elf/4.1.2/../../../../nios2-elf/lib/mno-hw-mul/libc.a(lib_a-mallocr.o)
 .debug_pubnames
                0x00000581       0x1d /OPT/altera/12.1/nios2eds/bin/gnu/H-i686-pc-linux-gnu/bin/../lib/gcc/nios2-elf/4.1.2/../../../../nios2-elf/lib/mno-hw-mul/libc.a(lib_a-memchr.o)
 .debug_pubnames
                0x0000059e       0x1d /OPT/altera/12.1/nios2eds/bin/gnu/H-i686-pc-linux-gnu/bin/../lib/gcc/nios2-elf/4.1.2/../../../../nios2-elf/lib/mno-hw-mul/libc.a(lib_a-memcpy.o)
 .debug_pubnames
                0x000005bb       0x1e /OPT/altera/12.1/nios2eds/bin/gnu/H-i686-pc-linux-gnu/bin/../lib/gcc/nios2-elf/4.1.2/../../../../nios2-elf/lib/mno-hw-mul/libc.a(lib_a-memmove.o)
 .debug_pubnames
                0x000005d9       0x21 /OPT/altera/12.1/nios2eds/bin/gnu/H-i686-pc-linux-gnu/bin/../lib/gcc/nios2-elf/4.1.2/../../../../nios2-elf/lib/mno-hw-mul/libc.a(lib_a-reallocr.o)
 .debug_pubnames
                0x000005fa       0x1e /OPT/altera/12.1/nios2eds/bin/gnu/H-i686-pc-linux-gnu/bin/../lib/gcc/nios2-elf/4.1.2/../../../../nios2-elf/lib/mno-hw-mul/libc.a(lib_a-sbrkr.o)
 .debug_pubnames
                0x00000618       0x22 /OPT/altera/12.1/nios2eds/bin/gnu/H-i686-pc-linux-gnu/bin/../lib/gcc/nios2-elf/4.1.2/../../../../nios2-elf/lib/mno-hw-mul/libc.a(lib_a-wsetup.o)
 .debug_pubnames
                0x0000063a       0x2b /OPT/altera/12.1/nios2eds/bin/gnu/H-i686-pc-linux-gnu/bin/../lib/gcc/nios2-elf/4.1.2/../../../../nios2-elf/lib/mno-hw-mul/libc.a(lib_a-fflush.o)
 .debug_pubnames
                0x00000665       0xdb /OPT/altera/12.1/nios2eds/bin/gnu/H-i686-pc-linux-gnu/bin/../lib/gcc/nios2-elf/4.1.2/../../../../nios2-elf/lib/mno-hw-mul/libc.a(lib_a-findfp.o)
 .debug_pubnames
                0x00000740       0x31 /OPT/altera/12.1/nios2eds/bin/gnu/H-i686-pc-linux-gnu/bin/../lib/gcc/nios2-elf/4.1.2/../../../../nios2-elf/lib/mno-hw-mul/libc.a(lib_a-freer.o)
 .debug_pubnames
                0x00000771       0x2e /OPT/altera/12.1/nios2eds/bin/gnu/H-i686-pc-linux-gnu/bin/../lib/gcc/nios2-elf/4.1.2/../../../../nios2-elf/lib/mno-hw-mul/libc.a(lib_a-fwalk.o)
 .debug_pubnames
                0x0000079f       0x1c /OPT/altera/12.1/nios2eds/bin/gnu/H-i686-pc-linux-gnu/bin/../lib/gcc/nios2-elf/4.1.2/../../../../nios2-elf/lib/mno-hw-mul/libc.a(lib_a-int_errno.o)
 .debug_pubnames
                0x000007bb       0x23 /OPT/altera/12.1/nios2eds/bin/gnu/H-i686-pc-linux-gnu/bin/../lib/gcc/nios2-elf/4.1.2/../../../../nios2-elf/lib/mno-hw-mul/libc.a(lib_a-makebuf.o)
 .debug_pubnames
                0x000007de       0x1d /OPT/altera/12.1/nios2eds/bin/gnu/H-i686-pc-linux-gnu/bin/../lib/gcc/nios2-elf/4.1.2/../../../../nios2-elf/lib/mno-hw-mul/libc.a(lib_a-memset.o)
 .debug_pubnames
                0x000007fb       0x44 /OPT/altera/12.1/nios2eds/bin/gnu/H-i686-pc-linux-gnu/bin/../lib/gcc/nios2-elf/4.1.2/../../../../nios2-elf/lib/mno-hw-mul/libc.a(lib_a-stdio.o)
 .debug_pubnames
                0x0000083f       0x1f /OPT/altera/12.1/nios2eds/bin/gnu/H-i686-pc-linux-gnu/bin/../lib/gcc/nios2-elf/4.1.2/../../../../nios2-elf/lib/mno-hw-mul/libc.a(lib_a-writer.o)
 .debug_pubnames
                0x0000085e       0x1f /OPT/altera/12.1/nios2eds/bin/gnu/H-i686-pc-linux-gnu/bin/../lib/gcc/nios2-elf/4.1.2/../../../../nios2-elf/lib/mno-hw-mul/libc.a(lib_a-closer.o)
 .debug_pubnames
                0x0000087d       0x2b /OPT/altera/12.1/nios2eds/bin/gnu/H-i686-pc-linux-gnu/bin/../lib/gcc/nios2-elf/4.1.2/../../../../nios2-elf/lib/mno-hw-mul/libc.a(lib_a-fclose.o)
 .debug_pubnames
                0x000008a8       0x1f /OPT/altera/12.1/nios2eds/bin/gnu/H-i686-pc-linux-gnu/bin/../lib/gcc/nios2-elf/4.1.2/../../../../nios2-elf/lib/mno-hw-mul/libc.a(lib_a-fstatr.o)
 .debug_pubnames
                0x000008c7       0x20 /OPT/altera/12.1/nios2eds/bin/gnu/H-i686-pc-linux-gnu/bin/../lib/gcc/nios2-elf/4.1.2/../../../../nios2-elf/lib/mno-hw-mul/libc.a(lib_a-isattyr.o)
 .debug_pubnames
                0x000008e7       0x1f /OPT/altera/12.1/nios2eds/bin/gnu/H-i686-pc-linux-gnu/bin/../lib/gcc/nios2-elf/4.1.2/../../../../nios2-elf/lib/mno-hw-mul/libc.a(lib_a-lseekr.o)
 .debug_pubnames
                0x00000906       0x1e /OPT/altera/12.1/nios2eds/bin/gnu/H-i686-pc-linux-gnu/bin/../lib/gcc/nios2-elf/4.1.2/../../../../nios2-elf/lib/mno-hw-mul/libc.a(lib_a-readr.o)
 .debug_pubnames
                0x00000924       0x1c ../attempt2_bsp//libucosii_bsp.a(alt_close.o)
 .debug_pubnames
                0x00000940       0x78 ../attempt2_bsp//libucosii_bsp.a(alt_dev.o)
 .debug_pubnames
                0x000009b8       0x20 ../attempt2_bsp//libucosii_bsp.a(alt_errno.o)
 .debug_pubnames
                0x000009d8       0x1c ../attempt2_bsp//libucosii_bsp.a(alt_fstat.o)
 .debug_pubnames
                0x000009f4       0x1d ../attempt2_bsp//libucosii_bsp.a(alt_isatty.o)
 .debug_pubnames
                0x00000a11       0x1f ../attempt2_bsp//libucosii_bsp.a(alt_load.o)
 .debug_pubnames
                0x00000a30       0x1c ../attempt2_bsp//libucosii_bsp.a(alt_lseek.o)
 .debug_pubnames
                0x00000a4c       0x46 ../attempt2_bsp//libucosii_bsp.a(alt_main.o)
 .debug_pubnames
                0x00000a92       0x1b ../attempt2_bsp//libucosii_bsp.a(alt_read.o)
 .debug_pubnames
                0x00000aad       0x25 ../attempt2_bsp//libucosii_bsp.a(alt_release_fd.o)
 .debug_pubnames
                0x00000ad2       0x1b ../attempt2_bsp//libucosii_bsp.a(alt_sbrk.o)
 .debug_pubnames
                0x00000aed       0x1c ../attempt2_bsp//libucosii_bsp.a(alt_write.o)
 .debug_pubnames
                0x00000b09       0x41 ../attempt2_bsp//libucosii_bsp.a(alt_env_lock.o)
 .debug_pubnames
                0x00000b4a       0x48 ../attempt2_bsp//libucosii_bsp.a(alt_malloc_lock.o)
 .debug_pubnames
                0x00000b92      0x3f8 ../attempt2_bsp//libucosii_bsp.a(os_core.o)
 .debug_pubnames
                0x00000f8a      0x3c5 ../attempt2_bsp//libucosii_bsp.a(os_dbg.o)
 .debug_pubnames
                0x0000134f       0xd0 ../attempt2_bsp//libucosii_bsp.a(os_flag.o)
 .debug_pubnames
                0x0000141f       0x7c ../attempt2_bsp//libucosii_bsp.a(os_mem.o)
 .debug_pubnames
                0x0000149b       0xa9 ../attempt2_bsp//libucosii_bsp.a(os_q.o)
 .debug_pubnames
                0x00001544       0x8a ../attempt2_bsp//libucosii_bsp.a(os_sem.o)
 .debug_pubnames
                0x000015ce       0xe5 ../attempt2_bsp//libucosii_bsp.a(os_task.o)
 .debug_pubnames
                0x000016b3       0x62 ../attempt2_bsp//libucosii_bsp.a(os_time.o)
 .debug_pubnames
                0x00001715       0x34 ../attempt2_bsp//libucosii_bsp.a(alt_sys_init.o)
 .debug_pubnames
                0x00001749       0xa5 ../attempt2_bsp//libucosii_bsp.a(altera_avalon_jtag_uart_fd.o)
 .debug_pubnames
                0x000017ee       0x55 ../attempt2_bsp//libucosii_bsp.a(altera_avalon_jtag_uart_init.o)
 .debug_pubnames
                0x00001843       0x34 ../attempt2_bsp//libucosii_bsp.a(altera_avalon_jtag_uart_ioctl.o)
 .debug_pubnames
                0x00001877       0x33 ../attempt2_bsp//libucosii_bsp.a(altera_avalon_jtag_uart_read.o)
 .debug_pubnames
                0x000018aa       0x34 ../attempt2_bsp//libucosii_bsp.a(altera_avalon_jtag_uart_write.o)
 .debug_pubnames
                0x000018de       0x2f ../attempt2_bsp//libucosii_bsp.a(altera_avalon_timer_sc.o)
 .debug_pubnames
                0x0000190d      0x25e ../attempt2_bsp//libucosii_bsp.a(altera_up_avalon_audio.o)
 .debug_pubnames
                0x00001b6b      0x2ab ../attempt2_bsp//libucosii_bsp.a(altera_up_avalon_audio_and_video_config.o)
 .debug_pubnames
                0x00001e16      0x1cd ../attempt2_bsp//libucosii_bsp.a(altera_up_avalon_character_lcd.o)
 .debug_pubnames
                0x00001fe3       0x26 ../attempt2_bsp//libucosii_bsp.a(alt_alarm_start.o)
 .debug_pubnames
                0x00002009       0x2b ../attempt2_bsp//libucosii_bsp.a(alt_dcache_flush_all.o)
 .debug_pubnames
                0x00002034       0x2b ../attempt2_bsp//libucosii_bsp.a(alt_dev_llist_insert.o)
 .debug_pubnames
                0x0000205f       0x20 ../attempt2_bsp//libucosii_bsp.a(alt_do_ctors.o)
 .debug_pubnames
                0x0000207f       0x20 ../attempt2_bsp//libucosii_bsp.a(alt_do_dtors.o)
 .debug_pubnames
                0x0000209f       0x23 ../attempt2_bsp//libucosii_bsp.a(alt_find_dev.o)
 .debug_pubnames
                0x000020c2       0x2b ../attempt2_bsp//libucosii_bsp.a(alt_icache_flush_all.o)
 .debug_pubnames
                0x000020ed       0x26 ../attempt2_bsp//libucosii_bsp.a(alt_io_redirect.o)
 .debug_pubnames
                0x00002113       0x27 ../attempt2_bsp//libucosii_bsp.a(alt_irq_register.o)
 .debug_pubnames
                0x0000213a       0x3b ../attempt2_bsp//libucosii_bsp.a(alt_irq_vars.o)
 .debug_pubnames
                0x00002175       0x1b ../attempt2_bsp//libucosii_bsp.a(alt_open.o)
 .debug_pubnames
                0x00002190       0x68 ../attempt2_bsp//libucosii_bsp.a(alt_tick.o)
 .debug_pubnames
                0x000021f8       0x31 ../attempt2_bsp//libucosii_bsp.a(altera_nios2_qsys_irq.o)
 .debug_pubnames
                0x00002229       0xcd ../attempt2_bsp//libucosii_bsp.a(os_cpu_c.o)
 .debug_pubnames
                0x000022f6       0x24 ../attempt2_bsp//libucosii_bsp.a(alt_find_file.o)
 .debug_pubnames
                0x0000231a       0x21 ../attempt2_bsp//libucosii_bsp.a(alt_get_fd.o)
 .debug_pubnames
                0x0000233b       0x32 ../attempt2_bsp//libucosii_bsp.a(alt_irq_handler.o)
 .debug_pubnames
                0x0000236d       0x2a /OPT/altera/12.1/nios2eds/bin/gnu/H-i686-pc-linux-gnu/bin/../lib/gcc/nios2-elf/4.1.2/../../../../nios2-elf/lib/mno-hw-mul/libc.a(lib_a-atexit.o)
 .debug_pubnames
                0x00002397       0x1b /OPT/altera/12.1/nios2eds/bin/gnu/H-i686-pc-linux-gnu/bin/../lib/gcc/nios2-elf/4.1.2/../../../../nios2-elf/lib/mno-hw-mul/libc.a(lib_a-exit.o)
 .debug_pubnames
                0x000023b2       0x1d /OPT/altera/12.1/nios2eds/bin/gnu/H-i686-pc-linux-gnu/bin/../lib/gcc/nios2-elf/4.1.2/../../../../nios2-elf/lib/mno-hw-mul/libc.a(lib_a-memcmp.o)
 .debug_pubnames
                0x000023cf       0x2a /OPT/altera/12.1/nios2eds/bin/gnu/H-i686-pc-linux-gnu/bin/../lib/gcc/nios2-elf/4.1.2/../../../../nios2-elf/lib/mno-hw-mul/libc.a(lib_a-__atexit.o)
 .debug_pubnames
                0x000023f9       0x27 /OPT/altera/12.1/nios2eds/bin/gnu/H-i686-pc-linux-gnu/bin/../lib/gcc/nios2-elf/4.1.2/../../../../nios2-elf/lib/mno-hw-mul/libc.a(lib_a-__call_atexit.o)
 .debug_pubnames
                0x00002420       0x1c ../attempt2_bsp//libucosii_bsp.a(alt_exit.o)

.debug_info     0x00000000    0x2cad8
 *(.debug_info .gnu.linkonce.wi.*)
 .debug_info    0x00000000       0x8a ../attempt2_bsp//obj/HAL/src/crt0.o
 .debug_info    0x0000008a      0x887 obj/default/hello_ucosii.o
 .debug_info    0x00000911       0xfd /OPT/altera/12.1/nios2eds/bin/gnu/H-i686-pc-linux-gnu/bin/../lib/gcc/nios2-elf/4.1.2/../../../../nios2-elf/lib/mno-hw-mul/libm.a(lib_a-s_sin.o)
 .debug_info    0x00000a0e      0x364 /OPT/altera/12.1/nios2eds/bin/gnu/H-i686-pc-linux-gnu/bin/../lib/gcc/nios2-elf/4.1.2/../../../../nios2-elf/lib/mno-hw-mul/libm.a(lib_a-e_rem_pio2.o)
 .debug_info    0x00000d72      0x21f /OPT/altera/12.1/nios2eds/bin/gnu/H-i686-pc-linux-gnu/bin/../lib/gcc/nios2-elf/4.1.2/../../../../nios2-elf/lib/mno-hw-mul/libm.a(lib_a-k_cos.o)
 .debug_info    0x00000f91      0x2e6 /OPT/altera/12.1/nios2eds/bin/gnu/H-i686-pc-linux-gnu/bin/../lib/gcc/nios2-elf/4.1.2/../../../../nios2-elf/lib/mno-hw-mul/libm.a(lib_a-k_rem_pio2.o)
 .debug_info    0x00001277      0x19e /OPT/altera/12.1/nios2eds/bin/gnu/H-i686-pc-linux-gnu/bin/../lib/gcc/nios2-elf/4.1.2/../../../../nios2-elf/lib/mno-hw-mul/libm.a(lib_a-k_sin.o)
 .debug_info    0x00001415      0x13b /OPT/altera/12.1/nios2eds/bin/gnu/H-i686-pc-linux-gnu/bin/../lib/gcc/nios2-elf/4.1.2/../../../../nios2-elf/lib/mno-hw-mul/libm.a(lib_a-s_fabs.o)
 .debug_info    0x00001550      0x1bf /OPT/altera/12.1/nios2eds/bin/gnu/H-i686-pc-linux-gnu/bin/../lib/gcc/nios2-elf/4.1.2/../../../../nios2-elf/lib/mno-hw-mul/libm.a(lib_a-s_floor.o)
 .debug_info    0x0000170f      0x225 /OPT/altera/12.1/nios2eds/bin/gnu/H-i686-pc-linux-gnu/bin/../lib/gcc/nios2-elf/4.1.2/../../../../nios2-elf/lib/mno-hw-mul/libm.a(lib_a-s_scalbn.o)
 .debug_info    0x00001934      0x154 /OPT/altera/12.1/nios2eds/bin/gnu/H-i686-pc-linux-gnu/bin/../lib/gcc/nios2-elf/4.1.2/../../../../nios2-elf/lib/mno-hw-mul/libm.a(lib_a-s_copysign.o)
 .debug_info    0x00001a88       0xce /OPT/altera/12.1/nios2eds/bin/gnu/H-i686-pc-linux-gnu/bin/../lib/gcc/nios2-elf/4.1.2/mno-hw-mul/libgcc.a(_fixunsdfsi.o)
 .debug_info    0x00001b56      0x493 /OPT/altera/12.1/nios2eds/bin/gnu/H-i686-pc-linux-gnu/bin/../lib/gcc/nios2-elf/4.1.2/mno-hw-mul/libgcc.a(_addsub_df.o)
 .debug_info    0x00001fe9      0x488 /OPT/altera/12.1/nios2eds/bin/gnu/H-i686-pc-linux-gnu/bin/../lib/gcc/nios2-elf/4.1.2/mno-hw-mul/libgcc.a(_mul_df.o)
 .debug_info    0x00002471      0x39b /OPT/altera/12.1/nios2eds/bin/gnu/H-i686-pc-linux-gnu/bin/../lib/gcc/nios2-elf/4.1.2/mno-hw-mul/libgcc.a(_div_df.o)
 .debug_info    0x0000280c      0x29d /OPT/altera/12.1/nios2eds/bin/gnu/H-i686-pc-linux-gnu/bin/../lib/gcc/nios2-elf/4.1.2/mno-hw-mul/libgcc.a(_eq_df.o)
 .debug_info    0x00002aa9      0x29d /OPT/altera/12.1/nios2eds/bin/gnu/H-i686-pc-linux-gnu/bin/../lib/gcc/nios2-elf/4.1.2/mno-hw-mul/libgcc.a(_gt_df.o)
 .debug_info    0x00002d46      0x29d /OPT/altera/12.1/nios2eds/bin/gnu/H-i686-pc-linux-gnu/bin/../lib/gcc/nios2-elf/4.1.2/mno-hw-mul/libgcc.a(_ge_df.o)
 .debug_info    0x00002fe3      0x218 /OPT/altera/12.1/nios2eds/bin/gnu/H-i686-pc-linux-gnu/bin/../lib/gcc/nios2-elf/4.1.2/mno-hw-mul/libgcc.a(_si_to_df.o)
 .debug_info    0x000031fb      0x2cd /OPT/altera/12.1/nios2eds/bin/gnu/H-i686-pc-linux-gnu/bin/../lib/gcc/nios2-elf/4.1.2/mno-hw-mul/libgcc.a(_df_to_si.o)
 .debug_info    0x000034c8      0x164 /OPT/altera/12.1/nios2eds/bin/gnu/H-i686-pc-linux-gnu/bin/../lib/gcc/nios2-elf/4.1.2/mno-hw-mul/libgcc.a(_thenan_df.o)
 .debug_info    0x0000362c      0x21c /OPT/altera/12.1/nios2eds/bin/gnu/H-i686-pc-linux-gnu/bin/../lib/gcc/nios2-elf/4.1.2/mno-hw-mul/libgcc.a(lib2-divmod.o)
 .debug_info    0x00003848       0xf3 /OPT/altera/12.1/nios2eds/bin/gnu/H-i686-pc-linux-gnu/bin/../lib/gcc/nios2-elf/4.1.2/mno-hw-mul/libgcc.a(lib2-mul.o)
 .debug_info    0x0000393b      0x210 /OPT/altera/12.1/nios2eds/bin/gnu/H-i686-pc-linux-gnu/bin/../lib/gcc/nios2-elf/4.1.2/mno-hw-mul/libgcc.a(_muldi3.o)
 .debug_info    0x00003b4b      0x130 /OPT/altera/12.1/nios2eds/bin/gnu/H-i686-pc-linux-gnu/bin/../lib/gcc/nios2-elf/4.1.2/mno-hw-mul/libgcc.a(_clzsi2.o)
 .debug_info    0x00003c7b      0x2fc /OPT/altera/12.1/nios2eds/bin/gnu/H-i686-pc-linux-gnu/bin/../lib/gcc/nios2-elf/4.1.2/mno-hw-mul/libgcc.a(_pack_df.o)
 .debug_info    0x00003f77      0x268 /OPT/altera/12.1/nios2eds/bin/gnu/H-i686-pc-linux-gnu/bin/../lib/gcc/nios2-elf/4.1.2/mno-hw-mul/libgcc.a(_unpack_df.o)
 .debug_info    0x000041df      0x21b /OPT/altera/12.1/nios2eds/bin/gnu/H-i686-pc-linux-gnu/bin/../lib/gcc/nios2-elf/4.1.2/mno-hw-mul/libgcc.a(_fpcmp_parts_df.o)
 .debug_info    0x000043fa       0xc9 /OPT/altera/12.1/nios2eds/bin/gnu/H-i686-pc-linux-gnu/bin/../lib/gcc/nios2-elf/4.1.2/mno-hw-mul/libgcc.a(_clz.o)
 .debug_info    0x000044c3      0xa25 /OPT/altera/12.1/nios2eds/bin/gnu/H-i686-pc-linux-gnu/bin/../lib/gcc/nios2-elf/4.1.2/../../../../nios2-elf/lib/mno-hw-mul/libc.a(lib_a-puts.o)
 .debug_info    0x00004ee8       0xdb /OPT/altera/12.1/nios2eds/bin/gnu/H-i686-pc-linux-gnu/bin/../lib/gcc/nios2-elf/4.1.2/../../../../nios2-elf/lib/mno-hw-mul/libc.a(lib_a-strlen.o)
 .debug_info    0x00004fc3      0xa88 /OPT/altera/12.1/nios2eds/bin/gnu/H-i686-pc-linux-gnu/bin/../lib/gcc/nios2-elf/4.1.2/../../../../nios2-elf/lib/mno-hw-mul/libc.a(lib_a-fvwrite.o)
 .debug_info    0x00005a4b      0x93d /OPT/altera/12.1/nios2eds/bin/gnu/H-i686-pc-linux-gnu/bin/../lib/gcc/nios2-elf/4.1.2/../../../../nios2-elf/lib/mno-hw-mul/libc.a(lib_a-impure.o)
 .debug_info    0x00006388      0xcd0 /OPT/altera/12.1/nios2eds/bin/gnu/H-i686-pc-linux-gnu/bin/../lib/gcc/nios2-elf/4.1.2/../../../../nios2-elf/lib/mno-hw-mul/libc.a(lib_a-mallocr.o)
 .debug_info    0x00007058      0x138 /OPT/altera/12.1/nios2eds/bin/gnu/H-i686-pc-linux-gnu/bin/../lib/gcc/nios2-elf/4.1.2/../../../../nios2-elf/lib/mno-hw-mul/libc.a(lib_a-memchr.o)
 .debug_info    0x00007190      0x106 /OPT/altera/12.1/nios2eds/bin/gnu/H-i686-pc-linux-gnu/bin/../lib/gcc/nios2-elf/4.1.2/../../../../nios2-elf/lib/mno-hw-mul/libc.a(lib_a-memcpy.o)
 .debug_info    0x00007296      0x13e /OPT/altera/12.1/nios2eds/bin/gnu/H-i686-pc-linux-gnu/bin/../lib/gcc/nios2-elf/4.1.2/../../../../nios2-elf/lib/mno-hw-mul/libc.a(lib_a-memmove.o)
 .debug_info    0x000073d4      0xbd7 /OPT/altera/12.1/nios2eds/bin/gnu/H-i686-pc-linux-gnu/bin/../lib/gcc/nios2-elf/4.1.2/../../../../nios2-elf/lib/mno-hw-mul/libc.a(lib_a-reallocr.o)
 .debug_info    0x00007fab      0x962 /OPT/altera/12.1/nios2eds/bin/gnu/H-i686-pc-linux-gnu/bin/../lib/gcc/nios2-elf/4.1.2/../../../../nios2-elf/lib/mno-hw-mul/libc.a(lib_a-sbrkr.o)
 .debug_info    0x0000890d      0x95d /OPT/altera/12.1/nios2eds/bin/gnu/H-i686-pc-linux-gnu/bin/../lib/gcc/nios2-elf/4.1.2/../../../../nios2-elf/lib/mno-hw-mul/libc.a(lib_a-wsetup.o)
 .debug_info    0x0000926a      0x9fe /OPT/altera/12.1/nios2eds/bin/gnu/H-i686-pc-linux-gnu/bin/../lib/gcc/nios2-elf/4.1.2/../../../../nios2-elf/lib/mno-hw-mul/libc.a(lib_a-fflush.o)
 .debug_info    0x00009c68      0xb72 /OPT/altera/12.1/nios2eds/bin/gnu/H-i686-pc-linux-gnu/bin/../lib/gcc/nios2-elf/4.1.2/../../../../nios2-elf/lib/mno-hw-mul/libc.a(lib_a-findfp.o)
 .debug_info    0x0000a7da      0xbc9 /OPT/altera/12.1/nios2eds/bin/gnu/H-i686-pc-linux-gnu/bin/../lib/gcc/nios2-elf/4.1.2/../../../../nios2-elf/lib/mno-hw-mul/libc.a(lib_a-freer.o)
 .debug_info    0x0000b3a3      0xaed /OPT/altera/12.1/nios2eds/bin/gnu/H-i686-pc-linux-gnu/bin/../lib/gcc/nios2-elf/4.1.2/../../../../nios2-elf/lib/mno-hw-mul/libc.a(lib_a-fwalk.o)
 .debug_info    0x0000be90       0x8c /OPT/altera/12.1/nios2eds/bin/gnu/H-i686-pc-linux-gnu/bin/../lib/gcc/nios2-elf/4.1.2/../../../../nios2-elf/lib/mno-hw-mul/libc.a(lib_a-int_errno.o)
 .debug_info    0x0000bf1c      0xb1a /OPT/altera/12.1/nios2eds/bin/gnu/H-i686-pc-linux-gnu/bin/../lib/gcc/nios2-elf/4.1.2/../../../../nios2-elf/lib/mno-hw-mul/libc.a(lib_a-makebuf.o)
 .debug_info    0x0000ca36      0x113 /OPT/altera/12.1/nios2eds/bin/gnu/H-i686-pc-linux-gnu/bin/../lib/gcc/nios2-elf/4.1.2/../../../../nios2-elf/lib/mno-hw-mul/libc.a(lib_a-memset.o)
 .debug_info    0x0000cb49      0xaac /OPT/altera/12.1/nios2eds/bin/gnu/H-i686-pc-linux-gnu/bin/../lib/gcc/nios2-elf/4.1.2/../../../../nios2-elf/lib/mno-hw-mul/libc.a(lib_a-stdio.o)
 .debug_info    0x0000d5f5      0x993 /OPT/altera/12.1/nios2eds/bin/gnu/H-i686-pc-linux-gnu/bin/../lib/gcc/nios2-elf/4.1.2/../../../../nios2-elf/lib/mno-hw-mul/libc.a(lib_a-writer.o)
 .debug_info    0x0000df88      0x958 /OPT/altera/12.1/nios2eds/bin/gnu/H-i686-pc-linux-gnu/bin/../lib/gcc/nios2-elf/4.1.2/../../../../nios2-elf/lib/mno-hw-mul/libc.a(lib_a-closer.o)
 .debug_info    0x0000e8e0      0x994 /OPT/altera/12.1/nios2eds/bin/gnu/H-i686-pc-linux-gnu/bin/../lib/gcc/nios2-elf/4.1.2/../../../../nios2-elf/lib/mno-hw-mul/libc.a(lib_a-fclose.o)
 .debug_info    0x0000f274      0xafc /OPT/altera/12.1/nios2eds/bin/gnu/H-i686-pc-linux-gnu/bin/../lib/gcc/nios2-elf/4.1.2/../../../../nios2-elf/lib/mno-hw-mul/libc.a(lib_a-fstatr.o)
 .debug_info    0x0000fd70      0x958 /OPT/altera/12.1/nios2eds/bin/gnu/H-i686-pc-linux-gnu/bin/../lib/gcc/nios2-elf/4.1.2/../../../../nios2-elf/lib/mno-hw-mul/libc.a(lib_a-isattyr.o)
 .debug_info    0x000106c8      0x981 /OPT/altera/12.1/nios2eds/bin/gnu/H-i686-pc-linux-gnu/bin/../lib/gcc/nios2-elf/4.1.2/../../../../nios2-elf/lib/mno-hw-mul/libc.a(lib_a-lseekr.o)
 .debug_info    0x00011049      0x98c /OPT/altera/12.1/nios2eds/bin/gnu/H-i686-pc-linux-gnu/bin/../lib/gcc/nios2-elf/4.1.2/../../../../nios2-elf/lib/mno-hw-mul/libc.a(lib_a-readr.o)
 .debug_info    0x000119d5      0x4fe ../attempt2_bsp//libucosii_bsp.a(alt_close.o)
 .debug_info    0x00011ed3      0x820 ../attempt2_bsp//libucosii_bsp.a(alt_dev.o)
 .debug_info    0x000126f3      0x173 ../attempt2_bsp//libucosii_bsp.a(alt_errno.o)
 .debug_info    0x00012866      0x6f7 ../attempt2_bsp//libucosii_bsp.a(alt_fstat.o)
 .debug_info    0x00012f5d      0x6fd ../attempt2_bsp//libucosii_bsp.a(alt_isatty.o)
 .debug_info    0x0001365a      0x29c ../attempt2_bsp//libucosii_bsp.a(alt_load.o)
 .debug_info    0x000138f6      0x531 ../attempt2_bsp//libucosii_bsp.a(alt_lseek.o)
 .debug_info    0x00013e27      0x420 ../attempt2_bsp//libucosii_bsp.a(alt_main.o)
 .debug_info    0x00014247      0x721 ../attempt2_bsp//libucosii_bsp.a(alt_read.o)
 .debug_info    0x00014968      0x491 ../attempt2_bsp//libucosii_bsp.a(alt_release_fd.o)
 .debug_info    0x00014df9      0x30d ../attempt2_bsp//libucosii_bsp.a(alt_sbrk.o)
 .debug_info    0x00015106      0x729 ../attempt2_bsp//libucosii_bsp.a(alt_write.o)
 .debug_info    0x0001582f     0x1215 ../attempt2_bsp//libucosii_bsp.a(alt_env_lock.o)
 .debug_info    0x00016a44     0x1371 ../attempt2_bsp//libucosii_bsp.a(alt_malloc_lock.o)
 .debug_info    0x00017db5     0x1c2b ../attempt2_bsp//libucosii_bsp.a(os_core.o)
 .debug_info    0x000199e0     0x1170 ../attempt2_bsp//libucosii_bsp.a(os_dbg.o)
 .debug_info    0x0001ab50     0x1286 ../attempt2_bsp//libucosii_bsp.a(os_flag.o)
 .debug_info    0x0001bdd6      0x850 ../attempt2_bsp//libucosii_bsp.a(os_mem.o)
 .debug_info    0x0001c626     0x10c0 ../attempt2_bsp//libucosii_bsp.a(os_q.o)
 .debug_info    0x0001d6e6      0xd28 ../attempt2_bsp//libucosii_bsp.a(os_sem.o)
 .debug_info    0x0001e40e     0x139e ../attempt2_bsp//libucosii_bsp.a(os_task.o)
 .debug_info    0x0001f7ac      0xa22 ../attempt2_bsp//libucosii_bsp.a(os_time.o)
 .debug_info    0x000201ce      0xb45 ../attempt2_bsp//libucosii_bsp.a(alt_sys_init.o)
 .debug_info    0x00020d13      0xa14 ../attempt2_bsp//libucosii_bsp.a(altera_avalon_jtag_uart_fd.o)
 .debug_info    0x00021727      0x99f ../attempt2_bsp//libucosii_bsp.a(altera_avalon_jtag_uart_init.o)
 .debug_info    0x000220c6      0x67e ../attempt2_bsp//libucosii_bsp.a(altera_avalon_jtag_uart_ioctl.o)
 .debug_info    0x00022744      0x83a ../attempt2_bsp//libucosii_bsp.a(altera_avalon_jtag_uart_read.o)
 .debug_info    0x00022f7e      0x831 ../attempt2_bsp//libucosii_bsp.a(altera_avalon_jtag_uart_write.o)
 .debug_info    0x000237af      0x3da ../attempt2_bsp//libucosii_bsp.a(altera_avalon_timer_sc.o)
 .debug_info    0x00023b89      0xb6a ../attempt2_bsp//libucosii_bsp.a(altera_up_avalon_audio.o)
 .debug_info    0x000246f3      0xc4c ../attempt2_bsp//libucosii_bsp.a(altera_up_avalon_audio_and_video_config.o)
 .debug_info    0x0002533f      0x93e ../attempt2_bsp//libucosii_bsp.a(altera_up_avalon_character_lcd.o)
 .debug_info    0x00025c7d      0x485 ../attempt2_bsp//libucosii_bsp.a(alt_alarm_start.o)
 .debug_info    0x00026102      0x16c ../attempt2_bsp//libucosii_bsp.a(alt_dcache_flush_all.o)
 .debug_info    0x0002626e      0x2c6 ../attempt2_bsp//libucosii_bsp.a(alt_dev_llist_insert.o)
 .debug_info    0x00026534      0x11e ../attempt2_bsp//libucosii_bsp.a(alt_do_ctors.o)
 .debug_info    0x00026652      0x11d ../attempt2_bsp//libucosii_bsp.a(alt_do_dtors.o)
 .debug_info    0x0002676f      0x4af ../attempt2_bsp//libucosii_bsp.a(alt_find_dev.o)
 .debug_info    0x00026c1e      0x16c ../attempt2_bsp//libucosii_bsp.a(alt_icache_flush_all.o)
 .debug_info    0x00026d8a      0x72c ../attempt2_bsp//libucosii_bsp.a(alt_io_redirect.o)
 .debug_info    0x000274b6      0x47f ../attempt2_bsp//libucosii_bsp.a(alt_irq_register.o)
 .debug_info    0x00027935      0x177 ../attempt2_bsp//libucosii_bsp.a(alt_irq_vars.o)
 .debug_info    0x00027aac      0x5ad ../attempt2_bsp//libucosii_bsp.a(alt_open.o)
 .debug_info    0x00028059      0x453 ../attempt2_bsp//libucosii_bsp.a(alt_tick.o)
 .debug_info    0x000284ac      0x1b9 ../attempt2_bsp//libucosii_bsp.a(altera_nios2_qsys_irq.o)
 .debug_info    0x00028665       0x92 ../attempt2_bsp//libucosii_bsp.a(os_cpu_a.o)
 .debug_info    0x000286f7     0x1315 ../attempt2_bsp//libucosii_bsp.a(os_cpu_c.o)
 .debug_info    0x00029a0c      0x4b6 ../attempt2_bsp//libucosii_bsp.a(alt_find_file.o)
 .debug_info    0x00029ec2      0x648 ../attempt2_bsp//libucosii_bsp.a(alt_get_fd.o)
 .debug_info    0x0002a50a       0x94 ../attempt2_bsp//libucosii_bsp.a(alt_irq_entry.o)
 .debug_info    0x0002a59e      0x302 ../attempt2_bsp//libucosii_bsp.a(alt_irq_handler.o)
 .debug_info    0x0002a8a0       0x9a ../attempt2_bsp//libucosii_bsp.a(alt_exception_entry.o)
 .debug_info    0x0002a93a      0x181 /OPT/altera/12.1/nios2eds/bin/gnu/H-i686-pc-linux-gnu/bin/../lib/gcc/nios2-elf/4.1.2/../../../../nios2-elf/lib/mno-hw-mul/libc.a(lib_a-atexit.o)
 .debug_info    0x0002aabb      0x93f /OPT/altera/12.1/nios2eds/bin/gnu/H-i686-pc-linux-gnu/bin/../lib/gcc/nios2-elf/4.1.2/../../../../nios2-elf/lib/mno-hw-mul/libc.a(lib_a-exit.o)
 .debug_info    0x0002b3fa      0x115 /OPT/altera/12.1/nios2eds/bin/gnu/H-i686-pc-linux-gnu/bin/../lib/gcc/nios2-elf/4.1.2/../../../../nios2-elf/lib/mno-hw-mul/libc.a(lib_a-memcmp.o)
 .debug_info    0x0002b50f      0x99c /OPT/altera/12.1/nios2eds/bin/gnu/H-i686-pc-linux-gnu/bin/../lib/gcc/nios2-elf/4.1.2/../../../../nios2-elf/lib/mno-hw-mul/libc.a(lib_a-__atexit.o)
 .debug_info    0x0002beab      0x9e2 /OPT/altera/12.1/nios2eds/bin/gnu/H-i686-pc-linux-gnu/bin/../lib/gcc/nios2-elf/4.1.2/../../../../nios2-elf/lib/mno-hw-mul/libc.a(lib_a-__call_atexit.o)
 .debug_info    0x0002c88d      0x24b ../attempt2_bsp//libucosii_bsp.a(alt_exit.o)

.debug_abbrev   0x00000000     0x880f
 *(.debug_abbrev)
 .debug_abbrev  0x00000000       0x12 ../attempt2_bsp//obj/HAL/src/crt0.o
 .debug_abbrev  0x00000012      0x183 obj/default/hello_ucosii.o
 .debug_abbrev  0x00000195       0x9a /OPT/altera/12.1/nios2eds/bin/gnu/H-i686-pc-linux-gnu/bin/../lib/gcc/nios2-elf/4.1.2/../../../../nios2-elf/lib/mno-hw-mul/libm.a(lib_a-s_sin.o)
 .debug_abbrev  0x0000022f      0x135 /OPT/altera/12.1/nios2eds/bin/gnu/H-i686-pc-linux-gnu/bin/../lib/gcc/nios2-elf/4.1.2/../../../../nios2-elf/lib/mno-hw-mul/libm.a(lib_a-e_rem_pio2.o)
 .debug_abbrev  0x00000364       0xec /OPT/altera/12.1/nios2eds/bin/gnu/H-i686-pc-linux-gnu/bin/../lib/gcc/nios2-elf/4.1.2/../../../../nios2-elf/lib/mno-hw-mul/libm.a(lib_a-k_cos.o)
 .debug_abbrev  0x00000450      0x104 /OPT/altera/12.1/nios2eds/bin/gnu/H-i686-pc-linux-gnu/bin/../lib/gcc/nios2-elf/4.1.2/../../../../nios2-elf/lib/mno-hw-mul/libm.a(lib_a-k_rem_pio2.o)
 .debug_abbrev  0x00000554       0xa0 /OPT/altera/12.1/nios2eds/bin/gnu/H-i686-pc-linux-gnu/bin/../lib/gcc/nios2-elf/4.1.2/../../../../nios2-elf/lib/mno-hw-mul/libm.a(lib_a-k_sin.o)
 .debug_abbrev  0x000005f4       0xc3 /OPT/altera/12.1/nios2eds/bin/gnu/H-i686-pc-linux-gnu/bin/../lib/gcc/nios2-elf/4.1.2/../../../../nios2-elf/lib/mno-hw-mul/libm.a(lib_a-s_fabs.o)
 .debug_abbrev  0x000006b7       0xea /OPT/altera/12.1/nios2eds/bin/gnu/H-i686-pc-linux-gnu/bin/../lib/gcc/nios2-elf/4.1.2/../../../../nios2-elf/lib/mno-hw-mul/libm.a(lib_a-s_floor.o)
 .debug_abbrev  0x000007a1       0xf5 /OPT/altera/12.1/nios2eds/bin/gnu/H-i686-pc-linux-gnu/bin/../lib/gcc/nios2-elf/4.1.2/../../../../nios2-elf/lib/mno-hw-mul/libm.a(lib_a-s_scalbn.o)
 .debug_abbrev  0x00000896       0xc3 /OPT/altera/12.1/nios2eds/bin/gnu/H-i686-pc-linux-gnu/bin/../lib/gcc/nios2-elf/4.1.2/../../../../nios2-elf/lib/mno-hw-mul/libm.a(lib_a-s_copysign.o)
 .debug_abbrev  0x00000959       0x5d /OPT/altera/12.1/nios2eds/bin/gnu/H-i686-pc-linux-gnu/bin/../lib/gcc/nios2-elf/4.1.2/mno-hw-mul/libgcc.a(_fixunsdfsi.o)
 .debug_abbrev  0x000009b6      0x1d2 /OPT/altera/12.1/nios2eds/bin/gnu/H-i686-pc-linux-gnu/bin/../lib/gcc/nios2-elf/4.1.2/mno-hw-mul/libgcc.a(_addsub_df.o)
 .debug_abbrev  0x00000b88      0x204 /OPT/altera/12.1/nios2eds/bin/gnu/H-i686-pc-linux-gnu/bin/../lib/gcc/nios2-elf/4.1.2/mno-hw-mul/libgcc.a(_mul_df.o)
 .debug_abbrev  0x00000d8c      0x1e3 /OPT/altera/12.1/nios2eds/bin/gnu/H-i686-pc-linux-gnu/bin/../lib/gcc/nios2-elf/4.1.2/mno-hw-mul/libgcc.a(_div_df.o)
 .debug_abbrev  0x00000f6f      0x151 /OPT/altera/12.1/nios2eds/bin/gnu/H-i686-pc-linux-gnu/bin/../lib/gcc/nios2-elf/4.1.2/mno-hw-mul/libgcc.a(_eq_df.o)
 .debug_abbrev  0x000010c0      0x151 /OPT/altera/12.1/nios2eds/bin/gnu/H-i686-pc-linux-gnu/bin/../lib/gcc/nios2-elf/4.1.2/mno-hw-mul/libgcc.a(_gt_df.o)
 .debug_abbrev  0x00001211      0x151 /OPT/altera/12.1/nios2eds/bin/gnu/H-i686-pc-linux-gnu/bin/../lib/gcc/nios2-elf/4.1.2/mno-hw-mul/libgcc.a(_ge_df.o)
 .debug_abbrev  0x00001362      0x13f /OPT/altera/12.1/nios2eds/bin/gnu/H-i686-pc-linux-gnu/bin/../lib/gcc/nios2-elf/4.1.2/mno-hw-mul/libgcc.a(_si_to_df.o)
 .debug_abbrev  0x000014a1      0x176 /OPT/altera/12.1/nios2eds/bin/gnu/H-i686-pc-linux-gnu/bin/../lib/gcc/nios2-elf/4.1.2/mno-hw-mul/libgcc.a(_df_to_si.o)
 .debug_abbrev  0x00001617       0xba /OPT/altera/12.1/nios2eds/bin/gnu/H-i686-pc-linux-gnu/bin/../lib/gcc/nios2-elf/4.1.2/mno-hw-mul/libgcc.a(_thenan_df.o)
 .debug_abbrev  0x000016d1       0xe0 /OPT/altera/12.1/nios2eds/bin/gnu/H-i686-pc-linux-gnu/bin/../lib/gcc/nios2-elf/4.1.2/mno-hw-mul/libgcc.a(lib2-divmod.o)
 .debug_abbrev  0x000017b1       0x7b /OPT/altera/12.1/nios2eds/bin/gnu/H-i686-pc-linux-gnu/bin/../lib/gcc/nios2-elf/4.1.2/mno-hw-mul/libgcc.a(lib2-mul.o)
 .debug_abbrev  0x0000182c       0xfb /OPT/altera/12.1/nios2eds/bin/gnu/H-i686-pc-linux-gnu/bin/../lib/gcc/nios2-elf/4.1.2/mno-hw-mul/libgcc.a(_muldi3.o)
 .debug_abbrev  0x00001927       0xb9 /OPT/altera/12.1/nios2eds/bin/gnu/H-i686-pc-linux-gnu/bin/../lib/gcc/nios2-elf/4.1.2/mno-hw-mul/libgcc.a(_clzsi2.o)
 .debug_abbrev  0x000019e0      0x1b1 /OPT/altera/12.1/nios2eds/bin/gnu/H-i686-pc-linux-gnu/bin/../lib/gcc/nios2-elf/4.1.2/mno-hw-mul/libgcc.a(_pack_df.o)
 .debug_abbrev  0x00001b91      0x149 /OPT/altera/12.1/nios2eds/bin/gnu/H-i686-pc-linux-gnu/bin/../lib/gcc/nios2-elf/4.1.2/mno-hw-mul/libgcc.a(_unpack_df.o)
 .debug_abbrev  0x00001cda      0x132 /OPT/altera/12.1/nios2eds/bin/gnu/H-i686-pc-linux-gnu/bin/../lib/gcc/nios2-elf/4.1.2/mno-hw-mul/libgcc.a(_fpcmp_parts_df.o)
 .debug_abbrev  0x00001e0c       0x61 /OPT/altera/12.1/nios2eds/bin/gnu/H-i686-pc-linux-gnu/bin/../lib/gcc/nios2-elf/4.1.2/mno-hw-mul/libgcc.a(_clz.o)
 .debug_abbrev  0x00001e6d      0x1ac /OPT/altera/12.1/nios2eds/bin/gnu/H-i686-pc-linux-gnu/bin/../lib/gcc/nios2-elf/4.1.2/../../../../nios2-elf/lib/mno-hw-mul/libc.a(lib_a-puts.o)
 .debug_abbrev  0x00002019       0x8b /OPT/altera/12.1/nios2eds/bin/gnu/H-i686-pc-linux-gnu/bin/../lib/gcc/nios2-elf/4.1.2/../../../../nios2-elf/lib/mno-hw-mul/libc.a(lib_a-strlen.o)
 .debug_abbrev  0x000020a4      0x1a3 /OPT/altera/12.1/nios2eds/bin/gnu/H-i686-pc-linux-gnu/bin/../lib/gcc/nios2-elf/4.1.2/../../../../nios2-elf/lib/mno-hw-mul/libc.a(lib_a-fvwrite.o)
 .debug_abbrev  0x00002247      0x157 /OPT/altera/12.1/nios2eds/bin/gnu/H-i686-pc-linux-gnu/bin/../lib/gcc/nios2-elf/4.1.2/../../../../nios2-elf/lib/mno-hw-mul/libc.a(lib_a-impure.o)
 .debug_abbrev  0x0000239e      0x216 /OPT/altera/12.1/nios2eds/bin/gnu/H-i686-pc-linux-gnu/bin/../lib/gcc/nios2-elf/4.1.2/../../../../nios2-elf/lib/mno-hw-mul/libc.a(lib_a-mallocr.o)
 .debug_abbrev  0x000025b4       0xb5 /OPT/altera/12.1/nios2eds/bin/gnu/H-i686-pc-linux-gnu/bin/../lib/gcc/nios2-elf/4.1.2/../../../../nios2-elf/lib/mno-hw-mul/libc.a(lib_a-memchr.o)
 .debug_abbrev  0x00002669       0xb5 /OPT/altera/12.1/nios2eds/bin/gnu/H-i686-pc-linux-gnu/bin/../lib/gcc/nios2-elf/4.1.2/../../../../nios2-elf/lib/mno-hw-mul/libc.a(lib_a-memcpy.o)
 .debug_abbrev  0x0000271e       0xb5 /OPT/altera/12.1/nios2eds/bin/gnu/H-i686-pc-linux-gnu/bin/../lib/gcc/nios2-elf/4.1.2/../../../../nios2-elf/lib/mno-hw-mul/libc.a(lib_a-memmove.o)
 .debug_abbrev  0x000027d3      0x1c3 /OPT/altera/12.1/nios2eds/bin/gnu/H-i686-pc-linux-gnu/bin/../lib/gcc/nios2-elf/4.1.2/../../../../nios2-elf/lib/mno-hw-mul/libc.a(lib_a-reallocr.o)
 .debug_abbrev  0x00002996      0x18c /OPT/altera/12.1/nios2eds/bin/gnu/H-i686-pc-linux-gnu/bin/../lib/gcc/nios2-elf/4.1.2/../../../../nios2-elf/lib/mno-hw-mul/libc.a(lib_a-sbrkr.o)
 .debug_abbrev  0x00002b22      0x170 /OPT/altera/12.1/nios2eds/bin/gnu/H-i686-pc-linux-gnu/bin/../lib/gcc/nios2-elf/4.1.2/../../../../nios2-elf/lib/mno-hw-mul/libc.a(lib_a-wsetup.o)
 .debug_abbrev  0x00002c92      0x1c6 /OPT/altera/12.1/nios2eds/bin/gnu/H-i686-pc-linux-gnu/bin/../lib/gcc/nios2-elf/4.1.2/../../../../nios2-elf/lib/mno-hw-mul/libc.a(lib_a-fflush.o)
 .debug_abbrev  0x00002e58      0x24c /OPT/altera/12.1/nios2eds/bin/gnu/H-i686-pc-linux-gnu/bin/../lib/gcc/nios2-elf/4.1.2/../../../../nios2-elf/lib/mno-hw-mul/libc.a(lib_a-findfp.o)
 .debug_abbrev  0x000030a4      0x1d9 /OPT/altera/12.1/nios2eds/bin/gnu/H-i686-pc-linux-gnu/bin/../lib/gcc/nios2-elf/4.1.2/../../../../nios2-elf/lib/mno-hw-mul/libc.a(lib_a-freer.o)
 .debug_abbrev  0x0000327d      0x1e3 /OPT/altera/12.1/nios2eds/bin/gnu/H-i686-pc-linux-gnu/bin/../lib/gcc/nios2-elf/4.1.2/../../../../nios2-elf/lib/mno-hw-mul/libc.a(lib_a-fwalk.o)
 .debug_abbrev  0x00003460       0x3b /OPT/altera/12.1/nios2eds/bin/gnu/H-i686-pc-linux-gnu/bin/../lib/gcc/nios2-elf/4.1.2/../../../../nios2-elf/lib/mno-hw-mul/libc.a(lib_a-int_errno.o)
 .debug_abbrev  0x0000349b      0x197 /OPT/altera/12.1/nios2eds/bin/gnu/H-i686-pc-linux-gnu/bin/../lib/gcc/nios2-elf/4.1.2/../../../../nios2-elf/lib/mno-hw-mul/libc.a(lib_a-makebuf.o)
 .debug_abbrev  0x00003632       0xb8 /OPT/altera/12.1/nios2eds/bin/gnu/H-i686-pc-linux-gnu/bin/../lib/gcc/nios2-elf/4.1.2/../../../../nios2-elf/lib/mno-hw-mul/libc.a(lib_a-memset.o)
 .debug_abbrev  0x000036ea      0x1c9 /OPT/altera/12.1/nios2eds/bin/gnu/H-i686-pc-linux-gnu/bin/../lib/gcc/nios2-elf/4.1.2/../../../../nios2-elf/lib/mno-hw-mul/libc.a(lib_a-stdio.o)
 .debug_abbrev  0x000038b3      0x184 /OPT/altera/12.1/nios2eds/bin/gnu/H-i686-pc-linux-gnu/bin/../lib/gcc/nios2-elf/4.1.2/../../../../nios2-elf/lib/mno-hw-mul/libc.a(lib_a-writer.o)
 .debug_abbrev  0x00003a37      0x17f /OPT/altera/12.1/nios2eds/bin/gnu/H-i686-pc-linux-gnu/bin/../lib/gcc/nios2-elf/4.1.2/../../../../nios2-elf/lib/mno-hw-mul/libc.a(lib_a-closer.o)
 .debug_abbrev  0x00003bb6      0x1a7 /OPT/altera/12.1/nios2eds/bin/gnu/H-i686-pc-linux-gnu/bin/../lib/gcc/nios2-elf/4.1.2/../../../../nios2-elf/lib/mno-hw-mul/libc.a(lib_a-fclose.o)
 .debug_abbrev  0x00003d5d      0x18e /OPT/altera/12.1/nios2eds/bin/gnu/H-i686-pc-linux-gnu/bin/../lib/gcc/nios2-elf/4.1.2/../../../../nios2-elf/lib/mno-hw-mul/libc.a(lib_a-fstatr.o)
 .debug_abbrev  0x00003eeb      0x17f /OPT/altera/12.1/nios2eds/bin/gnu/H-i686-pc-linux-gnu/bin/../lib/gcc/nios2-elf/4.1.2/../../../../nios2-elf/lib/mno-hw-mul/libc.a(lib_a-isattyr.o)
 .debug_abbrev  0x0000406a      0x18e /OPT/altera/12.1/nios2eds/bin/gnu/H-i686-pc-linux-gnu/bin/../lib/gcc/nios2-elf/4.1.2/../../../../nios2-elf/lib/mno-hw-mul/libc.a(lib_a-lseekr.o)
 .debug_abbrev  0x000041f8      0x17f /OPT/altera/12.1/nios2eds/bin/gnu/H-i686-pc-linux-gnu/bin/../lib/gcc/nios2-elf/4.1.2/../../../../nios2-elf/lib/mno-hw-mul/libc.a(lib_a-readr.o)
 .debug_abbrev  0x00004377      0x102 ../attempt2_bsp//libucosii_bsp.a(alt_close.o)
 .debug_abbrev  0x00004479      0x10a ../attempt2_bsp//libucosii_bsp.a(alt_dev.o)
 .debug_abbrev  0x00004583       0x5e ../attempt2_bsp//libucosii_bsp.a(alt_errno.o)
 .debug_abbrev  0x000045e1      0x102 ../attempt2_bsp//libucosii_bsp.a(alt_fstat.o)
 .debug_abbrev  0x000046e3      0x102 ../attempt2_bsp//libucosii_bsp.a(alt_isatty.o)
 .debug_abbrev  0x000047e5       0x88 ../attempt2_bsp//libucosii_bsp.a(alt_load.o)
 .debug_abbrev  0x0000486d      0x102 ../attempt2_bsp//libucosii_bsp.a(alt_lseek.o)
 .debug_abbrev  0x0000496f      0x120 ../attempt2_bsp//libucosii_bsp.a(alt_main.o)
 .debug_abbrev  0x00004a8f      0x102 ../attempt2_bsp//libucosii_bsp.a(alt_read.o)
 .debug_abbrev  0x00004b91       0xd3 ../attempt2_bsp//libucosii_bsp.a(alt_release_fd.o)
 .debug_abbrev  0x00004c64      0x11c ../attempt2_bsp//libucosii_bsp.a(alt_sbrk.o)
 .debug_abbrev  0x00004d80      0x107 ../attempt2_bsp//libucosii_bsp.a(alt_write.o)
 .debug_abbrev  0x00004e87      0x1b3 ../attempt2_bsp//libucosii_bsp.a(alt_env_lock.o)
 .debug_abbrev  0x0000503a      0x234 ../attempt2_bsp//libucosii_bsp.a(alt_malloc_lock.o)
 .debug_abbrev  0x0000526e      0x2aa ../attempt2_bsp//libucosii_bsp.a(os_core.o)
 .debug_abbrev  0x00005518      0x114 ../attempt2_bsp//libucosii_bsp.a(os_dbg.o)
 .debug_abbrev  0x0000562c      0x21b ../attempt2_bsp//libucosii_bsp.a(os_flag.o)
 .debug_abbrev  0x00005847      0x235 ../attempt2_bsp//libucosii_bsp.a(os_mem.o)
 .debug_abbrev  0x00005a7c      0x20d ../attempt2_bsp//libucosii_bsp.a(os_q.o)
 .debug_abbrev  0x00005c89      0x20d ../attempt2_bsp//libucosii_bsp.a(os_sem.o)
 .debug_abbrev  0x00005e96      0x20e ../attempt2_bsp//libucosii_bsp.a(os_task.o)
 .debug_abbrev  0x000060a4      0x1de ../attempt2_bsp//libucosii_bsp.a(os_time.o)
 .debug_abbrev  0x00006282      0x1b9 ../attempt2_bsp//libucosii_bsp.a(alt_sys_init.o)
 .debug_abbrev  0x0000643b      0x13c ../attempt2_bsp//libucosii_bsp.a(altera_avalon_jtag_uart_fd.o)
 .debug_abbrev  0x00006577      0x21e ../attempt2_bsp//libucosii_bsp.a(altera_avalon_jtag_uart_init.o)
 .debug_abbrev  0x00006795      0x135 ../attempt2_bsp//libucosii_bsp.a(altera_avalon_jtag_uart_ioctl.o)
 .debug_abbrev  0x000068ca      0x1ee ../attempt2_bsp//libucosii_bsp.a(altera_avalon_jtag_uart_read.o)
 .debug_abbrev  0x00006ab8      0x1ea ../attempt2_bsp//libucosii_bsp.a(altera_avalon_jtag_uart_write.o)
 .debug_abbrev  0x00006ca2      0x137 ../attempt2_bsp//libucosii_bsp.a(altera_avalon_timer_sc.o)
 .debug_abbrev  0x00006dd9      0x16b ../attempt2_bsp//libucosii_bsp.a(altera_up_avalon_audio.o)
 .debug_abbrev  0x00006f44      0x117 ../attempt2_bsp//libucosii_bsp.a(altera_up_avalon_audio_and_video_config.o)
 .debug_abbrev  0x0000705b      0x127 ../attempt2_bsp//libucosii_bsp.a(altera_up_avalon_character_lcd.o)
 .debug_abbrev  0x00007182      0x172 ../attempt2_bsp//libucosii_bsp.a(alt_alarm_start.o)
 .debug_abbrev  0x000072f4       0x3f ../attempt2_bsp//libucosii_bsp.a(alt_dcache_flush_all.o)
 .debug_abbrev  0x00007333       0xf6 ../attempt2_bsp//libucosii_bsp.a(alt_dev_llist_insert.o)
 .debug_abbrev  0x00007429       0x76 ../attempt2_bsp//libucosii_bsp.a(alt_do_ctors.o)
 .debug_abbrev  0x0000749f       0x76 ../attempt2_bsp//libucosii_bsp.a(alt_do_dtors.o)
 .debug_abbrev  0x00007515       0xd6 ../attempt2_bsp//libucosii_bsp.a(alt_find_dev.o)
 .debug_abbrev  0x000075eb       0x3f ../attempt2_bsp//libucosii_bsp.a(alt_icache_flush_all.o)
 .debug_abbrev  0x0000762a       0xf7 ../attempt2_bsp//libucosii_bsp.a(alt_io_redirect.o)
 .debug_abbrev  0x00007721      0x180 ../attempt2_bsp//libucosii_bsp.a(alt_irq_register.o)
 .debug_abbrev  0x000078a1       0x44 ../attempt2_bsp//libucosii_bsp.a(alt_irq_vars.o)
 .debug_abbrev  0x000078e5      0x119 ../attempt2_bsp//libucosii_bsp.a(alt_open.o)
 .debug_abbrev  0x000079fe      0x161 ../attempt2_bsp//libucosii_bsp.a(alt_tick.o)
 .debug_abbrev  0x00007b5f       0x64 ../attempt2_bsp//libucosii_bsp.a(altera_nios2_qsys_irq.o)
 .debug_abbrev  0x00007bc3       0x14 ../attempt2_bsp//libucosii_bsp.a(os_cpu_a.o)
 .debug_abbrev  0x00007bd7      0x1d0 ../attempt2_bsp//libucosii_bsp.a(os_cpu_c.o)
 .debug_abbrev  0x00007da7       0xd6 ../attempt2_bsp//libucosii_bsp.a(alt_find_file.o)
 .debug_abbrev  0x00007e7d      0x173 ../attempt2_bsp//libucosii_bsp.a(alt_get_fd.o)
 .debug_abbrev  0x00007ff0       0x12 ../attempt2_bsp//libucosii_bsp.a(alt_irq_entry.o)
 .debug_abbrev  0x00008002      0x124 ../attempt2_bsp//libucosii_bsp.a(alt_irq_handler.o)
 .debug_abbrev  0x00008126       0x12 ../attempt2_bsp//libucosii_bsp.a(alt_exception_entry.o)
 .debug_abbrev  0x00008138       0xb7 /OPT/altera/12.1/nios2eds/bin/gnu/H-i686-pc-linux-gnu/bin/../lib/gcc/nios2-elf/4.1.2/../../../../nios2-elf/lib/mno-hw-mul/libc.a(lib_a-atexit.o)
 .debug_abbrev  0x000081ef      0x16e /OPT/altera/12.1/nios2eds/bin/gnu/H-i686-pc-linux-gnu/bin/../lib/gcc/nios2-elf/4.1.2/../../../../nios2-elf/lib/mno-hw-mul/libc.a(lib_a-exit.o)
 .debug_abbrev  0x0000835d       0x7c /OPT/altera/12.1/nios2eds/bin/gnu/H-i686-pc-linux-gnu/bin/../lib/gcc/nios2-elf/4.1.2/../../../../nios2-elf/lib/mno-hw-mul/libc.a(lib_a-memcmp.o)
 .debug_abbrev  0x000083d9      0x1ae /OPT/altera/12.1/nios2eds/bin/gnu/H-i686-pc-linux-gnu/bin/../lib/gcc/nios2-elf/4.1.2/../../../../nios2-elf/lib/mno-hw-mul/libc.a(lib_a-__atexit.o)
 .debug_abbrev  0x00008587      0x1de /OPT/altera/12.1/nios2eds/bin/gnu/H-i686-pc-linux-gnu/bin/../lib/gcc/nios2-elf/4.1.2/../../../../nios2-elf/lib/mno-hw-mul/libc.a(lib_a-__call_atexit.o)
 .debug_abbrev  0x00008765       0xaa ../attempt2_bsp//libucosii_bsp.a(alt_exit.o)

.debug_line     0x00000000    0x196fd
 *(.debug_line)
 .debug_line    0x00000000       0x66 ../attempt2_bsp//obj/HAL/src/crt0.o
 .debug_line    0x00000066      0x4e2 obj/default/hello_ucosii.o
 .debug_line    0x00000548      0x2a2 /OPT/altera/12.1/nios2eds/bin/gnu/H-i686-pc-linux-gnu/bin/../lib/gcc/nios2-elf/4.1.2/../../../../nios2-elf/lib/mno-hw-mul/libm.a(lib_a-s_sin.o)
 .debug_line    0x000007ea      0x65b /OPT/altera/12.1/nios2eds/bin/gnu/H-i686-pc-linux-gnu/bin/../lib/gcc/nios2-elf/4.1.2/../../../../nios2-elf/lib/mno-hw-mul/libm.a(lib_a-e_rem_pio2.o)
 .debug_line    0x00000e45      0x2c6 /OPT/altera/12.1/nios2eds/bin/gnu/H-i686-pc-linux-gnu/bin/../lib/gcc/nios2-elf/4.1.2/../../../../nios2-elf/lib/mno-hw-mul/libm.a(lib_a-k_cos.o)
 .debug_line    0x0000110b      0x8ed /OPT/altera/12.1/nios2eds/bin/gnu/H-i686-pc-linux-gnu/bin/../lib/gcc/nios2-elf/4.1.2/../../../../nios2-elf/lib/mno-hw-mul/libm.a(lib_a-k_rem_pio2.o)
 .debug_line    0x000019f8      0x2b2 /OPT/altera/12.1/nios2eds/bin/gnu/H-i686-pc-linux-gnu/bin/../lib/gcc/nios2-elf/4.1.2/../../../../nios2-elf/lib/mno-hw-mul/libm.a(lib_a-k_sin.o)
 .debug_line    0x00001caa      0x22b /OPT/altera/12.1/nios2eds/bin/gnu/H-i686-pc-linux-gnu/bin/../lib/gcc/nios2-elf/4.1.2/../../../../nios2-elf/lib/mno-hw-mul/libm.a(lib_a-s_fabs.o)
 .debug_line    0x00001ed5      0x30a /OPT/altera/12.1/nios2eds/bin/gnu/H-i686-pc-linux-gnu/bin/../lib/gcc/nios2-elf/4.1.2/../../../../nios2-elf/lib/mno-hw-mul/libm.a(lib_a-s_floor.o)
 .debug_line    0x000021df      0x331 /OPT/altera/12.1/nios2eds/bin/gnu/H-i686-pc-linux-gnu/bin/../lib/gcc/nios2-elf/4.1.2/../../../../nios2-elf/lib/mno-hw-mul/libm.a(lib_a-s_scalbn.o)
 .debug_line    0x00002510      0x22f /OPT/altera/12.1/nios2eds/bin/gnu/H-i686-pc-linux-gnu/bin/../lib/gcc/nios2-elf/4.1.2/../../../../nios2-elf/lib/mno-hw-mul/libm.a(lib_a-s_copysign.o)
 .debug_line    0x0000273f      0x176 /OPT/altera/12.1/nios2eds/bin/gnu/H-i686-pc-linux-gnu/bin/../lib/gcc/nios2-elf/4.1.2/mno-hw-mul/libgcc.a(_fixunsdfsi.o)
 .debug_line    0x000028b5      0x430 /OPT/altera/12.1/nios2eds/bin/gnu/H-i686-pc-linux-gnu/bin/../lib/gcc/nios2-elf/4.1.2/mno-hw-mul/libgcc.a(_addsub_df.o)
 .debug_line    0x00002ce5      0x3e5 /OPT/altera/12.1/nios2eds/bin/gnu/H-i686-pc-linux-gnu/bin/../lib/gcc/nios2-elf/4.1.2/mno-hw-mul/libgcc.a(_mul_df.o)
 .debug_line    0x000030ca      0x301 /OPT/altera/12.1/nios2eds/bin/gnu/H-i686-pc-linux-gnu/bin/../lib/gcc/nios2-elf/4.1.2/mno-hw-mul/libgcc.a(_div_df.o)
 .debug_line    0x000033cb      0x129 /OPT/altera/12.1/nios2eds/bin/gnu/H-i686-pc-linux-gnu/bin/../lib/gcc/nios2-elf/4.1.2/mno-hw-mul/libgcc.a(_eq_df.o)
 .debug_line    0x000034f4      0x129 /OPT/altera/12.1/nios2eds/bin/gnu/H-i686-pc-linux-gnu/bin/../lib/gcc/nios2-elf/4.1.2/mno-hw-mul/libgcc.a(_gt_df.o)
 .debug_line    0x0000361d      0x129 /OPT/altera/12.1/nios2eds/bin/gnu/H-i686-pc-linux-gnu/bin/../lib/gcc/nios2-elf/4.1.2/mno-hw-mul/libgcc.a(_ge_df.o)
 .debug_line    0x00003746      0x175 /OPT/altera/12.1/nios2eds/bin/gnu/H-i686-pc-linux-gnu/bin/../lib/gcc/nios2-elf/4.1.2/mno-hw-mul/libgcc.a(_si_to_df.o)
 .debug_line    0x000038bb      0x149 /OPT/altera/12.1/nios2eds/bin/gnu/H-i686-pc-linux-gnu/bin/../lib/gcc/nios2-elf/4.1.2/mno-hw-mul/libgcc.a(_df_to_si.o)
 .debug_line    0x00003a04       0x94 /OPT/altera/12.1/nios2eds/bin/gnu/H-i686-pc-linux-gnu/bin/../lib/gcc/nios2-elf/4.1.2/mno-hw-mul/libgcc.a(_thenan_df.o)
 .debug_line    0x00003a98      0x2c6 /OPT/altera/12.1/nios2eds/bin/gnu/H-i686-pc-linux-gnu/bin/../lib/gcc/nios2-elf/4.1.2/mno-hw-mul/libgcc.a(lib2-divmod.o)
 .debug_line    0x00003d5e      0x191 /OPT/altera/12.1/nios2eds/bin/gnu/H-i686-pc-linux-gnu/bin/../lib/gcc/nios2-elf/4.1.2/mno-hw-mul/libgcc.a(lib2-mul.o)
 .debug_line    0x00003eef      0x1c6 /OPT/altera/12.1/nios2eds/bin/gnu/H-i686-pc-linux-gnu/bin/../lib/gcc/nios2-elf/4.1.2/mno-hw-mul/libgcc.a(_muldi3.o)
 .debug_line    0x000040b5      0x17c /OPT/altera/12.1/nios2eds/bin/gnu/H-i686-pc-linux-gnu/bin/../lib/gcc/nios2-elf/4.1.2/mno-hw-mul/libgcc.a(_clzsi2.o)
 .debug_line    0x00004231      0x222 /OPT/altera/12.1/nios2eds/bin/gnu/H-i686-pc-linux-gnu/bin/../lib/gcc/nios2-elf/4.1.2/mno-hw-mul/libgcc.a(_pack_df.o)
 .debug_line    0x00004453      0x1e4 /OPT/altera/12.1/nios2eds/bin/gnu/H-i686-pc-linux-gnu/bin/../lib/gcc/nios2-elf/4.1.2/mno-hw-mul/libgcc.a(_unpack_df.o)
 .debug_line    0x00004637      0x187 /OPT/altera/12.1/nios2eds/bin/gnu/H-i686-pc-linux-gnu/bin/../lib/gcc/nios2-elf/4.1.2/mno-hw-mul/libgcc.a(_fpcmp_parts_df.o)
 .debug_line    0x000047be      0x121 /OPT/altera/12.1/nios2eds/bin/gnu/H-i686-pc-linux-gnu/bin/../lib/gcc/nios2-elf/4.1.2/mno-hw-mul/libgcc.a(_clz.o)
 .debug_line    0x000048df      0x2fa /OPT/altera/12.1/nios2eds/bin/gnu/H-i686-pc-linux-gnu/bin/../lib/gcc/nios2-elf/4.1.2/../../../../nios2-elf/lib/mno-hw-mul/libc.a(lib_a-puts.o)
 .debug_line    0x00004bd9      0x270 /OPT/altera/12.1/nios2eds/bin/gnu/H-i686-pc-linux-gnu/bin/../lib/gcc/nios2-elf/4.1.2/../../../../nios2-elf/lib/mno-hw-mul/libc.a(lib_a-strlen.o)
 .debug_line    0x00004e49      0x644 /OPT/altera/12.1/nios2eds/bin/gnu/H-i686-pc-linux-gnu/bin/../lib/gcc/nios2-elf/4.1.2/../../../../nios2-elf/lib/mno-hw-mul/libc.a(lib_a-fvwrite.o)
 .debug_line    0x0000548d      0x230 /OPT/altera/12.1/nios2eds/bin/gnu/H-i686-pc-linux-gnu/bin/../lib/gcc/nios2-elf/4.1.2/../../../../nios2-elf/lib/mno-hw-mul/libc.a(lib_a-impure.o)
 .debug_line    0x000056bd      0x80d /OPT/altera/12.1/nios2eds/bin/gnu/H-i686-pc-linux-gnu/bin/../lib/gcc/nios2-elf/4.1.2/../../../../nios2-elf/lib/mno-hw-mul/libc.a(lib_a-mallocr.o)
 .debug_line    0x00005eca      0x306 /OPT/altera/12.1/nios2eds/bin/gnu/H-i686-pc-linux-gnu/bin/../lib/gcc/nios2-elf/4.1.2/../../../../nios2-elf/lib/mno-hw-mul/libc.a(lib_a-memchr.o)
 .debug_line    0x000061d0      0x1af /OPT/altera/12.1/nios2eds/bin/gnu/H-i686-pc-linux-gnu/bin/../lib/gcc/nios2-elf/4.1.2/../../../../nios2-elf/lib/mno-hw-mul/libc.a(lib_a-memcpy.o)
 .debug_line    0x0000637f      0x30d /OPT/altera/12.1/nios2eds/bin/gnu/H-i686-pc-linux-gnu/bin/../lib/gcc/nios2-elf/4.1.2/../../../../nios2-elf/lib/mno-hw-mul/libc.a(lib_a-memmove.o)
 .debug_line    0x0000668c      0x58d /OPT/altera/12.1/nios2eds/bin/gnu/H-i686-pc-linux-gnu/bin/../lib/gcc/nios2-elf/4.1.2/../../../../nios2-elf/lib/mno-hw-mul/libc.a(lib_a-reallocr.o)
 .debug_line    0x00006c19      0x29c /OPT/altera/12.1/nios2eds/bin/gnu/H-i686-pc-linux-gnu/bin/../lib/gcc/nios2-elf/4.1.2/../../../../nios2-elf/lib/mno-hw-mul/libc.a(lib_a-sbrkr.o)
 .debug_line    0x00006eb5      0x2f3 /OPT/altera/12.1/nios2eds/bin/gnu/H-i686-pc-linux-gnu/bin/../lib/gcc/nios2-elf/4.1.2/../../../../nios2-elf/lib/mno-hw-mul/libc.a(lib_a-wsetup.o)
 .debug_line    0x000071a8      0x410 /OPT/altera/12.1/nios2eds/bin/gnu/H-i686-pc-linux-gnu/bin/../lib/gcc/nios2-elf/4.1.2/../../../../nios2-elf/lib/mno-hw-mul/libc.a(lib_a-fflush.o)
 .debug_line    0x000075b8      0x60c /OPT/altera/12.1/nios2eds/bin/gnu/H-i686-pc-linux-gnu/bin/../lib/gcc/nios2-elf/4.1.2/../../../../nios2-elf/lib/mno-hw-mul/libc.a(lib_a-findfp.o)
 .debug_line    0x00007bc4      0x5ee /OPT/altera/12.1/nios2eds/bin/gnu/H-i686-pc-linux-gnu/bin/../lib/gcc/nios2-elf/4.1.2/../../../../nios2-elf/lib/mno-hw-mul/libc.a(lib_a-freer.o)
 .debug_line    0x000081b2      0x34d /OPT/altera/12.1/nios2eds/bin/gnu/H-i686-pc-linux-gnu/bin/../lib/gcc/nios2-elf/4.1.2/../../../../nios2-elf/lib/mno-hw-mul/libc.a(lib_a-fwalk.o)
 .debug_line    0x000084ff      0x1e2 /OPT/altera/12.1/nios2eds/bin/gnu/H-i686-pc-linux-gnu/bin/../lib/gcc/nios2-elf/4.1.2/../../../../nios2-elf/lib/mno-hw-mul/libc.a(lib_a-int_errno.o)
 .debug_line    0x000086e1      0x3c6 /OPT/altera/12.1/nios2eds/bin/gnu/H-i686-pc-linux-gnu/bin/../lib/gcc/nios2-elf/4.1.2/../../../../nios2-elf/lib/mno-hw-mul/libc.a(lib_a-makebuf.o)
 .debug_line    0x00008aa7      0x304 /OPT/altera/12.1/nios2eds/bin/gnu/H-i686-pc-linux-gnu/bin/../lib/gcc/nios2-elf/4.1.2/../../../../nios2-elf/lib/mno-hw-mul/libc.a(lib_a-memset.o)
 .debug_line    0x00008dab      0x38f /OPT/altera/12.1/nios2eds/bin/gnu/H-i686-pc-linux-gnu/bin/../lib/gcc/nios2-elf/4.1.2/../../../../nios2-elf/lib/mno-hw-mul/libc.a(lib_a-stdio.o)
 .debug_line    0x0000913a      0x29d /OPT/altera/12.1/nios2eds/bin/gnu/H-i686-pc-linux-gnu/bin/../lib/gcc/nios2-elf/4.1.2/../../../../nios2-elf/lib/mno-hw-mul/libc.a(lib_a-writer.o)
 .debug_line    0x000093d7      0x29d /OPT/altera/12.1/nios2eds/bin/gnu/H-i686-pc-linux-gnu/bin/../lib/gcc/nios2-elf/4.1.2/../../../../nios2-elf/lib/mno-hw-mul/libc.a(lib_a-closer.o)
 .debug_line    0x00009674      0x2eb /OPT/altera/12.1/nios2eds/bin/gnu/H-i686-pc-linux-gnu/bin/../lib/gcc/nios2-elf/4.1.2/../../../../nios2-elf/lib/mno-hw-mul/libc.a(lib_a-fclose.o)
 .debug_line    0x0000995f      0x267 /OPT/altera/12.1/nios2eds/bin/gnu/H-i686-pc-linux-gnu/bin/../lib/gcc/nios2-elf/4.1.2/../../../../nios2-elf/lib/mno-hw-mul/libc.a(lib_a-fstatr.o)
 .debug_line    0x00009bc6      0x29e /OPT/altera/12.1/nios2eds/bin/gnu/H-i686-pc-linux-gnu/bin/../lib/gcc/nios2-elf/4.1.2/../../../../nios2-elf/lib/mno-hw-mul/libc.a(lib_a-isattyr.o)
 .debug_line    0x00009e64      0x29d /OPT/altera/12.1/nios2eds/bin/gnu/H-i686-pc-linux-gnu/bin/../lib/gcc/nios2-elf/4.1.2/../../../../nios2-elf/lib/mno-hw-mul/libc.a(lib_a-lseekr.o)
 .debug_line    0x0000a101      0x29c /OPT/altera/12.1/nios2eds/bin/gnu/H-i686-pc-linux-gnu/bin/../lib/gcc/nios2-elf/4.1.2/../../../../nios2-elf/lib/mno-hw-mul/libc.a(lib_a-readr.o)
 .debug_line    0x0000a39d      0x315 ../attempt2_bsp//libucosii_bsp.a(alt_close.o)
 .debug_line    0x0000a6b2      0x2d9 ../attempt2_bsp//libucosii_bsp.a(alt_dev.o)
 .debug_line    0x0000a98b      0x1b2 ../attempt2_bsp//libucosii_bsp.a(alt_errno.o)
 .debug_line    0x0000ab3d      0x31d ../attempt2_bsp//libucosii_bsp.a(alt_fstat.o)
 .debug_line    0x0000ae5a      0x31e ../attempt2_bsp//libucosii_bsp.a(alt_isatty.o)
 .debug_line    0x0000b178      0x21f ../attempt2_bsp//libucosii_bsp.a(alt_load.o)
 .debug_line    0x0000b397      0x31d ../attempt2_bsp//libucosii_bsp.a(alt_lseek.o)
 .debug_line    0x0000b6b4      0x365 ../attempt2_bsp//libucosii_bsp.a(alt_main.o)
 .debug_line    0x0000ba19      0x344 ../attempt2_bsp//libucosii_bsp.a(alt_read.o)
 .debug_line    0x0000bd5d      0x295 ../attempt2_bsp//libucosii_bsp.a(alt_release_fd.o)
 .debug_line    0x0000bff2      0x282 ../attempt2_bsp//libucosii_bsp.a(alt_sbrk.o)
 .debug_line    0x0000c274      0x345 ../attempt2_bsp//libucosii_bsp.a(alt_write.o)
 .debug_line    0x0000c5b9      0x2e0 ../attempt2_bsp//libucosii_bsp.a(alt_env_lock.o)
 .debug_line    0x0000c899      0x39c ../attempt2_bsp//libucosii_bsp.a(alt_malloc_lock.o)
 .debug_line    0x0000cc35     0x1684 ../attempt2_bsp//libucosii_bsp.a(os_core.o)
 .debug_line    0x0000e2b9      0x3a9 ../attempt2_bsp//libucosii_bsp.a(os_dbg.o)
 .debug_line    0x0000e662     0x1208 ../attempt2_bsp//libucosii_bsp.a(os_flag.o)
 .debug_line    0x0000f86a      0x7ab ../attempt2_bsp//libucosii_bsp.a(os_mem.o)
 .debug_line    0x00010015      0xe8c ../attempt2_bsp//libucosii_bsp.a(os_q.o)
 .debug_line    0x00010ea1      0xa44 ../attempt2_bsp//libucosii_bsp.a(os_sem.o)
 .debug_line    0x000118e5     0x114d ../attempt2_bsp//libucosii_bsp.a(os_task.o)
 .debug_line    0x00012a32      0x550 ../attempt2_bsp//libucosii_bsp.a(os_time.o)
 .debug_line    0x00012f82      0x39d ../attempt2_bsp//libucosii_bsp.a(alt_sys_init.o)
 .debug_line    0x0001331f      0x338 ../attempt2_bsp//libucosii_bsp.a(altera_avalon_jtag_uart_fd.o)
 .debug_line    0x00013657      0x5b7 ../attempt2_bsp//libucosii_bsp.a(altera_avalon_jtag_uart_init.o)
 .debug_line    0x00013c0e      0x375 ../attempt2_bsp//libucosii_bsp.a(altera_avalon_jtag_uart_ioctl.o)
 .debug_line    0x00013f83      0x4b3 ../attempt2_bsp//libucosii_bsp.a(altera_avalon_jtag_uart_read.o)
 .debug_line    0x00014436      0x4c1 ../attempt2_bsp//libucosii_bsp.a(altera_avalon_jtag_uart_write.o)
 .debug_line    0x000148f7      0x2d2 ../attempt2_bsp//libucosii_bsp.a(altera_avalon_timer_sc.o)
 .debug_line    0x00014bc9      0x5f5 ../attempt2_bsp//libucosii_bsp.a(altera_up_avalon_audio.o)
 .debug_line    0x000151be      0x5c3 ../attempt2_bsp//libucosii_bsp.a(altera_up_avalon_audio_and_video_config.o)
 .debug_line    0x00015781      0x4e1 ../attempt2_bsp//libucosii_bsp.a(altera_up_avalon_character_lcd.o)
 .debug_line    0x00015c62      0x2fd ../attempt2_bsp//libucosii_bsp.a(alt_alarm_start.o)
 .debug_line    0x00015f5f      0x1bd ../attempt2_bsp//libucosii_bsp.a(alt_dcache_flush_all.o)
 .debug_line    0x0001611c      0x262 ../attempt2_bsp//libucosii_bsp.a(alt_dev_llist_insert.o)
 .debug_line    0x0001637e       0x83 ../attempt2_bsp//libucosii_bsp.a(alt_do_ctors.o)
 .debug_line    0x00016401       0x83 ../attempt2_bsp//libucosii_bsp.a(alt_do_dtors.o)
 .debug_line    0x00016484      0x2f6 ../attempt2_bsp//libucosii_bsp.a(alt_find_dev.o)
 .debug_line    0x0001677a      0x1bd ../attempt2_bsp//libucosii_bsp.a(alt_icache_flush_all.o)
 .debug_line    0x00016937      0x33f ../attempt2_bsp//libucosii_bsp.a(alt_io_redirect.o)
 .debug_line    0x00016c76      0x375 ../attempt2_bsp//libucosii_bsp.a(alt_irq_register.o)
 .debug_line    0x00016feb       0x72 ../attempt2_bsp//libucosii_bsp.a(alt_irq_vars.o)
 .debug_line    0x0001705d      0x37b ../attempt2_bsp//libucosii_bsp.a(alt_open.o)
 .debug_line    0x000173d8      0x337 ../attempt2_bsp//libucosii_bsp.a(alt_tick.o)
 .debug_line    0x0001770f      0x1ef ../attempt2_bsp//libucosii_bsp.a(altera_nios2_qsys_irq.o)
 .debug_line    0x000178fe       0x86 ../attempt2_bsp//libucosii_bsp.a(os_cpu_a.o)
 .debug_line    0x00017984      0x349 ../attempt2_bsp//libucosii_bsp.a(os_cpu_c.o)
 .debug_line    0x00017ccd      0x307 ../attempt2_bsp//libucosii_bsp.a(alt_find_file.o)
 .debug_line    0x00017fd4      0x337 ../attempt2_bsp//libucosii_bsp.a(alt_get_fd.o)
 .debug_line    0x0001830b       0x6b ../attempt2_bsp//libucosii_bsp.a(alt_irq_entry.o)
 .debug_line    0x00018376      0x2e5 ../attempt2_bsp//libucosii_bsp.a(alt_irq_handler.o)
 .debug_line    0x0001865b       0xab ../attempt2_bsp//libucosii_bsp.a(alt_exception_entry.o)
 .debug_line    0x00018706      0x203 /OPT/altera/12.1/nios2eds/bin/gnu/H-i686-pc-linux-gnu/bin/../lib/gcc/nios2-elf/4.1.2/../../../../nios2-elf/lib/mno-hw-mul/libc.a(lib_a-atexit.o)
 .debug_line    0x00018909      0x23b /OPT/altera/12.1/nios2eds/bin/gnu/H-i686-pc-linux-gnu/bin/../lib/gcc/nios2-elf/4.1.2/../../../../nios2-elf/lib/mno-hw-mul/libc.a(lib_a-exit.o)
 .debug_line    0x00018b44      0x2a2 /OPT/altera/12.1/nios2eds/bin/gnu/H-i686-pc-linux-gnu/bin/../lib/gcc/nios2-elf/4.1.2/../../../../nios2-elf/lib/mno-hw-mul/libc.a(lib_a-memcmp.o)
 .debug_line    0x00018de6      0x316 /OPT/altera/12.1/nios2eds/bin/gnu/H-i686-pc-linux-gnu/bin/../lib/gcc/nios2-elf/4.1.2/../../../../nios2-elf/lib/mno-hw-mul/libc.a(lib_a-__atexit.o)
 .debug_line    0x000190fc      0x36a /OPT/altera/12.1/nios2eds/bin/gnu/H-i686-pc-linux-gnu/bin/../lib/gcc/nios2-elf/4.1.2/../../../../nios2-elf/lib/mno-hw-mul/libc.a(lib_a-__call_atexit.o)
 .debug_line    0x00019466      0x297 ../attempt2_bsp//libucosii_bsp.a(alt_exit.o)

.debug_frame    0x00000000     0x2648
 *(.debug_frame)
 .debug_frame   0x00000000       0x84 obj/default/hello_ucosii.o
 .debug_frame   0x00000084       0x28 /OPT/altera/12.1/nios2eds/bin/gnu/H-i686-pc-linux-gnu/bin/../lib/gcc/nios2-elf/4.1.2/../../../../nios2-elf/lib/mno-hw-mul/libm.a(lib_a-s_sin.o)
 .debug_frame   0x000000ac       0x3c /OPT/altera/12.1/nios2eds/bin/gnu/H-i686-pc-linux-gnu/bin/../lib/gcc/nios2-elf/4.1.2/../../../../nios2-elf/lib/mno-hw-mul/libm.a(lib_a-e_rem_pio2.o)
 .debug_frame   0x000000e8       0x38 /OPT/altera/12.1/nios2eds/bin/gnu/H-i686-pc-linux-gnu/bin/../lib/gcc/nios2-elf/4.1.2/../../../../nios2-elf/lib/mno-hw-mul/libm.a(lib_a-k_cos.o)
 .debug_frame   0x00000120       0x3c /OPT/altera/12.1/nios2eds/bin/gnu/H-i686-pc-linux-gnu/bin/../lib/gcc/nios2-elf/4.1.2/../../../../nios2-elf/lib/mno-hw-mul/libm.a(lib_a-k_rem_pio2.o)
 .debug_frame   0x0000015c       0x38 /OPT/altera/12.1/nios2eds/bin/gnu/H-i686-pc-linux-gnu/bin/../lib/gcc/nios2-elf/4.1.2/../../../../nios2-elf/lib/mno-hw-mul/libm.a(lib_a-k_sin.o)
 .debug_frame   0x00000194       0x20 /OPT/altera/12.1/nios2eds/bin/gnu/H-i686-pc-linux-gnu/bin/../lib/gcc/nios2-elf/4.1.2/../../../../nios2-elf/lib/mno-hw-mul/libm.a(lib_a-s_fabs.o)
 .debug_frame   0x000001b4       0x3c /OPT/altera/12.1/nios2eds/bin/gnu/H-i686-pc-linux-gnu/bin/../lib/gcc/nios2-elf/4.1.2/../../../../nios2-elf/lib/mno-hw-mul/libm.a(lib_a-s_floor.o)
 .debug_frame   0x000001f0       0x2c /OPT/altera/12.1/nios2eds/bin/gnu/H-i686-pc-linux-gnu/bin/../lib/gcc/nios2-elf/4.1.2/../../../../nios2-elf/lib/mno-hw-mul/libm.a(lib_a-s_scalbn.o)
 .debug_frame   0x0000021c       0x20 /OPT/altera/12.1/nios2eds/bin/gnu/H-i686-pc-linux-gnu/bin/../lib/gcc/nios2-elf/4.1.2/../../../../nios2-elf/lib/mno-hw-mul/libm.a(lib_a-s_copysign.o)
 .debug_frame   0x0000023c       0x30 /OPT/altera/12.1/nios2eds/bin/gnu/H-i686-pc-linux-gnu/bin/../lib/gcc/nios2-elf/4.1.2/mno-hw-mul/libgcc.a(_fixunsdfsi.o)
 .debug_frame   0x0000026c       0x70 /OPT/altera/12.1/nios2eds/bin/gnu/H-i686-pc-linux-gnu/bin/../lib/gcc/nios2-elf/4.1.2/mno-hw-mul/libgcc.a(_addsub_df.o)
 .debug_frame   0x000002dc       0x3c /OPT/altera/12.1/nios2eds/bin/gnu/H-i686-pc-linux-gnu/bin/../lib/gcc/nios2-elf/4.1.2/mno-hw-mul/libgcc.a(_mul_df.o)
 .debug_frame   0x00000318       0x30 /OPT/altera/12.1/nios2eds/bin/gnu/H-i686-pc-linux-gnu/bin/../lib/gcc/nios2-elf/4.1.2/mno-hw-mul/libgcc.a(_div_df.o)
 .debug_frame   0x00000348       0x2c /OPT/altera/12.1/nios2eds/bin/gnu/H-i686-pc-linux-gnu/bin/../lib/gcc/nios2-elf/4.1.2/mno-hw-mul/libgcc.a(_eq_df.o)
 .debug_frame   0x00000374       0x2c /OPT/altera/12.1/nios2eds/bin/gnu/H-i686-pc-linux-gnu/bin/../lib/gcc/nios2-elf/4.1.2/mno-hw-mul/libgcc.a(_gt_df.o)
 .debug_frame   0x000003a0       0x2c /OPT/altera/12.1/nios2eds/bin/gnu/H-i686-pc-linux-gnu/bin/../lib/gcc/nios2-elf/4.1.2/mno-hw-mul/libgcc.a(_ge_df.o)
 .debug_frame   0x000003cc       0x30 /OPT/altera/12.1/nios2eds/bin/gnu/H-i686-pc-linux-gnu/bin/../lib/gcc/nios2-elf/4.1.2/mno-hw-mul/libgcc.a(_si_to_df.o)
 .debug_frame   0x000003fc       0x28 /OPT/altera/12.1/nios2eds/bin/gnu/H-i686-pc-linux-gnu/bin/../lib/gcc/nios2-elf/4.1.2/mno-hw-mul/libgcc.a(_df_to_si.o)
 .debug_frame   0x00000424       0x70 /OPT/altera/12.1/nios2eds/bin/gnu/H-i686-pc-linux-gnu/bin/../lib/gcc/nios2-elf/4.1.2/mno-hw-mul/libgcc.a(lib2-divmod.o)
 .debug_frame   0x00000494       0x20 /OPT/altera/12.1/nios2eds/bin/gnu/H-i686-pc-linux-gnu/bin/../lib/gcc/nios2-elf/4.1.2/mno-hw-mul/libgcc.a(lib2-mul.o)
 .debug_frame   0x000004b4       0x40 /OPT/altera/12.1/nios2eds/bin/gnu/H-i686-pc-linux-gnu/bin/../lib/gcc/nios2-elf/4.1.2/mno-hw-mul/libgcc.a(_muldi3.o)
 .debug_frame   0x000004f4       0x20 /OPT/altera/12.1/nios2eds/bin/gnu/H-i686-pc-linux-gnu/bin/../lib/gcc/nios2-elf/4.1.2/mno-hw-mul/libgcc.a(_clzsi2.o)
 .debug_frame   0x00000514       0x2c /OPT/altera/12.1/nios2eds/bin/gnu/H-i686-pc-linux-gnu/bin/../lib/gcc/nios2-elf/4.1.2/mno-hw-mul/libgcc.a(_pack_df.o)
 .debug_frame   0x00000540       0x20 /OPT/altera/12.1/nios2eds/bin/gnu/H-i686-pc-linux-gnu/bin/../lib/gcc/nios2-elf/4.1.2/mno-hw-mul/libgcc.a(_unpack_df.o)
 .debug_frame   0x00000560       0x20 /OPT/altera/12.1/nios2eds/bin/gnu/H-i686-pc-linux-gnu/bin/../lib/gcc/nios2-elf/4.1.2/mno-hw-mul/libgcc.a(_fpcmp_parts_df.o)
 .debug_frame   0x00000580       0x3c /OPT/altera/12.1/nios2eds/bin/gnu/H-i686-pc-linux-gnu/bin/../lib/gcc/nios2-elf/4.1.2/../../../../nios2-elf/lib/mno-hw-mul/libc.a(lib_a-puts.o)
 .debug_frame   0x000005bc       0x20 /OPT/altera/12.1/nios2eds/bin/gnu/H-i686-pc-linux-gnu/bin/../lib/gcc/nios2-elf/4.1.2/../../../../nios2-elf/lib/mno-hw-mul/libc.a(lib_a-strlen.o)
 .debug_frame   0x000005dc       0x38 /OPT/altera/12.1/nios2eds/bin/gnu/H-i686-pc-linux-gnu/bin/../lib/gcc/nios2-elf/4.1.2/../../../../nios2-elf/lib/mno-hw-mul/libc.a(lib_a-fvwrite.o)
 .debug_frame   0x00000614       0x38 /OPT/altera/12.1/nios2eds/bin/gnu/H-i686-pc-linux-gnu/bin/../lib/gcc/nios2-elf/4.1.2/../../../../nios2-elf/lib/mno-hw-mul/libc.a(lib_a-mallocr.o)
 .debug_frame   0x0000064c       0x20 /OPT/altera/12.1/nios2eds/bin/gnu/H-i686-pc-linux-gnu/bin/../lib/gcc/nios2-elf/4.1.2/../../../../nios2-elf/lib/mno-hw-mul/libc.a(lib_a-memchr.o)
 .debug_frame   0x0000066c       0x20 /OPT/altera/12.1/nios2eds/bin/gnu/H-i686-pc-linux-gnu/bin/../lib/gcc/nios2-elf/4.1.2/../../../../nios2-elf/lib/mno-hw-mul/libc.a(lib_a-memcpy.o)
 .debug_frame   0x0000068c       0x20 /OPT/altera/12.1/nios2eds/bin/gnu/H-i686-pc-linux-gnu/bin/../lib/gcc/nios2-elf/4.1.2/../../../../nios2-elf/lib/mno-hw-mul/libc.a(lib_a-memmove.o)
 .debug_frame   0x000006ac       0x38 /OPT/altera/12.1/nios2eds/bin/gnu/H-i686-pc-linux-gnu/bin/../lib/gcc/nios2-elf/4.1.2/../../../../nios2-elf/lib/mno-hw-mul/libc.a(lib_a-reallocr.o)
 .debug_frame   0x000006e4       0x2c /OPT/altera/12.1/nios2eds/bin/gnu/H-i686-pc-linux-gnu/bin/../lib/gcc/nios2-elf/4.1.2/../../../../nios2-elf/lib/mno-hw-mul/libc.a(lib_a-sbrkr.o)
 .debug_frame   0x00000710       0x2c /OPT/altera/12.1/nios2eds/bin/gnu/H-i686-pc-linux-gnu/bin/../lib/gcc/nios2-elf/4.1.2/../../../../nios2-elf/lib/mno-hw-mul/libc.a(lib_a-wsetup.o)
 .debug_frame   0x0000073c       0x40 /OPT/altera/12.1/nios2eds/bin/gnu/H-i686-pc-linux-gnu/bin/../lib/gcc/nios2-elf/4.1.2/../../../../nios2-elf/lib/mno-hw-mul/libc.a(lib_a-fflush.o)
 .debug_frame   0x0000077c      0x118 /OPT/altera/12.1/nios2eds/bin/gnu/H-i686-pc-linux-gnu/bin/../lib/gcc/nios2-elf/4.1.2/../../../../nios2-elf/lib/mno-hw-mul/libc.a(lib_a-findfp.o)
 .debug_frame   0x00000894       0x4c /OPT/altera/12.1/nios2eds/bin/gnu/H-i686-pc-linux-gnu/bin/../lib/gcc/nios2-elf/4.1.2/../../../../nios2-elf/lib/mno-hw-mul/libc.a(lib_a-freer.o)
 .debug_frame   0x000008e0       0x60 /OPT/altera/12.1/nios2eds/bin/gnu/H-i686-pc-linux-gnu/bin/../lib/gcc/nios2-elf/4.1.2/../../../../nios2-elf/lib/mno-hw-mul/libc.a(lib_a-fwalk.o)
 .debug_frame   0x00000940       0x2c /OPT/altera/12.1/nios2eds/bin/gnu/H-i686-pc-linux-gnu/bin/../lib/gcc/nios2-elf/4.1.2/../../../../nios2-elf/lib/mno-hw-mul/libc.a(lib_a-makebuf.o)
 .debug_frame   0x0000096c       0x20 /OPT/altera/12.1/nios2eds/bin/gnu/H-i686-pc-linux-gnu/bin/../lib/gcc/nios2-elf/4.1.2/../../../../nios2-elf/lib/mno-hw-mul/libc.a(lib_a-memset.o)
 .debug_frame   0x0000098c       0x78 /OPT/altera/12.1/nios2eds/bin/gnu/H-i686-pc-linux-gnu/bin/../lib/gcc/nios2-elf/4.1.2/../../../../nios2-elf/lib/mno-hw-mul/libc.a(lib_a-stdio.o)
 .debug_frame   0x00000a04       0x2c /OPT/altera/12.1/nios2eds/bin/gnu/H-i686-pc-linux-gnu/bin/../lib/gcc/nios2-elf/4.1.2/../../../../nios2-elf/lib/mno-hw-mul/libc.a(lib_a-writer.o)
 .debug_frame   0x00000a30       0x2c /OPT/altera/12.1/nios2eds/bin/gnu/H-i686-pc-linux-gnu/bin/../lib/gcc/nios2-elf/4.1.2/../../../../nios2-elf/lib/mno-hw-mul/libc.a(lib_a-closer.o)
 .debug_frame   0x00000a5c       0x3c /OPT/altera/12.1/nios2eds/bin/gnu/H-i686-pc-linux-gnu/bin/../lib/gcc/nios2-elf/4.1.2/../../../../nios2-elf/lib/mno-hw-mul/libc.a(lib_a-fclose.o)
 .debug_frame   0x00000a98       0x2c /OPT/altera/12.1/nios2eds/bin/gnu/H-i686-pc-linux-gnu/bin/../lib/gcc/nios2-elf/4.1.2/../../../../nios2-elf/lib/mno-hw-mul/libc.a(lib_a-fstatr.o)
 .debug_frame   0x00000ac4       0x2c /OPT/altera/12.1/nios2eds/bin/gnu/H-i686-pc-linux-gnu/bin/../lib/gcc/nios2-elf/4.1.2/../../../../nios2-elf/lib/mno-hw-mul/libc.a(lib_a-isattyr.o)
 .debug_frame   0x00000af0       0x2c /OPT/altera/12.1/nios2eds/bin/gnu/H-i686-pc-linux-gnu/bin/../lib/gcc/nios2-elf/4.1.2/../../../../nios2-elf/lib/mno-hw-mul/libc.a(lib_a-lseekr.o)
 .debug_frame   0x00000b1c       0x2c /OPT/altera/12.1/nios2eds/bin/gnu/H-i686-pc-linux-gnu/bin/../lib/gcc/nios2-elf/4.1.2/../../../../nios2-elf/lib/mno-hw-mul/libc.a(lib_a-readr.o)
 .debug_frame   0x00000b48       0x48 ../attempt2_bsp//libucosii_bsp.a(alt_close.o)
 .debug_frame   0x00000b90       0x2c ../attempt2_bsp//libucosii_bsp.a(alt_dev.o)
 .debug_frame   0x00000bbc       0x48 ../attempt2_bsp//libucosii_bsp.a(alt_fstat.o)
 .debug_frame   0x00000c04       0x48 ../attempt2_bsp//libucosii_bsp.a(alt_isatty.o)
 .debug_frame   0x00000c4c       0x48 ../attempt2_bsp//libucosii_bsp.a(alt_load.o)
 .debug_frame   0x00000c94       0x48 ../attempt2_bsp//libucosii_bsp.a(alt_lseek.o)
 .debug_frame   0x00000cdc       0x2c ../attempt2_bsp//libucosii_bsp.a(alt_main.o)
 .debug_frame   0x00000d08       0x48 ../attempt2_bsp//libucosii_bsp.a(alt_read.o)
 .debug_frame   0x00000d50       0x30 ../attempt2_bsp//libucosii_bsp.a(alt_release_fd.o)
 .debug_frame   0x00000d80       0x2c ../attempt2_bsp//libucosii_bsp.a(alt_sbrk.o)
 .debug_frame   0x00000dac       0x48 ../attempt2_bsp//libucosii_bsp.a(alt_write.o)
 .debug_frame   0x00000df4       0x4c ../attempt2_bsp//libucosii_bsp.a(alt_env_lock.o)
 .debug_frame   0x00000e40       0x4c ../attempt2_bsp//libucosii_bsp.a(alt_malloc_lock.o)
 .debug_frame   0x00000e8c      0x3e4 ../attempt2_bsp//libucosii_bsp.a(os_core.o)
 .debug_frame   0x00001270       0x2c ../attempt2_bsp//libucosii_bsp.a(os_dbg.o)
 .debug_frame   0x0000129c      0x180 ../attempt2_bsp//libucosii_bsp.a(os_flag.o)
 .debug_frame   0x0000141c       0xd4 ../attempt2_bsp//libucosii_bsp.a(os_mem.o)
 .debug_frame   0x000014f0      0x144 ../attempt2_bsp//libucosii_bsp.a(os_q.o)
 .debug_frame   0x00001634       0xf0 ../attempt2_bsp//libucosii_bsp.a(os_sem.o)
 .debug_frame   0x00001724      0x160 ../attempt2_bsp//libucosii_bsp.a(os_task.o)
 .debug_frame   0x00001884       0xa0 ../attempt2_bsp//libucosii_bsp.a(os_time.o)
 .debug_frame   0x00001924       0x64 ../attempt2_bsp//libucosii_bsp.a(alt_sys_init.o)
 .debug_frame   0x00001988       0x80 ../attempt2_bsp//libucosii_bsp.a(altera_avalon_jtag_uart_fd.o)
 .debug_frame   0x00001a08       0x80 ../attempt2_bsp//libucosii_bsp.a(altera_avalon_jtag_uart_init.o)
 .debug_frame   0x00001a88       0x2c ../attempt2_bsp//libucosii_bsp.a(altera_avalon_jtag_uart_ioctl.o)
 .debug_frame   0x00001ab4       0x2c ../attempt2_bsp//libucosii_bsp.a(altera_avalon_jtag_uart_read.o)
 .debug_frame   0x00001ae0       0x2c ../attempt2_bsp//libucosii_bsp.a(altera_avalon_jtag_uart_write.o)
 .debug_frame   0x00001b0c       0x48 ../attempt2_bsp//libucosii_bsp.a(altera_avalon_timer_sc.o)
 .debug_frame   0x00001b54      0x208 ../attempt2_bsp//libucosii_bsp.a(altera_up_avalon_audio.o)
 .debug_frame   0x00001d5c      0x1ec ../attempt2_bsp//libucosii_bsp.a(altera_up_avalon_audio_and_video_config.o)
 .debug_frame   0x00001f48      0x17c ../attempt2_bsp//libucosii_bsp.a(altera_up_avalon_character_lcd.o)
 .debug_frame   0x000020c4       0x2c ../attempt2_bsp//libucosii_bsp.a(alt_alarm_start.o)
 .debug_frame   0x000020f0       0x2c ../attempt2_bsp//libucosii_bsp.a(alt_dcache_flush_all.o)
 .debug_frame   0x0000211c       0x48 ../attempt2_bsp//libucosii_bsp.a(alt_dev_llist_insert.o)
 .debug_frame   0x00002164       0x2c ../attempt2_bsp//libucosii_bsp.a(alt_do_ctors.o)
 .debug_frame   0x00002190       0x2c ../attempt2_bsp//libucosii_bsp.a(alt_do_dtors.o)
 .debug_frame   0x000021bc       0x2c ../attempt2_bsp//libucosii_bsp.a(alt_find_dev.o)
 .debug_frame   0x000021e8       0x2c ../attempt2_bsp//libucosii_bsp.a(alt_icache_flush_all.o)
 .debug_frame   0x00002214       0x4c ../attempt2_bsp//libucosii_bsp.a(alt_io_redirect.o)
 .debug_frame   0x00002260       0x2c ../attempt2_bsp//libucosii_bsp.a(alt_irq_register.o)
 .debug_frame   0x0000228c       0x68 ../attempt2_bsp//libucosii_bsp.a(alt_open.o)
 .debug_frame   0x000022f4       0x48 ../attempt2_bsp//libucosii_bsp.a(alt_tick.o)
 .debug_frame   0x0000233c       0x2c ../attempt2_bsp//libucosii_bsp.a(altera_nios2_qsys_irq.o)
 .debug_frame   0x00002368      0x128 ../attempt2_bsp//libucosii_bsp.a(os_cpu_c.o)
 .debug_frame   0x00002490       0x2c ../attempt2_bsp//libucosii_bsp.a(alt_find_file.o)
 .debug_frame   0x000024bc       0x30 ../attempt2_bsp//libucosii_bsp.a(alt_get_fd.o)
 .debug_frame   0x000024ec       0x2c ../attempt2_bsp//libucosii_bsp.a(alt_irq_handler.o)
 .debug_frame   0x00002518       0x20 /OPT/altera/12.1/nios2eds/bin/gnu/H-i686-pc-linux-gnu/bin/../lib/gcc/nios2-elf/4.1.2/../../../../nios2-elf/lib/mno-hw-mul/libc.a(lib_a-atexit.o)
 .debug_frame   0x00002538       0x28 /OPT/altera/12.1/nios2eds/bin/gnu/H-i686-pc-linux-gnu/bin/../lib/gcc/nios2-elf/4.1.2/../../../../nios2-elf/lib/mno-hw-mul/libc.a(lib_a-exit.o)
 .debug_frame   0x00002560       0x20 /OPT/altera/12.1/nios2eds/bin/gnu/H-i686-pc-linux-gnu/bin/../lib/gcc/nios2-elf/4.1.2/../../../../nios2-elf/lib/mno-hw-mul/libc.a(lib_a-memcmp.o)
 .debug_frame   0x00002580       0x34 /OPT/altera/12.1/nios2eds/bin/gnu/H-i686-pc-linux-gnu/bin/../lib/gcc/nios2-elf/4.1.2/../../../../nios2-elf/lib/mno-hw-mul/libc.a(lib_a-__atexit.o)
 .debug_frame   0x000025b4       0x4c /OPT/altera/12.1/nios2eds/bin/gnu/H-i686-pc-linux-gnu/bin/../lib/gcc/nios2-elf/4.1.2/../../../../nios2-elf/lib/mno-hw-mul/libc.a(lib_a-__call_atexit.o)
 .debug_frame   0x00002600       0x48 ../attempt2_bsp//libucosii_bsp.a(alt_exit.o)

.debug_str      0x00000000     0x2283
 *(.debug_str)
 .debug_str     0x00000000       0x48 obj/default/hello_ucosii.o
 .debug_str     0x00000048      0x147 /OPT/altera/12.1/nios2eds/bin/gnu/H-i686-pc-linux-gnu/bin/../lib/gcc/nios2-elf/4.1.2/../../../../nios2-elf/lib/mno-hw-mul/libm.a(lib_a-s_sin.o)
                                0x18d (size before relaxing)
 .debug_str     0x0000018f       0xd9 /OPT/altera/12.1/nios2eds/bin/gnu/H-i686-pc-linux-gnu/bin/../lib/gcc/nios2-elf/4.1.2/../../../../nios2-elf/lib/mno-hw-mul/libm.a(lib_a-e_rem_pio2.o)
                                0x23c (size before relaxing)
 .debug_str     0x00000268       0x4d /OPT/altera/12.1/nios2eds/bin/gnu/H-i686-pc-linux-gnu/bin/../lib/gcc/nios2-elf/4.1.2/../../../../nios2-elf/lib/mno-hw-mul/libm.a(lib_a-k_cos.o)
                                0x1cd (size before relaxing)
 .debug_str     0x000002b5       0x81 /OPT/altera/12.1/nios2eds/bin/gnu/H-i686-pc-linux-gnu/bin/../lib/gcc/nios2-elf/4.1.2/../../../../nios2-elf/lib/mno-hw-mul/libm.a(lib_a-k_rem_pio2.o)
                                0x1de (size before relaxing)
 .debug_str     0x00000336       0x48 /OPT/altera/12.1/nios2eds/bin/gnu/H-i686-pc-linux-gnu/bin/../lib/gcc/nios2-elf/4.1.2/../../../../nios2-elf/lib/mno-hw-mul/libm.a(lib_a-k_sin.o)
                                0x19f (size before relaxing)
 .debug_str     0x0000037e       0x41 /OPT/altera/12.1/nios2eds/bin/gnu/H-i686-pc-linux-gnu/bin/../lib/gcc/nios2-elf/4.1.2/../../../../nios2-elf/lib/mno-hw-mul/libm.a(lib_a-s_fabs.o)
                                0x1c1 (size before relaxing)
 .debug_str     0x000003bf       0x4d /OPT/altera/12.1/nios2eds/bin/gnu/H-i686-pc-linux-gnu/bin/../lib/gcc/nios2-elf/4.1.2/../../../../nios2-elf/lib/mno-hw-mul/libm.a(lib_a-s_floor.o)
                                0x1d2 (size before relaxing)
 .debug_str     0x0000040c       0xf5 /OPT/altera/12.1/nios2eds/bin/gnu/H-i686-pc-linux-gnu/bin/../lib/gcc/nios2-elf/4.1.2/../../../../nios2-elf/lib/mno-hw-mul/libm.a(lib_a-s_scalbn.o)
                                0x1ef (size before relaxing)
 .debug_str     0x00000501       0x4b /OPT/altera/12.1/nios2eds/bin/gnu/H-i686-pc-linux-gnu/bin/../lib/gcc/nios2-elf/4.1.2/../../../../nios2-elf/lib/mno-hw-mul/libm.a(lib_a-s_copysign.o)
                                0x1c8 (size before relaxing)
 .debug_str     0x0000054c       0xce /OPT/altera/12.1/nios2eds/bin/gnu/H-i686-pc-linux-gnu/bin/../lib/gcc/nios2-elf/4.1.2/mno-hw-mul/libgcc.a(_fixunsdfsi.o)
                                0x170 (size before relaxing)
 .debug_str     0x0000061a      0x13d /OPT/altera/12.1/nios2eds/bin/gnu/H-i686-pc-linux-gnu/bin/../lib/gcc/nios2-elf/4.1.2/mno-hw-mul/libgcc.a(_addsub_df.o)
                                0x274 (size before relaxing)
 .debug_str     0x00000757       0x40 /OPT/altera/12.1/nios2eds/bin/gnu/H-i686-pc-linux-gnu/bin/../lib/gcc/nios2-elf/4.1.2/mno-hw-mul/libgcc.a(_mul_df.o)
                                0x246 (size before relaxing)
 .debug_str     0x00000797       0x35 /OPT/altera/12.1/nios2eds/bin/gnu/H-i686-pc-linux-gnu/bin/../lib/gcc/nios2-elf/4.1.2/mno-hw-mul/libgcc.a(_div_df.o)
                                0x236 (size before relaxing)
 .debug_str     0x000007cc        0x8 /OPT/altera/12.1/nios2eds/bin/gnu/H-i686-pc-linux-gnu/bin/../lib/gcc/nios2-elf/4.1.2/mno-hw-mul/libgcc.a(_eq_df.o)
                                0x203 (size before relaxing)
 .debug_str     0x000007d4        0x8 /OPT/altera/12.1/nios2eds/bin/gnu/H-i686-pc-linux-gnu/bin/../lib/gcc/nios2-elf/4.1.2/mno-hw-mul/libgcc.a(_gt_df.o)
                                0x203 (size before relaxing)
 .debug_str     0x000007dc        0x8 /OPT/altera/12.1/nios2eds/bin/gnu/H-i686-pc-linux-gnu/bin/../lib/gcc/nios2-elf/4.1.2/mno-hw-mul/libgcc.a(_ge_df.o)
                                0x203 (size before relaxing)
 .debug_str     0x000007e4       0x1e /OPT/altera/12.1/nios2eds/bin/gnu/H-i686-pc-linux-gnu/bin/../lib/gcc/nios2-elf/4.1.2/mno-hw-mul/libgcc.a(_si_to_df.o)
                                0x1e3 (size before relaxing)
 .debug_str     0x00000802        0xa /OPT/altera/12.1/nios2eds/bin/gnu/H-i686-pc-linux-gnu/bin/../lib/gcc/nios2-elf/4.1.2/mno-hw-mul/libgcc.a(_df_to_si.o)
                                0x20c (size before relaxing)
 .debug_str     0x00000000      0x1a8 /OPT/altera/12.1/nios2eds/bin/gnu/H-i686-pc-linux-gnu/bin/../lib/gcc/nios2-elf/4.1.2/mno-hw-mul/libgcc.a(_thenan_df.o)
 .debug_str     0x0000080c       0x76 /OPT/altera/12.1/nios2eds/bin/gnu/H-i686-pc-linux-gnu/bin/../lib/gcc/nios2-elf/4.1.2/mno-hw-mul/libgcc.a(lib2-divmod.o)
                                0x1b9 (size before relaxing)
 .debug_str     0x00000882       0x37 /OPT/altera/12.1/nios2eds/bin/gnu/H-i686-pc-linux-gnu/bin/../lib/gcc/nios2-elf/4.1.2/mno-hw-mul/libgcc.a(lib2-mul.o)
                                0x17a (size before relaxing)
 .debug_str     0x000008b9       0x42 /OPT/altera/12.1/nios2eds/bin/gnu/H-i686-pc-linux-gnu/bin/../lib/gcc/nios2-elf/4.1.2/mno-hw-mul/libgcc.a(_muldi3.o)
                                0x1b1 (size before relaxing)
 .debug_str     0x000008fb       0x20 /OPT/altera/12.1/nios2eds/bin/gnu/H-i686-pc-linux-gnu/bin/../lib/gcc/nios2-elf/4.1.2/mno-hw-mul/libgcc.a(_clzsi2.o)
                                0x183 (size before relaxing)
 .debug_str     0x0000091b       0x10 /OPT/altera/12.1/nios2eds/bin/gnu/H-i686-pc-linux-gnu/bin/../lib/gcc/nios2-elf/4.1.2/mno-hw-mul/libgcc.a(_pack_df.o)
                                0x20b (size before relaxing)
 .debug_str     0x0000092b        0xb /OPT/altera/12.1/nios2eds/bin/gnu/H-i686-pc-linux-gnu/bin/../lib/gcc/nios2-elf/4.1.2/mno-hw-mul/libgcc.a(_unpack_df.o)
                                0x1ed (size before relaxing)
 .debug_str     0x00000936       0x10 /OPT/altera/12.1/nios2eds/bin/gnu/H-i686-pc-linux-gnu/bin/../lib/gcc/nios2-elf/4.1.2/mno-hw-mul/libgcc.a(_fpcmp_parts_df.o)
                                0x1cb (size before relaxing)
 .debug_str     0x00000000      0x166 /OPT/altera/12.1/nios2eds/bin/gnu/H-i686-pc-linux-gnu/bin/../lib/gcc/nios2-elf/4.1.2/mno-hw-mul/libgcc.a(_clz.o)
 .debug_str     0x00000946      0x486 /OPT/altera/12.1/nios2eds/bin/gnu/H-i686-pc-linux-gnu/bin/../lib/gcc/nios2-elf/4.1.2/../../../../nios2-elf/lib/mno-hw-mul/libc.a(lib_a-puts.o)
                                0x55c (size before relaxing)
 .debug_str     0x00000dcc       0xee /OPT/altera/12.1/nios2eds/bin/gnu/H-i686-pc-linux-gnu/bin/../lib/gcc/nios2-elf/4.1.2/../../../../nios2-elf/lib/mno-hw-mul/libc.a(lib_a-strlen.o)
                                0x190 (size before relaxing)
 .debug_str     0x00000eba       0x69 /OPT/altera/12.1/nios2eds/bin/gnu/H-i686-pc-linux-gnu/bin/../lib/gcc/nios2-elf/4.1.2/../../../../nios2-elf/lib/mno-hw-mul/libc.a(lib_a-fvwrite.o)
                                0x576 (size before relaxing)
 .debug_str     0x00000f23       0xf7 /OPT/altera/12.1/nios2eds/bin/gnu/H-i686-pc-linux-gnu/bin/../lib/gcc/nios2-elf/4.1.2/../../../../nios2-elf/lib/mno-hw-mul/libc.a(lib_a-impure.o)
                                0x52d (size before relaxing)
 .debug_str     0x0000101a      0x2ad /OPT/altera/12.1/nios2eds/bin/gnu/H-i686-pc-linux-gnu/bin/../lib/gcc/nios2-elf/4.1.2/../../../../nios2-elf/lib/mno-hw-mul/libc.a(lib_a-mallocr.o)
                                0x704 (size before relaxing)
 .debug_str     0x000012c7       0x66 /OPT/altera/12.1/nios2eds/bin/gnu/H-i686-pc-linux-gnu/bin/../lib/gcc/nios2-elf/4.1.2/../../../../nios2-elf/lib/mno-hw-mul/libc.a(lib_a-memchr.o)
                                0x19e (size before relaxing)
 .debug_str     0x0000132d       0x6c /OPT/altera/12.1/nios2eds/bin/gnu/H-i686-pc-linux-gnu/bin/../lib/gcc/nios2-elf/4.1.2/../../../../nios2-elf/lib/mno-hw-mul/libc.a(lib_a-memcpy.o)
                                0x13b (size before relaxing)
 .debug_str     0x00001399       0x50 /OPT/altera/12.1/nios2eds/bin/gnu/H-i686-pc-linux-gnu/bin/../lib/gcc/nios2-elf/4.1.2/../../../../nios2-elf/lib/mno-hw-mul/libc.a(lib_a-memmove.o)
                                0x1b0 (size before relaxing)
 .debug_str     0x000013e9       0x59 /OPT/altera/12.1/nios2eds/bin/gnu/H-i686-pc-linux-gnu/bin/../lib/gcc/nios2-elf/4.1.2/../../../../nios2-elf/lib/mno-hw-mul/libc.a(lib_a-reallocr.o)
                                0x5d6 (size before relaxing)
 .debug_str     0x00001442       0x53 /OPT/altera/12.1/nios2eds/bin/gnu/H-i686-pc-linux-gnu/bin/../lib/gcc/nios2-elf/4.1.2/../../../../nios2-elf/lib/mno-hw-mul/libc.a(lib_a-sbrkr.o)
                                0x51e (size before relaxing)
 .debug_str     0x00001495       0x49 /OPT/altera/12.1/nios2eds/bin/gnu/H-i686-pc-linux-gnu/bin/../lib/gcc/nios2-elf/4.1.2/../../../../nios2-elf/lib/mno-hw-mul/libc.a(lib_a-wsetup.o)
                                0x51f (size before relaxing)
 .debug_str     0x000014de       0x55 /OPT/altera/12.1/nios2eds/bin/gnu/H-i686-pc-linux-gnu/bin/../lib/gcc/nios2-elf/4.1.2/../../../../nios2-elf/lib/mno-hw-mul/libc.a(lib_a-fflush.o)
                                0x545 (size before relaxing)
 .debug_str     0x00001533      0x105 /OPT/altera/12.1/nios2eds/bin/gnu/H-i686-pc-linux-gnu/bin/../lib/gcc/nios2-elf/4.1.2/../../../../nios2-elf/lib/mno-hw-mul/libc.a(lib_a-findfp.o)
                                0x607 (size before relaxing)
 .debug_str     0x00001638       0x3c /OPT/altera/12.1/nios2eds/bin/gnu/H-i686-pc-linux-gnu/bin/../lib/gcc/nios2-elf/4.1.2/../../../../nios2-elf/lib/mno-hw-mul/libc.a(lib_a-freer.o)
                                0x656 (size before relaxing)
 .debug_str     0x00001674       0x61 /OPT/altera/12.1/nios2eds/bin/gnu/H-i686-pc-linux-gnu/bin/../lib/gcc/nios2-elf/4.1.2/../../../../nios2-elf/lib/mno-hw-mul/libc.a(lib_a-fwalk.o)
                                0x548 (size before relaxing)
 .debug_str     0x000016d5       0x40 /OPT/altera/12.1/nios2eds/bin/gnu/H-i686-pc-linux-gnu/bin/../lib/gcc/nios2-elf/4.1.2/../../../../nios2-elf/lib/mno-hw-mul/libc.a(lib_a-int_errno.o)
                                0x176 (size before relaxing)
 .debug_str     0x00001715      0x126 /OPT/altera/12.1/nios2eds/bin/gnu/H-i686-pc-linux-gnu/bin/../lib/gcc/nios2-elf/4.1.2/../../../../nios2-elf/lib/mno-hw-mul/libc.a(lib_a-makebuf.o)
                                0x619 (size before relaxing)
 .debug_str     0x0000183b       0x45 /OPT/altera/12.1/nios2eds/bin/gnu/H-i686-pc-linux-gnu/bin/../lib/gcc/nios2-elf/4.1.2/../../../../nios2-elf/lib/mno-hw-mul/libc.a(lib_a-memset.o)
                                0x191 (size before relaxing)
 .debug_str     0x00001880       0x65 /OPT/altera/12.1/nios2eds/bin/gnu/H-i686-pc-linux-gnu/bin/../lib/gcc/nios2-elf/4.1.2/../../../../nios2-elf/lib/mno-hw-mul/libc.a(lib_a-stdio.o)
                                0x544 (size before relaxing)
 .debug_str     0x000018e5       0x4f /OPT/altera/12.1/nios2eds/bin/gnu/H-i686-pc-linux-gnu/bin/../lib/gcc/nios2-elf/4.1.2/../../../../nios2-elf/lib/mno-hw-mul/libc.a(lib_a-writer.o)
                                0x521 (size before relaxing)
 .debug_str     0x00001934       0x46 /OPT/altera/12.1/nios2eds/bin/gnu/H-i686-pc-linux-gnu/bin/../lib/gcc/nios2-elf/4.1.2/../../../../nios2-elf/lib/mno-hw-mul/libc.a(lib_a-closer.o)
                                0x511 (size before relaxing)
 .debug_str     0x0000197a       0x53 /OPT/altera/12.1/nios2eds/bin/gnu/H-i686-pc-linux-gnu/bin/../lib/gcc/nios2-elf/4.1.2/../../../../nios2-elf/lib/mno-hw-mul/libc.a(lib_a-fclose.o)
                                0x529 (size before relaxing)
 .debug_str     0x000019cd       0x4c /OPT/altera/12.1/nios2eds/bin/gnu/H-i686-pc-linux-gnu/bin/../lib/gcc/nios2-elf/4.1.2/../../../../nios2-elf/lib/mno-hw-mul/libc.a(lib_a-fstatr.o)
                                0x604 (size before relaxing)
 .debug_str     0x00001a19       0x48 /OPT/altera/12.1/nios2eds/bin/gnu/H-i686-pc-linux-gnu/bin/../lib/gcc/nios2-elf/4.1.2/../../../../nios2-elf/lib/mno-hw-mul/libc.a(lib_a-isattyr.o)
                                0x513 (size before relaxing)
 .debug_str     0x00001a61       0x46 /OPT/altera/12.1/nios2eds/bin/gnu/H-i686-pc-linux-gnu/bin/../lib/gcc/nios2-elf/4.1.2/../../../../nios2-elf/lib/mno-hw-mul/libc.a(lib_a-lseekr.o)
                                0x51f (size before relaxing)
 .debug_str     0x00001aa7       0x44 /OPT/altera/12.1/nios2eds/bin/gnu/H-i686-pc-linux-gnu/bin/../lib/gcc/nios2-elf/4.1.2/../../../../nios2-elf/lib/mno-hw-mul/libc.a(lib_a-readr.o)
                                0x51f (size before relaxing)
 .debug_str     0x00001aeb       0x12 ../attempt2_bsp//libucosii_bsp.a(alt_close.o)
 .debug_str     0x00001afd       0x12 ../attempt2_bsp//libucosii_bsp.a(alt_dev.o)
 .debug_str     0x00001b0f       0x12 ../attempt2_bsp//libucosii_bsp.a(alt_errno.o)
 .debug_str     0x00001b21       0x12 ../attempt2_bsp//libucosii_bsp.a(alt_fstat.o)
 .debug_str     0x00001b33       0x12 ../attempt2_bsp//libucosii_bsp.a(alt_isatty.o)
 .debug_str     0x00001b45       0x12 ../attempt2_bsp//libucosii_bsp.a(alt_load.o)
 .debug_str     0x00001b57       0x12 ../attempt2_bsp//libucosii_bsp.a(alt_lseek.o)
 .debug_str     0x00001b69       0x12 ../attempt2_bsp//libucosii_bsp.a(alt_main.o)
 .debug_str     0x00001b7b       0x12 ../attempt2_bsp//libucosii_bsp.a(alt_read.o)
 .debug_str     0x00001b8d       0x12 ../attempt2_bsp//libucosii_bsp.a(alt_release_fd.o)
 .debug_str     0x00001b9f       0x1a ../attempt2_bsp//libucosii_bsp.a(alt_sbrk.o)
 .debug_str     0x00001bb9       0x12 ../attempt2_bsp//libucosii_bsp.a(alt_write.o)
 .debug_str     0x00001bcb       0x36 ../attempt2_bsp//libucosii_bsp.a(alt_env_lock.o)
 .debug_str     0x00001c01       0x36 ../attempt2_bsp//libucosii_bsp.a(alt_malloc_lock.o)
 .debug_str     0x00001c37       0x46 ../attempt2_bsp//libucosii_bsp.a(os_core.o)
 .debug_str     0x00001c7d       0x2b ../attempt2_bsp//libucosii_bsp.a(os_dbg.o)
 .debug_str     0x00001ca8       0x4e ../attempt2_bsp//libucosii_bsp.a(os_flag.o)
 .debug_str     0x00001cf6       0x2c ../attempt2_bsp//libucosii_bsp.a(os_mem.o)
 .debug_str     0x00001d22       0x36 ../attempt2_bsp//libucosii_bsp.a(os_q.o)
 .debug_str     0x00001d58       0x36 ../attempt2_bsp//libucosii_bsp.a(os_sem.o)
 .debug_str     0x00001d8e       0x23 ../attempt2_bsp//libucosii_bsp.a(os_task.o)
 .debug_str     0x00001db1       0x1f ../attempt2_bsp//libucosii_bsp.a(os_time.o)
 .debug_str     0x00001dd0       0x51 ../attempt2_bsp//libucosii_bsp.a(alt_sys_init.o)
 .debug_str     0x00001e21       0x12 ../attempt2_bsp//libucosii_bsp.a(altera_avalon_jtag_uart_fd.o)
 .debug_str     0x00001e33       0x1a ../attempt2_bsp//libucosii_bsp.a(altera_avalon_jtag_uart_init.o)
 .debug_str     0x00001e4d       0x12 ../attempt2_bsp//libucosii_bsp.a(altera_avalon_jtag_uart_ioctl.o)
 .debug_str     0x00001e5f       0x22 ../attempt2_bsp//libucosii_bsp.a(altera_avalon_jtag_uart_read.o)
 .debug_str     0x00001e81       0x22 ../attempt2_bsp//libucosii_bsp.a(altera_avalon_jtag_uart_write.o)
 .debug_str     0x00001ea3       0x12 ../attempt2_bsp//libucosii_bsp.a(altera_avalon_timer_sc.o)
 .debug_str     0x00001eb5       0x4f ../attempt2_bsp//libucosii_bsp.a(altera_up_avalon_audio.o)
 .debug_str     0x00001f04       0x46 ../attempt2_bsp//libucosii_bsp.a(altera_up_avalon_audio_and_video_config.o)
 .debug_str     0x00001f4a       0x55 ../attempt2_bsp//libucosii_bsp.a(altera_up_avalon_character_lcd.o)
 .debug_str     0x00001f9f       0x23 ../attempt2_bsp//libucosii_bsp.a(alt_alarm_start.o)
 .debug_str     0x00001fc2       0x12 ../attempt2_bsp//libucosii_bsp.a(alt_dcache_flush_all.o)
 .debug_str     0x00001fd4       0x12 ../attempt2_bsp//libucosii_bsp.a(alt_dev_llist_insert.o)
 .debug_str     0x00001fe6       0x12 ../attempt2_bsp//libucosii_bsp.a(alt_find_dev.o)
 .debug_str     0x00001ff8       0x12 ../attempt2_bsp//libucosii_bsp.a(alt_icache_flush_all.o)
 .debug_str     0x0000200a       0x12 ../attempt2_bsp//libucosii_bsp.a(alt_io_redirect.o)
 .debug_str     0x0000201c       0x21 ../attempt2_bsp//libucosii_bsp.a(alt_irq_register.o)
 .debug_str     0x0000203d       0x12 ../attempt2_bsp//libucosii_bsp.a(alt_open.o)
 .debug_str     0x0000204f       0x1a ../attempt2_bsp//libucosii_bsp.a(alt_tick.o)
 .debug_str     0x00002069       0x12 ../attempt2_bsp//libucosii_bsp.a(altera_nios2_qsys_irq.o)
 .debug_str     0x0000207b       0x20 ../attempt2_bsp//libucosii_bsp.a(os_cpu_c.o)
 .debug_str     0x0000209b       0x12 ../attempt2_bsp//libucosii_bsp.a(alt_find_file.o)
 .debug_str     0x000020ad       0x12 ../attempt2_bsp//libucosii_bsp.a(alt_get_fd.o)
 .debug_str     0x000020bf       0x12 ../attempt2_bsp//libucosii_bsp.a(alt_irq_handler.o)
 .debug_str     0x000020d1       0x3e /OPT/altera/12.1/nios2eds/bin/gnu/H-i686-pc-linux-gnu/bin/../lib/gcc/nios2-elf/4.1.2/../../../../nios2-elf/lib/mno-hw-mul/libc.a(lib_a-atexit.o)
                                0x1d2 (size before relaxing)
 .debug_str     0x0000210f       0x41 /OPT/altera/12.1/nios2eds/bin/gnu/H-i686-pc-linux-gnu/bin/../lib/gcc/nios2-elf/4.1.2/../../../../nios2-elf/lib/mno-hw-mul/libc.a(lib_a-exit.o)
                                0x51f (size before relaxing)
 .debug_str     0x00002150       0x45 /OPT/altera/12.1/nios2eds/bin/gnu/H-i686-pc-linux-gnu/bin/../lib/gcc/nios2-elf/4.1.2/../../../../nios2-elf/lib/mno-hw-mul/libc.a(lib_a-memcmp.o)
                                0x17d (size before relaxing)
 .debug_str     0x00002195       0x54 /OPT/altera/12.1/nios2eds/bin/gnu/H-i686-pc-linux-gnu/bin/../lib/gcc/nios2-elf/4.1.2/../../../../nios2-elf/lib/mno-hw-mul/libc.a(lib_a-__atexit.o)
                                0x537 (size before relaxing)
 .debug_str     0x000021e9       0x7e /OPT/altera/12.1/nios2eds/bin/gnu/H-i686-pc-linux-gnu/bin/../lib/gcc/nios2-elf/4.1.2/../../../../nios2-elf/lib/mno-hw-mul/libc.a(lib_a-__call_atexit.o)
                                0x561 (size before relaxing)
 .debug_str     0x00002267       0x1c ../attempt2_bsp//libucosii_bsp.a(alt_exit.o)

.debug_loc      0x00000000     0x8113
 *(.debug_loc)
 .debug_loc     0x00000000       0xad obj/default/hello_ucosii.o
 .debug_loc     0x000000ad       0x90 /OPT/altera/12.1/nios2eds/bin/gnu/H-i686-pc-linux-gnu/bin/../lib/gcc/nios2-elf/4.1.2/../../../../nios2-elf/lib/mno-hw-mul/libm.a(lib_a-s_sin.o)
 .debug_loc     0x0000013d      0x33c /OPT/altera/12.1/nios2eds/bin/gnu/H-i686-pc-linux-gnu/bin/../lib/gcc/nios2-elf/4.1.2/../../../../nios2-elf/lib/mno-hw-mul/libm.a(lib_a-e_rem_pio2.o)
 .debug_loc     0x00000479      0x18c /OPT/altera/12.1/nios2eds/bin/gnu/H-i686-pc-linux-gnu/bin/../lib/gcc/nios2-elf/4.1.2/../../../../nios2-elf/lib/mno-hw-mul/libm.a(lib_a-k_cos.o)
 .debug_loc     0x00000605      0xc76 /OPT/altera/12.1/nios2eds/bin/gnu/H-i686-pc-linux-gnu/bin/../lib/gcc/nios2-elf/4.1.2/../../../../nios2-elf/lib/mno-hw-mul/libm.a(lib_a-k_rem_pio2.o)
 .debug_loc     0x0000127b       0xbe /OPT/altera/12.1/nios2eds/bin/gnu/H-i686-pc-linux-gnu/bin/../lib/gcc/nios2-elf/4.1.2/../../../../nios2-elf/lib/mno-hw-mul/libm.a(lib_a-k_sin.o)
 .debug_loc     0x00001339      0x221 /OPT/altera/12.1/nios2eds/bin/gnu/H-i686-pc-linux-gnu/bin/../lib/gcc/nios2-elf/4.1.2/../../../../nios2-elf/lib/mno-hw-mul/libm.a(lib_a-s_floor.o)
 .debug_loc     0x0000155a      0x228 /OPT/altera/12.1/nios2eds/bin/gnu/H-i686-pc-linux-gnu/bin/../lib/gcc/nios2-elf/4.1.2/../../../../nios2-elf/lib/mno-hw-mul/libm.a(lib_a-s_scalbn.o)
 .debug_loc     0x00001782       0x87 /OPT/altera/12.1/nios2eds/bin/gnu/H-i686-pc-linux-gnu/bin/../lib/gcc/nios2-elf/4.1.2/mno-hw-mul/libgcc.a(_fixunsdfsi.o)
 .debug_loc     0x00001809      0x47a /OPT/altera/12.1/nios2eds/bin/gnu/H-i686-pc-linux-gnu/bin/../lib/gcc/nios2-elf/4.1.2/mno-hw-mul/libgcc.a(_addsub_df.o)
 .debug_loc     0x00001c83      0x3b4 /OPT/altera/12.1/nios2eds/bin/gnu/H-i686-pc-linux-gnu/bin/../lib/gcc/nios2-elf/4.1.2/mno-hw-mul/libgcc.a(_mul_df.o)
 .debug_loc     0x00002037      0x1df /OPT/altera/12.1/nios2eds/bin/gnu/H-i686-pc-linux-gnu/bin/../lib/gcc/nios2-elf/4.1.2/mno-hw-mul/libgcc.a(_div_df.o)
 .debug_loc     0x00002216       0x70 /OPT/altera/12.1/nios2eds/bin/gnu/H-i686-pc-linux-gnu/bin/../lib/gcc/nios2-elf/4.1.2/mno-hw-mul/libgcc.a(_eq_df.o)
 .debug_loc     0x00002286       0x70 /OPT/altera/12.1/nios2eds/bin/gnu/H-i686-pc-linux-gnu/bin/../lib/gcc/nios2-elf/4.1.2/mno-hw-mul/libgcc.a(_gt_df.o)
 .debug_loc     0x000022f6       0x70 /OPT/altera/12.1/nios2eds/bin/gnu/H-i686-pc-linux-gnu/bin/../lib/gcc/nios2-elf/4.1.2/mno-hw-mul/libgcc.a(_ge_df.o)
 .debug_loc     0x00002366       0x9a /OPT/altera/12.1/nios2eds/bin/gnu/H-i686-pc-linux-gnu/bin/../lib/gcc/nios2-elf/4.1.2/mno-hw-mul/libgcc.a(_si_to_df.o)
 .debug_loc     0x00002400       0x8b /OPT/altera/12.1/nios2eds/bin/gnu/H-i686-pc-linux-gnu/bin/../lib/gcc/nios2-elf/4.1.2/mno-hw-mul/libgcc.a(_df_to_si.o)
 .debug_loc     0x0000248b      0x1d2 /OPT/altera/12.1/nios2eds/bin/gnu/H-i686-pc-linux-gnu/bin/../lib/gcc/nios2-elf/4.1.2/mno-hw-mul/libgcc.a(lib2-divmod.o)
 .debug_loc     0x0000265d       0x4f /OPT/altera/12.1/nios2eds/bin/gnu/H-i686-pc-linux-gnu/bin/../lib/gcc/nios2-elf/4.1.2/mno-hw-mul/libgcc.a(lib2-mul.o)
 .debug_loc     0x000026ac      0x103 /OPT/altera/12.1/nios2eds/bin/gnu/H-i686-pc-linux-gnu/bin/../lib/gcc/nios2-elf/4.1.2/mno-hw-mul/libgcc.a(_muldi3.o)
 .debug_loc     0x000027af       0x1e /OPT/altera/12.1/nios2eds/bin/gnu/H-i686-pc-linux-gnu/bin/../lib/gcc/nios2-elf/4.1.2/mno-hw-mul/libgcc.a(_clzsi2.o)
 .debug_loc     0x000027cd      0x184 /OPT/altera/12.1/nios2eds/bin/gnu/H-i686-pc-linux-gnu/bin/../lib/gcc/nios2-elf/4.1.2/mno-hw-mul/libgcc.a(_pack_df.o)
 .debug_loc     0x00002951       0xe5 /OPT/altera/12.1/nios2eds/bin/gnu/H-i686-pc-linux-gnu/bin/../lib/gcc/nios2-elf/4.1.2/mno-hw-mul/libgcc.a(_unpack_df.o)
 .debug_loc     0x00002a36       0xa2 /OPT/altera/12.1/nios2eds/bin/gnu/H-i686-pc-linux-gnu/bin/../lib/gcc/nios2-elf/4.1.2/../../../../nios2-elf/lib/mno-hw-mul/libc.a(lib_a-puts.o)
 .debug_loc     0x00002ad8       0x3c /OPT/altera/12.1/nios2eds/bin/gnu/H-i686-pc-linux-gnu/bin/../lib/gcc/nios2-elf/4.1.2/../../../../nios2-elf/lib/mno-hw-mul/libc.a(lib_a-strlen.o)
 .debug_loc     0x00002b14      0x4e4 /OPT/altera/12.1/nios2eds/bin/gnu/H-i686-pc-linux-gnu/bin/../lib/gcc/nios2-elf/4.1.2/../../../../nios2-elf/lib/mno-hw-mul/libc.a(lib_a-fvwrite.o)
 .debug_loc     0x00002ff8      0xaeb /OPT/altera/12.1/nios2eds/bin/gnu/H-i686-pc-linux-gnu/bin/../lib/gcc/nios2-elf/4.1.2/../../../../nios2-elf/lib/mno-hw-mul/libc.a(lib_a-mallocr.o)
 .debug_loc     0x00003ae3      0x106 /OPT/altera/12.1/nios2eds/bin/gnu/H-i686-pc-linux-gnu/bin/../lib/gcc/nios2-elf/4.1.2/../../../../nios2-elf/lib/mno-hw-mul/libc.a(lib_a-memchr.o)
 .debug_loc     0x00003be9       0xca /OPT/altera/12.1/nios2eds/bin/gnu/H-i686-pc-linux-gnu/bin/../lib/gcc/nios2-elf/4.1.2/../../../../nios2-elf/lib/mno-hw-mul/libc.a(lib_a-memcpy.o)
 .debug_loc     0x00003cb3      0x117 /OPT/altera/12.1/nios2eds/bin/gnu/H-i686-pc-linux-gnu/bin/../lib/gcc/nios2-elf/4.1.2/../../../../nios2-elf/lib/mno-hw-mul/libc.a(lib_a-memmove.o)
 .debug_loc     0x00003dca      0x8c0 /OPT/altera/12.1/nios2eds/bin/gnu/H-i686-pc-linux-gnu/bin/../lib/gcc/nios2-elf/4.1.2/../../../../nios2-elf/lib/mno-hw-mul/libc.a(lib_a-reallocr.o)
 .debug_loc     0x0000468a       0x5b /OPT/altera/12.1/nios2eds/bin/gnu/H-i686-pc-linux-gnu/bin/../lib/gcc/nios2-elf/4.1.2/../../../../nios2-elf/lib/mno-hw-mul/libc.a(lib_a-sbrkr.o)
 .debug_loc     0x000046e5       0x7c /OPT/altera/12.1/nios2eds/bin/gnu/H-i686-pc-linux-gnu/bin/../lib/gcc/nios2-elf/4.1.2/../../../../nios2-elf/lib/mno-hw-mul/libc.a(lib_a-wsetup.o)
 .debug_loc     0x00004761      0x1f6 /OPT/altera/12.1/nios2eds/bin/gnu/H-i686-pc-linux-gnu/bin/../lib/gcc/nios2-elf/4.1.2/../../../../nios2-elf/lib/mno-hw-mul/libc.a(lib_a-fflush.o)
 .debug_loc     0x00004957      0x1e1 /OPT/altera/12.1/nios2eds/bin/gnu/H-i686-pc-linux-gnu/bin/../lib/gcc/nios2-elf/4.1.2/../../../../nios2-elf/lib/mno-hw-mul/libc.a(lib_a-findfp.o)
 .debug_loc     0x00004b38      0x4a7 /OPT/altera/12.1/nios2eds/bin/gnu/H-i686-pc-linux-gnu/bin/../lib/gcc/nios2-elf/4.1.2/../../../../nios2-elf/lib/mno-hw-mul/libc.a(lib_a-freer.o)
 .debug_loc     0x00004fdf      0x1d2 /OPT/altera/12.1/nios2eds/bin/gnu/H-i686-pc-linux-gnu/bin/../lib/gcc/nios2-elf/4.1.2/../../../../nios2-elf/lib/mno-hw-mul/libc.a(lib_a-fwalk.o)
 .debug_loc     0x000051b1      0x11c /OPT/altera/12.1/nios2eds/bin/gnu/H-i686-pc-linux-gnu/bin/../lib/gcc/nios2-elf/4.1.2/../../../../nios2-elf/lib/mno-hw-mul/libc.a(lib_a-makebuf.o)
 .debug_loc     0x000052cd       0xa1 /OPT/altera/12.1/nios2eds/bin/gnu/H-i686-pc-linux-gnu/bin/../lib/gcc/nios2-elf/4.1.2/../../../../nios2-elf/lib/mno-hw-mul/libc.a(lib_a-memset.o)
 .debug_loc     0x0000536e      0x21f /OPT/altera/12.1/nios2eds/bin/gnu/H-i686-pc-linux-gnu/bin/../lib/gcc/nios2-elf/4.1.2/../../../../nios2-elf/lib/mno-hw-mul/libc.a(lib_a-stdio.o)
 .debug_loc     0x0000558d       0x97 /OPT/altera/12.1/nios2eds/bin/gnu/H-i686-pc-linux-gnu/bin/../lib/gcc/nios2-elf/4.1.2/../../../../nios2-elf/lib/mno-hw-mul/libc.a(lib_a-writer.o)
 .debug_loc     0x00005624       0x5b /OPT/altera/12.1/nios2eds/bin/gnu/H-i686-pc-linux-gnu/bin/../lib/gcc/nios2-elf/4.1.2/../../../../nios2-elf/lib/mno-hw-mul/libc.a(lib_a-closer.o)
 .debug_loc     0x0000567f       0xe4 /OPT/altera/12.1/nios2eds/bin/gnu/H-i686-pc-linux-gnu/bin/../lib/gcc/nios2-elf/4.1.2/../../../../nios2-elf/lib/mno-hw-mul/libc.a(lib_a-fclose.o)
 .debug_loc     0x00005763       0x79 /OPT/altera/12.1/nios2eds/bin/gnu/H-i686-pc-linux-gnu/bin/../lib/gcc/nios2-elf/4.1.2/../../../../nios2-elf/lib/mno-hw-mul/libc.a(lib_a-fstatr.o)
 .debug_loc     0x000057dc       0x5b /OPT/altera/12.1/nios2eds/bin/gnu/H-i686-pc-linux-gnu/bin/../lib/gcc/nios2-elf/4.1.2/../../../../nios2-elf/lib/mno-hw-mul/libc.a(lib_a-isattyr.o)
 .debug_loc     0x00005837       0x97 /OPT/altera/12.1/nios2eds/bin/gnu/H-i686-pc-linux-gnu/bin/../lib/gcc/nios2-elf/4.1.2/../../../../nios2-elf/lib/mno-hw-mul/libc.a(lib_a-lseekr.o)
 .debug_loc     0x000058ce       0x97 /OPT/altera/12.1/nios2eds/bin/gnu/H-i686-pc-linux-gnu/bin/../lib/gcc/nios2-elf/4.1.2/../../../../nios2-elf/lib/mno-hw-mul/libc.a(lib_a-readr.o)
 .debug_loc     0x00005965       0x56 ../attempt2_bsp//libucosii_bsp.a(alt_close.o)
 .debug_loc     0x000059bb       0x2b ../attempt2_bsp//libucosii_bsp.a(alt_dev.o)
 .debug_loc     0x000059e6       0x56 ../attempt2_bsp//libucosii_bsp.a(alt_fstat.o)
 .debug_loc     0x00005a3c       0x57 ../attempt2_bsp//libucosii_bsp.a(alt_isatty.o)
 .debug_loc     0x00005a93       0x56 ../attempt2_bsp//libucosii_bsp.a(alt_load.o)
 .debug_loc     0x00005ae9       0x56 ../attempt2_bsp//libucosii_bsp.a(alt_lseek.o)
 .debug_loc     0x00005b3f       0x2b ../attempt2_bsp//libucosii_bsp.a(alt_main.o)
 .debug_loc     0x00005b6a       0x56 ../attempt2_bsp//libucosii_bsp.a(alt_read.o)
 .debug_loc     0x00005bc0       0x2b ../attempt2_bsp//libucosii_bsp.a(alt_release_fd.o)
 .debug_loc     0x00005beb       0x2b ../attempt2_bsp//libucosii_bsp.a(alt_sbrk.o)
 .debug_loc     0x00005c16       0x56 ../attempt2_bsp//libucosii_bsp.a(alt_write.o)
 .debug_loc     0x00005c6c       0x57 ../attempt2_bsp//libucosii_bsp.a(alt_env_lock.o)
 .debug_loc     0x00005cc3       0x57 ../attempt2_bsp//libucosii_bsp.a(alt_malloc_lock.o)
 .debug_loc     0x00005d1a      0x5e2 ../attempt2_bsp//libucosii_bsp.a(os_core.o)
 .debug_loc     0x000062fc       0x2b ../attempt2_bsp//libucosii_bsp.a(os_dbg.o)
 .debug_loc     0x00006327      0x232 ../attempt2_bsp//libucosii_bsp.a(os_flag.o)
 .debug_loc     0x00006559      0x12d ../attempt2_bsp//libucosii_bsp.a(os_mem.o)
 .debug_loc     0x00006686      0x1da ../attempt2_bsp//libucosii_bsp.a(os_q.o)
 .debug_loc     0x00006860      0x158 ../attempt2_bsp//libucosii_bsp.a(os_sem.o)
 .debug_loc     0x000069b8      0x207 ../attempt2_bsp//libucosii_bsp.a(os_task.o)
 .debug_loc     0x00006bbf       0xd7 ../attempt2_bsp//libucosii_bsp.a(os_time.o)
 .debug_loc     0x00006c96       0x81 ../attempt2_bsp//libucosii_bsp.a(alt_sys_init.o)
 .debug_loc     0x00006d17       0xac ../attempt2_bsp//libucosii_bsp.a(altera_avalon_jtag_uart_fd.o)
 .debug_loc     0x00006dc3       0xac ../attempt2_bsp//libucosii_bsp.a(altera_avalon_jtag_uart_init.o)
 .debug_loc     0x00006e6f       0x2b ../attempt2_bsp//libucosii_bsp.a(altera_avalon_jtag_uart_ioctl.o)
 .debug_loc     0x00006e9a       0x2c ../attempt2_bsp//libucosii_bsp.a(altera_avalon_jtag_uart_read.o)
 .debug_loc     0x00006ec6       0x2c ../attempt2_bsp//libucosii_bsp.a(altera_avalon_jtag_uart_write.o)
 .debug_loc     0x00006ef2       0x56 ../attempt2_bsp//libucosii_bsp.a(altera_avalon_timer_sc.o)
 .debug_loc     0x00006f48      0x306 ../attempt2_bsp//libucosii_bsp.a(altera_up_avalon_audio.o)
 .debug_loc     0x0000724e      0x2db ../attempt2_bsp//libucosii_bsp.a(altera_up_avalon_audio_and_video_config.o)
 .debug_loc     0x00007529      0x22f ../attempt2_bsp//libucosii_bsp.a(altera_up_avalon_character_lcd.o)
 .debug_loc     0x00007758       0x2b ../attempt2_bsp//libucosii_bsp.a(alt_alarm_start.o)
 .debug_loc     0x00007783       0x2b ../attempt2_bsp//libucosii_bsp.a(alt_dcache_flush_all.o)
 .debug_loc     0x000077ae       0x56 ../attempt2_bsp//libucosii_bsp.a(alt_dev_llist_insert.o)
 .debug_loc     0x00007804       0x2b ../attempt2_bsp//libucosii_bsp.a(alt_do_ctors.o)
 .debug_loc     0x0000782f       0x2b ../attempt2_bsp//libucosii_bsp.a(alt_do_dtors.o)
 .debug_loc     0x0000785a       0x2b ../attempt2_bsp//libucosii_bsp.a(alt_find_dev.o)
 .debug_loc     0x00007885       0x2b ../attempt2_bsp//libucosii_bsp.a(alt_icache_flush_all.o)
 .debug_loc     0x000078b0       0x56 ../attempt2_bsp//libucosii_bsp.a(alt_io_redirect.o)
 .debug_loc     0x00007906       0x2c ../attempt2_bsp//libucosii_bsp.a(alt_irq_register.o)
 .debug_loc     0x00007932       0x81 ../attempt2_bsp//libucosii_bsp.a(alt_open.o)
 .debug_loc     0x000079b3       0x56 ../attempt2_bsp//libucosii_bsp.a(alt_tick.o)
 .debug_loc     0x00007a09       0x2b ../attempt2_bsp//libucosii_bsp.a(altera_nios2_qsys_irq.o)
 .debug_loc     0x00007a34      0x1ae ../attempt2_bsp//libucosii_bsp.a(os_cpu_c.o)
 .debug_loc     0x00007be2       0x2b ../attempt2_bsp//libucosii_bsp.a(alt_find_file.o)
 .debug_loc     0x00007c0d       0x2b ../attempt2_bsp//libucosii_bsp.a(alt_get_fd.o)
 .debug_loc     0x00007c38       0x2b ../attempt2_bsp//libucosii_bsp.a(alt_irq_handler.o)
 .debug_loc     0x00007c63       0x1e /OPT/altera/12.1/nios2eds/bin/gnu/H-i686-pc-linux-gnu/bin/../lib/gcc/nios2-elf/4.1.2/../../../../nios2-elf/lib/mno-hw-mul/libc.a(lib_a-atexit.o)
 .debug_loc     0x00007c81       0x3d /OPT/altera/12.1/nios2eds/bin/gnu/H-i686-pc-linux-gnu/bin/../lib/gcc/nios2-elf/4.1.2/../../../../nios2-elf/lib/mno-hw-mul/libc.a(lib_a-exit.o)
 .debug_loc     0x00007cbe      0x114 /OPT/altera/12.1/nios2eds/bin/gnu/H-i686-pc-linux-gnu/bin/../lib/gcc/nios2-elf/4.1.2/../../../../nios2-elf/lib/mno-hw-mul/libc.a(lib_a-memcmp.o)
 .debug_loc     0x00007dd2      0x120 /OPT/altera/12.1/nios2eds/bin/gnu/H-i686-pc-linux-gnu/bin/../lib/gcc/nios2-elf/4.1.2/../../../../nios2-elf/lib/mno-hw-mul/libc.a(lib_a-__atexit.o)
 .debug_loc     0x00007ef2      0x1cb /OPT/altera/12.1/nios2eds/bin/gnu/H-i686-pc-linux-gnu/bin/../lib/gcc/nios2-elf/4.1.2/../../../../nios2-elf/lib/mno-hw-mul/libc.a(lib_a-__call_atexit.o)
 .debug_loc     0x000080bd       0x56 ../attempt2_bsp//libucosii_bsp.a(alt_exit.o)

.debug_macinfo
 *(.debug_macinfo)

.debug_weaknames
 *(.debug_weaknames)

.debug_funcnames
 *(.debug_funcnames)

.debug_typenames
 *(.debug_typenames)

.debug_varnames
 *(.debug_varnames)

.debug_alt_sim_info
                0x00000000       0x10
 *(.debug_alt_sim_info)
 .debug_alt_sim_info
                0x00000000       0x10 ../attempt2_bsp//obj/HAL/src/crt0.o
                0x01000000                __alt_data_end = 0x1000000
                0x01000000                PROVIDE (__alt_stack_pointer, __alt_data_end)
                0x00820874                PROVIDE (__alt_stack_limit, __alt_stack_base)
                0x00820874                PROVIDE (__alt_heap_start, end)
                0x01000000                PROVIDE (__alt_heap_limit, 0x1000000)
OUTPUT(attempt2.elf elf32-littlenios2)

.debug_ranges   0x00000000      0x580
 .debug_ranges  0x00000000       0x20 ../attempt2_bsp//obj/HAL/src/crt0.o
 .debug_ranges  0x00000020       0x40 /OPT/altera/12.1/nios2eds/bin/gnu/H-i686-pc-linux-gnu/bin/../lib/gcc/nios2-elf/4.1.2/../../../../nios2-elf/lib/mno-hw-mul/libm.a(lib_a-e_rem_pio2.o)
 .debug_ranges  0x00000060       0x18 /OPT/altera/12.1/nios2eds/bin/gnu/H-i686-pc-linux-gnu/bin/../lib/gcc/nios2-elf/4.1.2/../../../../nios2-elf/lib/mno-hw-mul/libm.a(lib_a-s_fabs.o)
 .debug_ranges  0x00000078       0x20 /OPT/altera/12.1/nios2eds/bin/gnu/H-i686-pc-linux-gnu/bin/../lib/gcc/nios2-elf/4.1.2/../../../../nios2-elf/lib/mno-hw-mul/libm.a(lib_a-s_scalbn.o)
 .debug_ranges  0x00000098       0x18 /OPT/altera/12.1/nios2eds/bin/gnu/H-i686-pc-linux-gnu/bin/../lib/gcc/nios2-elf/4.1.2/../../../../nios2-elf/lib/mno-hw-mul/libm.a(lib_a-s_copysign.o)
 .debug_ranges  0x000000b0       0x30 /OPT/altera/12.1/nios2eds/bin/gnu/H-i686-pc-linux-gnu/bin/../lib/gcc/nios2-elf/4.1.2/mno-hw-mul/libgcc.a(_addsub_df.o)
 .debug_ranges  0x000000e0       0x88 /OPT/altera/12.1/nios2eds/bin/gnu/H-i686-pc-linux-gnu/bin/../lib/gcc/nios2-elf/4.1.2/mno-hw-mul/libgcc.a(_mul_df.o)
 .debug_ranges  0x00000168       0x50 /OPT/altera/12.1/nios2eds/bin/gnu/H-i686-pc-linux-gnu/bin/../lib/gcc/nios2-elf/4.1.2/mno-hw-mul/libgcc.a(_div_df.o)
 .debug_ranges  0x000001b8       0x88 /OPT/altera/12.1/nios2eds/bin/gnu/H-i686-pc-linux-gnu/bin/../lib/gcc/nios2-elf/4.1.2/mno-hw-mul/libgcc.a(_muldi3.o)
 .debug_ranges  0x00000240       0x28 /OPT/altera/12.1/nios2eds/bin/gnu/H-i686-pc-linux-gnu/bin/../lib/gcc/nios2-elf/4.1.2/mno-hw-mul/libgcc.a(_clzsi2.o)
 .debug_ranges  0x00000268       0x28 /OPT/altera/12.1/nios2eds/bin/gnu/H-i686-pc-linux-gnu/bin/../lib/gcc/nios2-elf/4.1.2/mno-hw-mul/libgcc.a(_pack_df.o)
 .debug_ranges  0x00000290       0x28 /OPT/altera/12.1/nios2eds/bin/gnu/H-i686-pc-linux-gnu/bin/../lib/gcc/nios2-elf/4.1.2/../../../../nios2-elf/lib/mno-hw-mul/libc.a(lib_a-fvwrite.o)
 .debug_ranges  0x000002b8       0x70 /OPT/altera/12.1/nios2eds/bin/gnu/H-i686-pc-linux-gnu/bin/../lib/gcc/nios2-elf/4.1.2/../../../../nios2-elf/lib/mno-hw-mul/libc.a(lib_a-mallocr.o)
 .debug_ranges  0x00000328      0x110 /OPT/altera/12.1/nios2eds/bin/gnu/H-i686-pc-linux-gnu/bin/../lib/gcc/nios2-elf/4.1.2/../../../../nios2-elf/lib/mno-hw-mul/libc.a(lib_a-reallocr.o)
 .debug_ranges  0x00000438       0x20 /OPT/altera/12.1/nios2eds/bin/gnu/H-i686-pc-linux-gnu/bin/../lib/gcc/nios2-elf/4.1.2/../../../../nios2-elf/lib/mno-hw-mul/libc.a(lib_a-fflush.o)
 .debug_ranges  0x00000458       0xa0 /OPT/altera/12.1/nios2eds/bin/gnu/H-i686-pc-linux-gnu/bin/../lib/gcc/nios2-elf/4.1.2/../../../../nios2-elf/lib/mno-hw-mul/libc.a(lib_a-fwalk.o)
 .debug_ranges  0x000004f8       0x18 ../attempt2_bsp//libucosii_bsp.a(altera_avalon_jtag_uart_init.o)
 .debug_ranges  0x00000510       0x28 ../attempt2_bsp//libucosii_bsp.a(alt_irq_entry.o)
 .debug_ranges  0x00000538       0x30 ../attempt2_bsp//libucosii_bsp.a(alt_exception_entry.o)
 .debug_ranges  0x00000568       0x18 /OPT/altera/12.1/nios2eds/bin/gnu/H-i686-pc-linux-gnu/bin/../lib/gcc/nios2-elf/4.1.2/../../../../nios2-elf/lib/mno-hw-mul/libc.a(lib_a-__call_atexit.o)
