Archive member included because of file (symbol)

/OPT/altera/12.1/nios2eds/bin/gnu/H-i686-pc-linux-gnu/bin/../lib/gcc/nios2-elf/4.1.2/../../../../nios2-elf/lib/libm.a(lib_a-s_sin.o)
                              obj/default/hello_ucosii.o (sin)
/OPT/altera/12.1/nios2eds/bin/gnu/H-i686-pc-linux-gnu/bin/../lib/gcc/nios2-elf/4.1.2/../../../../nios2-elf/lib/libm.a(lib_a-e_rem_pio2.o)
                              /OPT/altera/12.1/nios2eds/bin/gnu/H-i686-pc-linux-gnu/bin/../lib/gcc/nios2-elf/4.1.2/../../../../nios2-elf/lib/libm.a(lib_a-s_sin.o) (__ieee754_rem_pio2)
/OPT/altera/12.1/nios2eds/bin/gnu/H-i686-pc-linux-gnu/bin/../lib/gcc/nios2-elf/4.1.2/../../../../nios2-elf/lib/libm.a(lib_a-k_cos.o)
                              /OPT/altera/12.1/nios2eds/bin/gnu/H-i686-pc-linux-gnu/bin/../lib/gcc/nios2-elf/4.1.2/../../../../nios2-elf/lib/libm.a(lib_a-s_sin.o) (__kernel_cos)
/OPT/altera/12.1/nios2eds/bin/gnu/H-i686-pc-linux-gnu/bin/../lib/gcc/nios2-elf/4.1.2/../../../../nios2-elf/lib/libm.a(lib_a-k_rem_pio2.o)
                              /OPT/altera/12.1/nios2eds/bin/gnu/H-i686-pc-linux-gnu/bin/../lib/gcc/nios2-elf/4.1.2/../../../../nios2-elf/lib/libm.a(lib_a-e_rem_pio2.o) (__kernel_rem_pio2)
/OPT/altera/12.1/nios2eds/bin/gnu/H-i686-pc-linux-gnu/bin/../lib/gcc/nios2-elf/4.1.2/../../../../nios2-elf/lib/libm.a(lib_a-k_sin.o)
                              /OPT/altera/12.1/nios2eds/bin/gnu/H-i686-pc-linux-gnu/bin/../lib/gcc/nios2-elf/4.1.2/../../../../nios2-elf/lib/libm.a(lib_a-s_sin.o) (__kernel_sin)
/OPT/altera/12.1/nios2eds/bin/gnu/H-i686-pc-linux-gnu/bin/../lib/gcc/nios2-elf/4.1.2/../../../../nios2-elf/lib/libm.a(lib_a-s_fabs.o)
                              /OPT/altera/12.1/nios2eds/bin/gnu/H-i686-pc-linux-gnu/bin/../lib/gcc/nios2-elf/4.1.2/../../../../nios2-elf/lib/libm.a(lib_a-e_rem_pio2.o) (fabs)
/OPT/altera/12.1/nios2eds/bin/gnu/H-i686-pc-linux-gnu/bin/../lib/gcc/nios2-elf/4.1.2/../../../../nios2-elf/lib/libm.a(lib_a-s_floor.o)
                              /OPT/altera/12.1/nios2eds/bin/gnu/H-i686-pc-linux-gnu/bin/../lib/gcc/nios2-elf/4.1.2/../../../../nios2-elf/lib/libm.a(lib_a-k_rem_pio2.o) (floor)
/OPT/altera/12.1/nios2eds/bin/gnu/H-i686-pc-linux-gnu/bin/../lib/gcc/nios2-elf/4.1.2/../../../../nios2-elf/lib/libm.a(lib_a-s_scalbn.o)
                              /OPT/altera/12.1/nios2eds/bin/gnu/H-i686-pc-linux-gnu/bin/../lib/gcc/nios2-elf/4.1.2/../../../../nios2-elf/lib/libm.a(lib_a-k_rem_pio2.o) (scalbn)
/OPT/altera/12.1/nios2eds/bin/gnu/H-i686-pc-linux-gnu/bin/../lib/gcc/nios2-elf/4.1.2/../../../../nios2-elf/lib/libm.a(lib_a-s_copysign.o)
                              /OPT/altera/12.1/nios2eds/bin/gnu/H-i686-pc-linux-gnu/bin/../lib/gcc/nios2-elf/4.1.2/../../../../nios2-elf/lib/libm.a(lib_a-s_scalbn.o) (copysign)
/OPT/altera/12.1/nios2eds/bin/gnu/H-i686-pc-linux-gnu/bin/../lib/gcc/nios2-elf/4.1.2/libgcc.a(_fixunsdfsi.o)
                              obj/default/hello_ucosii.o (__fixunsdfsi)
/OPT/altera/12.1/nios2eds/bin/gnu/H-i686-pc-linux-gnu/bin/../lib/gcc/nios2-elf/4.1.2/libgcc.a(_addsub_df.o)
                              /OPT/altera/12.1/nios2eds/bin/gnu/H-i686-pc-linux-gnu/bin/../lib/gcc/nios2-elf/4.1.2/../../../../nios2-elf/lib/libm.a(lib_a-s_sin.o) (__subdf3)
/OPT/altera/12.1/nios2eds/bin/gnu/H-i686-pc-linux-gnu/bin/../lib/gcc/nios2-elf/4.1.2/libgcc.a(_mul_df.o)
                              obj/default/hello_ucosii.o (__muldf3)
/OPT/altera/12.1/nios2eds/bin/gnu/H-i686-pc-linux-gnu/bin/../lib/gcc/nios2-elf/4.1.2/libgcc.a(_div_df.o)
                              obj/default/hello_ucosii.o (__divdf3)
/OPT/altera/12.1/nios2eds/bin/gnu/H-i686-pc-linux-gnu/bin/../lib/gcc/nios2-elf/4.1.2/libgcc.a(_eq_df.o)
                              /OPT/altera/12.1/nios2eds/bin/gnu/H-i686-pc-linux-gnu/bin/../lib/gcc/nios2-elf/4.1.2/../../../../nios2-elf/lib/libm.a(lib_a-e_rem_pio2.o) (__eqdf2)
/OPT/altera/12.1/nios2eds/bin/gnu/H-i686-pc-linux-gnu/bin/../lib/gcc/nios2-elf/4.1.2/libgcc.a(_gt_df.o)
                              /OPT/altera/12.1/nios2eds/bin/gnu/H-i686-pc-linux-gnu/bin/../lib/gcc/nios2-elf/4.1.2/../../../../nios2-elf/lib/libm.a(lib_a-s_floor.o) (__gtdf2)
/OPT/altera/12.1/nios2eds/bin/gnu/H-i686-pc-linux-gnu/bin/../lib/gcc/nios2-elf/4.1.2/libgcc.a(_ge_df.o)
                              /OPT/altera/12.1/nios2eds/bin/gnu/H-i686-pc-linux-gnu/bin/../lib/gcc/nios2-elf/4.1.2/../../../../nios2-elf/lib/libm.a(lib_a-k_rem_pio2.o) (__gedf2)
/OPT/altera/12.1/nios2eds/bin/gnu/H-i686-pc-linux-gnu/bin/../lib/gcc/nios2-elf/4.1.2/libgcc.a(_si_to_df.o)
                              obj/default/hello_ucosii.o (__floatsidf)
/OPT/altera/12.1/nios2eds/bin/gnu/H-i686-pc-linux-gnu/bin/../lib/gcc/nios2-elf/4.1.2/libgcc.a(_df_to_si.o)
                              /OPT/altera/12.1/nios2eds/bin/gnu/H-i686-pc-linux-gnu/bin/../lib/gcc/nios2-elf/4.1.2/../../../../nios2-elf/lib/libm.a(lib_a-e_rem_pio2.o) (__fixdfsi)
/OPT/altera/12.1/nios2eds/bin/gnu/H-i686-pc-linux-gnu/bin/../lib/gcc/nios2-elf/4.1.2/libgcc.a(_thenan_df.o)
                              /OPT/altera/12.1/nios2eds/bin/gnu/H-i686-pc-linux-gnu/bin/../lib/gcc/nios2-elf/4.1.2/libgcc.a(_addsub_df.o) (__thenan_df)
/OPT/altera/12.1/nios2eds/bin/gnu/H-i686-pc-linux-gnu/bin/../lib/gcc/nios2-elf/4.1.2/libgcc.a(lib2-divmod.o)
                              /OPT/altera/12.1/nios2eds/bin/gnu/H-i686-pc-linux-gnu/bin/../lib/gcc/nios2-elf/4.1.2/../../../../nios2-elf/lib/libm.a(lib_a-k_rem_pio2.o) (__divsi3)
/OPT/altera/12.1/nios2eds/bin/gnu/H-i686-pc-linux-gnu/bin/../lib/gcc/nios2-elf/4.1.2/libgcc.a(_muldi3.o)
                              /OPT/altera/12.1/nios2eds/bin/gnu/H-i686-pc-linux-gnu/bin/../lib/gcc/nios2-elf/4.1.2/libgcc.a(_mul_df.o) (__muldi3)
/OPT/altera/12.1/nios2eds/bin/gnu/H-i686-pc-linux-gnu/bin/../lib/gcc/nios2-elf/4.1.2/libgcc.a(_clzsi2.o)
                              /OPT/altera/12.1/nios2eds/bin/gnu/H-i686-pc-linux-gnu/bin/../lib/gcc/nios2-elf/4.1.2/libgcc.a(_si_to_df.o) (__clzsi2)
/OPT/altera/12.1/nios2eds/bin/gnu/H-i686-pc-linux-gnu/bin/../lib/gcc/nios2-elf/4.1.2/libgcc.a(_pack_df.o)
                              /OPT/altera/12.1/nios2eds/bin/gnu/H-i686-pc-linux-gnu/bin/../lib/gcc/nios2-elf/4.1.2/libgcc.a(_addsub_df.o) (__pack_d)
/OPT/altera/12.1/nios2eds/bin/gnu/H-i686-pc-linux-gnu/bin/../lib/gcc/nios2-elf/4.1.2/libgcc.a(_unpack_df.o)
                              /OPT/altera/12.1/nios2eds/bin/gnu/H-i686-pc-linux-gnu/bin/../lib/gcc/nios2-elf/4.1.2/libgcc.a(_addsub_df.o) (__unpack_d)
/OPT/altera/12.1/nios2eds/bin/gnu/H-i686-pc-linux-gnu/bin/../lib/gcc/nios2-elf/4.1.2/libgcc.a(_fpcmp_parts_df.o)
                              /OPT/altera/12.1/nios2eds/bin/gnu/H-i686-pc-linux-gnu/bin/../lib/gcc/nios2-elf/4.1.2/libgcc.a(_eq_df.o) (__fpcmp_parts_d)
/OPT/altera/12.1/nios2eds/bin/gnu/H-i686-pc-linux-gnu/bin/../lib/gcc/nios2-elf/4.1.2/libgcc.a(_clz.o)
                              /OPT/altera/12.1/nios2eds/bin/gnu/H-i686-pc-linux-gnu/bin/../lib/gcc/nios2-elf/4.1.2/libgcc.a(_clzsi2.o) (__clz_tab)
/OPT/altera/12.1/nios2eds/bin/gnu/H-i686-pc-linux-gnu/bin/../lib/gcc/nios2-elf/4.1.2/../../../../nios2-elf/lib/libc.a(lib_a-puts.o)
                              obj/default/hello_ucosii.o (puts)
/OPT/altera/12.1/nios2eds/bin/gnu/H-i686-pc-linux-gnu/bin/../lib/gcc/nios2-elf/4.1.2/../../../../nios2-elf/lib/libc.a(lib_a-strlen.o)
                              /OPT/altera/12.1/nios2eds/bin/gnu/H-i686-pc-linux-gnu/bin/../lib/gcc/nios2-elf/4.1.2/../../../../nios2-elf/lib/libc.a(lib_a-puts.o) (strlen)
/OPT/altera/12.1/nios2eds/bin/gnu/H-i686-pc-linux-gnu/bin/../lib/gcc/nios2-elf/4.1.2/../../../../nios2-elf/lib/libc.a(lib_a-fvwrite.o)
                              /OPT/altera/12.1/nios2eds/bin/gnu/H-i686-pc-linux-gnu/bin/../lib/gcc/nios2-elf/4.1.2/../../../../nios2-elf/lib/libc.a(lib_a-puts.o) (__sfvwrite_r)
/OPT/altera/12.1/nios2eds/bin/gnu/H-i686-pc-linux-gnu/bin/../lib/gcc/nios2-elf/4.1.2/../../../../nios2-elf/lib/libc.a(lib_a-impure.o)
                              /OPT/altera/12.1/nios2eds/bin/gnu/H-i686-pc-linux-gnu/bin/../lib/gcc/nios2-elf/4.1.2/../../../../nios2-elf/lib/libc.a(lib_a-puts.o) (_impure_ptr)
/OPT/altera/12.1/nios2eds/bin/gnu/H-i686-pc-linux-gnu/bin/../lib/gcc/nios2-elf/4.1.2/../../../../nios2-elf/lib/libc.a(lib_a-mallocr.o)
                              /OPT/altera/12.1/nios2eds/bin/gnu/H-i686-pc-linux-gnu/bin/../lib/gcc/nios2-elf/4.1.2/../../../../nios2-elf/lib/libc.a(lib_a-fvwrite.o) (_malloc_r)
/OPT/altera/12.1/nios2eds/bin/gnu/H-i686-pc-linux-gnu/bin/../lib/gcc/nios2-elf/4.1.2/../../../../nios2-elf/lib/libc.a(lib_a-memchr.o)
                              /OPT/altera/12.1/nios2eds/bin/gnu/H-i686-pc-linux-gnu/bin/../lib/gcc/nios2-elf/4.1.2/../../../../nios2-elf/lib/libc.a(lib_a-fvwrite.o) (memchr)
/OPT/altera/12.1/nios2eds/bin/gnu/H-i686-pc-linux-gnu/bin/../lib/gcc/nios2-elf/4.1.2/../../../../nios2-elf/lib/libc.a(lib_a-memcpy.o)
                              /OPT/altera/12.1/nios2eds/bin/gnu/H-i686-pc-linux-gnu/bin/../lib/gcc/nios2-elf/4.1.2/../../../../nios2-elf/lib/libc.a(lib_a-fvwrite.o) (memcpy)
/OPT/altera/12.1/nios2eds/bin/gnu/H-i686-pc-linux-gnu/bin/../lib/gcc/nios2-elf/4.1.2/../../../../nios2-elf/lib/libc.a(lib_a-memmove.o)
                              /OPT/altera/12.1/nios2eds/bin/gnu/H-i686-pc-linux-gnu/bin/../lib/gcc/nios2-elf/4.1.2/../../../../nios2-elf/lib/libc.a(lib_a-fvwrite.o) (memmove)
/OPT/altera/12.1/nios2eds/bin/gnu/H-i686-pc-linux-gnu/bin/../lib/gcc/nios2-elf/4.1.2/../../../../nios2-elf/lib/libc.a(lib_a-reallocr.o)
                              /OPT/altera/12.1/nios2eds/bin/gnu/H-i686-pc-linux-gnu/bin/../lib/gcc/nios2-elf/4.1.2/../../../../nios2-elf/lib/libc.a(lib_a-fvwrite.o) (_realloc_r)
/OPT/altera/12.1/nios2eds/bin/gnu/H-i686-pc-linux-gnu/bin/../lib/gcc/nios2-elf/4.1.2/../../../../nios2-elf/lib/libc.a(lib_a-sbrkr.o)
                              /OPT/altera/12.1/nios2eds/bin/gnu/H-i686-pc-linux-gnu/bin/../lib/gcc/nios2-elf/4.1.2/../../../../nios2-elf/lib/libc.a(lib_a-mallocr.o) (_sbrk_r)
/OPT/altera/12.1/nios2eds/bin/gnu/H-i686-pc-linux-gnu/bin/../lib/gcc/nios2-elf/4.1.2/../../../../nios2-elf/lib/libc.a(lib_a-wsetup.o)
                              /OPT/altera/12.1/nios2eds/bin/gnu/H-i686-pc-linux-gnu/bin/../lib/gcc/nios2-elf/4.1.2/../../../../nios2-elf/lib/libc.a(lib_a-fvwrite.o) (__swsetup_r)
/OPT/altera/12.1/nios2eds/bin/gnu/H-i686-pc-linux-gnu/bin/../lib/gcc/nios2-elf/4.1.2/../../../../nios2-elf/lib/libc.a(lib_a-fflush.o)
                              /OPT/altera/12.1/nios2eds/bin/gnu/H-i686-pc-linux-gnu/bin/../lib/gcc/nios2-elf/4.1.2/../../../../nios2-elf/lib/libc.a(lib_a-fvwrite.o) (_fflush_r)
/OPT/altera/12.1/nios2eds/bin/gnu/H-i686-pc-linux-gnu/bin/../lib/gcc/nios2-elf/4.1.2/../../../../nios2-elf/lib/libc.a(lib_a-findfp.o)
                              /OPT/altera/12.1/nios2eds/bin/gnu/H-i686-pc-linux-gnu/bin/../lib/gcc/nios2-elf/4.1.2/../../../../nios2-elf/lib/libc.a(lib_a-wsetup.o) (__sinit)
/OPT/altera/12.1/nios2eds/bin/gnu/H-i686-pc-linux-gnu/bin/../lib/gcc/nios2-elf/4.1.2/../../../../nios2-elf/lib/libc.a(lib_a-freer.o)
                              /OPT/altera/12.1/nios2eds/bin/gnu/H-i686-pc-linux-gnu/bin/../lib/gcc/nios2-elf/4.1.2/../../../../nios2-elf/lib/libc.a(lib_a-fvwrite.o) (_free_r)
/OPT/altera/12.1/nios2eds/bin/gnu/H-i686-pc-linux-gnu/bin/../lib/gcc/nios2-elf/4.1.2/../../../../nios2-elf/lib/libc.a(lib_a-fwalk.o)
                              /OPT/altera/12.1/nios2eds/bin/gnu/H-i686-pc-linux-gnu/bin/../lib/gcc/nios2-elf/4.1.2/../../../../nios2-elf/lib/libc.a(lib_a-fflush.o) (_fwalk_reent)
/OPT/altera/12.1/nios2eds/bin/gnu/H-i686-pc-linux-gnu/bin/../lib/gcc/nios2-elf/4.1.2/../../../../nios2-elf/lib/libc.a(lib_a-int_errno.o)
                              /OPT/altera/12.1/nios2eds/bin/gnu/H-i686-pc-linux-gnu/bin/../lib/gcc/nios2-elf/4.1.2/../../../../nios2-elf/lib/libc.a(lib_a-sbrkr.o) (errno)
/OPT/altera/12.1/nios2eds/bin/gnu/H-i686-pc-linux-gnu/bin/../lib/gcc/nios2-elf/4.1.2/../../../../nios2-elf/lib/libc.a(lib_a-makebuf.o)
                              /OPT/altera/12.1/nios2eds/bin/gnu/H-i686-pc-linux-gnu/bin/../lib/gcc/nios2-elf/4.1.2/../../../../nios2-elf/lib/libc.a(lib_a-wsetup.o) (__smakebuf_r)
/OPT/altera/12.1/nios2eds/bin/gnu/H-i686-pc-linux-gnu/bin/../lib/gcc/nios2-elf/4.1.2/../../../../nios2-elf/lib/libc.a(lib_a-memset.o)
                              /OPT/altera/12.1/nios2eds/bin/gnu/H-i686-pc-linux-gnu/bin/../lib/gcc/nios2-elf/4.1.2/../../../../nios2-elf/lib/libc.a(lib_a-findfp.o) (memset)
/OPT/altera/12.1/nios2eds/bin/gnu/H-i686-pc-linux-gnu/bin/../lib/gcc/nios2-elf/4.1.2/../../../../nios2-elf/lib/libc.a(lib_a-stdio.o)
                              /OPT/altera/12.1/nios2eds/bin/gnu/H-i686-pc-linux-gnu/bin/../lib/gcc/nios2-elf/4.1.2/../../../../nios2-elf/lib/libc.a(lib_a-findfp.o) (__sclose)
/OPT/altera/12.1/nios2eds/bin/gnu/H-i686-pc-linux-gnu/bin/../lib/gcc/nios2-elf/4.1.2/../../../../nios2-elf/lib/libc.a(lib_a-writer.o)
                              /OPT/altera/12.1/nios2eds/bin/gnu/H-i686-pc-linux-gnu/bin/../lib/gcc/nios2-elf/4.1.2/../../../../nios2-elf/lib/libc.a(lib_a-stdio.o) (_write_r)
/OPT/altera/12.1/nios2eds/bin/gnu/H-i686-pc-linux-gnu/bin/../lib/gcc/nios2-elf/4.1.2/../../../../nios2-elf/lib/libc.a(lib_a-closer.o)
                              /OPT/altera/12.1/nios2eds/bin/gnu/H-i686-pc-linux-gnu/bin/../lib/gcc/nios2-elf/4.1.2/../../../../nios2-elf/lib/libc.a(lib_a-stdio.o) (_close_r)
/OPT/altera/12.1/nios2eds/bin/gnu/H-i686-pc-linux-gnu/bin/../lib/gcc/nios2-elf/4.1.2/../../../../nios2-elf/lib/libc.a(lib_a-fclose.o)
                              /OPT/altera/12.1/nios2eds/bin/gnu/H-i686-pc-linux-gnu/bin/../lib/gcc/nios2-elf/4.1.2/../../../../nios2-elf/lib/libc.a(lib_a-findfp.o) (fclose)
/OPT/altera/12.1/nios2eds/bin/gnu/H-i686-pc-linux-gnu/bin/../lib/gcc/nios2-elf/4.1.2/../../../../nios2-elf/lib/libc.a(lib_a-fstatr.o)
                              /OPT/altera/12.1/nios2eds/bin/gnu/H-i686-pc-linux-gnu/bin/../lib/gcc/nios2-elf/4.1.2/../../../../nios2-elf/lib/libc.a(lib_a-makebuf.o) (_fstat_r)
/OPT/altera/12.1/nios2eds/bin/gnu/H-i686-pc-linux-gnu/bin/../lib/gcc/nios2-elf/4.1.2/../../../../nios2-elf/lib/libc.a(lib_a-isattyr.o)
                              /OPT/altera/12.1/nios2eds/bin/gnu/H-i686-pc-linux-gnu/bin/../lib/gcc/nios2-elf/4.1.2/../../../../nios2-elf/lib/libc.a(lib_a-makebuf.o) (_isatty_r)
/OPT/altera/12.1/nios2eds/bin/gnu/H-i686-pc-linux-gnu/bin/../lib/gcc/nios2-elf/4.1.2/../../../../nios2-elf/lib/libc.a(lib_a-lseekr.o)
                              /OPT/altera/12.1/nios2eds/bin/gnu/H-i686-pc-linux-gnu/bin/../lib/gcc/nios2-elf/4.1.2/../../../../nios2-elf/lib/libc.a(lib_a-stdio.o) (_lseek_r)
/OPT/altera/12.1/nios2eds/bin/gnu/H-i686-pc-linux-gnu/bin/../lib/gcc/nios2-elf/4.1.2/../../../../nios2-elf/lib/libc.a(lib_a-readr.o)
                              /OPT/altera/12.1/nios2eds/bin/gnu/H-i686-pc-linux-gnu/bin/../lib/gcc/nios2-elf/4.1.2/../../../../nios2-elf/lib/libc.a(lib_a-stdio.o) (_read_r)
../audioTest_bsp//libucosii_bsp.a(alt_close.o)
                              /OPT/altera/12.1/nios2eds/bin/gnu/H-i686-pc-linux-gnu/bin/../lib/gcc/nios2-elf/4.1.2/../../../../nios2-elf/lib/libc.a(lib_a-closer.o) (close)
../audioTest_bsp//libucosii_bsp.a(alt_dev.o)
                              ../audioTest_bsp//libucosii_bsp.a(alt_close.o) (alt_fd_list)
../audioTest_bsp//libucosii_bsp.a(alt_errno.o)
                              ../audioTest_bsp//libucosii_bsp.a(alt_close.o) (alt_errno)
../audioTest_bsp//libucosii_bsp.a(alt_fstat.o)
                              /OPT/altera/12.1/nios2eds/bin/gnu/H-i686-pc-linux-gnu/bin/../lib/gcc/nios2-elf/4.1.2/../../../../nios2-elf/lib/libc.a(lib_a-fstatr.o) (fstat)
../audioTest_bsp//libucosii_bsp.a(alt_isatty.o)
                              /OPT/altera/12.1/nios2eds/bin/gnu/H-i686-pc-linux-gnu/bin/../lib/gcc/nios2-elf/4.1.2/../../../../nios2-elf/lib/libc.a(lib_a-isattyr.o) (isatty)
../audioTest_bsp//libucosii_bsp.a(alt_load.o)
                              ../audioTest_bsp//obj/HAL/src/crt0.o (alt_load)
../audioTest_bsp//libucosii_bsp.a(alt_lseek.o)
                              /OPT/altera/12.1/nios2eds/bin/gnu/H-i686-pc-linux-gnu/bin/../lib/gcc/nios2-elf/4.1.2/../../../../nios2-elf/lib/libc.a(lib_a-lseekr.o) (lseek)
../audioTest_bsp//libucosii_bsp.a(alt_main.o)
                              ../audioTest_bsp//obj/HAL/src/crt0.o (alt_main)
../audioTest_bsp//libucosii_bsp.a(alt_read.o)
                              /OPT/altera/12.1/nios2eds/bin/gnu/H-i686-pc-linux-gnu/bin/../lib/gcc/nios2-elf/4.1.2/../../../../nios2-elf/lib/libc.a(lib_a-readr.o) (read)
../audioTest_bsp//libucosii_bsp.a(alt_release_fd.o)
                              ../audioTest_bsp//libucosii_bsp.a(alt_close.o) (alt_release_fd)
../audioTest_bsp//libucosii_bsp.a(alt_sbrk.o)
                              /OPT/altera/12.1/nios2eds/bin/gnu/H-i686-pc-linux-gnu/bin/../lib/gcc/nios2-elf/4.1.2/../../../../nios2-elf/lib/libc.a(lib_a-sbrkr.o) (sbrk)
../audioTest_bsp//libucosii_bsp.a(alt_write.o)
                              /OPT/altera/12.1/nios2eds/bin/gnu/H-i686-pc-linux-gnu/bin/../lib/gcc/nios2-elf/4.1.2/../../../../nios2-elf/lib/libc.a(lib_a-writer.o) (write)
../audioTest_bsp//libucosii_bsp.a(alt_env_lock.o)
                              ../audioTest_bsp//libucosii_bsp.a(alt_main.o) (alt_envsem)
../audioTest_bsp//libucosii_bsp.a(alt_malloc_lock.o)
                              /OPT/altera/12.1/nios2eds/bin/gnu/H-i686-pc-linux-gnu/bin/../lib/gcc/nios2-elf/4.1.2/../../../../nios2-elf/lib/libc.a(lib_a-mallocr.o) (__malloc_lock)
../audioTest_bsp//libucosii_bsp.a(os_core.o)
                              ../audioTest_bsp//libucosii_bsp.a(alt_main.o) (OSInit)
../audioTest_bsp//libucosii_bsp.a(os_dbg.o)
                              ../audioTest_bsp//libucosii_bsp.a(os_core.o) (OSDebugInit)
../audioTest_bsp//libucosii_bsp.a(os_flag.o)
                              ../audioTest_bsp//libucosii_bsp.a(os_core.o) (OS_FlagInit)
../audioTest_bsp//libucosii_bsp.a(os_mem.o)
                              ../audioTest_bsp//libucosii_bsp.a(os_core.o) (OS_MemInit)
../audioTest_bsp//libucosii_bsp.a(os_q.o)
                              ../audioTest_bsp//libucosii_bsp.a(os_core.o) (OS_QInit)
../audioTest_bsp//libucosii_bsp.a(os_sem.o)
                              ../audioTest_bsp//libucosii_bsp.a(alt_main.o) (OSSemCreate)
../audioTest_bsp//libucosii_bsp.a(os_task.o)
                              obj/default/hello_ucosii.o (OSTaskCreateExt)
../audioTest_bsp//libucosii_bsp.a(os_time.o)
                              ../audioTest_bsp//libucosii_bsp.a(os_core.o) (OSTimeDly)
../audioTest_bsp//libucosii_bsp.a(alt_sys_init.o)
                              ../audioTest_bsp//libucosii_bsp.a(alt_main.o) (alt_irq_init)
../audioTest_bsp//libucosii_bsp.a(altera_avalon_jtag_uart_fd.o)
                              ../audioTest_bsp//libucosii_bsp.a(alt_sys_init.o) (altera_avalon_jtag_uart_read_fd)
../audioTest_bsp//libucosii_bsp.a(altera_avalon_jtag_uart_init.o)
                              ../audioTest_bsp//libucosii_bsp.a(alt_sys_init.o) (altera_avalon_jtag_uart_init)
../audioTest_bsp//libucosii_bsp.a(altera_avalon_jtag_uart_ioctl.o)
                              ../audioTest_bsp//libucosii_bsp.a(altera_avalon_jtag_uart_fd.o) (altera_avalon_jtag_uart_ioctl)
../audioTest_bsp//libucosii_bsp.a(altera_avalon_jtag_uart_read.o)
                              ../audioTest_bsp//libucosii_bsp.a(altera_avalon_jtag_uart_fd.o) (altera_avalon_jtag_uart_read)
../audioTest_bsp//libucosii_bsp.a(altera_avalon_jtag_uart_write.o)
                              ../audioTest_bsp//libucosii_bsp.a(altera_avalon_jtag_uart_fd.o) (altera_avalon_jtag_uart_write)
../audioTest_bsp//libucosii_bsp.a(altera_avalon_timer_sc.o)
                              ../audioTest_bsp//libucosii_bsp.a(alt_sys_init.o) (alt_avalon_timer_sc_init)
../audioTest_bsp//libucosii_bsp.a(altera_up_avalon_audio.o)
                              obj/default/hello_ucosii.o (alt_up_audio_open_dev)
../audioTest_bsp//libucosii_bsp.a(altera_up_avalon_audio_and_video_config.o)
                              obj/default/hello_ucosii.o (alt_up_av_config_open_dev)
../audioTest_bsp//libucosii_bsp.a(altera_up_avalon_character_lcd.o)
                              ../audioTest_bsp//libucosii_bsp.a(alt_sys_init.o) (alt_up_character_lcd_init)
../audioTest_bsp//libucosii_bsp.a(alt_alarm_start.o)
                              ../audioTest_bsp//libucosii_bsp.a(altera_avalon_jtag_uart_init.o) (alt_alarm_start)
../audioTest_bsp//libucosii_bsp.a(alt_dcache_flush_all.o)
                              ../audioTest_bsp//libucosii_bsp.a(alt_load.o) (alt_dcache_flush_all)
../audioTest_bsp//libucosii_bsp.a(alt_dev_llist_insert.o)
                              ../audioTest_bsp//libucosii_bsp.a(alt_sys_init.o) (alt_dev_llist_insert)
../audioTest_bsp//libucosii_bsp.a(alt_do_ctors.o)
                              ../audioTest_bsp//libucosii_bsp.a(alt_main.o) (_do_ctors)
../audioTest_bsp//libucosii_bsp.a(alt_do_dtors.o)
                              ../audioTest_bsp//libucosii_bsp.a(alt_main.o) (_do_dtors)
../audioTest_bsp//libucosii_bsp.a(alt_find_dev.o)
                              ../audioTest_bsp//libucosii_bsp.a(altera_up_avalon_audio.o) (alt_find_dev)
../audioTest_bsp//libucosii_bsp.a(alt_icache_flush_all.o)
                              ../audioTest_bsp//libucosii_bsp.a(alt_load.o) (alt_icache_flush_all)
../audioTest_bsp//libucosii_bsp.a(alt_io_redirect.o)
                              ../audioTest_bsp//libucosii_bsp.a(alt_main.o) (alt_io_redirect)
../audioTest_bsp//libucosii_bsp.a(alt_irq_register.o)
                              ../audioTest_bsp//libucosii_bsp.a(altera_avalon_jtag_uart_init.o) (alt_irq_register)
../audioTest_bsp//libucosii_bsp.a(alt_irq_vars.o)
                              ../audioTest_bsp//libucosii_bsp.a(alt_irq_register.o) (alt_irq_active)
../audioTest_bsp//libucosii_bsp.a(alt_open.o)
                              ../audioTest_bsp//libucosii_bsp.a(alt_io_redirect.o) (open)
../audioTest_bsp//libucosii_bsp.a(alt_tick.o)
                              ../audioTest_bsp//libucosii_bsp.a(altera_avalon_jtag_uart_init.o) (_alt_tick_rate)
../audioTest_bsp//libucosii_bsp.a(altera_nios2_qsys_irq.o)
                              ../audioTest_bsp//libucosii_bsp.a(alt_sys_init.o) (altera_nios2_qsys_irq_init)
../audioTest_bsp//libucosii_bsp.a(os_cpu_a.o)
                              ../audioTest_bsp//libucosii_bsp.a(os_core.o) (OSIntCtxSw)
../audioTest_bsp//libucosii_bsp.a(os_cpu_c.o)
                              ../audioTest_bsp//libucosii_bsp.a(os_task.o) (OSTaskStkInit)
../audioTest_bsp//libucosii_bsp.a(alt_find_file.o)
                              ../audioTest_bsp//libucosii_bsp.a(alt_open.o) (alt_find_file)
../audioTest_bsp//libucosii_bsp.a(alt_get_fd.o)
                              ../audioTest_bsp//libucosii_bsp.a(alt_open.o) (alt_get_fd)
../audioTest_bsp//libucosii_bsp.a(alt_icache_flush.o)
                              ../audioTest_bsp//libucosii_bsp.a(alt_icache_flush_all.o) (alt_icache_flush)
../audioTest_bsp//libucosii_bsp.a(alt_irq_entry.o)
                              ../audioTest_bsp//libucosii_bsp.a(alt_irq_register.o) (alt_irq_entry)
../audioTest_bsp//libucosii_bsp.a(alt_irq_handler.o)
                              ../audioTest_bsp//libucosii_bsp.a(alt_irq_register.o) (alt_irq_handler)
../audioTest_bsp//libucosii_bsp.a(alt_exception_entry.o)
                              ../audioTest_bsp//libucosii_bsp.a(alt_irq_entry.o) (alt_exception)
/OPT/altera/12.1/nios2eds/bin/gnu/H-i686-pc-linux-gnu/bin/../lib/gcc/nios2-elf/4.1.2/../../../../nios2-elf/lib/libc.a(lib_a-atexit.o)
                              ../audioTest_bsp//libucosii_bsp.a(alt_main.o) (atexit)
/OPT/altera/12.1/nios2eds/bin/gnu/H-i686-pc-linux-gnu/bin/../lib/gcc/nios2-elf/4.1.2/../../../../nios2-elf/lib/libc.a(lib_a-exit.o)
                              ../audioTest_bsp//libucosii_bsp.a(alt_main.o) (exit)
/OPT/altera/12.1/nios2eds/bin/gnu/H-i686-pc-linux-gnu/bin/../lib/gcc/nios2-elf/4.1.2/../../../../nios2-elf/lib/libc.a(lib_a-memcmp.o)
                              ../audioTest_bsp//libucosii_bsp.a(alt_find_dev.o) (memcmp)
/OPT/altera/12.1/nios2eds/bin/gnu/H-i686-pc-linux-gnu/bin/../lib/gcc/nios2-elf/4.1.2/../../../../nios2-elf/lib/libc.a(lib_a-__atexit.o)
                              /OPT/altera/12.1/nios2eds/bin/gnu/H-i686-pc-linux-gnu/bin/../lib/gcc/nios2-elf/4.1.2/../../../../nios2-elf/lib/libc.a(lib_a-atexit.o) (__register_exitproc)
/OPT/altera/12.1/nios2eds/bin/gnu/H-i686-pc-linux-gnu/bin/../lib/gcc/nios2-elf/4.1.2/../../../../nios2-elf/lib/libc.a(lib_a-__call_atexit.o)
                              /OPT/altera/12.1/nios2eds/bin/gnu/H-i686-pc-linux-gnu/bin/../lib/gcc/nios2-elf/4.1.2/../../../../nios2-elf/lib/libc.a(lib_a-exit.o) (__call_exitprocs)
../audioTest_bsp//libucosii_bsp.a(alt_exit.o)
                              /OPT/altera/12.1/nios2eds/bin/gnu/H-i686-pc-linux-gnu/bin/../lib/gcc/nios2-elf/4.1.2/../../../../nios2-elf/lib/libc.a(lib_a-exit.o) (_exit)

Allocating common symbols
Common symbol       size              file

alt_irq             0x100             ../audioTest_bsp//libucosii_bsp.a(alt_irq_handler.o)
task1_stk           0x2000            obj/default/hello_ucosii.o
OSLockNesting       0x1               ../audioTest_bsp//libucosii_bsp.a(os_core.o)
OSRunning           0x1               ../audioTest_bsp//libucosii_bsp.a(os_core.o)
OSIdleCtr           0x4               ../audioTest_bsp//libucosii_bsp.a(os_core.o)
OSPrioHighRdy       0x1               ../audioTest_bsp//libucosii_bsp.a(os_core.o)
errno               0x4               /OPT/altera/12.1/nios2eds/bin/gnu/H-i686-pc-linux-gnu/bin/../lib/gcc/nios2-elf/4.1.2/../../../../nios2-elf/lib/libc.a(lib_a-int_errno.o)
alt_heapsem         0x4               ../audioTest_bsp//libucosii_bsp.a(alt_malloc_lock.o)
OSFlagTbl           0x370             ../audioTest_bsp//libucosii_bsp.a(os_core.o)
OSPrioCur           0x1               ../audioTest_bsp//libucosii_bsp.a(os_core.o)
OSTCBList           0x4               ../audioTest_bsp//libucosii_bsp.a(os_core.o)
alt_fd_list_lock    0x4               ../audioTest_bsp//libucosii_bsp.a(alt_dev.o)
OSMemTbl            0xc30             ../audioTest_bsp//libucosii_bsp.a(os_core.o)
OSTickStepState     0x1               ../audioTest_bsp//libucosii_bsp.a(os_core.o)
OSTaskStatStk       0x800             ../audioTest_bsp//libucosii_bsp.a(os_core.o)
OSCtxSwCtr          0x4               ../audioTest_bsp//libucosii_bsp.a(os_core.o)
OSIdleCtrMax        0x4               ../audioTest_bsp//libucosii_bsp.a(os_core.o)
OSTCBFreeList       0x4               ../audioTest_bsp//libucosii_bsp.a(os_core.o)
OSCPUUsage          0x1               ../audioTest_bsp//libucosii_bsp.a(os_core.o)
OSTaskCtr           0x1               ../audioTest_bsp//libucosii_bsp.a(os_core.o)
OSMemFreeList       0x4               ../audioTest_bsp//libucosii_bsp.a(os_core.o)
OSQTbl              0x1e0             ../audioTest_bsp//libucosii_bsp.a(os_core.o)
OSTCBHighRdy        0x4               ../audioTest_bsp//libucosii_bsp.a(os_core.o)
OSQFreeList         0x4               ../audioTest_bsp//libucosii_bsp.a(os_core.o)
OSRdyGrp            0x1               ../audioTest_bsp//libucosii_bsp.a(os_core.o)
task2_stk           0x2000            obj/default/hello_ucosii.o
_atexit0            0x190             /OPT/altera/12.1/nios2eds/bin/gnu/H-i686-pc-linux-gnu/bin/../lib/gcc/nios2-elf/4.1.2/../../../../nios2-elf/lib/libc.a(lib_a-atexit.o)
OSRdyTbl            0x3               ../audioTest_bsp//libucosii_bsp.a(os_core.o)
OSEventFreeList     0x4               ../audioTest_bsp//libucosii_bsp.a(os_core.o)
OSIntNesting        0x1               ../audioTest_bsp//libucosii_bsp.a(os_core.o)
OSTCBCur            0x4               ../audioTest_bsp//libucosii_bsp.a(os_core.o)
OSTime              0x4               ../audioTest_bsp//libucosii_bsp.a(os_core.o)
OSTaskIdleStk       0x800             ../audioTest_bsp//libucosii_bsp.a(os_core.o)
OSEventTbl          0xb40             ../audioTest_bsp//libucosii_bsp.a(os_core.o)
OSTCBTbl            0x510             ../audioTest_bsp//libucosii_bsp.a(os_core.o)
OSFlagFreeList      0x4               ../audioTest_bsp//libucosii_bsp.a(os_core.o)
OSStatRdy           0x1               ../audioTest_bsp//libucosii_bsp.a(os_core.o)
OSTCBPrioTbl        0x54              ../audioTest_bsp//libucosii_bsp.a(os_core.o)
alt_envsem          0x4               ../audioTest_bsp//libucosii_bsp.a(alt_env_lock.o)
OSIdleCtrRun        0x4               ../audioTest_bsp//libucosii_bsp.a(os_core.o)

Memory Configuration

Name             Origin             Length             Attributes
sdram_0          0x00800000         0x00800000
sram_0           0x01080000         0x00080000
reset            0x01104000         0x00000020
onchip_memory2_0 0x01104020         0x00003fe0
*default*        0x00000000         0xffffffff

Linker script and memory map

LOAD ../audioTest_bsp//obj/HAL/src/crt0.o
LOAD obj/default/hello_ucosii.o
LOAD /OPT/altera/12.1/nios2eds/bin/gnu/H-i686-pc-linux-gnu/bin/../lib/gcc/nios2-elf/4.1.2/../../../../nios2-elf/lib/libstdc++.a
LOAD /OPT/altera/12.1/nios2eds/bin/gnu/H-i686-pc-linux-gnu/bin/../lib/gcc/nios2-elf/4.1.2/../../../../nios2-elf/lib/libm.a
LOAD /OPT/altera/12.1/nios2eds/bin/gnu/H-i686-pc-linux-gnu/bin/../lib/gcc/nios2-elf/4.1.2/libgcc.a
START GROUP
LOAD /OPT/altera/12.1/nios2eds/bin/gnu/H-i686-pc-linux-gnu/bin/../lib/gcc/nios2-elf/4.1.2/../../../../nios2-elf/lib/libc.a
LOAD /OPT/altera/12.1/nios2eds/bin/gnu/H-i686-pc-linux-gnu/bin/../lib/gcc/nios2-elf/4.1.2/libgcc.a
LOAD ../audioTest_bsp//libucosii_bsp.a
END GROUP
LOAD /OPT/altera/12.1/nios2eds/bin/gnu/H-i686-pc-linux-gnu/bin/../lib/gcc/nios2-elf/4.1.2/libgcc.a
                0x00800000                __alt_mem_sdram_0 = 0x800000
                0x01080000                __alt_mem_sram_0 = 0x1080000
                0x01104000                __alt_mem_onchip_memory2_0 = 0x1104000

.entry          0x01104000       0x20
 *(.entry)
 .entry         0x01104000       0x20 ../audioTest_bsp//obj/HAL/src/crt0.o
                0x01104000                __reset

.exceptions     0x01104020      0x1a0 load address 0x00800000
                0x01104020                PROVIDE (__ram_exceptions_start, ABSOLUTE (.))
                0x01104020                . = ALIGN (0x20)
 *(.irq)
 *(.exceptions.entry.label)
 .exceptions.entry.label
                0x01104020        0x0 ../audioTest_bsp//libucosii_bsp.a(alt_irq_entry.o)
                0x01104020                alt_irq_entry
 .exceptions.entry.label
                0x01104020        0x0 ../audioTest_bsp//libucosii_bsp.a(alt_exception_entry.o)
                0x01104020                alt_exception
 *(.exceptions.entry.user)
 *(.exceptions.entry)
 .exceptions.entry
                0x01104020       0x54 ../audioTest_bsp//libucosii_bsp.a(alt_exception_entry.o)
 *(.exceptions.irqtest.user)
 *(.exceptions.irqtest)
 .exceptions.irqtest
                0x01104074       0x10 ../audioTest_bsp//libucosii_bsp.a(alt_irq_entry.o)
 *(.exceptions.irqhandler.user)
 *(.exceptions.irqhandler)
 .exceptions.irqhandler
                0x01104084        0x4 ../audioTest_bsp//libucosii_bsp.a(alt_irq_entry.o)
 *(.exceptions.irqreturn.user)
 *(.exceptions.irqreturn)
 .exceptions.irqreturn
                0x01104088        0x4 ../audioTest_bsp//libucosii_bsp.a(alt_irq_entry.o)
 *(.exceptions.notirq.label)
 .exceptions.notirq.label
                0x0110408c        0x0 ../audioTest_bsp//libucosii_bsp.a(alt_irq_entry.o)
 *(.exceptions.notirq.user)
 *(.exceptions.notirq)
 .exceptions.notirq
                0x0110408c        0x8 ../audioTest_bsp//libucosii_bsp.a(alt_exception_entry.o)
 *(.exceptions.soft.user)
 *(.exceptions.soft)
 *(.exceptions.unknown.user)
 *(.exceptions.unknown)
 .exceptions.unknown
                0x01104094        0x4 ../audioTest_bsp//libucosii_bsp.a(alt_exception_entry.o)
 *(.exceptions.exit.label)
 .exceptions.exit.label
                0x01104098        0x0 ../audioTest_bsp//libucosii_bsp.a(alt_irq_entry.o)
 .exceptions.exit.label
                0x01104098        0x0 ../audioTest_bsp//libucosii_bsp.a(alt_exception_entry.o)
 *(.exceptions.exit.user)
 *(.exceptions.exit)
 .exceptions.exit
                0x01104098       0x54 ../audioTest_bsp//libucosii_bsp.a(alt_exception_entry.o)
 *(.exceptions)
 .exceptions    0x011040ec       0xd4 ../audioTest_bsp//libucosii_bsp.a(alt_irq_handler.o)
                0x011040ec                alt_irq_handler
                0x011041c0                PROVIDE (__ram_exceptions_end, ABSOLUTE (.))
                0x00800000                PROVIDE (__flash_exceptions_start, LOADADDR (.exceptions))

.text           0x008001a0    0x13364
                0x008001a0                PROVIDE (stext, ABSOLUTE (.))
 *(.interp)
 *(.hash)
 *(.dynsym)
 *(.dynstr)
 *(.gnu.version)
 *(.gnu.version_d)
 *(.gnu.version_r)
 *(.rel.init)
 *(.rela.init)
 *(.rel.text .rel.text.* .rel.gnu.linkonce.t.*)
 *(.rela.text .rela.text.* .rela.gnu.linkonce.t.*)
 *(.rel.fini)
 *(.rela.fini)
 *(.rel.rodata .rel.rodata.* .rel.gnu.linkonce.r.*)
 *(.rela.rodata .rela.rodata.* .rela.gnu.linkonce.r.*)
 *(.rel.data .rel.data.* .rel.gnu.linkonce.d.*)
 *(.rela.data .rela.data.* .rela.gnu.linkonce.d.*)
 *(.rel.tdata .rel.tdata.* .rel.gnu.linkonce.td.*)
 *(.rela.tdata .rela.tdata.* .rela.gnu.linkonce.td.*)
 *(.rel.tbss .rel.tbss.* .rel.gnu.linkonce.tb.*)
 *(.rela.tbss .rela.tbss.* .rela.gnu.linkonce.tb.*)
 *(.rel.ctors)
 *(.rela.ctors)
 *(.rel.dtors)
 *(.rela.dtors)
 *(.rel.got)
 *(.rela.got)
 *(.rel.sdata .rel.sdata.* .rel.gnu.linkonce.s.*)
 *(.rela.sdata .rela.sdata.* .rela.gnu.linkonce.s.*)
 *(.rel.sbss .rel.sbss.* .rel.gnu.linkonce.sb.*)
 *(.rela.sbss .rela.sbss.* .rela.gnu.linkonce.sb.*)
 *(.rel.sdata2 .rel.sdata2.* .rel.gnu.linkonce.s2.*)
 *(.rela.sdata2 .rela.sdata2.* .rela.gnu.linkonce.s2.*)
 *(.rel.sbss2 .rel.sbss2.* .rel.gnu.linkonce.sb2.*)
 *(.rela.sbss2 .rela.sbss2.* .rela.gnu.linkonce.sb2.*)
 *(.rel.bss .rel.bss.* .rel.gnu.linkonce.b.*)
 *(.rela.bss .rela.bss.* .rela.gnu.linkonce.b.*)
 *(.rel.plt)
 *(.rela.plt)
 *(.rel.dyn)
 *(.init)
 *(.plt)
 *(.text .stub .text.* .gnu.linkonce.t.*)
 .text          0x008001a0       0x4c ../audioTest_bsp//obj/HAL/src/crt0.o
                0x008001a0                _start
 .text          0x008001ec      0x2b4 obj/default/hello_ucosii.o
                0x008001ec                task1
                0x00800434                main
 .text          0x008004a0      0x16c /OPT/altera/12.1/nios2eds/bin/gnu/H-i686-pc-linux-gnu/bin/../lib/gcc/nios2-elf/4.1.2/../../../../nios2-elf/lib/libm.a(lib_a-s_sin.o)
                0x008004a0                sin
 .text          0x0080060c      0x828 /OPT/altera/12.1/nios2eds/bin/gnu/H-i686-pc-linux-gnu/bin/../lib/gcc/nios2-elf/4.1.2/../../../../nios2-elf/lib/libm.a(lib_a-e_rem_pio2.o)
                0x0080060c                __ieee754_rem_pio2
 .text          0x00800e34      0x52c /OPT/altera/12.1/nios2eds/bin/gnu/H-i686-pc-linux-gnu/bin/../lib/gcc/nios2-elf/4.1.2/../../../../nios2-elf/lib/libm.a(lib_a-k_cos.o)
                0x00800e34                __kernel_cos
 .text          0x00801360      0xe7c /OPT/altera/12.1/nios2eds/bin/gnu/H-i686-pc-linux-gnu/bin/../lib/gcc/nios2-elf/4.1.2/../../../../nios2-elf/lib/libm.a(lib_a-k_rem_pio2.o)
                0x00801360                __kernel_rem_pio2
 .text          0x008021dc      0x318 /OPT/altera/12.1/nios2eds/bin/gnu/H-i686-pc-linux-gnu/bin/../lib/gcc/nios2-elf/4.1.2/../../../../nios2-elf/lib/libm.a(lib_a-k_sin.o)
                0x008021dc                __kernel_sin
 .text          0x008024f4       0x18 /OPT/altera/12.1/nios2eds/bin/gnu/H-i686-pc-linux-gnu/bin/../lib/gcc/nios2-elf/4.1.2/../../../../nios2-elf/lib/libm.a(lib_a-s_fabs.o)
                0x008024f4                fabs
 .text          0x0080250c      0x224 /OPT/altera/12.1/nios2eds/bin/gnu/H-i686-pc-linux-gnu/bin/../lib/gcc/nios2-elf/4.1.2/../../../../nios2-elf/lib/libm.a(lib_a-s_floor.o)
                0x0080250c                floor
 .text          0x00802730      0x1e0 /OPT/altera/12.1/nios2eds/bin/gnu/H-i686-pc-linux-gnu/bin/../lib/gcc/nios2-elf/4.1.2/../../../../nios2-elf/lib/libm.a(lib_a-s_scalbn.o)
                0x00802730                scalbn
 .text          0x00802910       0x24 /OPT/altera/12.1/nios2eds/bin/gnu/H-i686-pc-linux-gnu/bin/../lib/gcc/nios2-elf/4.1.2/../../../../nios2-elf/lib/libm.a(lib_a-s_copysign.o)
                0x00802910                copysign
 .text          0x00802934       0xa4 /OPT/altera/12.1/nios2eds/bin/gnu/H-i686-pc-linux-gnu/bin/../lib/gcc/nios2-elf/4.1.2/libgcc.a(_fixunsdfsi.o)
                0x00802934                __fixunsdfsi
 .text          0x008029d8      0x504 /OPT/altera/12.1/nios2eds/bin/gnu/H-i686-pc-linux-gnu/bin/../lib/gcc/nios2-elf/4.1.2/libgcc.a(_addsub_df.o)
                0x00802de8                __subdf3
                0x00802e68                __adddf3
 .text          0x00802edc      0x3c4 /OPT/altera/12.1/nios2eds/bin/gnu/H-i686-pc-linux-gnu/bin/../lib/gcc/nios2-elf/4.1.2/libgcc.a(_mul_df.o)
                0x00802edc                __muldf3
 .text          0x008032a0      0x258 /OPT/altera/12.1/nios2eds/bin/gnu/H-i686-pc-linux-gnu/bin/../lib/gcc/nios2-elf/4.1.2/libgcc.a(_div_df.o)
                0x008032a0                __divdf3
 .text          0x008034f8       0x88 /OPT/altera/12.1/nios2eds/bin/gnu/H-i686-pc-linux-gnu/bin/../lib/gcc/nios2-elf/4.1.2/libgcc.a(_eq_df.o)
                0x008034f8                __eqdf2
 .text          0x00803580       0x88 /OPT/altera/12.1/nios2eds/bin/gnu/H-i686-pc-linux-gnu/bin/../lib/gcc/nios2-elf/4.1.2/libgcc.a(_gt_df.o)
                0x00803580                __gtdf2
 .text          0x00803608       0x88 /OPT/altera/12.1/nios2eds/bin/gnu/H-i686-pc-linux-gnu/bin/../lib/gcc/nios2-elf/4.1.2/libgcc.a(_ge_df.o)
                0x00803608                __gedf2
 .text          0x00803690       0xf8 /OPT/altera/12.1/nios2eds/bin/gnu/H-i686-pc-linux-gnu/bin/../lib/gcc/nios2-elf/4.1.2/libgcc.a(_si_to_df.o)
                0x00803690                __floatsidf
 .text          0x00803788       0xd8 /OPT/altera/12.1/nios2eds/bin/gnu/H-i686-pc-linux-gnu/bin/../lib/gcc/nios2-elf/4.1.2/libgcc.a(_df_to_si.o)
                0x00803788                __fixdfsi
 .text          0x00803860        0x0 /OPT/altera/12.1/nios2eds/bin/gnu/H-i686-pc-linux-gnu/bin/../lib/gcc/nios2-elf/4.1.2/libgcc.a(_thenan_df.o)
 .text          0x00803860      0x14c /OPT/altera/12.1/nios2eds/bin/gnu/H-i686-pc-linux-gnu/bin/../lib/gcc/nios2-elf/4.1.2/libgcc.a(lib2-divmod.o)
                0x008038dc                __divsi3
                0x0080393c                __modsi3
                0x0080399c                __udivsi3
                0x008039a4                __umodsi3
 .text          0x008039ac       0x98 /OPT/altera/12.1/nios2eds/bin/gnu/H-i686-pc-linux-gnu/bin/../lib/gcc/nios2-elf/4.1.2/libgcc.a(_muldi3.o)
                0x008039ac                __muldi3
 .text          0x00803a44       0x80 /OPT/altera/12.1/nios2eds/bin/gnu/H-i686-pc-linux-gnu/bin/../lib/gcc/nios2-elf/4.1.2/libgcc.a(_clzsi2.o)
                0x00803a44                __clzsi2
 .text          0x00803ac4      0x314 /OPT/altera/12.1/nios2eds/bin/gnu/H-i686-pc-linux-gnu/bin/../lib/gcc/nios2-elf/4.1.2/libgcc.a(_pack_df.o)
                0x00803ac4                __pack_d
 .text          0x00803dd8      0x138 /OPT/altera/12.1/nios2eds/bin/gnu/H-i686-pc-linux-gnu/bin/../lib/gcc/nios2-elf/4.1.2/libgcc.a(_unpack_df.o)
                0x00803dd8                __unpack_d
 .text          0x00803f10       0xc8 /OPT/altera/12.1/nios2eds/bin/gnu/H-i686-pc-linux-gnu/bin/../lib/gcc/nios2-elf/4.1.2/libgcc.a(_fpcmp_parts_df.o)
                0x00803f10                __fpcmp_parts_d
 .text          0x00803fd8        0x0 /OPT/altera/12.1/nios2eds/bin/gnu/H-i686-pc-linux-gnu/bin/../lib/gcc/nios2-elf/4.1.2/libgcc.a(_clz.o)
 .text          0x00803fd8       0xb4 /OPT/altera/12.1/nios2eds/bin/gnu/H-i686-pc-linux-gnu/bin/../lib/gcc/nios2-elf/4.1.2/../../../../nios2-elf/lib/libc.a(lib_a-puts.o)
                0x00803fd8                _puts_r
                0x00804078                puts
 .text          0x0080408c       0x74 /OPT/altera/12.1/nios2eds/bin/gnu/H-i686-pc-linux-gnu/bin/../lib/gcc/nios2-elf/4.1.2/../../../../nios2-elf/lib/libc.a(lib_a-strlen.o)
                0x0080408c                strlen
 .text          0x00804100      0x49c /OPT/altera/12.1/nios2eds/bin/gnu/H-i686-pc-linux-gnu/bin/../lib/gcc/nios2-elf/4.1.2/../../../../nios2-elf/lib/libc.a(lib_a-fvwrite.o)
                0x00804100                __sfvwrite_r
 .text          0x0080459c        0x0 /OPT/altera/12.1/nios2eds/bin/gnu/H-i686-pc-linux-gnu/bin/../lib/gcc/nios2-elf/4.1.2/../../../../nios2-elf/lib/libc.a(lib_a-impure.o)
 .text          0x0080459c      0x740 /OPT/altera/12.1/nios2eds/bin/gnu/H-i686-pc-linux-gnu/bin/../lib/gcc/nios2-elf/4.1.2/../../../../nios2-elf/lib/libc.a(lib_a-mallocr.o)
                0x0080459c                _malloc_r
 .text          0x00804cdc       0xe4 /OPT/altera/12.1/nios2eds/bin/gnu/H-i686-pc-linux-gnu/bin/../lib/gcc/nios2-elf/4.1.2/../../../../nios2-elf/lib/libc.a(lib_a-memchr.o)
                0x00804cdc                memchr
 .text          0x00804dc0       0xa0 /OPT/altera/12.1/nios2eds/bin/gnu/H-i686-pc-linux-gnu/bin/../lib/gcc/nios2-elf/4.1.2/../../../../nios2-elf/lib/libc.a(lib_a-memcpy.o)
                0x00804dc0                memcpy
 .text          0x00804e60       0xe0 /OPT/altera/12.1/nios2eds/bin/gnu/H-i686-pc-linux-gnu/bin/../lib/gcc/nios2-elf/4.1.2/../../../../nios2-elf/lib/libc.a(lib_a-memmove.o)
                0x00804e60                memmove
 .text          0x00804f40      0x5f4 /OPT/altera/12.1/nios2eds/bin/gnu/H-i686-pc-linux-gnu/bin/../lib/gcc/nios2-elf/4.1.2/../../../../nios2-elf/lib/libc.a(lib_a-reallocr.o)
                0x00804f40                _realloc_r
 .text          0x00805534       0x70 /OPT/altera/12.1/nios2eds/bin/gnu/H-i686-pc-linux-gnu/bin/../lib/gcc/nios2-elf/4.1.2/../../../../nios2-elf/lib/libc.a(lib_a-sbrkr.o)
                0x00805534                _sbrk_r
 .text          0x008055a4      0x13c /OPT/altera/12.1/nios2eds/bin/gnu/H-i686-pc-linux-gnu/bin/../lib/gcc/nios2-elf/4.1.2/../../../../nios2-elf/lib/libc.a(lib_a-wsetup.o)
                0x008055a4                __swsetup_r
 .text          0x008056e0      0x230 /OPT/altera/12.1/nios2eds/bin/gnu/H-i686-pc-linux-gnu/bin/../lib/gcc/nios2-elf/4.1.2/../../../../nios2-elf/lib/libc.a(lib_a-fflush.o)
                0x008056e0                _fflush_r
                0x008058dc                fflush
 .text          0x00805910      0x2c0 /OPT/altera/12.1/nios2eds/bin/gnu/H-i686-pc-linux-gnu/bin/../lib/gcc/nios2-elf/4.1.2/../../../../nios2-elf/lib/libc.a(lib_a-findfp.o)
                0x00805968                __sfp_lock_acquire
                0x0080596c                __sfp_lock_release
                0x00805970                __sinit_lock_acquire
                0x00805974                __sinit_lock_release
                0x00805978                __sinit
                0x00805a2c                __fp_unlock_all
                0x00805a44                __fp_lock_all
                0x00805a5c                _cleanup_r
                0x00805a68                _cleanup
                0x00805a78                __sfmoreglue
                0x00805ae0                __sfp
 .text          0x00805bd0      0x440 /OPT/altera/12.1/nios2eds/bin/gnu/H-i686-pc-linux-gnu/bin/../lib/gcc/nios2-elf/4.1.2/../../../../nios2-elf/lib/libc.a(lib_a-freer.o)
                0x00805bd0                _malloc_trim_r
                0x00805cfc                _free_r
 .text          0x00806010      0x180 /OPT/altera/12.1/nios2eds/bin/gnu/H-i686-pc-linux-gnu/bin/../lib/gcc/nios2-elf/4.1.2/../../../../nios2-elf/lib/libc.a(lib_a-fwalk.o)
                0x00806010                _fwalk_reent
                0x008060d8                _fwalk
 .text          0x00806190        0x0 /OPT/altera/12.1/nios2eds/bin/gnu/H-i686-pc-linux-gnu/bin/../lib/gcc/nios2-elf/4.1.2/../../../../nios2-elf/lib/libc.a(lib_a-int_errno.o)
 .text          0x00806190      0x194 /OPT/altera/12.1/nios2eds/bin/gnu/H-i686-pc-linux-gnu/bin/../lib/gcc/nios2-elf/4.1.2/../../../../nios2-elf/lib/libc.a(lib_a-makebuf.o)
                0x00806190                __smakebuf_r
 .text          0x00806324       0x98 /OPT/altera/12.1/nios2eds/bin/gnu/H-i686-pc-linux-gnu/bin/../lib/gcc/nios2-elf/4.1.2/../../../../nios2-elf/lib/libc.a(lib_a-memset.o)
                0x00806324                memset
 .text          0x008063bc      0x14c /OPT/altera/12.1/nios2eds/bin/gnu/H-i686-pc-linux-gnu/bin/../lib/gcc/nios2-elf/4.1.2/../../../../nios2-elf/lib/libc.a(lib_a-stdio.o)
                0x008063bc                __sclose
                0x008063c4                __sseek
                0x0080642c                __swrite
                0x008064a8                __sread
 .text          0x00806508       0x78 /OPT/altera/12.1/nios2eds/bin/gnu/H-i686-pc-linux-gnu/bin/../lib/gcc/nios2-elf/4.1.2/../../../../nios2-elf/lib/libc.a(lib_a-writer.o)
                0x00806508                _write_r
 .text          0x00806580       0x70 /OPT/altera/12.1/nios2eds/bin/gnu/H-i686-pc-linux-gnu/bin/../lib/gcc/nios2-elf/4.1.2/../../../../nios2-elf/lib/libc.a(lib_a-closer.o)
                0x00806580                _close_r
 .text          0x008065f0      0x124 /OPT/altera/12.1/nios2eds/bin/gnu/H-i686-pc-linux-gnu/bin/../lib/gcc/nios2-elf/4.1.2/../../../../nios2-elf/lib/libc.a(lib_a-fclose.o)
                0x008065f0                _fclose_r
                0x00806700                fclose
 .text          0x00806714       0x74 /OPT/altera/12.1/nios2eds/bin/gnu/H-i686-pc-linux-gnu/bin/../lib/gcc/nios2-elf/4.1.2/../../../../nios2-elf/lib/libc.a(lib_a-fstatr.o)
                0x00806714                _fstat_r
 .text          0x00806788       0x70 /OPT/altera/12.1/nios2eds/bin/gnu/H-i686-pc-linux-gnu/bin/../lib/gcc/nios2-elf/4.1.2/../../../../nios2-elf/lib/libc.a(lib_a-isattyr.o)
                0x00806788                _isatty_r
 .text          0x008067f8       0x78 /OPT/altera/12.1/nios2eds/bin/gnu/H-i686-pc-linux-gnu/bin/../lib/gcc/nios2-elf/4.1.2/../../../../nios2-elf/lib/libc.a(lib_a-lseekr.o)
                0x008067f8                _lseek_r
 .text          0x00806870       0x78 /OPT/altera/12.1/nios2eds/bin/gnu/H-i686-pc-linux-gnu/bin/../lib/gcc/nios2-elf/4.1.2/../../../../nios2-elf/lib/libc.a(lib_a-readr.o)
                0x00806870                _read_r
 .text          0x008068e8      0x15c ../audioTest_bsp//libucosii_bsp.a(alt_close.o)
                0x008068e8                close
 .text          0x00806a44       0x2c ../audioTest_bsp//libucosii_bsp.a(alt_dev.o)
 .text          0x00806a70        0x0 ../audioTest_bsp//libucosii_bsp.a(alt_errno.o)
 .text          0x00806a70      0x134 ../audioTest_bsp//libucosii_bsp.a(alt_fstat.o)
                0x00806a70                fstat
 .text          0x00806ba4      0x120 ../audioTest_bsp//libucosii_bsp.a(alt_isatty.o)
                0x00806ba4                isatty
 .text          0x00806cc4       0xec ../audioTest_bsp//libucosii_bsp.a(alt_load.o)
                0x00806cc4                alt_load
 .text          0x00806db0      0x150 ../audioTest_bsp//libucosii_bsp.a(alt_lseek.o)
                0x00806db0                lseek
 .text          0x00806f00       0xc8 ../audioTest_bsp//libucosii_bsp.a(alt_main.o)
                0x00806f00                alt_main
 .text          0x00806fc8      0x180 ../audioTest_bsp//libucosii_bsp.a(alt_read.o)
                0x00806fc8                read
 .text          0x00807148       0x60 ../audioTest_bsp//libucosii_bsp.a(alt_release_fd.o)
                0x00807148                alt_release_fd
 .text          0x008071a8       0xbc ../audioTest_bsp//libucosii_bsp.a(alt_sbrk.o)
                0x008071a8                sbrk
 .text          0x00807264      0x180 ../audioTest_bsp//libucosii_bsp.a(alt_write.o)
                0x00807264                write
 .text          0x008073e4      0x108 ../audioTest_bsp//libucosii_bsp.a(alt_env_lock.o)
                0x008073e4                __env_lock
                0x00807490                __env_unlock
 .text          0x008074ec      0x1d8 ../audioTest_bsp//libucosii_bsp.a(alt_malloc_lock.o)
                0x008074ec                __malloc_lock
                0x008075f4                __malloc_unlock
 .text          0x008076c4     0x2128 ../audioTest_bsp//libucosii_bsp.a(os_core.o)
                0x008076c4                OSEventNameGet
                0x008077f4                OSEventNameSet
                0x00807938                OSEventPendMulti
                0x00807fec                OSInit
                0x00808040                OSIntEnter
                0x008080bc                OSIntExit
                0x008081bc                OSSchedLock
                0x00808248                OSSchedUnlock
                0x0080832c                OSStart
                0x0080839c                OSStatInit
                0x00808448                OSTimeTick
                0x00808688                OSVersion
                0x008086a8                OS_Dummy
                0x008086c4                OS_EventTaskRdy
                0x00808858                OS_EventTaskWait
                0x00808968                OS_EventTaskWaitMulti
                0x00808abc                OS_EventTaskRemove
                0x00808b74                OS_EventTaskRemoveMulti
                0x00808c78                OS_EventWaitListInit
                0x00809044                OS_MemClr
                0x00809098                OS_MemCopy
                0x00809104                OS_Sched
                0x00809248                OS_StrCopy
                0x008092c8                OS_StrLen
                0x00809320                OS_TaskIdle
                0x0080937c                OS_TaskStat
                0x00809444                OS_TaskStatStkChk
                0x0080950c                OS_TCBInit
 .text          0x008097ec      0x18c ../audioTest_bsp//libucosii_bsp.a(os_dbg.o)
                0x008097ec                OSDebugInit
 .text          0x00809978     0x193c ../audioTest_bsp//libucosii_bsp.a(os_flag.o)
                0x00809978                OSFlagAccept
                0x00809cac                OSFlagCreate
                0x00809de8                OSFlagDel
                0x0080a090                OSFlagNameGet
                0x0080a1d4                OSFlagNameSet
                0x0080a328                OSFlagPend
                0x0080a96c                OSFlagPendGetFlagsRdy
                0x0080a9d4                OSFlagPost
                0x0080ad7c                OSFlagQuery
                0x0080b014                OS_FlagInit
                0x0080b208                OS_FlagUnlink
 .text          0x0080b2b4      0x808 ../audioTest_bsp//libucosii_bsp.a(os_mem.o)
                0x0080b2b4                OSMemCreate
                0x0080b4d0                OSMemGet
                0x0080b5d4                OSMemNameGet
                0x0080b6e0                OSMemNameSet
                0x0080b800                OSMemPut
                0x0080b8f0                OSMemQuery
                0x0080b9ec                OS_MemInit
 .text          0x0080babc     0x1334 ../audioTest_bsp//libucosii_bsp.a(os_q.o)
                0x0080babc                OSQAccept
                0x0080bc10                OSQCreate
                0x0080be24                OSQDel
                0x0080c124                OSQFlush
                0x0080c1ec                OSQPend
                0x0080c50c                OSQPendAbort
                0x0080c688                OSQPost
                0x0080c808                OSQPostFront
                0x0080c990                OSQPostOpt
                0x0080cbc4                OSQQuery
                0x0080cd44                OS_QInit
 .text          0x0080cdf0      0xbc8 ../audioTest_bsp//libucosii_bsp.a(os_sem.o)
                0x0080cdf0                OSSemAccept
                0x0080ceb0                OSSemCreate
                0x0080cfc4                OSSemDel
                0x0080d264                OSSemPend
                0x0080d4e0                OSSemPendAbort
                0x0080d65c                OSSemPost
                0x0080d784                OSSemQuery
                0x0080d8b4                OSSemSet
 .text          0x0080d9b8     0x1a40 ../audioTest_bsp//libucosii_bsp.a(os_task.o)
                0x0080d9b8                OSTaskChangePrio
                0x0080df2c                OSTaskCreate
                0x0080e100                OSTaskCreateExt
                0x0080e300                OSTaskDel
                0x0080e70c                OSTaskDelReq
                0x0080e87c                OSTaskNameGet
                0x0080ea34                OSTaskNameSet
                0x0080ebf8                OSTaskResume
                0x0080ee10                OSTaskStkChk
                0x0080f00c                OSTaskSuspend
                0x0080f238                OSTaskQuery
                0x0080f37c                OS_TaskStkClr
 .text          0x0080f3f8      0x598 ../audioTest_bsp//libucosii_bsp.a(os_time.o)
                0x0080f3f8                OSTimeDly
                0x0080f544                OSTimeDlyHMSM
                0x0080f6b8                OSTimeDlyResume
                0x0080f8c8                OSTimeGet
                0x0080f92c                OSTimeSet
 .text          0x0080f990       0xf8 ../audioTest_bsp//libucosii_bsp.a(alt_sys_init.o)
                0x0080f990                alt_irq_init
                0x0080f9c4                alt_sys_init
 .text          0x0080fa88      0x148 ../audioTest_bsp//libucosii_bsp.a(altera_avalon_jtag_uart_fd.o)
                0x0080fa88                altera_avalon_jtag_uart_read_fd
                0x0080fae0                altera_avalon_jtag_uart_write_fd
                0x0080fb38                altera_avalon_jtag_uart_close_fd
                0x0080fb80                altera_avalon_jtag_uart_ioctl_fd
 .text          0x0080fbd0      0x580 ../audioTest_bsp//libucosii_bsp.a(altera_avalon_jtag_uart_init.o)
                0x0080fbd0                altera_avalon_jtag_uart_init
                0x008100dc                altera_avalon_jtag_uart_close
 .text          0x00810150       0xf4 ../audioTest_bsp//libucosii_bsp.a(altera_avalon_jtag_uart_ioctl.o)
                0x00810150                altera_avalon_jtag_uart_ioctl
 .text          0x00810244      0x2c0 ../audioTest_bsp//libucosii_bsp.a(altera_avalon_jtag_uart_read.o)
                0x00810244                altera_avalon_jtag_uart_read
 .text          0x00810504      0x2dc ../audioTest_bsp//libucosii_bsp.a(altera_avalon_jtag_uart_write.o)
                0x00810504                altera_avalon_jtag_uart_write
 .text          0x008107e0       0xfc ../audioTest_bsp//libucosii_bsp.a(altera_avalon_timer_sc.o)
                0x00810854                alt_avalon_timer_sc_init
 .text          0x008108dc      0x80c ../audioTest_bsp//libucosii_bsp.a(altera_up_avalon_audio.o)
                0x008108dc                alt_up_audio_open_dev
                0x0081091c                alt_up_audio_enable_read_interrupt
                0x00810968                alt_up_audio_disable_read_interrupt
                0x008109b8                alt_up_audio_enable_write_interrupt
                0x00810a04                alt_up_audio_disable_write_interrupt
                0x00810a54                alt_up_audio_read_interrupt_pending
                0x00810a90                alt_up_audio_write_interrupt_pending
                0x00810acc                alt_up_audio_reset_audio_core
                0x00810b54                alt_up_audio_read_fifo_avail
                0x00810bc4                alt_up_audio_record_r
                0x00810c34                alt_up_audio_record_l
                0x00810ca4                alt_up_audio_write_fifo_space
                0x00810d18                alt_up_audio_play_r
                0x00810d88                alt_up_audio_play_l
                0x00810df8                alt_up_audio_read_fifo
                0x00810efc                alt_up_audio_write_fifo
                0x00811028                alt_up_audio_read_fifo_head
                0x00811088                alt_up_audio_write_fifo_head
 .text          0x008110e8      0x788 ../audioTest_bsp//libucosii_bsp.a(altera_up_avalon_audio_and_video_config.o)
                0x008110e8                alt_up_av_config_open_dev
                0x0081114c                alt_up_av_config_write_data
                0x008111b0                alt_up_av_config_read_data
                0x0081123c                alt_up_av_config_reset
                0x00811274                alt_up_av_config_enable_interrupt
                0x008112ac                alt_up_av_config_disable_interrupt
                0x008112dc                alt_up_av_config_read_acknowledge
                0x00811344                alt_up_av_config_read_ready
                0x0081137c                alt_up_av_config_write_audio_cfg_register
                0x00811428                alt_up_av_config_read_video_cfg_register
                0x00811520                alt_up_av_config_write_video_cfg_register
                0x00811618                alt_up_av_config_read_DC2_cfg_register
                0x0081167c                alt_up_av_config_write_DC2_cfg_register
                0x008116e0                alt_up_av_config_read_D5M_cfg_register
                0x00811744                alt_up_av_config_write_D5M_cfg_register
                0x008117a8                alt_up_av_config_read_LTM_cfg_register
                0x0081180c                alt_up_av_config_write_LTM_cfg_register
 .text          0x00811870      0x530 ../audioTest_bsp//libucosii_bsp.a(altera_up_avalon_character_lcd.o)
                0x00811870                get_DDRAM_addr
                0x008118ec                alt_up_character_lcd_send_cmd
                0x00811920                alt_up_character_lcd_init
                0x00811954                alt_up_character_lcd_open_dev
                0x00811994                alt_up_character_lcd_write
                0x00811a0c                alt_up_character_lcd_string
                0x00811a84                alt_up_character_lcd_write_fd
                0x00811ad0                alt_up_character_lcd_set_cursor_pos
                0x00811b48                alt_up_character_lcd_shift_cursor
                0x00811bf8                alt_up_character_lcd_shift_display
                0x00811ca8                alt_up_character_lcd_erase_pos
                0x00811d38                alt_up_character_lcd_cursor_off
                0x00811d6c                alt_up_character_lcd_cursor_blink_on
 .text          0x00811da0      0x154 ../audioTest_bsp//libucosii_bsp.a(alt_alarm_start.o)
                0x00811da0                alt_alarm_start
 .text          0x00811ef4       0x44 ../audioTest_bsp//libucosii_bsp.a(alt_dcache_flush_all.o)
                0x00811ef4                alt_dcache_flush_all
 .text          0x00811f38      0x114 ../audioTest_bsp//libucosii_bsp.a(alt_dev_llist_insert.o)
                0x00811f38                alt_dev_llist_insert
 .text          0x0081204c       0x64 ../audioTest_bsp//libucosii_bsp.a(alt_do_ctors.o)
                0x0081204c                _do_ctors
 .text          0x008120b0       0x64 ../audioTest_bsp//libucosii_bsp.a(alt_do_dtors.o)
                0x008120b0                _do_dtors
 .text          0x00812114       0x94 ../audioTest_bsp//libucosii_bsp.a(alt_find_dev.o)
                0x00812114                alt_find_dev
 .text          0x008121a8       0x30 ../audioTest_bsp//libucosii_bsp.a(alt_icache_flush_all.o)
                0x008121a8                alt_icache_flush_all
 .text          0x008121d8      0x13c ../audioTest_bsp//libucosii_bsp.a(alt_io_redirect.o)
                0x0081229c                alt_io_redirect
 .text          0x00812314      0x1c0 ../audioTest_bsp//libucosii_bsp.a(alt_irq_register.o)
                0x00812314                alt_irq_register
 .text          0x008124d4        0x0 ../audioTest_bsp//libucosii_bsp.a(alt_irq_vars.o)
 .text          0x008124d4      0x2c4 ../audioTest_bsp//libucosii_bsp.a(alt_open.o)
                0x008125b0                open
 .text          0x00812798      0x1a8 ../audioTest_bsp//libucosii_bsp.a(alt_tick.o)
                0x00812798                alt_alarm_stop
                0x00812830                alt_tick
 .text          0x00812940       0x20 ../audioTest_bsp//libucosii_bsp.a(altera_nios2_qsys_irq.o)
                0x00812940                altera_nios2_qsys_irq_init
 .text          0x00812960       0xd0 ../audioTest_bsp//libucosii_bsp.a(os_cpu_a.o)
                0x00812960                OSCtxSw
                0x00812960                OSIntCtxSw
                0x008129ec                OSStartHighRdy
                0x00812a0c                OSStartTsk
 .text          0x00812a30      0x418 ../audioTest_bsp//libucosii_bsp.a(os_cpu_c.o)
                0x00812a30                OSTaskStkInit
                0x00812d40                OSTaskCreateHook
                0x00812d60                OSTaskDelHook
                0x00812d80                OSTaskSwHook
                0x00812d9c                OSTaskStatHook
                0x00812db8                OSTimeTickHook
                0x00812dd4                OSInitHookBegin
                0x00812df0                OSInitHookEnd
                0x00812e0c                OSTaskIdleHook
                0x00812e28                OSTCBInitHook
 .text          0x00812e48      0x120 ../audioTest_bsp//libucosii_bsp.a(alt_find_file.o)
                0x00812e48                alt_find_file
 .text          0x00812f68       0xf4 ../audioTest_bsp//libucosii_bsp.a(alt_get_fd.o)
                0x00812f68                alt_get_fd
 .text          0x0081305c       0x90 ../audioTest_bsp//libucosii_bsp.a(alt_icache_flush.o)
                0x0081305c                alt_icache_flush
 .text          0x008130ec        0x0 ../audioTest_bsp//libucosii_bsp.a(alt_irq_entry.o)
 .text          0x008130ec        0x0 ../audioTest_bsp//libucosii_bsp.a(alt_irq_handler.o)
 .text          0x008130ec        0x0 ../audioTest_bsp//libucosii_bsp.a(alt_exception_entry.o)
 .text          0x008130ec       0x14 /OPT/altera/12.1/nios2eds/bin/gnu/H-i686-pc-linux-gnu/bin/../lib/gcc/nios2-elf/4.1.2/../../../../nios2-elf/lib/libc.a(lib_a-atexit.o)
                0x008130ec                atexit
 .text          0x00813100       0x38 /OPT/altera/12.1/nios2eds/bin/gnu/H-i686-pc-linux-gnu/bin/../lib/gcc/nios2-elf/4.1.2/../../../../nios2-elf/lib/libc.a(lib_a-exit.o)
                0x00813100                exit
 .text          0x00813138       0x74 /OPT/altera/12.1/nios2eds/bin/gnu/H-i686-pc-linux-gnu/bin/../lib/gcc/nios2-elf/4.1.2/../../../../nios2-elf/lib/libc.a(lib_a-memcmp.o)
                0x00813138                memcmp
 .text          0x008131ac      0x134 /OPT/altera/12.1/nios2eds/bin/gnu/H-i686-pc-linux-gnu/bin/../lib/gcc/nios2-elf/4.1.2/../../../../nios2-elf/lib/libc.a(lib_a-__atexit.o)
                0x008131ac                __register_exitproc
 .text          0x008132e0      0x1b4 /OPT/altera/12.1/nios2eds/bin/gnu/H-i686-pc-linux-gnu/bin/../lib/gcc/nios2-elf/4.1.2/../../../../nios2-elf/lib/libc.a(lib_a-__call_atexit.o)
                0x008132e4                __call_exitprocs
 .text          0x00813494       0x6c ../audioTest_bsp//libucosii_bsp.a(alt_exit.o)
                0x008134d4                _exit
 *(.gnu.warning.*)
 *(.fini)
                0x00813500                PROVIDE (__etext, ABSOLUTE (.))
                0x00813500                PROVIDE (_etext, ABSOLUTE (.))
                0x00813500                PROVIDE (etext, ABSOLUTE (.))
 *(.eh_frame_hdr)
                0x00813500                . = ALIGN (0x4)
                0x00813500                PROVIDE (__preinit_array_start, ABSOLUTE (.))
 *(.preinit_array)
                0x00813500                PROVIDE (__preinit_array_end, ABSOLUTE (.))
                0x00813500                PROVIDE (__init_array_start, ABSOLUTE (.))
 *(.init_array)
                0x00813500                PROVIDE (__init_array_end, ABSOLUTE (.))
                0x00813500                PROVIDE (__fini_array_start, ABSOLUTE (.))
 *(.fini_array)
                0x00813500                PROVIDE (__fini_array_end, ABSOLUTE (.))
 *(.eh_frame)
 *(.gcc_except_table)
 *(.dynamic)
                0x00813500                PROVIDE (__CTOR_LIST__, ABSOLUTE (.))
 *(.ctors)
 *(SORT(.ctors.*))
 .ctors.65535   0x00813500        0x4 /OPT/altera/12.1/nios2eds/bin/gnu/H-i686-pc-linux-gnu/bin/../lib/gcc/nios2-elf/4.1.2/../../../../nios2-elf/lib/libc.a(lib_a-__call_atexit.o)
                0x00813504                PROVIDE (__CTOR_END__, ABSOLUTE (.))
                0x00813504                PROVIDE (__DTOR_LIST__, ABSOLUTE (.))
 *(.dtors)
 *(SORT(.dtors.*))
                0x00813504                PROVIDE (__DTOR_END__, ABSOLUTE (.))
 *(.jcr)
                0x00813504                . = ALIGN (0x4)

.rodata         0x00813504      0x548
                0x00813504                PROVIDE (__ram_rodata_start, ABSOLUTE (.))
                0x00813504                . = ALIGN (0x4)
 *(.rodata .rodata.* .gnu.linkonce.r.*)
 .rodata        0x00813504       0xb4 obj/default/hello_ucosii.o
 .rodata        0x008135b8      0x188 /OPT/altera/12.1/nios2eds/bin/gnu/H-i686-pc-linux-gnu/bin/../lib/gcc/nios2-elf/4.1.2/../../../../nios2-elf/lib/libm.a(lib_a-e_rem_pio2.o)
 .rodata        0x00813740       0x50 /OPT/altera/12.1/nios2eds/bin/gnu/H-i686-pc-linux-gnu/bin/../lib/gcc/nios2-elf/4.1.2/../../../../nios2-elf/lib/libm.a(lib_a-k_rem_pio2.o)
 .rodata        0x00813790       0x14 /OPT/altera/12.1/nios2eds/bin/gnu/H-i686-pc-linux-gnu/bin/../lib/gcc/nios2-elf/4.1.2/libgcc.a(_thenan_df.o)
                0x00813790                __thenan_df
 .rodata        0x008137a4      0x100 /OPT/altera/12.1/nios2eds/bin/gnu/H-i686-pc-linux-gnu/bin/../lib/gcc/nios2-elf/4.1.2/libgcc.a(_clz.o)
                0x008137a4                __clz_tab
 .rodata.str1.4
                0x008138a4        0x2 /OPT/altera/12.1/nios2eds/bin/gnu/H-i686-pc-linux-gnu/bin/../lib/gcc/nios2-elf/4.1.2/../../../../nios2-elf/lib/libc.a(lib_a-puts.o)
                                  0x4 (size before relaxing)
 *fill*         0x008138a6        0x2 00
 .rodata.str1.4
                0x008138a8        0x4 /OPT/altera/12.1/nios2eds/bin/gnu/H-i686-pc-linux-gnu/bin/../lib/gcc/nios2-elf/4.1.2/../../../../nios2-elf/lib/libc.a(lib_a-impure.o)
 .rodata        0x008138ac        0xc ../audioTest_bsp//libucosii_bsp.a(alt_dev.o)
 .rodata        0x008138b8       0x14 ../audioTest_bsp//libucosii_bsp.a(alt_main.o)
 .rodata        0x008138cc      0x120 ../audioTest_bsp//libucosii_bsp.a(os_core.o)
                0x008138cc                OSUnMapTbl
 .rodata        0x008139ec       0x5c ../audioTest_bsp//libucosii_bsp.a(alt_sys_init.o)
 .rodata        0x00813a48        0x4 ../audioTest_bsp//libucosii_bsp.a(os_cpu_c.o)
 *(.rodata1)
                0x00813a4c                . = ALIGN (0x4)
                0x00813a4c                PROVIDE (__ram_rodata_end, ABSOLUTE (.))
                0x00813504                PROVIDE (__flash_rodata_start, LOADADDR (.rodata))

.rwdata         0x00813a4c     0x1b5c load address 0x008155a8
                0x00813a4c                PROVIDE (__ram_rwdata_start, ABSOLUTE (.))
                0x00813a4c                . = ALIGN (0x4)
 *(.got.plt)
 *(.got)
 *(.data1)
 *(.data .data.* .gnu.linkonce.d.*)
 .data          0x00813a4c        0x0 ../audioTest_bsp//obj/HAL/src/crt0.o
 .data          0x00813a4c        0x0 obj/default/hello_ucosii.o
 .data          0x00813a4c        0x0 /OPT/altera/12.1/nios2eds/bin/gnu/H-i686-pc-linux-gnu/bin/../lib/gcc/nios2-elf/4.1.2/../../../../nios2-elf/lib/libm.a(lib_a-s_sin.o)
 .data          0x00813a4c        0x0 /OPT/altera/12.1/nios2eds/bin/gnu/H-i686-pc-linux-gnu/bin/../lib/gcc/nios2-elf/4.1.2/../../../../nios2-elf/lib/libm.a(lib_a-e_rem_pio2.o)
 .data          0x00813a4c        0x0 /OPT/altera/12.1/nios2eds/bin/gnu/H-i686-pc-linux-gnu/bin/../lib/gcc/nios2-elf/4.1.2/../../../../nios2-elf/lib/libm.a(lib_a-k_cos.o)
 .data          0x00813a4c        0x0 /OPT/altera/12.1/nios2eds/bin/gnu/H-i686-pc-linux-gnu/bin/../lib/gcc/nios2-elf/4.1.2/../../../../nios2-elf/lib/libm.a(lib_a-k_rem_pio2.o)
 .data          0x00813a4c        0x0 /OPT/altera/12.1/nios2eds/bin/gnu/H-i686-pc-linux-gnu/bin/../lib/gcc/nios2-elf/4.1.2/../../../../nios2-elf/lib/libm.a(lib_a-k_sin.o)
 .data          0x00813a4c        0x0 /OPT/altera/12.1/nios2eds/bin/gnu/H-i686-pc-linux-gnu/bin/../lib/gcc/nios2-elf/4.1.2/../../../../nios2-elf/lib/libm.a(lib_a-s_fabs.o)
 .data          0x00813a4c        0x0 /OPT/altera/12.1/nios2eds/bin/gnu/H-i686-pc-linux-gnu/bin/../lib/gcc/nios2-elf/4.1.2/../../../../nios2-elf/lib/libm.a(lib_a-s_floor.o)
 .data          0x00813a4c        0x0 /OPT/altera/12.1/nios2eds/bin/gnu/H-i686-pc-linux-gnu/bin/../lib/gcc/nios2-elf/4.1.2/../../../../nios2-elf/lib/libm.a(lib_a-s_scalbn.o)
 .data          0x00813a4c        0x0 /OPT/altera/12.1/nios2eds/bin/gnu/H-i686-pc-linux-gnu/bin/../lib/gcc/nios2-elf/4.1.2/../../../../nios2-elf/lib/libm.a(lib_a-s_copysign.o)
 .data          0x00813a4c        0x0 /OPT/altera/12.1/nios2eds/bin/gnu/H-i686-pc-linux-gnu/bin/../lib/gcc/nios2-elf/4.1.2/libgcc.a(_fixunsdfsi.o)
 .data          0x00813a4c        0x0 /OPT/altera/12.1/nios2eds/bin/gnu/H-i686-pc-linux-gnu/bin/../lib/gcc/nios2-elf/4.1.2/libgcc.a(_addsub_df.o)
 .data          0x00813a4c        0x0 /OPT/altera/12.1/nios2eds/bin/gnu/H-i686-pc-linux-gnu/bin/../lib/gcc/nios2-elf/4.1.2/libgcc.a(_mul_df.o)
 .data          0x00813a4c        0x0 /OPT/altera/12.1/nios2eds/bin/gnu/H-i686-pc-linux-gnu/bin/../lib/gcc/nios2-elf/4.1.2/libgcc.a(_div_df.o)
 .data          0x00813a4c        0x0 /OPT/altera/12.1/nios2eds/bin/gnu/H-i686-pc-linux-gnu/bin/../lib/gcc/nios2-elf/4.1.2/libgcc.a(_eq_df.o)
 .data          0x00813a4c        0x0 /OPT/altera/12.1/nios2eds/bin/gnu/H-i686-pc-linux-gnu/bin/../lib/gcc/nios2-elf/4.1.2/libgcc.a(_gt_df.o)
 .data          0x00813a4c        0x0 /OPT/altera/12.1/nios2eds/bin/gnu/H-i686-pc-linux-gnu/bin/../lib/gcc/nios2-elf/4.1.2/libgcc.a(_ge_df.o)
 .data          0x00813a4c        0x0 /OPT/altera/12.1/nios2eds/bin/gnu/H-i686-pc-linux-gnu/bin/../lib/gcc/nios2-elf/4.1.2/libgcc.a(_si_to_df.o)
 .data          0x00813a4c        0x0 /OPT/altera/12.1/nios2eds/bin/gnu/H-i686-pc-linux-gnu/bin/../lib/gcc/nios2-elf/4.1.2/libgcc.a(_df_to_si.o)
 .data          0x00813a4c        0x0 /OPT/altera/12.1/nios2eds/bin/gnu/H-i686-pc-linux-gnu/bin/../lib/gcc/nios2-elf/4.1.2/libgcc.a(_thenan_df.o)
 .data          0x00813a4c        0x0 /OPT/altera/12.1/nios2eds/bin/gnu/H-i686-pc-linux-gnu/bin/../lib/gcc/nios2-elf/4.1.2/libgcc.a(lib2-divmod.o)
 .data          0x00813a4c        0x0 /OPT/altera/12.1/nios2eds/bin/gnu/H-i686-pc-linux-gnu/bin/../lib/gcc/nios2-elf/4.1.2/libgcc.a(_muldi3.o)
 .data          0x00813a4c        0x0 /OPT/altera/12.1/nios2eds/bin/gnu/H-i686-pc-linux-gnu/bin/../lib/gcc/nios2-elf/4.1.2/libgcc.a(_clzsi2.o)
 .data          0x00813a4c        0x0 /OPT/altera/12.1/nios2eds/bin/gnu/H-i686-pc-linux-gnu/bin/../lib/gcc/nios2-elf/4.1.2/libgcc.a(_pack_df.o)
 .data          0x00813a4c        0x0 /OPT/altera/12.1/nios2eds/bin/gnu/H-i686-pc-linux-gnu/bin/../lib/gcc/nios2-elf/4.1.2/libgcc.a(_unpack_df.o)
 .data          0x00813a4c        0x0 /OPT/altera/12.1/nios2eds/bin/gnu/H-i686-pc-linux-gnu/bin/../lib/gcc/nios2-elf/4.1.2/libgcc.a(_fpcmp_parts_df.o)
 .data          0x00813a4c        0x0 /OPT/altera/12.1/nios2eds/bin/gnu/H-i686-pc-linux-gnu/bin/../lib/gcc/nios2-elf/4.1.2/libgcc.a(_clz.o)
 .data          0x00813a4c        0x0 /OPT/altera/12.1/nios2eds/bin/gnu/H-i686-pc-linux-gnu/bin/../lib/gcc/nios2-elf/4.1.2/../../../../nios2-elf/lib/libc.a(lib_a-puts.o)
 .data          0x00813a4c        0x0 /OPT/altera/12.1/nios2eds/bin/gnu/H-i686-pc-linux-gnu/bin/../lib/gcc/nios2-elf/4.1.2/../../../../nios2-elf/lib/libc.a(lib_a-strlen.o)
 .data          0x00813a4c        0x0 /OPT/altera/12.1/nios2eds/bin/gnu/H-i686-pc-linux-gnu/bin/../lib/gcc/nios2-elf/4.1.2/../../../../nios2-elf/lib/libc.a(lib_a-fvwrite.o)
 .data          0x00813a4c      0x400 /OPT/altera/12.1/nios2eds/bin/gnu/H-i686-pc-linux-gnu/bin/../lib/gcc/nios2-elf/4.1.2/../../../../nios2-elf/lib/libc.a(lib_a-impure.o)
 .data          0x00813e4c      0x408 /OPT/altera/12.1/nios2eds/bin/gnu/H-i686-pc-linux-gnu/bin/../lib/gcc/nios2-elf/4.1.2/../../../../nios2-elf/lib/libc.a(lib_a-mallocr.o)
                0x00813e4c                __malloc_av_
 .data          0x00814254        0x0 /OPT/altera/12.1/nios2eds/bin/gnu/H-i686-pc-linux-gnu/bin/../lib/gcc/nios2-elf/4.1.2/../../../../nios2-elf/lib/libc.a(lib_a-memchr.o)
 .data          0x00814254        0x0 /OPT/altera/12.1/nios2eds/bin/gnu/H-i686-pc-linux-gnu/bin/../lib/gcc/nios2-elf/4.1.2/../../../../nios2-elf/lib/libc.a(lib_a-memcpy.o)
 .data          0x00814254        0x0 /OPT/altera/12.1/nios2eds/bin/gnu/H-i686-pc-linux-gnu/bin/../lib/gcc/nios2-elf/4.1.2/../../../../nios2-elf/lib/libc.a(lib_a-memmove.o)
 .data          0x00814254        0x0 /OPT/altera/12.1/nios2eds/bin/gnu/H-i686-pc-linux-gnu/bin/../lib/gcc/nios2-elf/4.1.2/../../../../nios2-elf/lib/libc.a(lib_a-reallocr.o)
 .data          0x00814254        0x0 /OPT/altera/12.1/nios2eds/bin/gnu/H-i686-pc-linux-gnu/bin/../lib/gcc/nios2-elf/4.1.2/../../../../nios2-elf/lib/libc.a(lib_a-sbrkr.o)
 .data          0x00814254        0x0 /OPT/altera/12.1/nios2eds/bin/gnu/H-i686-pc-linux-gnu/bin/../lib/gcc/nios2-elf/4.1.2/../../../../nios2-elf/lib/libc.a(lib_a-wsetup.o)
 .data          0x00814254        0x0 /OPT/altera/12.1/nios2eds/bin/gnu/H-i686-pc-linux-gnu/bin/../lib/gcc/nios2-elf/4.1.2/../../../../nios2-elf/lib/libc.a(lib_a-fflush.o)
 .data          0x00814254        0x0 /OPT/altera/12.1/nios2eds/bin/gnu/H-i686-pc-linux-gnu/bin/../lib/gcc/nios2-elf/4.1.2/../../../../nios2-elf/lib/libc.a(lib_a-findfp.o)
 .data          0x00814254        0x0 /OPT/altera/12.1/nios2eds/bin/gnu/H-i686-pc-linux-gnu/bin/../lib/gcc/nios2-elf/4.1.2/../../../../nios2-elf/lib/libc.a(lib_a-freer.o)
 .data          0x00814254        0x0 /OPT/altera/12.1/nios2eds/bin/gnu/H-i686-pc-linux-gnu/bin/../lib/gcc/nios2-elf/4.1.2/../../../../nios2-elf/lib/libc.a(lib_a-fwalk.o)
 .data          0x00814254        0x0 /OPT/altera/12.1/nios2eds/bin/gnu/H-i686-pc-linux-gnu/bin/../lib/gcc/nios2-elf/4.1.2/../../../../nios2-elf/lib/libc.a(lib_a-int_errno.o)
 .data          0x00814254        0x0 /OPT/altera/12.1/nios2eds/bin/gnu/H-i686-pc-linux-gnu/bin/../lib/gcc/nios2-elf/4.1.2/../../../../nios2-elf/lib/libc.a(lib_a-makebuf.o)
 .data          0x00814254        0x0 /OPT/altera/12.1/nios2eds/bin/gnu/H-i686-pc-linux-gnu/bin/../lib/gcc/nios2-elf/4.1.2/../../../../nios2-elf/lib/libc.a(lib_a-memset.o)
 .data          0x00814254        0x0 /OPT/altera/12.1/nios2eds/bin/gnu/H-i686-pc-linux-gnu/bin/../lib/gcc/nios2-elf/4.1.2/../../../../nios2-elf/lib/libc.a(lib_a-stdio.o)
 .data          0x00814254        0x0 /OPT/altera/12.1/nios2eds/bin/gnu/H-i686-pc-linux-gnu/bin/../lib/gcc/nios2-elf/4.1.2/../../../../nios2-elf/lib/libc.a(lib_a-writer.o)
 .data          0x00814254        0x0 /OPT/altera/12.1/nios2eds/bin/gnu/H-i686-pc-linux-gnu/bin/../lib/gcc/nios2-elf/4.1.2/../../../../nios2-elf/lib/libc.a(lib_a-closer.o)
 .data          0x00814254        0x0 /OPT/altera/12.1/nios2eds/bin/gnu/H-i686-pc-linux-gnu/bin/../lib/gcc/nios2-elf/4.1.2/../../../../nios2-elf/lib/libc.a(lib_a-fclose.o)
 .data          0x00814254        0x0 /OPT/altera/12.1/nios2eds/bin/gnu/H-i686-pc-linux-gnu/bin/../lib/gcc/nios2-elf/4.1.2/../../../../nios2-elf/lib/libc.a(lib_a-fstatr.o)
 .data          0x00814254        0x0 /OPT/altera/12.1/nios2eds/bin/gnu/H-i686-pc-linux-gnu/bin/../lib/gcc/nios2-elf/4.1.2/../../../../nios2-elf/lib/libc.a(lib_a-isattyr.o)
 .data          0x00814254        0x0 /OPT/altera/12.1/nios2eds/bin/gnu/H-i686-pc-linux-gnu/bin/../lib/gcc/nios2-elf/4.1.2/../../../../nios2-elf/lib/libc.a(lib_a-lseekr.o)
 .data          0x00814254        0x0 /OPT/altera/12.1/nios2eds/bin/gnu/H-i686-pc-linux-gnu/bin/../lib/gcc/nios2-elf/4.1.2/../../../../nios2-elf/lib/libc.a(lib_a-readr.o)
 .data          0x00814254        0x0 ../audioTest_bsp//libucosii_bsp.a(alt_close.o)
 .data          0x00814254      0x1a8 ../audioTest_bsp//libucosii_bsp.a(alt_dev.o)
                0x00814254                alt_dev_null
                0x0081427c                alt_fd_list
 .data          0x008143fc        0x0 ../audioTest_bsp//libucosii_bsp.a(alt_errno.o)
 .data          0x008143fc        0x0 ../audioTest_bsp//libucosii_bsp.a(alt_fstat.o)
 .data          0x008143fc        0x0 ../audioTest_bsp//libucosii_bsp.a(alt_isatty.o)
 .data          0x008143fc        0x0 ../audioTest_bsp//libucosii_bsp.a(alt_load.o)
 .data          0x008143fc        0x0 ../audioTest_bsp//libucosii_bsp.a(alt_lseek.o)
 .data          0x008143fc        0x0 ../audioTest_bsp//libucosii_bsp.a(alt_main.o)
 .data          0x008143fc        0x0 ../audioTest_bsp//libucosii_bsp.a(alt_read.o)
 .data          0x008143fc        0x0 ../audioTest_bsp//libucosii_bsp.a(alt_release_fd.o)
 .data          0x008143fc        0x0 ../audioTest_bsp//libucosii_bsp.a(alt_sbrk.o)
 .data          0x008143fc        0x0 ../audioTest_bsp//libucosii_bsp.a(alt_write.o)
 .data          0x008143fc        0x0 ../audioTest_bsp//libucosii_bsp.a(alt_env_lock.o)
 .data          0x008143fc        0x0 ../audioTest_bsp//libucosii_bsp.a(alt_malloc_lock.o)
 .data          0x008143fc        0x0 ../audioTest_bsp//libucosii_bsp.a(os_core.o)
 .data          0x008143fc        0x0 ../audioTest_bsp//libucosii_bsp.a(os_dbg.o)
 .data          0x008143fc        0x0 ../audioTest_bsp//libucosii_bsp.a(os_flag.o)
 .data          0x008143fc        0x0 ../audioTest_bsp//libucosii_bsp.a(os_mem.o)
 .data          0x008143fc        0x0 ../audioTest_bsp//libucosii_bsp.a(os_q.o)
 .data          0x008143fc        0x0 ../audioTest_bsp//libucosii_bsp.a(os_sem.o)
 .data          0x008143fc        0x0 ../audioTest_bsp//libucosii_bsp.a(os_task.o)
 .data          0x008143fc        0x0 ../audioTest_bsp//libucosii_bsp.a(os_time.o)
 .data          0x008143fc     0x10f8 ../audioTest_bsp//libucosii_bsp.a(alt_sys_init.o)
 .data          0x008154f4        0x0 ../audioTest_bsp//libucosii_bsp.a(altera_avalon_jtag_uart_fd.o)
 .data          0x008154f4        0x0 ../audioTest_bsp//libucosii_bsp.a(altera_avalon_jtag_uart_init.o)
 .data          0x008154f4        0x0 ../audioTest_bsp//libucosii_bsp.a(altera_avalon_jtag_uart_ioctl.o)
 .data          0x008154f4        0x0 ../audioTest_bsp//libucosii_bsp.a(altera_avalon_jtag_uart_read.o)
 .data          0x008154f4        0x0 ../audioTest_bsp//libucosii_bsp.a(altera_avalon_jtag_uart_write.o)
 .data          0x008154f4        0x0 ../audioTest_bsp//libucosii_bsp.a(altera_avalon_timer_sc.o)
 .data          0x008154f4        0x0 ../audioTest_bsp//libucosii_bsp.a(altera_up_avalon_audio.o)
 .data          0x008154f4        0x0 ../audioTest_bsp//libucosii_bsp.a(altera_up_avalon_audio_and_video_config.o)
 .data          0x008154f4        0x0 ../audioTest_bsp//libucosii_bsp.a(altera_up_avalon_character_lcd.o)
 .data          0x008154f4        0x0 ../audioTest_bsp//libucosii_bsp.a(alt_alarm_start.o)
 .data          0x008154f4        0x0 ../audioTest_bsp//libucosii_bsp.a(alt_dcache_flush_all.o)
 .data          0x008154f4        0x0 ../audioTest_bsp//libucosii_bsp.a(alt_dev_llist_insert.o)
 .data          0x008154f4        0x0 ../audioTest_bsp//libucosii_bsp.a(alt_do_ctors.o)
 .data          0x008154f4        0x0 ../audioTest_bsp//libucosii_bsp.a(alt_do_dtors.o)
 .data          0x008154f4        0x0 ../audioTest_bsp//libucosii_bsp.a(alt_find_dev.o)
 .data          0x008154f4        0x0 ../audioTest_bsp//libucosii_bsp.a(alt_icache_flush_all.o)
 .data          0x008154f4        0x0 ../audioTest_bsp//libucosii_bsp.a(alt_io_redirect.o)
 .data          0x008154f4        0x0 ../audioTest_bsp//libucosii_bsp.a(alt_irq_register.o)
 .data          0x008154f4        0x0 ../audioTest_bsp//libucosii_bsp.a(alt_irq_vars.o)
 .data          0x008154f4        0x0 ../audioTest_bsp//libucosii_bsp.a(alt_open.o)
 .data          0x008154f4        0x0 ../audioTest_bsp//libucosii_bsp.a(alt_tick.o)
 .data          0x008154f4        0x0 ../audioTest_bsp//libucosii_bsp.a(altera_nios2_qsys_irq.o)
 .data          0x008154f4        0x0 ../audioTest_bsp//libucosii_bsp.a(os_cpu_a.o)
 .data          0x008154f4        0x0 ../audioTest_bsp//libucosii_bsp.a(os_cpu_c.o)
 .data          0x008154f4        0x0 ../audioTest_bsp//libucosii_bsp.a(alt_find_file.o)
 .data          0x008154f4        0x0 ../audioTest_bsp//libucosii_bsp.a(alt_get_fd.o)
 .data          0x008154f4        0x0 ../audioTest_bsp//libucosii_bsp.a(alt_icache_flush.o)
 .data          0x008154f4        0x0 ../audioTest_bsp//libucosii_bsp.a(alt_irq_entry.o)
 .data          0x008154f4        0x0 ../audioTest_bsp//libucosii_bsp.a(alt_irq_handler.o)
 .data          0x008154f4        0x0 ../audioTest_bsp//libucosii_bsp.a(alt_exception_entry.o)
 .data          0x008154f4        0x0 /OPT/altera/12.1/nios2eds/bin/gnu/H-i686-pc-linux-gnu/bin/../lib/gcc/nios2-elf/4.1.2/../../../../nios2-elf/lib/libc.a(lib_a-atexit.o)
 .data          0x008154f4        0x0 /OPT/altera/12.1/nios2eds/bin/gnu/H-i686-pc-linux-gnu/bin/../lib/gcc/nios2-elf/4.1.2/../../../../nios2-elf/lib/libc.a(lib_a-exit.o)
 .data          0x008154f4        0x0 /OPT/altera/12.1/nios2eds/bin/gnu/H-i686-pc-linux-gnu/bin/../lib/gcc/nios2-elf/4.1.2/../../../../nios2-elf/lib/libc.a(lib_a-memcmp.o)
 .data          0x008154f4        0x0 /OPT/altera/12.1/nios2eds/bin/gnu/H-i686-pc-linux-gnu/bin/../lib/gcc/nios2-elf/4.1.2/../../../../nios2-elf/lib/libc.a(lib_a-__atexit.o)
 .data          0x008154f4        0x0 /OPT/altera/12.1/nios2eds/bin/gnu/H-i686-pc-linux-gnu/bin/../lib/gcc/nios2-elf/4.1.2/../../../../nios2-elf/lib/libc.a(lib_a-__call_atexit.o)
 .data          0x008154f4        0x0 ../audioTest_bsp//libucosii_bsp.a(alt_exit.o)
                0x0081d4f4                _gp = ABSOLUTE ((. + 0x8000))
                0x0081d4f4                PROVIDE (gp, _gp)
 *(.rwdata .rwdata.*)
 *(.sdata .sdata.* .gnu.linkonce.s.*)
 .sdata         0x008154f4        0x8 /OPT/altera/12.1/nios2eds/bin/gnu/H-i686-pc-linux-gnu/bin/../lib/gcc/nios2-elf/4.1.2/../../../../nios2-elf/lib/libc.a(lib_a-impure.o)
                0x008154f4                _impure_ptr
                0x008154f8                _global_impure_ptr
 .sdata         0x008154fc        0x8 /OPT/altera/12.1/nios2eds/bin/gnu/H-i686-pc-linux-gnu/bin/../lib/gcc/nios2-elf/4.1.2/../../../../nios2-elf/lib/libc.a(lib_a-mallocr.o)
                0x008154fc                __malloc_trim_threshold
                0x00815500                __malloc_sbrk_base
 .sdata         0x00815504       0x14 ../audioTest_bsp//libucosii_bsp.a(alt_dev.o)
                0x00815504                alt_fs_list
                0x0081550c                alt_dev_list
                0x00815514                alt_max_fd
 .sdata         0x00815518        0x4 ../audioTest_bsp//libucosii_bsp.a(alt_errno.o)
                0x00815518                alt_errno
 .sdata         0x0081551c        0x4 ../audioTest_bsp//libucosii_bsp.a(alt_sbrk.o)
 .sdata         0x00815520        0x4 ../audioTest_bsp//libucosii_bsp.a(alt_env_lock.o)
 .sdata         0x00815524        0x4 ../audioTest_bsp//libucosii_bsp.a(alt_malloc_lock.o)
 .sdata         0x00815528       0x74 ../audioTest_bsp//libucosii_bsp.a(os_dbg.o)
                0x00815528                OSDebugEn
                0x0081552c                OSEndiannessTest
                0x00815530                OSEventEn
                0x00815532                OSEventMax
                0x00815534                OSEventNameSize
                0x00815536                OSEventSize
                0x00815538                OSEventTblSize
                0x0081553a                OSEventMultiEn
                0x0081553c                OSFlagEn
                0x0081553e                OSFlagGrpSize
                0x00815540                OSFlagNodeSize
                0x00815542                OSFlagWidth
                0x00815544                OSFlagMax
                0x00815546                OSFlagNameSize
                0x00815548                OSLowestPrio
                0x0081554a                OSMboxEn
                0x0081554c                OSMemEn
                0x0081554e                OSMemMax
                0x00815550                OSMemNameSize
                0x00815552                OSMemSize
                0x00815554                OSMemTblSize
                0x00815556                OSMutexEn
                0x00815558                OSPtrSize
                0x0081555a                OSQEn
                0x0081555c                OSQMax
                0x0081555e                OSQSize
                0x00815560                OSRdyTblSize
                0x00815562                OSSemEn
                0x00815564                OSStkWidth
                0x00815566                OSTaskCreateEn
                0x00815568                OSTaskCreateExtEn
                0x0081556a                OSTaskDelEn
                0x0081556c                OSTaskIdleStkSize
                0x0081556e                OSTaskProfileEn
                0x00815570                OSTaskMax
                0x00815572                OSTaskNameSize
                0x00815574                OSTaskStatEn
                0x00815576                OSTaskStatStkSize
                0x00815578                OSTaskStatStkChkEn
                0x0081557a                OSTaskSwHookEn
                0x0081557c                OSTCBPrioTblMax
                0x0081557e                OSTCBSize
                0x00815580                OSTicksPerSec
                0x00815582                OSTimeTickHookEn
                0x00815584                OSVersionNbr
                0x00815586                OSTmrEn
                0x00815588                OSTmrCfgMax
                0x0081558a                OSTmrCfgNameSize
                0x0081558c                OSTmrCfgWheelSize
                0x0081558e                OSTmrCfgTicksPerSec
                0x00815590                OSTmrSize
                0x00815592                OSTmrTblSize
                0x00815594                OSTmrWheelSize
                0x00815596                OSTmrWheelTblSize
                0x00815598                OSDataSize
 .sdata         0x0081559c        0x4 ../audioTest_bsp//libucosii_bsp.a(alt_irq_vars.o)
                0x0081559c                alt_priority_mask
 .sdata         0x008155a0        0x8 ../audioTest_bsp//libucosii_bsp.a(alt_tick.o)
                0x008155a0                alt_alarm_list
 *(.sdata2 .sdata2.* .gnu.linkonce.s2.*)
                0x008155a8                . = ALIGN (0x4)
                0x008155a8                _edata = ABSOLUTE (.)
                0x008155a8                PROVIDE (edata, ABSOLUTE (.))
                0x008155a8                PROVIDE (__ram_rwdata_end, ABSOLUTE (.))
                0x008155a8                PROVIDE (__flash_rwdata_start, LOADADDR (.rwdata))

.bss            0x00817104     0x7568
                0x00817104                __bss_start = ABSOLUTE (.)
                0x00817104                PROVIDE (__sbss_start, ABSOLUTE (.))
                0x00817104                PROVIDE (___sbss_start, ABSOLUTE (.))
 *(.dynsbss)
 *(.sbss .sbss.* .gnu.linkonce.sb.*)
 .sbss          0x00817104        0xc /OPT/altera/12.1/nios2eds/bin/gnu/H-i686-pc-linux-gnu/bin/../lib/gcc/nios2-elf/4.1.2/../../../../nios2-elf/lib/libc.a(lib_a-mallocr.o)
                0x00817104                __malloc_top_pad
                0x00817108                __malloc_max_sbrked_mem
                0x0081710c                __malloc_max_total_mem
 .sbss          0x00817110        0x4 /OPT/altera/12.1/nios2eds/bin/gnu/H-i686-pc-linux-gnu/bin/../lib/gcc/nios2-elf/4.1.2/../../../../nios2-elf/lib/libc.a(lib_a-int_errno.o)
                0x00817110                errno
 .sbss          0x00817114        0x4 ../audioTest_bsp//libucosii_bsp.a(alt_dev.o)
                0x00817114                alt_fd_list_lock
 .sbss          0x00817118        0xc ../audioTest_bsp//libucosii_bsp.a(alt_main.o)
                0x00817118                alt_argc
                0x0081711c                alt_argv
                0x00817120                alt_envp
 .sbss          0x00817124        0x8 ../audioTest_bsp//libucosii_bsp.a(alt_env_lock.o)
                0x00817128                alt_envsem
 .sbss          0x0081712c        0x8 ../audioTest_bsp//libucosii_bsp.a(alt_malloc_lock.o)
                0x00817130                alt_heapsem
 .sbss          0x00817134       0x50 ../audioTest_bsp//libucosii_bsp.a(os_core.o)
                0x00817134                OSLockNesting
                0x00817135                OSRunning
                0x00817138                OSIdleCtr
                0x0081713c                OSPrioHighRdy
                0x0081713d                OSPrioCur
                0x00817140                OSTCBList
                0x00817144                OSTickStepState
                0x00817148                OSCtxSwCtr
                0x0081714c                OSIdleCtrMax
                0x00817150                OSTCBFreeList
                0x00817154                OSCPUUsage
                0x00817155                OSTaskCtr
                0x00817158                OSMemFreeList
                0x0081715c                OSTCBHighRdy
                0x00817160                OSQFreeList
                0x00817164                OSRdyGrp
                0x00817165                OSRdyTbl
                0x00817168                OSEventFreeList
                0x0081716c                OSIntNesting
                0x00817170                OSTCBCur
                0x00817174                OSTime
                0x00817178                OSFlagFreeList
                0x0081717c                OSStatRdy
                0x00817180                OSIdleCtrRun
 .sbss          0x00817184        0x4 ../audioTest_bsp//libucosii_bsp.a(alt_irq_vars.o)
                0x00817184                alt_irq_active
 .sbss          0x00817188        0x8 ../audioTest_bsp//libucosii_bsp.a(alt_tick.o)
                0x00817188                _alt_tick_rate
                0x0081718c                _alt_nticks
 *(.sbss2 .sbss2.* .gnu.linkonce.sb2.*)
 *(.scommon)
                0x00817190                PROVIDE (__sbss_end, ABSOLUTE (.))
                0x00817190                PROVIDE (___sbss_end, ABSOLUTE (.))
 *(.dynbss)
 *(.bss .bss.* .gnu.linkonce.b.*)
 .bss           0x00817190        0x0 ../audioTest_bsp//obj/HAL/src/crt0.o
 .bss           0x00817190        0x0 obj/default/hello_ucosii.o
 .bss           0x00817190        0x0 /OPT/altera/12.1/nios2eds/bin/gnu/H-i686-pc-linux-gnu/bin/../lib/gcc/nios2-elf/4.1.2/../../../../nios2-elf/lib/libm.a(lib_a-s_sin.o)
 .bss           0x00817190        0x0 /OPT/altera/12.1/nios2eds/bin/gnu/H-i686-pc-linux-gnu/bin/../lib/gcc/nios2-elf/4.1.2/../../../../nios2-elf/lib/libm.a(lib_a-e_rem_pio2.o)
 .bss           0x00817190        0x0 /OPT/altera/12.1/nios2eds/bin/gnu/H-i686-pc-linux-gnu/bin/../lib/gcc/nios2-elf/4.1.2/../../../../nios2-elf/lib/libm.a(lib_a-k_cos.o)
 .bss           0x00817190        0x0 /OPT/altera/12.1/nios2eds/bin/gnu/H-i686-pc-linux-gnu/bin/../lib/gcc/nios2-elf/4.1.2/../../../../nios2-elf/lib/libm.a(lib_a-k_rem_pio2.o)
 .bss           0x00817190        0x0 /OPT/altera/12.1/nios2eds/bin/gnu/H-i686-pc-linux-gnu/bin/../lib/gcc/nios2-elf/4.1.2/../../../../nios2-elf/lib/libm.a(lib_a-k_sin.o)
 .bss           0x00817190        0x0 /OPT/altera/12.1/nios2eds/bin/gnu/H-i686-pc-linux-gnu/bin/../lib/gcc/nios2-elf/4.1.2/../../../../nios2-elf/lib/libm.a(lib_a-s_fabs.o)
 .bss           0x00817190        0x0 /OPT/altera/12.1/nios2eds/bin/gnu/H-i686-pc-linux-gnu/bin/../lib/gcc/nios2-elf/4.1.2/../../../../nios2-elf/lib/libm.a(lib_a-s_floor.o)
 .bss           0x00817190        0x0 /OPT/altera/12.1/nios2eds/bin/gnu/H-i686-pc-linux-gnu/bin/../lib/gcc/nios2-elf/4.1.2/../../../../nios2-elf/lib/libm.a(lib_a-s_scalbn.o)
 .bss           0x00817190        0x0 /OPT/altera/12.1/nios2eds/bin/gnu/H-i686-pc-linux-gnu/bin/../lib/gcc/nios2-elf/4.1.2/../../../../nios2-elf/lib/libm.a(lib_a-s_copysign.o)
 .bss           0x00817190        0x0 /OPT/altera/12.1/nios2eds/bin/gnu/H-i686-pc-linux-gnu/bin/../lib/gcc/nios2-elf/4.1.2/libgcc.a(_fixunsdfsi.o)
 .bss           0x00817190        0x0 /OPT/altera/12.1/nios2eds/bin/gnu/H-i686-pc-linux-gnu/bin/../lib/gcc/nios2-elf/4.1.2/libgcc.a(_addsub_df.o)
 .bss           0x00817190        0x0 /OPT/altera/12.1/nios2eds/bin/gnu/H-i686-pc-linux-gnu/bin/../lib/gcc/nios2-elf/4.1.2/libgcc.a(_mul_df.o)
 .bss           0x00817190        0x0 /OPT/altera/12.1/nios2eds/bin/gnu/H-i686-pc-linux-gnu/bin/../lib/gcc/nios2-elf/4.1.2/libgcc.a(_div_df.o)
 .bss           0x00817190        0x0 /OPT/altera/12.1/nios2eds/bin/gnu/H-i686-pc-linux-gnu/bin/../lib/gcc/nios2-elf/4.1.2/libgcc.a(_eq_df.o)
 .bss           0x00817190        0x0 /OPT/altera/12.1/nios2eds/bin/gnu/H-i686-pc-linux-gnu/bin/../lib/gcc/nios2-elf/4.1.2/libgcc.a(_gt_df.o)
 .bss           0x00817190        0x0 /OPT/altera/12.1/nios2eds/bin/gnu/H-i686-pc-linux-gnu/bin/../lib/gcc/nios2-elf/4.1.2/libgcc.a(_ge_df.o)
 .bss           0x00817190        0x0 /OPT/altera/12.1/nios2eds/bin/gnu/H-i686-pc-linux-gnu/bin/../lib/gcc/nios2-elf/4.1.2/libgcc.a(_si_to_df.o)
 .bss           0x00817190        0x0 /OPT/altera/12.1/nios2eds/bin/gnu/H-i686-pc-linux-gnu/bin/../lib/gcc/nios2-elf/4.1.2/libgcc.a(_df_to_si.o)
 .bss           0x00817190        0x0 /OPT/altera/12.1/nios2eds/bin/gnu/H-i686-pc-linux-gnu/bin/../lib/gcc/nios2-elf/4.1.2/libgcc.a(_thenan_df.o)
 .bss           0x00817190        0x0 /OPT/altera/12.1/nios2eds/bin/gnu/H-i686-pc-linux-gnu/bin/../lib/gcc/nios2-elf/4.1.2/libgcc.a(lib2-divmod.o)
 .bss           0x00817190        0x0 /OPT/altera/12.1/nios2eds/bin/gnu/H-i686-pc-linux-gnu/bin/../lib/gcc/nios2-elf/4.1.2/libgcc.a(_muldi3.o)
 .bss           0x00817190        0x0 /OPT/altera/12.1/nios2eds/bin/gnu/H-i686-pc-linux-gnu/bin/../lib/gcc/nios2-elf/4.1.2/libgcc.a(_clzsi2.o)
 .bss           0x00817190        0x0 /OPT/altera/12.1/nios2eds/bin/gnu/H-i686-pc-linux-gnu/bin/../lib/gcc/nios2-elf/4.1.2/libgcc.a(_pack_df.o)
 .bss           0x00817190        0x0 /OPT/altera/12.1/nios2eds/bin/gnu/H-i686-pc-linux-gnu/bin/../lib/gcc/nios2-elf/4.1.2/libgcc.a(_unpack_df.o)
 .bss           0x00817190        0x0 /OPT/altera/12.1/nios2eds/bin/gnu/H-i686-pc-linux-gnu/bin/../lib/gcc/nios2-elf/4.1.2/libgcc.a(_fpcmp_parts_df.o)
 .bss           0x00817190        0x0 /OPT/altera/12.1/nios2eds/bin/gnu/H-i686-pc-linux-gnu/bin/../lib/gcc/nios2-elf/4.1.2/libgcc.a(_clz.o)
 .bss           0x00817190        0x0 /OPT/altera/12.1/nios2eds/bin/gnu/H-i686-pc-linux-gnu/bin/../lib/gcc/nios2-elf/4.1.2/../../../../nios2-elf/lib/libc.a(lib_a-puts.o)
 .bss           0x00817190        0x0 /OPT/altera/12.1/nios2eds/bin/gnu/H-i686-pc-linux-gnu/bin/../lib/gcc/nios2-elf/4.1.2/../../../../nios2-elf/lib/libc.a(lib_a-strlen.o)
 .bss           0x00817190        0x0 /OPT/altera/12.1/nios2eds/bin/gnu/H-i686-pc-linux-gnu/bin/../lib/gcc/nios2-elf/4.1.2/../../../../nios2-elf/lib/libc.a(lib_a-fvwrite.o)
 .bss           0x00817190        0x0 /OPT/altera/12.1/nios2eds/bin/gnu/H-i686-pc-linux-gnu/bin/../lib/gcc/nios2-elf/4.1.2/../../../../nios2-elf/lib/libc.a(lib_a-impure.o)
 .bss           0x00817190       0x28 /OPT/altera/12.1/nios2eds/bin/gnu/H-i686-pc-linux-gnu/bin/../lib/gcc/nios2-elf/4.1.2/../../../../nios2-elf/lib/libc.a(lib_a-mallocr.o)
                0x00817190                __malloc_current_mallinfo
 .bss           0x008171b8        0x0 /OPT/altera/12.1/nios2eds/bin/gnu/H-i686-pc-linux-gnu/bin/../lib/gcc/nios2-elf/4.1.2/../../../../nios2-elf/lib/libc.a(lib_a-memchr.o)
 .bss           0x008171b8        0x0 /OPT/altera/12.1/nios2eds/bin/gnu/H-i686-pc-linux-gnu/bin/../lib/gcc/nios2-elf/4.1.2/../../../../nios2-elf/lib/libc.a(lib_a-memcpy.o)
 .bss           0x008171b8        0x0 /OPT/altera/12.1/nios2eds/bin/gnu/H-i686-pc-linux-gnu/bin/../lib/gcc/nios2-elf/4.1.2/../../../../nios2-elf/lib/libc.a(lib_a-memmove.o)
 .bss           0x008171b8        0x0 /OPT/altera/12.1/nios2eds/bin/gnu/H-i686-pc-linux-gnu/bin/../lib/gcc/nios2-elf/4.1.2/../../../../nios2-elf/lib/libc.a(lib_a-reallocr.o)
 .bss           0x008171b8        0x0 /OPT/altera/12.1/nios2eds/bin/gnu/H-i686-pc-linux-gnu/bin/../lib/gcc/nios2-elf/4.1.2/../../../../nios2-elf/lib/libc.a(lib_a-sbrkr.o)
 .bss           0x008171b8        0x0 /OPT/altera/12.1/nios2eds/bin/gnu/H-i686-pc-linux-gnu/bin/../lib/gcc/nios2-elf/4.1.2/../../../../nios2-elf/lib/libc.a(lib_a-wsetup.o)
 .bss           0x008171b8        0x0 /OPT/altera/12.1/nios2eds/bin/gnu/H-i686-pc-linux-gnu/bin/../lib/gcc/nios2-elf/4.1.2/../../../../nios2-elf/lib/libc.a(lib_a-fflush.o)
 .bss           0x008171b8        0x0 /OPT/altera/12.1/nios2eds/bin/gnu/H-i686-pc-linux-gnu/bin/../lib/gcc/nios2-elf/4.1.2/../../../../nios2-elf/lib/libc.a(lib_a-findfp.o)
 .bss           0x008171b8        0x0 /OPT/altera/12.1/nios2eds/bin/gnu/H-i686-pc-linux-gnu/bin/../lib/gcc/nios2-elf/4.1.2/../../../../nios2-elf/lib/libc.a(lib_a-freer.o)
 .bss           0x008171b8        0x0 /OPT/altera/12.1/nios2eds/bin/gnu/H-i686-pc-linux-gnu/bin/../lib/gcc/nios2-elf/4.1.2/../../../../nios2-elf/lib/libc.a(lib_a-fwalk.o)
 .bss           0x008171b8        0x0 /OPT/altera/12.1/nios2eds/bin/gnu/H-i686-pc-linux-gnu/bin/../lib/gcc/nios2-elf/4.1.2/../../../../nios2-elf/lib/libc.a(lib_a-int_errno.o)
 .bss           0x008171b8        0x0 /OPT/altera/12.1/nios2eds/bin/gnu/H-i686-pc-linux-gnu/bin/../lib/gcc/nios2-elf/4.1.2/../../../../nios2-elf/lib/libc.a(lib_a-makebuf.o)
 .bss           0x008171b8        0x0 /OPT/altera/12.1/nios2eds/bin/gnu/H-i686-pc-linux-gnu/bin/../lib/gcc/nios2-elf/4.1.2/../../../../nios2-elf/lib/libc.a(lib_a-memset.o)
 .bss           0x008171b8        0x0 /OPT/altera/12.1/nios2eds/bin/gnu/H-i686-pc-linux-gnu/bin/../lib/gcc/nios2-elf/4.1.2/../../../../nios2-elf/lib/libc.a(lib_a-stdio.o)
 .bss           0x008171b8        0x0 /OPT/altera/12.1/nios2eds/bin/gnu/H-i686-pc-linux-gnu/bin/../lib/gcc/nios2-elf/4.1.2/../../../../nios2-elf/lib/libc.a(lib_a-writer.o)
 .bss           0x008171b8        0x0 /OPT/altera/12.1/nios2eds/bin/gnu/H-i686-pc-linux-gnu/bin/../lib/gcc/nios2-elf/4.1.2/../../../../nios2-elf/lib/libc.a(lib_a-closer.o)
 .bss           0x008171b8        0x0 /OPT/altera/12.1/nios2eds/bin/gnu/H-i686-pc-linux-gnu/bin/../lib/gcc/nios2-elf/4.1.2/../../../../nios2-elf/lib/libc.a(lib_a-fclose.o)
 .bss           0x008171b8        0x0 /OPT/altera/12.1/nios2eds/bin/gnu/H-i686-pc-linux-gnu/bin/../lib/gcc/nios2-elf/4.1.2/../../../../nios2-elf/lib/libc.a(lib_a-fstatr.o)
 .bss           0x008171b8        0x0 /OPT/altera/12.1/nios2eds/bin/gnu/H-i686-pc-linux-gnu/bin/../lib/gcc/nios2-elf/4.1.2/../../../../nios2-elf/lib/libc.a(lib_a-isattyr.o)
 .bss           0x008171b8        0x0 /OPT/altera/12.1/nios2eds/bin/gnu/H-i686-pc-linux-gnu/bin/../lib/gcc/nios2-elf/4.1.2/../../../../nios2-elf/lib/libc.a(lib_a-lseekr.o)
 .bss           0x008171b8        0x0 /OPT/altera/12.1/nios2eds/bin/gnu/H-i686-pc-linux-gnu/bin/../lib/gcc/nios2-elf/4.1.2/../../../../nios2-elf/lib/libc.a(lib_a-readr.o)
 .bss           0x008171b8        0x0 ../audioTest_bsp//libucosii_bsp.a(alt_close.o)
 .bss           0x008171b8        0x0 ../audioTest_bsp//libucosii_bsp.a(alt_dev.o)
 .bss           0x008171b8        0x0 ../audioTest_bsp//libucosii_bsp.a(alt_errno.o)
 .bss           0x008171b8        0x0 ../audioTest_bsp//libucosii_bsp.a(alt_fstat.o)
 .bss           0x008171b8        0x0 ../audioTest_bsp//libucosii_bsp.a(alt_isatty.o)
 .bss           0x008171b8        0x0 ../audioTest_bsp//libucosii_bsp.a(alt_load.o)
 .bss           0x008171b8        0x0 ../audioTest_bsp//libucosii_bsp.a(alt_lseek.o)
 .bss           0x008171b8        0x0 ../audioTest_bsp//libucosii_bsp.a(alt_main.o)
 .bss           0x008171b8        0x0 ../audioTest_bsp//libucosii_bsp.a(alt_read.o)
 .bss           0x008171b8        0x0 ../audioTest_bsp//libucosii_bsp.a(alt_release_fd.o)
 .bss           0x008171b8        0x0 ../audioTest_bsp//libucosii_bsp.a(alt_sbrk.o)
 .bss           0x008171b8        0x0 ../audioTest_bsp//libucosii_bsp.a(alt_write.o)
 .bss           0x008171b8        0x0 ../audioTest_bsp//libucosii_bsp.a(alt_env_lock.o)
 .bss           0x008171b8        0x0 ../audioTest_bsp//libucosii_bsp.a(alt_malloc_lock.o)
 .bss           0x008171b8        0x0 ../audioTest_bsp//libucosii_bsp.a(os_core.o)
 .bss           0x008171b8        0x0 ../audioTest_bsp//libucosii_bsp.a(os_dbg.o)
 .bss           0x008171b8        0x0 ../audioTest_bsp//libucosii_bsp.a(os_flag.o)
 .bss           0x008171b8        0x0 ../audioTest_bsp//libucosii_bsp.a(os_mem.o)
 .bss           0x008171b8        0x0 ../audioTest_bsp//libucosii_bsp.a(os_q.o)
 .bss           0x008171b8        0x0 ../audioTest_bsp//libucosii_bsp.a(os_sem.o)
 .bss           0x008171b8        0x0 ../audioTest_bsp//libucosii_bsp.a(os_task.o)
 .bss           0x008171b8        0x0 ../audioTest_bsp//libucosii_bsp.a(os_time.o)
 .bss           0x008171b8        0x0 ../audioTest_bsp//libucosii_bsp.a(alt_sys_init.o)
 .bss           0x008171b8        0x0 ../audioTest_bsp//libucosii_bsp.a(altera_avalon_jtag_uart_fd.o)
 .bss           0x008171b8        0x0 ../audioTest_bsp//libucosii_bsp.a(altera_avalon_jtag_uart_init.o)
 .bss           0x008171b8        0x0 ../audioTest_bsp//libucosii_bsp.a(altera_avalon_jtag_uart_ioctl.o)
 .bss           0x008171b8        0x0 ../audioTest_bsp//libucosii_bsp.a(altera_avalon_jtag_uart_read.o)
 .bss           0x008171b8        0x0 ../audioTest_bsp//libucosii_bsp.a(altera_avalon_jtag_uart_write.o)
 .bss           0x008171b8        0x0 ../audioTest_bsp//libucosii_bsp.a(altera_avalon_timer_sc.o)
 .bss           0x008171b8        0x0 ../audioTest_bsp//libucosii_bsp.a(altera_up_avalon_audio.o)
 .bss           0x008171b8        0x0 ../audioTest_bsp//libucosii_bsp.a(altera_up_avalon_audio_and_video_config.o)
 .bss           0x008171b8        0x0 ../audioTest_bsp//libucosii_bsp.a(altera_up_avalon_character_lcd.o)
 .bss           0x008171b8        0x0 ../audioTest_bsp//libucosii_bsp.a(alt_alarm_start.o)
 .bss           0x008171b8        0x0 ../audioTest_bsp//libucosii_bsp.a(alt_dcache_flush_all.o)
 .bss           0x008171b8        0x0 ../audioTest_bsp//libucosii_bsp.a(alt_dev_llist_insert.o)
 .bss           0x008171b8        0x0 ../audioTest_bsp//libucosii_bsp.a(alt_do_ctors.o)
 .bss           0x008171b8        0x0 ../audioTest_bsp//libucosii_bsp.a(alt_do_dtors.o)
 .bss           0x008171b8        0x0 ../audioTest_bsp//libucosii_bsp.a(alt_find_dev.o)
 .bss           0x008171b8        0x0 ../audioTest_bsp//libucosii_bsp.a(alt_icache_flush_all.o)
 .bss           0x008171b8        0x0 ../audioTest_bsp//libucosii_bsp.a(alt_io_redirect.o)
 .bss           0x008171b8        0x0 ../audioTest_bsp//libucosii_bsp.a(alt_irq_register.o)
 .bss           0x008171b8        0x0 ../audioTest_bsp//libucosii_bsp.a(alt_irq_vars.o)
 .bss           0x008171b8        0x0 ../audioTest_bsp//libucosii_bsp.a(alt_open.o)
 .bss           0x008171b8        0x0 ../audioTest_bsp//libucosii_bsp.a(alt_tick.o)
 .bss           0x008171b8        0x0 ../audioTest_bsp//libucosii_bsp.a(altera_nios2_qsys_irq.o)
 .bss           0x008171b8        0x0 ../audioTest_bsp//libucosii_bsp.a(os_cpu_a.o)
 .bss           0x008171b8        0x0 ../audioTest_bsp//libucosii_bsp.a(os_cpu_c.o)
 .bss           0x008171b8        0x0 ../audioTest_bsp//libucosii_bsp.a(alt_find_file.o)
 .bss           0x008171b8        0x0 ../audioTest_bsp//libucosii_bsp.a(alt_get_fd.o)
 .bss           0x008171b8        0x0 ../audioTest_bsp//libucosii_bsp.a(alt_icache_flush.o)
 .bss           0x008171b8        0x0 ../audioTest_bsp//libucosii_bsp.a(alt_irq_entry.o)
 .bss           0x008171b8        0x0 ../audioTest_bsp//libucosii_bsp.a(alt_irq_handler.o)
 .bss           0x008171b8        0x0 ../audioTest_bsp//libucosii_bsp.a(alt_exception_entry.o)
 .bss           0x008171b8        0x0 /OPT/altera/12.1/nios2eds/bin/gnu/H-i686-pc-linux-gnu/bin/../lib/gcc/nios2-elf/4.1.2/../../../../nios2-elf/lib/libc.a(lib_a-atexit.o)
 .bss           0x008171b8        0x0 /OPT/altera/12.1/nios2eds/bin/gnu/H-i686-pc-linux-gnu/bin/../lib/gcc/nios2-elf/4.1.2/../../../../nios2-elf/lib/libc.a(lib_a-exit.o)
 .bss           0x008171b8        0x0 /OPT/altera/12.1/nios2eds/bin/gnu/H-i686-pc-linux-gnu/bin/../lib/gcc/nios2-elf/4.1.2/../../../../nios2-elf/lib/libc.a(lib_a-memcmp.o)
 .bss           0x008171b8        0x0 /OPT/altera/12.1/nios2eds/bin/gnu/H-i686-pc-linux-gnu/bin/../lib/gcc/nios2-elf/4.1.2/../../../../nios2-elf/lib/libc.a(lib_a-__atexit.o)
 .bss           0x008171b8        0x0 /OPT/altera/12.1/nios2eds/bin/gnu/H-i686-pc-linux-gnu/bin/../lib/gcc/nios2-elf/4.1.2/../../../../nios2-elf/lib/libc.a(lib_a-__call_atexit.o)
 .bss           0x008171b8        0x0 ../audioTest_bsp//libucosii_bsp.a(alt_exit.o)
 *(COMMON)
 COMMON         0x008171b8     0x4000 obj/default/hello_ucosii.o
                0x008171b8                task1_stk
                0x008191b8                task2_stk
 COMMON         0x0081b1b8     0x3224 ../audioTest_bsp//libucosii_bsp.a(os_core.o)
                0x0081b1b8                OSFlagTbl
                0x0081b528                OSMemTbl
                0x0081c158                OSTaskStatStk
                0x0081c958                OSQTbl
                0x0081cb38                OSTaskIdleStk
                0x0081d338                OSEventTbl
                0x0081de78                OSTCBTbl
                0x0081e388                OSTCBPrioTbl
 COMMON         0x0081e3dc      0x100 ../audioTest_bsp//libucosii_bsp.a(alt_irq_handler.o)
                0x0081e3dc                alt_irq
 COMMON         0x0081e4dc      0x190 /OPT/altera/12.1/nios2eds/bin/gnu/H-i686-pc-linux-gnu/bin/../lib/gcc/nios2-elf/4.1.2/../../../../nios2-elf/lib/libc.a(lib_a-atexit.o)
                0x0081e4dc                _atexit0
                0x0081e66c                . = ALIGN (0x4)
                0x0081e66c                __bss_end = ABSOLUTE (.)

.sdram_0        0x0081e66c        0x0
                0x0081e66c                PROVIDE (_alt_partition_sdram_0_start, ABSOLUTE (.))
 *(.sdram_0. sdram_0.*)
                0x0081e66c                . = ALIGN (0x4)
                0x0081e66c                PROVIDE (_alt_partition_sdram_0_end, ABSOLUTE (.))
                0x0081e66c                _end = ABSOLUTE (.)
                0x0081e66c                end = ABSOLUTE (.)
                0x0081e66c                __alt_stack_base = ABSOLUTE (.)
                0x0081e66c                PROVIDE (_alt_partition_sdram_0_load_addr, LOADADDR (.sdram_0))

.sram_0         0x01080000        0x0 load address 0x0081e66c
                0x01080000                PROVIDE (_alt_partition_sram_0_start, ABSOLUTE (.))
 *(.sram_0. sram_0.*)
                0x01080000                . = ALIGN (0x4)
                0x01080000                PROVIDE (_alt_partition_sram_0_end, ABSOLUTE (.))
                0x0081e66c                PROVIDE (_alt_partition_sram_0_load_addr, LOADADDR (.sram_0))

.onchip_memory2_0
                0x011041c0        0x0 load address 0x0081e66c
                0x011041c0                PROVIDE (_alt_partition_onchip_memory2_0_start, ABSOLUTE (.))
 *(.onchip_memory2_0. onchip_memory2_0.*)
                0x011041c0                . = ALIGN (0x4)
                0x011041c0                PROVIDE (_alt_partition_onchip_memory2_0_end, ABSOLUTE (.))
                0x0081e66c                PROVIDE (_alt_partition_onchip_memory2_0_load_addr, LOADADDR (.onchip_memory2_0))

.stab
 *(.stab)

.stabstr
 *(.stabstr)

.stab.excl
 *(.stab.excl)

.stab.exclstr
 *(.stab.exclstr)

.stab.index
 *(.stab.index)

.stab.indexstr
 *(.stab.indexstr)

.comment        0x00000000       0x26
 *(.comment)
 .comment       0x00000000       0x26 obj/default/hello_ucosii.o
                                 0x27 (size before relaxing)
 .comment       0x00000000       0x27 /OPT/altera/12.1/nios2eds/bin/gnu/H-i686-pc-linux-gnu/bin/../lib/gcc/nios2-elf/4.1.2/../../../../nios2-elf/lib/libm.a(lib_a-s_sin.o)
 .comment       0x00000000       0x27 /OPT/altera/12.1/nios2eds/bin/gnu/H-i686-pc-linux-gnu/bin/../lib/gcc/nios2-elf/4.1.2/../../../../nios2-elf/lib/libm.a(lib_a-e_rem_pio2.o)
 .comment       0x00000000       0x27 /OPT/altera/12.1/nios2eds/bin/gnu/H-i686-pc-linux-gnu/bin/../lib/gcc/nios2-elf/4.1.2/../../../../nios2-elf/lib/libm.a(lib_a-k_cos.o)
 .comment       0x00000000       0x27 /OPT/altera/12.1/nios2eds/bin/gnu/H-i686-pc-linux-gnu/bin/../lib/gcc/nios2-elf/4.1.2/../../../../nios2-elf/lib/libm.a(lib_a-k_rem_pio2.o)
 .comment       0x00000000       0x27 /OPT/altera/12.1/nios2eds/bin/gnu/H-i686-pc-linux-gnu/bin/../lib/gcc/nios2-elf/4.1.2/../../../../nios2-elf/lib/libm.a(lib_a-k_sin.o)
 .comment       0x00000000       0x27 /OPT/altera/12.1/nios2eds/bin/gnu/H-i686-pc-linux-gnu/bin/../lib/gcc/nios2-elf/4.1.2/../../../../nios2-elf/lib/libm.a(lib_a-s_fabs.o)
 .comment       0x00000000       0x27 /OPT/altera/12.1/nios2eds/bin/gnu/H-i686-pc-linux-gnu/bin/../lib/gcc/nios2-elf/4.1.2/../../../../nios2-elf/lib/libm.a(lib_a-s_floor.o)
 .comment       0x00000000       0x27 /OPT/altera/12.1/nios2eds/bin/gnu/H-i686-pc-linux-gnu/bin/../lib/gcc/nios2-elf/4.1.2/../../../../nios2-elf/lib/libm.a(lib_a-s_scalbn.o)
 .comment       0x00000000       0x27 /OPT/altera/12.1/nios2eds/bin/gnu/H-i686-pc-linux-gnu/bin/../lib/gcc/nios2-elf/4.1.2/../../../../nios2-elf/lib/libm.a(lib_a-s_copysign.o)
 .comment       0x00000000       0x27 /OPT/altera/12.1/nios2eds/bin/gnu/H-i686-pc-linux-gnu/bin/../lib/gcc/nios2-elf/4.1.2/libgcc.a(_fixunsdfsi.o)
 .comment       0x00000000       0x27 /OPT/altera/12.1/nios2eds/bin/gnu/H-i686-pc-linux-gnu/bin/../lib/gcc/nios2-elf/4.1.2/libgcc.a(_addsub_df.o)
 .comment       0x00000000       0x27 /OPT/altera/12.1/nios2eds/bin/gnu/H-i686-pc-linux-gnu/bin/../lib/gcc/nios2-elf/4.1.2/libgcc.a(_mul_df.o)
 .comment       0x00000000       0x27 /OPT/altera/12.1/nios2eds/bin/gnu/H-i686-pc-linux-gnu/bin/../lib/gcc/nios2-elf/4.1.2/libgcc.a(_div_df.o)
 .comment       0x00000000       0x27 /OPT/altera/12.1/nios2eds/bin/gnu/H-i686-pc-linux-gnu/bin/../lib/gcc/nios2-elf/4.1.2/libgcc.a(_eq_df.o)
 .comment       0x00000000       0x27 /OPT/altera/12.1/nios2eds/bin/gnu/H-i686-pc-linux-gnu/bin/../lib/gcc/nios2-elf/4.1.2/libgcc.a(_gt_df.o)
 .comment       0x00000000       0x27 /OPT/altera/12.1/nios2eds/bin/gnu/H-i686-pc-linux-gnu/bin/../lib/gcc/nios2-elf/4.1.2/libgcc.a(_ge_df.o)
 .comment       0x00000000       0x27 /OPT/altera/12.1/nios2eds/bin/gnu/H-i686-pc-linux-gnu/bin/../lib/gcc/nios2-elf/4.1.2/libgcc.a(_si_to_df.o)
 .comment       0x00000000       0x27 /OPT/altera/12.1/nios2eds/bin/gnu/H-i686-pc-linux-gnu/bin/../lib/gcc/nios2-elf/4.1.2/libgcc.a(_df_to_si.o)
 .comment       0x00000000       0x27 /OPT/altera/12.1/nios2eds/bin/gnu/H-i686-pc-linux-gnu/bin/../lib/gcc/nios2-elf/4.1.2/libgcc.a(_thenan_df.o)
 .comment       0x00000000       0x27 /OPT/altera/12.1/nios2eds/bin/gnu/H-i686-pc-linux-gnu/bin/../lib/gcc/nios2-elf/4.1.2/libgcc.a(lib2-divmod.o)
 .comment       0x00000000       0x27 /OPT/altera/12.1/nios2eds/bin/gnu/H-i686-pc-linux-gnu/bin/../lib/gcc/nios2-elf/4.1.2/libgcc.a(_muldi3.o)
 .comment       0x00000000       0x27 /OPT/altera/12.1/nios2eds/bin/gnu/H-i686-pc-linux-gnu/bin/../lib/gcc/nios2-elf/4.1.2/libgcc.a(_clzsi2.o)
 .comment       0x00000000       0x27 /OPT/altera/12.1/nios2eds/bin/gnu/H-i686-pc-linux-gnu/bin/../lib/gcc/nios2-elf/4.1.2/libgcc.a(_pack_df.o)
 .comment       0x00000000       0x27 /OPT/altera/12.1/nios2eds/bin/gnu/H-i686-pc-linux-gnu/bin/../lib/gcc/nios2-elf/4.1.2/libgcc.a(_unpack_df.o)
 .comment       0x00000000       0x27 /OPT/altera/12.1/nios2eds/bin/gnu/H-i686-pc-linux-gnu/bin/../lib/gcc/nios2-elf/4.1.2/libgcc.a(_fpcmp_parts_df.o)
 .comment       0x00000000       0x27 /OPT/altera/12.1/nios2eds/bin/gnu/H-i686-pc-linux-gnu/bin/../lib/gcc/nios2-elf/4.1.2/libgcc.a(_clz.o)
 .comment       0x00000000       0x27 /OPT/altera/12.1/nios2eds/bin/gnu/H-i686-pc-linux-gnu/bin/../lib/gcc/nios2-elf/4.1.2/../../../../nios2-elf/lib/libc.a(lib_a-puts.o)
 .comment       0x00000000       0x27 /OPT/altera/12.1/nios2eds/bin/gnu/H-i686-pc-linux-gnu/bin/../lib/gcc/nios2-elf/4.1.2/../../../../nios2-elf/lib/libc.a(lib_a-strlen.o)
 .comment       0x00000000       0x27 /OPT/altera/12.1/nios2eds/bin/gnu/H-i686-pc-linux-gnu/bin/../lib/gcc/nios2-elf/4.1.2/../../../../nios2-elf/lib/libc.a(lib_a-fvwrite.o)
 .comment       0x00000000       0x27 /OPT/altera/12.1/nios2eds/bin/gnu/H-i686-pc-linux-gnu/bin/../lib/gcc/nios2-elf/4.1.2/../../../../nios2-elf/lib/libc.a(lib_a-impure.o)
 .comment       0x00000000       0x27 /OPT/altera/12.1/nios2eds/bin/gnu/H-i686-pc-linux-gnu/bin/../lib/gcc/nios2-elf/4.1.2/../../../../nios2-elf/lib/libc.a(lib_a-mallocr.o)
 .comment       0x00000000       0x27 /OPT/altera/12.1/nios2eds/bin/gnu/H-i686-pc-linux-gnu/bin/../lib/gcc/nios2-elf/4.1.2/../../../../nios2-elf/lib/libc.a(lib_a-memchr.o)
 .comment       0x00000000       0x27 /OPT/altera/12.1/nios2eds/bin/gnu/H-i686-pc-linux-gnu/bin/../lib/gcc/nios2-elf/4.1.2/../../../../nios2-elf/lib/libc.a(lib_a-memcpy.o)
 .comment       0x00000000       0x27 /OPT/altera/12.1/nios2eds/bin/gnu/H-i686-pc-linux-gnu/bin/../lib/gcc/nios2-elf/4.1.2/../../../../nios2-elf/lib/libc.a(lib_a-memmove.o)
 .comment       0x00000000       0x27 /OPT/altera/12.1/nios2eds/bin/gnu/H-i686-pc-linux-gnu/bin/../lib/gcc/nios2-elf/4.1.2/../../../../nios2-elf/lib/libc.a(lib_a-reallocr.o)
 .comment       0x00000000       0x27 /OPT/altera/12.1/nios2eds/bin/gnu/H-i686-pc-linux-gnu/bin/../lib/gcc/nios2-elf/4.1.2/../../../../nios2-elf/lib/libc.a(lib_a-sbrkr.o)
 .comment       0x00000000       0x27 /OPT/altera/12.1/nios2eds/bin/gnu/H-i686-pc-linux-gnu/bin/../lib/gcc/nios2-elf/4.1.2/../../../../nios2-elf/lib/libc.a(lib_a-wsetup.o)
 .comment       0x00000000       0x27 /OPT/altera/12.1/nios2eds/bin/gnu/H-i686-pc-linux-gnu/bin/../lib/gcc/nios2-elf/4.1.2/../../../../nios2-elf/lib/libc.a(lib_a-fflush.o)
 .comment       0x00000000       0x27 /OPT/altera/12.1/nios2eds/bin/gnu/H-i686-pc-linux-gnu/bin/../lib/gcc/nios2-elf/4.1.2/../../../../nios2-elf/lib/libc.a(lib_a-findfp.o)
 .comment       0x00000000       0x27 /OPT/altera/12.1/nios2eds/bin/gnu/H-i686-pc-linux-gnu/bin/../lib/gcc/nios2-elf/4.1.2/../../../../nios2-elf/lib/libc.a(lib_a-freer.o)
 .comment       0x00000000       0x27 /OPT/altera/12.1/nios2eds/bin/gnu/H-i686-pc-linux-gnu/bin/../lib/gcc/nios2-elf/4.1.2/../../../../nios2-elf/lib/libc.a(lib_a-fwalk.o)
 .comment       0x00000000       0x27 /OPT/altera/12.1/nios2eds/bin/gnu/H-i686-pc-linux-gnu/bin/../lib/gcc/nios2-elf/4.1.2/../../../../nios2-elf/lib/libc.a(lib_a-int_errno.o)
 .comment       0x00000000       0x27 /OPT/altera/12.1/nios2eds/bin/gnu/H-i686-pc-linux-gnu/bin/../lib/gcc/nios2-elf/4.1.2/../../../../nios2-elf/lib/libc.a(lib_a-makebuf.o)
 .comment       0x00000000       0x27 /OPT/altera/12.1/nios2eds/bin/gnu/H-i686-pc-linux-gnu/bin/../lib/gcc/nios2-elf/4.1.2/../../../../nios2-elf/lib/libc.a(lib_a-memset.o)
 .comment       0x00000000       0x27 /OPT/altera/12.1/nios2eds/bin/gnu/H-i686-pc-linux-gnu/bin/../lib/gcc/nios2-elf/4.1.2/../../../../nios2-elf/lib/libc.a(lib_a-stdio.o)
 .comment       0x00000000       0x27 /OPT/altera/12.1/nios2eds/bin/gnu/H-i686-pc-linux-gnu/bin/../lib/gcc/nios2-elf/4.1.2/../../../../nios2-elf/lib/libc.a(lib_a-writer.o)
 .comment       0x00000000       0x27 /OPT/altera/12.1/nios2eds/bin/gnu/H-i686-pc-linux-gnu/bin/../lib/gcc/nios2-elf/4.1.2/../../../../nios2-elf/lib/libc.a(lib_a-closer.o)
 .comment       0x00000000       0x27 /OPT/altera/12.1/nios2eds/bin/gnu/H-i686-pc-linux-gnu/bin/../lib/gcc/nios2-elf/4.1.2/../../../../nios2-elf/lib/libc.a(lib_a-fclose.o)
 .comment       0x00000000       0x27 /OPT/altera/12.1/nios2eds/bin/gnu/H-i686-pc-linux-gnu/bin/../lib/gcc/nios2-elf/4.1.2/../../../../nios2-elf/lib/libc.a(lib_a-fstatr.o)
 .comment       0x00000000       0x27 /OPT/altera/12.1/nios2eds/bin/gnu/H-i686-pc-linux-gnu/bin/../lib/gcc/nios2-elf/4.1.2/../../../../nios2-elf/lib/libc.a(lib_a-isattyr.o)
 .comment       0x00000000       0x27 /OPT/altera/12.1/nios2eds/bin/gnu/H-i686-pc-linux-gnu/bin/../lib/gcc/nios2-elf/4.1.2/../../../../nios2-elf/lib/libc.a(lib_a-lseekr.o)
 .comment       0x00000000       0x27 /OPT/altera/12.1/nios2eds/bin/gnu/H-i686-pc-linux-gnu/bin/../lib/gcc/nios2-elf/4.1.2/../../../../nios2-elf/lib/libc.a(lib_a-readr.o)
 .comment       0x00000000       0x27 ../audioTest_bsp//libucosii_bsp.a(alt_close.o)
 .comment       0x00000000       0x27 ../audioTest_bsp//libucosii_bsp.a(alt_dev.o)
 .comment       0x00000000       0x27 ../audioTest_bsp//libucosii_bsp.a(alt_errno.o)
 .comment       0x00000000       0x27 ../audioTest_bsp//libucosii_bsp.a(alt_fstat.o)
 .comment       0x00000000       0x27 ../audioTest_bsp//libucosii_bsp.a(alt_isatty.o)
 .comment       0x00000000       0x27 ../audioTest_bsp//libucosii_bsp.a(alt_load.o)
 .comment       0x00000000       0x27 ../audioTest_bsp//libucosii_bsp.a(alt_lseek.o)
 .comment       0x00000000       0x27 ../audioTest_bsp//libucosii_bsp.a(alt_main.o)
 .comment       0x00000000       0x27 ../audioTest_bsp//libucosii_bsp.a(alt_read.o)
 .comment       0x00000000       0x27 ../audioTest_bsp//libucosii_bsp.a(alt_release_fd.o)
 .comment       0x00000000       0x27 ../audioTest_bsp//libucosii_bsp.a(alt_sbrk.o)
 .comment       0x00000000       0x27 ../audioTest_bsp//libucosii_bsp.a(alt_write.o)
 .comment       0x00000000       0x27 ../audioTest_bsp//libucosii_bsp.a(alt_env_lock.o)
 .comment       0x00000000       0x27 ../audioTest_bsp//libucosii_bsp.a(alt_malloc_lock.o)
 .comment       0x00000000       0x27 ../audioTest_bsp//libucosii_bsp.a(os_core.o)
 .comment       0x00000000       0x27 ../audioTest_bsp//libucosii_bsp.a(os_dbg.o)
 .comment       0x00000000       0x27 ../audioTest_bsp//libucosii_bsp.a(os_flag.o)
 .comment       0x00000000       0x27 ../audioTest_bsp//libucosii_bsp.a(os_mem.o)
 .comment       0x00000000       0x27 ../audioTest_bsp//libucosii_bsp.a(os_q.o)
 .comment       0x00000000       0x27 ../audioTest_bsp//libucosii_bsp.a(os_sem.o)
 .comment       0x00000000       0x27 ../audioTest_bsp//libucosii_bsp.a(os_task.o)
 .comment       0x00000000       0x27 ../audioTest_bsp//libucosii_bsp.a(os_time.o)
 .comment       0x00000000       0x27 ../audioTest_bsp//libucosii_bsp.a(alt_sys_init.o)
 .comment       0x00000000       0x27 ../audioTest_bsp//libucosii_bsp.a(altera_avalon_jtag_uart_fd.o)
 .comment       0x00000000       0x27 ../audioTest_bsp//libucosii_bsp.a(altera_avalon_jtag_uart_init.o)
 .comment       0x00000000       0x27 ../audioTest_bsp//libucosii_bsp.a(altera_avalon_jtag_uart_ioctl.o)
 .comment       0x00000000       0x27 ../audioTest_bsp//libucosii_bsp.a(altera_avalon_jtag_uart_read.o)
 .comment       0x00000000       0x27 ../audioTest_bsp//libucosii_bsp.a(altera_avalon_jtag_uart_write.o)
 .comment       0x00000000       0x27 ../audioTest_bsp//libucosii_bsp.a(altera_avalon_timer_sc.o)
 .comment       0x00000000       0x27 ../audioTest_bsp//libucosii_bsp.a(altera_up_avalon_audio.o)
 .comment       0x00000000       0x27 ../audioTest_bsp//libucosii_bsp.a(altera_up_avalon_audio_and_video_config.o)
 .comment       0x00000000       0x27 ../audioTest_bsp//libucosii_bsp.a(altera_up_avalon_character_lcd.o)
 .comment       0x00000000       0x27 ../audioTest_bsp//libucosii_bsp.a(alt_alarm_start.o)
 .comment       0x00000000       0x27 ../audioTest_bsp//libucosii_bsp.a(alt_dcache_flush_all.o)
 .comment       0x00000000       0x27 ../audioTest_bsp//libucosii_bsp.a(alt_dev_llist_insert.o)
 .comment       0x00000000       0x27 ../audioTest_bsp//libucosii_bsp.a(alt_do_ctors.o)
 .comment       0x00000000       0x27 ../audioTest_bsp//libucosii_bsp.a(alt_do_dtors.o)
 .comment       0x00000000       0x27 ../audioTest_bsp//libucosii_bsp.a(alt_find_dev.o)
 .comment       0x00000000       0x27 ../audioTest_bsp//libucosii_bsp.a(alt_icache_flush_all.o)
 .comment       0x00000000       0x27 ../audioTest_bsp//libucosii_bsp.a(alt_io_redirect.o)
 .comment       0x00000000       0x27 ../audioTest_bsp//libucosii_bsp.a(alt_irq_register.o)
 .comment       0x00000000       0x27 ../audioTest_bsp//libucosii_bsp.a(alt_irq_vars.o)
 .comment       0x00000000       0x27 ../audioTest_bsp//libucosii_bsp.a(alt_open.o)
 .comment       0x00000000       0x27 ../audioTest_bsp//libucosii_bsp.a(alt_tick.o)
 .comment       0x00000000       0x27 ../audioTest_bsp//libucosii_bsp.a(altera_nios2_qsys_irq.o)
 .comment       0x00000000       0x27 ../audioTest_bsp//libucosii_bsp.a(os_cpu_c.o)
 .comment       0x00000000       0x27 ../audioTest_bsp//libucosii_bsp.a(alt_find_file.o)
 .comment       0x00000000       0x27 ../audioTest_bsp//libucosii_bsp.a(alt_get_fd.o)
 .comment       0x00000000       0x27 ../audioTest_bsp//libucosii_bsp.a(alt_icache_flush.o)
 .comment       0x00000000       0x27 ../audioTest_bsp//libucosii_bsp.a(alt_irq_handler.o)
 .comment       0x00000000       0x27 /OPT/altera/12.1/nios2eds/bin/gnu/H-i686-pc-linux-gnu/bin/../lib/gcc/nios2-elf/4.1.2/../../../../nios2-elf/lib/libc.a(lib_a-atexit.o)
 .comment       0x00000000       0x27 /OPT/altera/12.1/nios2eds/bin/gnu/H-i686-pc-linux-gnu/bin/../lib/gcc/nios2-elf/4.1.2/../../../../nios2-elf/lib/libc.a(lib_a-exit.o)
 .comment       0x00000000       0x27 /OPT/altera/12.1/nios2eds/bin/gnu/H-i686-pc-linux-gnu/bin/../lib/gcc/nios2-elf/4.1.2/../../../../nios2-elf/lib/libc.a(lib_a-memcmp.o)
 .comment       0x00000000       0x27 /OPT/altera/12.1/nios2eds/bin/gnu/H-i686-pc-linux-gnu/bin/../lib/gcc/nios2-elf/4.1.2/../../../../nios2-elf/lib/libc.a(lib_a-__atexit.o)
 .comment       0x00000000       0x27 /OPT/altera/12.1/nios2eds/bin/gnu/H-i686-pc-linux-gnu/bin/../lib/gcc/nios2-elf/4.1.2/../../../../nios2-elf/lib/libc.a(lib_a-__call_atexit.o)
 .comment       0x00000000       0x27 ../audioTest_bsp//libucosii_bsp.a(alt_exit.o)

.debug
 *(.debug)

.line
 *(.line)

.debug_srcinfo
 *(.debug_srcinfo)

.debug_sfnames
 *(.debug_sfnames)

.debug_aranges  0x00000000      0xd98
 *(.debug_aranges)
 .debug_aranges
                0x00000000       0x28 ../audioTest_bsp//obj/HAL/src/crt0.o
 .debug_aranges
                0x00000028       0x20 obj/default/hello_ucosii.o
 .debug_aranges
                0x00000048       0x20 /OPT/altera/12.1/nios2eds/bin/gnu/H-i686-pc-linux-gnu/bin/../lib/gcc/nios2-elf/4.1.2/../../../../nios2-elf/lib/libm.a(lib_a-s_sin.o)
 .debug_aranges
                0x00000068       0x20 /OPT/altera/12.1/nios2eds/bin/gnu/H-i686-pc-linux-gnu/bin/../lib/gcc/nios2-elf/4.1.2/../../../../nios2-elf/lib/libm.a(lib_a-e_rem_pio2.o)
 .debug_aranges
                0x00000088       0x20 /OPT/altera/12.1/nios2eds/bin/gnu/H-i686-pc-linux-gnu/bin/../lib/gcc/nios2-elf/4.1.2/../../../../nios2-elf/lib/libm.a(lib_a-k_cos.o)
 .debug_aranges
                0x000000a8       0x20 /OPT/altera/12.1/nios2eds/bin/gnu/H-i686-pc-linux-gnu/bin/../lib/gcc/nios2-elf/4.1.2/../../../../nios2-elf/lib/libm.a(lib_a-k_rem_pio2.o)
 .debug_aranges
                0x000000c8       0x20 /OPT/altera/12.1/nios2eds/bin/gnu/H-i686-pc-linux-gnu/bin/../lib/gcc/nios2-elf/4.1.2/../../../../nios2-elf/lib/libm.a(lib_a-k_sin.o)
 .debug_aranges
                0x000000e8       0x20 /OPT/altera/12.1/nios2eds/bin/gnu/H-i686-pc-linux-gnu/bin/../lib/gcc/nios2-elf/4.1.2/../../../../nios2-elf/lib/libm.a(lib_a-s_fabs.o)
 .debug_aranges
                0x00000108       0x20 /OPT/altera/12.1/nios2eds/bin/gnu/H-i686-pc-linux-gnu/bin/../lib/gcc/nios2-elf/4.1.2/../../../../nios2-elf/lib/libm.a(lib_a-s_floor.o)
 .debug_aranges
                0x00000128       0x20 /OPT/altera/12.1/nios2eds/bin/gnu/H-i686-pc-linux-gnu/bin/../lib/gcc/nios2-elf/4.1.2/../../../../nios2-elf/lib/libm.a(lib_a-s_scalbn.o)
 .debug_aranges
                0x00000148       0x20 /OPT/altera/12.1/nios2eds/bin/gnu/H-i686-pc-linux-gnu/bin/../lib/gcc/nios2-elf/4.1.2/../../../../nios2-elf/lib/libm.a(lib_a-s_copysign.o)
 .debug_aranges
                0x00000168       0x20 /OPT/altera/12.1/nios2eds/bin/gnu/H-i686-pc-linux-gnu/bin/../lib/gcc/nios2-elf/4.1.2/libgcc.a(_fixunsdfsi.o)
 .debug_aranges
                0x00000188       0x20 /OPT/altera/12.1/nios2eds/bin/gnu/H-i686-pc-linux-gnu/bin/../lib/gcc/nios2-elf/4.1.2/libgcc.a(_addsub_df.o)
 .debug_aranges
                0x000001a8       0x20 /OPT/altera/12.1/nios2eds/bin/gnu/H-i686-pc-linux-gnu/bin/../lib/gcc/nios2-elf/4.1.2/libgcc.a(_mul_df.o)
 .debug_aranges
                0x000001c8       0x20 /OPT/altera/12.1/nios2eds/bin/gnu/H-i686-pc-linux-gnu/bin/../lib/gcc/nios2-elf/4.1.2/libgcc.a(_div_df.o)
 .debug_aranges
                0x000001e8       0x20 /OPT/altera/12.1/nios2eds/bin/gnu/H-i686-pc-linux-gnu/bin/../lib/gcc/nios2-elf/4.1.2/libgcc.a(_eq_df.o)
 .debug_aranges
                0x00000208       0x20 /OPT/altera/12.1/nios2eds/bin/gnu/H-i686-pc-linux-gnu/bin/../lib/gcc/nios2-elf/4.1.2/libgcc.a(_gt_df.o)
 .debug_aranges
                0x00000228       0x20 /OPT/altera/12.1/nios2eds/bin/gnu/H-i686-pc-linux-gnu/bin/../lib/gcc/nios2-elf/4.1.2/libgcc.a(_ge_df.o)
 .debug_aranges
                0x00000248       0x20 /OPT/altera/12.1/nios2eds/bin/gnu/H-i686-pc-linux-gnu/bin/../lib/gcc/nios2-elf/4.1.2/libgcc.a(_si_to_df.o)
 .debug_aranges
                0x00000268       0x20 /OPT/altera/12.1/nios2eds/bin/gnu/H-i686-pc-linux-gnu/bin/../lib/gcc/nios2-elf/4.1.2/libgcc.a(_df_to_si.o)
 .debug_aranges
                0x00000288       0x20 /OPT/altera/12.1/nios2eds/bin/gnu/H-i686-pc-linux-gnu/bin/../lib/gcc/nios2-elf/4.1.2/libgcc.a(lib2-divmod.o)
 .debug_aranges
                0x000002a8       0x20 /OPT/altera/12.1/nios2eds/bin/gnu/H-i686-pc-linux-gnu/bin/../lib/gcc/nios2-elf/4.1.2/libgcc.a(_muldi3.o)
 .debug_aranges
                0x000002c8       0x20 /OPT/altera/12.1/nios2eds/bin/gnu/H-i686-pc-linux-gnu/bin/../lib/gcc/nios2-elf/4.1.2/libgcc.a(_clzsi2.o)
 .debug_aranges
                0x000002e8       0x20 /OPT/altera/12.1/nios2eds/bin/gnu/H-i686-pc-linux-gnu/bin/../lib/gcc/nios2-elf/4.1.2/libgcc.a(_pack_df.o)
 .debug_aranges
                0x00000308       0x20 /OPT/altera/12.1/nios2eds/bin/gnu/H-i686-pc-linux-gnu/bin/../lib/gcc/nios2-elf/4.1.2/libgcc.a(_unpack_df.o)
 .debug_aranges
                0x00000328       0x20 /OPT/altera/12.1/nios2eds/bin/gnu/H-i686-pc-linux-gnu/bin/../lib/gcc/nios2-elf/4.1.2/libgcc.a(_fpcmp_parts_df.o)
 .debug_aranges
                0x00000348       0x20 /OPT/altera/12.1/nios2eds/bin/gnu/H-i686-pc-linux-gnu/bin/../lib/gcc/nios2-elf/4.1.2/../../../../nios2-elf/lib/libc.a(lib_a-puts.o)
 .debug_aranges
                0x00000368       0x20 /OPT/altera/12.1/nios2eds/bin/gnu/H-i686-pc-linux-gnu/bin/../lib/gcc/nios2-elf/4.1.2/../../../../nios2-elf/lib/libc.a(lib_a-strlen.o)
 .debug_aranges
                0x00000388       0x20 /OPT/altera/12.1/nios2eds/bin/gnu/H-i686-pc-linux-gnu/bin/../lib/gcc/nios2-elf/4.1.2/../../../../nios2-elf/lib/libc.a(lib_a-fvwrite.o)
 .debug_aranges
                0x000003a8       0x20 /OPT/altera/12.1/nios2eds/bin/gnu/H-i686-pc-linux-gnu/bin/../lib/gcc/nios2-elf/4.1.2/../../../../nios2-elf/lib/libc.a(lib_a-mallocr.o)
 .debug_aranges
                0x000003c8       0x20 /OPT/altera/12.1/nios2eds/bin/gnu/H-i686-pc-linux-gnu/bin/../lib/gcc/nios2-elf/4.1.2/../../../../nios2-elf/lib/libc.a(lib_a-memchr.o)
 .debug_aranges
                0x000003e8       0x20 /OPT/altera/12.1/nios2eds/bin/gnu/H-i686-pc-linux-gnu/bin/../lib/gcc/nios2-elf/4.1.2/../../../../nios2-elf/lib/libc.a(lib_a-memcpy.o)
 .debug_aranges
                0x00000408       0x20 /OPT/altera/12.1/nios2eds/bin/gnu/H-i686-pc-linux-gnu/bin/../lib/gcc/nios2-elf/4.1.2/../../../../nios2-elf/lib/libc.a(lib_a-memmove.o)
 .debug_aranges
                0x00000428       0x20 /OPT/altera/12.1/nios2eds/bin/gnu/H-i686-pc-linux-gnu/bin/../lib/gcc/nios2-elf/4.1.2/../../../../nios2-elf/lib/libc.a(lib_a-reallocr.o)
 .debug_aranges
                0x00000448       0x20 /OPT/altera/12.1/nios2eds/bin/gnu/H-i686-pc-linux-gnu/bin/../lib/gcc/nios2-elf/4.1.2/../../../../nios2-elf/lib/libc.a(lib_a-sbrkr.o)
 .debug_aranges
                0x00000468       0x20 /OPT/altera/12.1/nios2eds/bin/gnu/H-i686-pc-linux-gnu/bin/../lib/gcc/nios2-elf/4.1.2/../../../../nios2-elf/lib/libc.a(lib_a-wsetup.o)
 .debug_aranges
                0x00000488       0x20 /OPT/altera/12.1/nios2eds/bin/gnu/H-i686-pc-linux-gnu/bin/../lib/gcc/nios2-elf/4.1.2/../../../../nios2-elf/lib/libc.a(lib_a-fflush.o)
 .debug_aranges
                0x000004a8       0x20 /OPT/altera/12.1/nios2eds/bin/gnu/H-i686-pc-linux-gnu/bin/../lib/gcc/nios2-elf/4.1.2/../../../../nios2-elf/lib/libc.a(lib_a-findfp.o)
 .debug_aranges
                0x000004c8       0x20 /OPT/altera/12.1/nios2eds/bin/gnu/H-i686-pc-linux-gnu/bin/../lib/gcc/nios2-elf/4.1.2/../../../../nios2-elf/lib/libc.a(lib_a-freer.o)
 .debug_aranges
                0x000004e8       0x20 /OPT/altera/12.1/nios2eds/bin/gnu/H-i686-pc-linux-gnu/bin/../lib/gcc/nios2-elf/4.1.2/../../../../nios2-elf/lib/libc.a(lib_a-fwalk.o)
 .debug_aranges
                0x00000508       0x20 /OPT/altera/12.1/nios2eds/bin/gnu/H-i686-pc-linux-gnu/bin/../lib/gcc/nios2-elf/4.1.2/../../../../nios2-elf/lib/libc.a(lib_a-makebuf.o)
 .debug_aranges
                0x00000528       0x20 /OPT/altera/12.1/nios2eds/bin/gnu/H-i686-pc-linux-gnu/bin/../lib/gcc/nios2-elf/4.1.2/../../../../nios2-elf/lib/libc.a(lib_a-memset.o)
 .debug_aranges
                0x00000548       0x20 /OPT/altera/12.1/nios2eds/bin/gnu/H-i686-pc-linux-gnu/bin/../lib/gcc/nios2-elf/4.1.2/../../../../nios2-elf/lib/libc.a(lib_a-stdio.o)
 .debug_aranges
                0x00000568       0x20 /OPT/altera/12.1/nios2eds/bin/gnu/H-i686-pc-linux-gnu/bin/../lib/gcc/nios2-elf/4.1.2/../../../../nios2-elf/lib/libc.a(lib_a-writer.o)
 .debug_aranges
                0x00000588       0x20 /OPT/altera/12.1/nios2eds/bin/gnu/H-i686-pc-linux-gnu/bin/../lib/gcc/nios2-elf/4.1.2/../../../../nios2-elf/lib/libc.a(lib_a-closer.o)
 .debug_aranges
                0x000005a8       0x20 /OPT/altera/12.1/nios2eds/bin/gnu/H-i686-pc-linux-gnu/bin/../lib/gcc/nios2-elf/4.1.2/../../../../nios2-elf/lib/libc.a(lib_a-fclose.o)
 .debug_aranges
                0x000005c8       0x20 /OPT/altera/12.1/nios2eds/bin/gnu/H-i686-pc-linux-gnu/bin/../lib/gcc/nios2-elf/4.1.2/../../../../nios2-elf/lib/libc.a(lib_a-fstatr.o)
 .debug_aranges
                0x000005e8       0x20 /OPT/altera/12.1/nios2eds/bin/gnu/H-i686-pc-linux-gnu/bin/../lib/gcc/nios2-elf/4.1.2/../../../../nios2-elf/lib/libc.a(lib_a-isattyr.o)
 .debug_aranges
                0x00000608       0x20 /OPT/altera/12.1/nios2eds/bin/gnu/H-i686-pc-linux-gnu/bin/../lib/gcc/nios2-elf/4.1.2/../../../../nios2-elf/lib/libc.a(lib_a-lseekr.o)
 .debug_aranges
                0x00000628       0x20 /OPT/altera/12.1/nios2eds/bin/gnu/H-i686-pc-linux-gnu/bin/../lib/gcc/nios2-elf/4.1.2/../../../../nios2-elf/lib/libc.a(lib_a-readr.o)
 .debug_aranges
                0x00000648       0x20 ../audioTest_bsp//libucosii_bsp.a(alt_close.o)
 .debug_aranges
                0x00000668       0x20 ../audioTest_bsp//libucosii_bsp.a(alt_dev.o)
 .debug_aranges
                0x00000688       0x20 ../audioTest_bsp//libucosii_bsp.a(alt_fstat.o)
 .debug_aranges
                0x000006a8       0x20 ../audioTest_bsp//libucosii_bsp.a(alt_isatty.o)
 .debug_aranges
                0x000006c8       0x20 ../audioTest_bsp//libucosii_bsp.a(alt_load.o)
 .debug_aranges
                0x000006e8       0x20 ../audioTest_bsp//libucosii_bsp.a(alt_lseek.o)
 .debug_aranges
                0x00000708       0x20 ../audioTest_bsp//libucosii_bsp.a(alt_main.o)
 .debug_aranges
                0x00000728       0x20 ../audioTest_bsp//libucosii_bsp.a(alt_read.o)
 .debug_aranges
                0x00000748       0x20 ../audioTest_bsp//libucosii_bsp.a(alt_release_fd.o)
 .debug_aranges
                0x00000768       0x20 ../audioTest_bsp//libucosii_bsp.a(alt_sbrk.o)
 .debug_aranges
                0x00000788       0x20 ../audioTest_bsp//libucosii_bsp.a(alt_write.o)
 .debug_aranges
                0x000007a8       0x20 ../audioTest_bsp//libucosii_bsp.a(alt_env_lock.o)
 .debug_aranges
                0x000007c8       0x20 ../audioTest_bsp//libucosii_bsp.a(alt_malloc_lock.o)
 .debug_aranges
                0x000007e8       0x20 ../audioTest_bsp//libucosii_bsp.a(os_core.o)
 .debug_aranges
                0x00000808       0x20 ../audioTest_bsp//libucosii_bsp.a(os_dbg.o)
 .debug_aranges
                0x00000828       0x20 ../audioTest_bsp//libucosii_bsp.a(os_flag.o)
 .debug_aranges
                0x00000848       0x20 ../audioTest_bsp//libucosii_bsp.a(os_mem.o)
 .debug_aranges
                0x00000868       0x20 ../audioTest_bsp//libucosii_bsp.a(os_q.o)
 .debug_aranges
                0x00000888       0x20 ../audioTest_bsp//libucosii_bsp.a(os_sem.o)
 .debug_aranges
                0x000008a8       0x20 ../audioTest_bsp//libucosii_bsp.a(os_task.o)
 .debug_aranges
                0x000008c8       0x20 ../audioTest_bsp//libucosii_bsp.a(os_time.o)
 .debug_aranges
                0x000008e8       0x20 ../audioTest_bsp//libucosii_bsp.a(alt_sys_init.o)
 .debug_aranges
                0x00000908       0x20 ../audioTest_bsp//libucosii_bsp.a(altera_avalon_jtag_uart_fd.o)
 .debug_aranges
                0x00000928       0x20 ../audioTest_bsp//libucosii_bsp.a(altera_avalon_jtag_uart_init.o)
 .debug_aranges
                0x00000948       0x20 ../audioTest_bsp//libucosii_bsp.a(altera_avalon_jtag_uart_ioctl.o)
 .debug_aranges
                0x00000968       0x20 ../audioTest_bsp//libucosii_bsp.a(altera_avalon_jtag_uart_read.o)
 .debug_aranges
                0x00000988       0x20 ../audioTest_bsp//libucosii_bsp.a(altera_avalon_jtag_uart_write.o)
 .debug_aranges
                0x000009a8       0x20 ../audioTest_bsp//libucosii_bsp.a(altera_avalon_timer_sc.o)
 .debug_aranges
                0x000009c8       0x20 ../audioTest_bsp//libucosii_bsp.a(altera_up_avalon_audio.o)
 .debug_aranges
                0x000009e8       0x20 ../audioTest_bsp//libucosii_bsp.a(altera_up_avalon_audio_and_video_config.o)
 .debug_aranges
                0x00000a08       0x20 ../audioTest_bsp//libucosii_bsp.a(altera_up_avalon_character_lcd.o)
 .debug_aranges
                0x00000a28       0x20 ../audioTest_bsp//libucosii_bsp.a(alt_alarm_start.o)
 .debug_aranges
                0x00000a48       0x20 ../audioTest_bsp//libucosii_bsp.a(alt_dcache_flush_all.o)
 .debug_aranges
                0x00000a68       0x20 ../audioTest_bsp//libucosii_bsp.a(alt_dev_llist_insert.o)
 .debug_aranges
                0x00000a88       0x20 ../audioTest_bsp//libucosii_bsp.a(alt_do_ctors.o)
 .debug_aranges
                0x00000aa8       0x20 ../audioTest_bsp//libucosii_bsp.a(alt_do_dtors.o)
 .debug_aranges
                0x00000ac8       0x20 ../audioTest_bsp//libucosii_bsp.a(alt_find_dev.o)
 .debug_aranges
                0x00000ae8       0x20 ../audioTest_bsp//libucosii_bsp.a(alt_icache_flush_all.o)
 .debug_aranges
                0x00000b08       0x20 ../audioTest_bsp//libucosii_bsp.a(alt_io_redirect.o)
 .debug_aranges
                0x00000b28       0x20 ../audioTest_bsp//libucosii_bsp.a(alt_irq_register.o)
 .debug_aranges
                0x00000b48       0x20 ../audioTest_bsp//libucosii_bsp.a(alt_open.o)
 .debug_aranges
                0x00000b68       0x20 ../audioTest_bsp//libucosii_bsp.a(alt_tick.o)
 .debug_aranges
                0x00000b88       0x20 ../audioTest_bsp//libucosii_bsp.a(altera_nios2_qsys_irq.o)
 .debug_aranges
                0x00000ba8       0x20 ../audioTest_bsp//libucosii_bsp.a(os_cpu_a.o)
 .debug_aranges
                0x00000bc8       0x20 ../audioTest_bsp//libucosii_bsp.a(os_cpu_c.o)
 .debug_aranges
                0x00000be8       0x20 ../audioTest_bsp//libucosii_bsp.a(alt_find_file.o)
 .debug_aranges
                0x00000c08       0x20 ../audioTest_bsp//libucosii_bsp.a(alt_get_fd.o)
 .debug_aranges
                0x00000c28       0x20 ../audioTest_bsp//libucosii_bsp.a(alt_icache_flush.o)
 .debug_aranges
                0x00000c48       0x30 ../audioTest_bsp//libucosii_bsp.a(alt_irq_entry.o)
 .debug_aranges
                0x00000c78       0x28 ../audioTest_bsp//libucosii_bsp.a(alt_irq_handler.o)
 .debug_aranges
                0x00000ca0       0x38 ../audioTest_bsp//libucosii_bsp.a(alt_exception_entry.o)
 .debug_aranges
                0x00000cd8       0x20 /OPT/altera/12.1/nios2eds/bin/gnu/H-i686-pc-linux-gnu/bin/../lib/gcc/nios2-elf/4.1.2/../../../../nios2-elf/lib/libc.a(lib_a-atexit.o)
 .debug_aranges
                0x00000cf8       0x20 /OPT/altera/12.1/nios2eds/bin/gnu/H-i686-pc-linux-gnu/bin/../lib/gcc/nios2-elf/4.1.2/../../../../nios2-elf/lib/libc.a(lib_a-exit.o)
 .debug_aranges
                0x00000d18       0x20 /OPT/altera/12.1/nios2eds/bin/gnu/H-i686-pc-linux-gnu/bin/../lib/gcc/nios2-elf/4.1.2/../../../../nios2-elf/lib/libc.a(lib_a-memcmp.o)
 .debug_aranges
                0x00000d38       0x20 /OPT/altera/12.1/nios2eds/bin/gnu/H-i686-pc-linux-gnu/bin/../lib/gcc/nios2-elf/4.1.2/../../../../nios2-elf/lib/libc.a(lib_a-__atexit.o)
 .debug_aranges
                0x00000d58       0x20 /OPT/altera/12.1/nios2eds/bin/gnu/H-i686-pc-linux-gnu/bin/../lib/gcc/nios2-elf/4.1.2/../../../../nios2-elf/lib/libc.a(lib_a-__call_atexit.o)
 .debug_aranges
                0x00000d78       0x20 ../audioTest_bsp//libucosii_bsp.a(alt_exit.o)

.debug_pubnames
                0x00000000     0x240c
 *(.debug_pubnames)
 .debug_pubnames
                0x00000000       0x41 obj/default/hello_ucosii.o
 .debug_pubnames
                0x00000041       0x1a /OPT/altera/12.1/nios2eds/bin/gnu/H-i686-pc-linux-gnu/bin/../lib/gcc/nios2-elf/4.1.2/../../../../nios2-elf/lib/libm.a(lib_a-s_sin.o)
 .debug_pubnames
                0x0000005b       0x29 /OPT/altera/12.1/nios2eds/bin/gnu/H-i686-pc-linux-gnu/bin/../lib/gcc/nios2-elf/4.1.2/../../../../nios2-elf/lib/libm.a(lib_a-e_rem_pio2.o)
 .debug_pubnames
                0x00000084       0x23 /OPT/altera/12.1/nios2eds/bin/gnu/H-i686-pc-linux-gnu/bin/../lib/gcc/nios2-elf/4.1.2/../../../../nios2-elf/lib/libm.a(lib_a-k_cos.o)
 .debug_pubnames
                0x000000a7       0x28 /OPT/altera/12.1/nios2eds/bin/gnu/H-i686-pc-linux-gnu/bin/../lib/gcc/nios2-elf/4.1.2/../../../../nios2-elf/lib/libm.a(lib_a-k_rem_pio2.o)
 .debug_pubnames
                0x000000cf       0x23 /OPT/altera/12.1/nios2eds/bin/gnu/H-i686-pc-linux-gnu/bin/../lib/gcc/nios2-elf/4.1.2/../../../../nios2-elf/lib/libm.a(lib_a-k_sin.o)
 .debug_pubnames
                0x000000f2       0x1b /OPT/altera/12.1/nios2eds/bin/gnu/H-i686-pc-linux-gnu/bin/../lib/gcc/nios2-elf/4.1.2/../../../../nios2-elf/lib/libm.a(lib_a-s_fabs.o)
 .debug_pubnames
                0x0000010d       0x1c /OPT/altera/12.1/nios2eds/bin/gnu/H-i686-pc-linux-gnu/bin/../lib/gcc/nios2-elf/4.1.2/../../../../nios2-elf/lib/libm.a(lib_a-s_floor.o)
 .debug_pubnames
                0x00000129       0x1d /OPT/altera/12.1/nios2eds/bin/gnu/H-i686-pc-linux-gnu/bin/../lib/gcc/nios2-elf/4.1.2/../../../../nios2-elf/lib/libm.a(lib_a-s_scalbn.o)
 .debug_pubnames
                0x00000146       0x1f /OPT/altera/12.1/nios2eds/bin/gnu/H-i686-pc-linux-gnu/bin/../lib/gcc/nios2-elf/4.1.2/../../../../nios2-elf/lib/libm.a(lib_a-s_copysign.o)
 .debug_pubnames
                0x00000165       0x23 /OPT/altera/12.1/nios2eds/bin/gnu/H-i686-pc-linux-gnu/bin/../lib/gcc/nios2-elf/4.1.2/libgcc.a(_fixunsdfsi.o)
 .debug_pubnames
                0x00000188       0x2c /OPT/altera/12.1/nios2eds/bin/gnu/H-i686-pc-linux-gnu/bin/../lib/gcc/nios2-elf/4.1.2/libgcc.a(_addsub_df.o)
 .debug_pubnames
                0x000001b4       0x1f /OPT/altera/12.1/nios2eds/bin/gnu/H-i686-pc-linux-gnu/bin/../lib/gcc/nios2-elf/4.1.2/libgcc.a(_mul_df.o)
 .debug_pubnames
                0x000001d3       0x1f /OPT/altera/12.1/nios2eds/bin/gnu/H-i686-pc-linux-gnu/bin/../lib/gcc/nios2-elf/4.1.2/libgcc.a(_div_df.o)
 .debug_pubnames
                0x000001f2       0x1e /OPT/altera/12.1/nios2eds/bin/gnu/H-i686-pc-linux-gnu/bin/../lib/gcc/nios2-elf/4.1.2/libgcc.a(_eq_df.o)
 .debug_pubnames
                0x00000210       0x1e /OPT/altera/12.1/nios2eds/bin/gnu/H-i686-pc-linux-gnu/bin/../lib/gcc/nios2-elf/4.1.2/libgcc.a(_gt_df.o)
 .debug_pubnames
                0x0000022e       0x1e /OPT/altera/12.1/nios2eds/bin/gnu/H-i686-pc-linux-gnu/bin/../lib/gcc/nios2-elf/4.1.2/libgcc.a(_ge_df.o)
 .debug_pubnames
                0x0000024c       0x22 /OPT/altera/12.1/nios2eds/bin/gnu/H-i686-pc-linux-gnu/bin/../lib/gcc/nios2-elf/4.1.2/libgcc.a(_si_to_df.o)
 .debug_pubnames
                0x0000026e       0x20 /OPT/altera/12.1/nios2eds/bin/gnu/H-i686-pc-linux-gnu/bin/../lib/gcc/nios2-elf/4.1.2/libgcc.a(_df_to_si.o)
 .debug_pubnames
                0x0000028e       0x22 /OPT/altera/12.1/nios2eds/bin/gnu/H-i686-pc-linux-gnu/bin/../lib/gcc/nios2-elf/4.1.2/libgcc.a(_thenan_df.o)
 .debug_pubnames
                0x000002b0       0x48 /OPT/altera/12.1/nios2eds/bin/gnu/H-i686-pc-linux-gnu/bin/../lib/gcc/nios2-elf/4.1.2/libgcc.a(lib2-divmod.o)
 .debug_pubnames
                0x000002f8       0x1f /OPT/altera/12.1/nios2eds/bin/gnu/H-i686-pc-linux-gnu/bin/../lib/gcc/nios2-elf/4.1.2/libgcc.a(_muldi3.o)
 .debug_pubnames
                0x00000317       0x1f /OPT/altera/12.1/nios2eds/bin/gnu/H-i686-pc-linux-gnu/bin/../lib/gcc/nios2-elf/4.1.2/libgcc.a(_clzsi2.o)
 .debug_pubnames
                0x00000336       0x1f /OPT/altera/12.1/nios2eds/bin/gnu/H-i686-pc-linux-gnu/bin/../lib/gcc/nios2-elf/4.1.2/libgcc.a(_pack_df.o)
 .debug_pubnames
                0x00000355       0x21 /OPT/altera/12.1/nios2eds/bin/gnu/H-i686-pc-linux-gnu/bin/../lib/gcc/nios2-elf/4.1.2/libgcc.a(_unpack_df.o)
 .debug_pubnames
                0x00000376       0x26 /OPT/altera/12.1/nios2eds/bin/gnu/H-i686-pc-linux-gnu/bin/../lib/gcc/nios2-elf/4.1.2/libgcc.a(_fpcmp_parts_df.o)
 .debug_pubnames
                0x0000039c       0x20 /OPT/altera/12.1/nios2eds/bin/gnu/H-i686-pc-linux-gnu/bin/../lib/gcc/nios2-elf/4.1.2/libgcc.a(_clz.o)
 .debug_pubnames
                0x000003bc       0x27 /OPT/altera/12.1/nios2eds/bin/gnu/H-i686-pc-linux-gnu/bin/../lib/gcc/nios2-elf/4.1.2/../../../../nios2-elf/lib/libc.a(lib_a-puts.o)
 .debug_pubnames
                0x000003e3       0x1d /OPT/altera/12.1/nios2eds/bin/gnu/H-i686-pc-linux-gnu/bin/../lib/gcc/nios2-elf/4.1.2/../../../../nios2-elf/lib/libc.a(lib_a-strlen.o)
 .debug_pubnames
                0x00000400       0x23 /OPT/altera/12.1/nios2eds/bin/gnu/H-i686-pc-linux-gnu/bin/../lib/gcc/nios2-elf/4.1.2/../../../../nios2-elf/lib/libc.a(lib_a-fvwrite.o)
 .debug_pubnames
                0x00000423       0x39 /OPT/altera/12.1/nios2eds/bin/gnu/H-i686-pc-linux-gnu/bin/../lib/gcc/nios2-elf/4.1.2/../../../../nios2-elf/lib/libc.a(lib_a-impure.o)
 .debug_pubnames
                0x0000045c       0xce /OPT/altera/12.1/nios2eds/bin/gnu/H-i686-pc-linux-gnu/bin/../lib/gcc/nios2-elf/4.1.2/../../../../nios2-elf/lib/libc.a(lib_a-mallocr.o)
 .debug_pubnames
                0x0000052a       0x1d /OPT/altera/12.1/nios2eds/bin/gnu/H-i686-pc-linux-gnu/bin/../lib/gcc/nios2-elf/4.1.2/../../../../nios2-elf/lib/libc.a(lib_a-memchr.o)
 .debug_pubnames
                0x00000547       0x1d /OPT/altera/12.1/nios2eds/bin/gnu/H-i686-pc-linux-gnu/bin/../lib/gcc/nios2-elf/4.1.2/../../../../nios2-elf/lib/libc.a(lib_a-memcpy.o)
 .debug_pubnames
                0x00000564       0x1e /OPT/altera/12.1/nios2eds/bin/gnu/H-i686-pc-linux-gnu/bin/../lib/gcc/nios2-elf/4.1.2/../../../../nios2-elf/lib/libc.a(lib_a-memmove.o)
 .debug_pubnames
                0x00000582       0x21 /OPT/altera/12.1/nios2eds/bin/gnu/H-i686-pc-linux-gnu/bin/../lib/gcc/nios2-elf/4.1.2/../../../../nios2-elf/lib/libc.a(lib_a-reallocr.o)
 .debug_pubnames
                0x000005a3       0x1e /OPT/altera/12.1/nios2eds/bin/gnu/H-i686-pc-linux-gnu/bin/../lib/gcc/nios2-elf/4.1.2/../../../../nios2-elf/lib/libc.a(lib_a-sbrkr.o)
 .debug_pubnames
                0x000005c1       0x22 /OPT/altera/12.1/nios2eds/bin/gnu/H-i686-pc-linux-gnu/bin/../lib/gcc/nios2-elf/4.1.2/../../../../nios2-elf/lib/libc.a(lib_a-wsetup.o)
 .debug_pubnames
                0x000005e3       0x2b /OPT/altera/12.1/nios2eds/bin/gnu/H-i686-pc-linux-gnu/bin/../lib/gcc/nios2-elf/4.1.2/../../../../nios2-elf/lib/libc.a(lib_a-fflush.o)
 .debug_pubnames
                0x0000060e       0xdb /OPT/altera/12.1/nios2eds/bin/gnu/H-i686-pc-linux-gnu/bin/../lib/gcc/nios2-elf/4.1.2/../../../../nios2-elf/lib/libc.a(lib_a-findfp.o)
 .debug_pubnames
                0x000006e9       0x31 /OPT/altera/12.1/nios2eds/bin/gnu/H-i686-pc-linux-gnu/bin/../lib/gcc/nios2-elf/4.1.2/../../../../nios2-elf/lib/libc.a(lib_a-freer.o)
 .debug_pubnames
                0x0000071a       0x2e /OPT/altera/12.1/nios2eds/bin/gnu/H-i686-pc-linux-gnu/bin/../lib/gcc/nios2-elf/4.1.2/../../../../nios2-elf/lib/libc.a(lib_a-fwalk.o)
 .debug_pubnames
                0x00000748       0x1c /OPT/altera/12.1/nios2eds/bin/gnu/H-i686-pc-linux-gnu/bin/../lib/gcc/nios2-elf/4.1.2/../../../../nios2-elf/lib/libc.a(lib_a-int_errno.o)
 .debug_pubnames
                0x00000764       0x23 /OPT/altera/12.1/nios2eds/bin/gnu/H-i686-pc-linux-gnu/bin/../lib/gcc/nios2-elf/4.1.2/../../../../nios2-elf/lib/libc.a(lib_a-makebuf.o)
 .debug_pubnames
                0x00000787       0x1d /OPT/altera/12.1/nios2eds/bin/gnu/H-i686-pc-linux-gnu/bin/../lib/gcc/nios2-elf/4.1.2/../../../../nios2-elf/lib/libc.a(lib_a-memset.o)
 .debug_pubnames
                0x000007a4       0x44 /OPT/altera/12.1/nios2eds/bin/gnu/H-i686-pc-linux-gnu/bin/../lib/gcc/nios2-elf/4.1.2/../../../../nios2-elf/lib/libc.a(lib_a-stdio.o)
 .debug_pubnames
                0x000007e8       0x1f /OPT/altera/12.1/nios2eds/bin/gnu/H-i686-pc-linux-gnu/bin/../lib/gcc/nios2-elf/4.1.2/../../../../nios2-elf/lib/libc.a(lib_a-writer.o)
 .debug_pubnames
                0x00000807       0x1f /OPT/altera/12.1/nios2eds/bin/gnu/H-i686-pc-linux-gnu/bin/../lib/gcc/nios2-elf/4.1.2/../../../../nios2-elf/lib/libc.a(lib_a-closer.o)
 .debug_pubnames
                0x00000826       0x2b /OPT/altera/12.1/nios2eds/bin/gnu/H-i686-pc-linux-gnu/bin/../lib/gcc/nios2-elf/4.1.2/../../../../nios2-elf/lib/libc.a(lib_a-fclose.o)
 .debug_pubnames
                0x00000851       0x1f /OPT/altera/12.1/nios2eds/bin/gnu/H-i686-pc-linux-gnu/bin/../lib/gcc/nios2-elf/4.1.2/../../../../nios2-elf/lib/libc.a(lib_a-fstatr.o)
 .debug_pubnames
                0x00000870       0x20 /OPT/altera/12.1/nios2eds/bin/gnu/H-i686-pc-linux-gnu/bin/../lib/gcc/nios2-elf/4.1.2/../../../../nios2-elf/lib/libc.a(lib_a-isattyr.o)
 .debug_pubnames
                0x00000890       0x1f /OPT/altera/12.1/nios2eds/bin/gnu/H-i686-pc-linux-gnu/bin/../lib/gcc/nios2-elf/4.1.2/../../../../nios2-elf/lib/libc.a(lib_a-lseekr.o)
 .debug_pubnames
                0x000008af       0x1e /OPT/altera/12.1/nios2eds/bin/gnu/H-i686-pc-linux-gnu/bin/../lib/gcc/nios2-elf/4.1.2/../../../../nios2-elf/lib/libc.a(lib_a-readr.o)
 .debug_pubnames
                0x000008cd       0x1c ../audioTest_bsp//libucosii_bsp.a(alt_close.o)
 .debug_pubnames
                0x000008e9       0x78 ../audioTest_bsp//libucosii_bsp.a(alt_dev.o)
 .debug_pubnames
                0x00000961       0x20 ../audioTest_bsp//libucosii_bsp.a(alt_errno.o)
 .debug_pubnames
                0x00000981       0x1c ../audioTest_bsp//libucosii_bsp.a(alt_fstat.o)
 .debug_pubnames
                0x0000099d       0x1d ../audioTest_bsp//libucosii_bsp.a(alt_isatty.o)
 .debug_pubnames
                0x000009ba       0x1f ../audioTest_bsp//libucosii_bsp.a(alt_load.o)
 .debug_pubnames
                0x000009d9       0x1c ../audioTest_bsp//libucosii_bsp.a(alt_lseek.o)
 .debug_pubnames
                0x000009f5       0x46 ../audioTest_bsp//libucosii_bsp.a(alt_main.o)
 .debug_pubnames
                0x00000a3b       0x1b ../audioTest_bsp//libucosii_bsp.a(alt_read.o)
 .debug_pubnames
                0x00000a56       0x25 ../audioTest_bsp//libucosii_bsp.a(alt_release_fd.o)
 .debug_pubnames
                0x00000a7b       0x1b ../audioTest_bsp//libucosii_bsp.a(alt_sbrk.o)
 .debug_pubnames
                0x00000a96       0x1c ../audioTest_bsp//libucosii_bsp.a(alt_write.o)
 .debug_pubnames
                0x00000ab2       0x41 ../audioTest_bsp//libucosii_bsp.a(alt_env_lock.o)
 .debug_pubnames
                0x00000af3       0x48 ../audioTest_bsp//libucosii_bsp.a(alt_malloc_lock.o)
 .debug_pubnames
                0x00000b3b      0x3f8 ../audioTest_bsp//libucosii_bsp.a(os_core.o)
 .debug_pubnames
                0x00000f33      0x3c5 ../audioTest_bsp//libucosii_bsp.a(os_dbg.o)
 .debug_pubnames
                0x000012f8       0xd0 ../audioTest_bsp//libucosii_bsp.a(os_flag.o)
 .debug_pubnames
                0x000013c8       0x7c ../audioTest_bsp//libucosii_bsp.a(os_mem.o)
 .debug_pubnames
                0x00001444       0xa9 ../audioTest_bsp//libucosii_bsp.a(os_q.o)
 .debug_pubnames
                0x000014ed       0x8a ../audioTest_bsp//libucosii_bsp.a(os_sem.o)
 .debug_pubnames
                0x00001577       0xe5 ../audioTest_bsp//libucosii_bsp.a(os_task.o)
 .debug_pubnames
                0x0000165c       0x62 ../audioTest_bsp//libucosii_bsp.a(os_time.o)
 .debug_pubnames
                0x000016be       0x34 ../audioTest_bsp//libucosii_bsp.a(alt_sys_init.o)
 .debug_pubnames
                0x000016f2       0xa5 ../audioTest_bsp//libucosii_bsp.a(altera_avalon_jtag_uart_fd.o)
 .debug_pubnames
                0x00001797       0x55 ../audioTest_bsp//libucosii_bsp.a(altera_avalon_jtag_uart_init.o)
 .debug_pubnames
                0x000017ec       0x34 ../audioTest_bsp//libucosii_bsp.a(altera_avalon_jtag_uart_ioctl.o)
 .debug_pubnames
                0x00001820       0x33 ../audioTest_bsp//libucosii_bsp.a(altera_avalon_jtag_uart_read.o)
 .debug_pubnames
                0x00001853       0x34 ../audioTest_bsp//libucosii_bsp.a(altera_avalon_jtag_uart_write.o)
 .debug_pubnames
                0x00001887       0x2f ../audioTest_bsp//libucosii_bsp.a(altera_avalon_timer_sc.o)
 .debug_pubnames
                0x000018b6      0x25e ../audioTest_bsp//libucosii_bsp.a(altera_up_avalon_audio.o)
 .debug_pubnames
                0x00001b14      0x2ab ../audioTest_bsp//libucosii_bsp.a(altera_up_avalon_audio_and_video_config.o)
 .debug_pubnames
                0x00001dbf      0x1cd ../audioTest_bsp//libucosii_bsp.a(altera_up_avalon_character_lcd.o)
 .debug_pubnames
                0x00001f8c       0x26 ../audioTest_bsp//libucosii_bsp.a(alt_alarm_start.o)
 .debug_pubnames
                0x00001fb2       0x2b ../audioTest_bsp//libucosii_bsp.a(alt_dcache_flush_all.o)
 .debug_pubnames
                0x00001fdd       0x2b ../audioTest_bsp//libucosii_bsp.a(alt_dev_llist_insert.o)
 .debug_pubnames
                0x00002008       0x20 ../audioTest_bsp//libucosii_bsp.a(alt_do_ctors.o)
 .debug_pubnames
                0x00002028       0x20 ../audioTest_bsp//libucosii_bsp.a(alt_do_dtors.o)
 .debug_pubnames
                0x00002048       0x23 ../audioTest_bsp//libucosii_bsp.a(alt_find_dev.o)
 .debug_pubnames
                0x0000206b       0x2b ../audioTest_bsp//libucosii_bsp.a(alt_icache_flush_all.o)
 .debug_pubnames
                0x00002096       0x26 ../audioTest_bsp//libucosii_bsp.a(alt_io_redirect.o)
 .debug_pubnames
                0x000020bc       0x27 ../audioTest_bsp//libucosii_bsp.a(alt_irq_register.o)
 .debug_pubnames
                0x000020e3       0x3b ../audioTest_bsp//libucosii_bsp.a(alt_irq_vars.o)
 .debug_pubnames
                0x0000211e       0x1b ../audioTest_bsp//libucosii_bsp.a(alt_open.o)
 .debug_pubnames
                0x00002139       0x68 ../audioTest_bsp//libucosii_bsp.a(alt_tick.o)
 .debug_pubnames
                0x000021a1       0x31 ../audioTest_bsp//libucosii_bsp.a(altera_nios2_qsys_irq.o)
 .debug_pubnames
                0x000021d2       0xcd ../audioTest_bsp//libucosii_bsp.a(os_cpu_c.o)
 .debug_pubnames
                0x0000229f       0x24 ../audioTest_bsp//libucosii_bsp.a(alt_find_file.o)
 .debug_pubnames
                0x000022c3       0x21 ../audioTest_bsp//libucosii_bsp.a(alt_get_fd.o)
 .debug_pubnames
                0x000022e4       0x27 ../audioTest_bsp//libucosii_bsp.a(alt_icache_flush.o)
 .debug_pubnames
                0x0000230b       0x32 ../audioTest_bsp//libucosii_bsp.a(alt_irq_handler.o)
 .debug_pubnames
                0x0000233d       0x2a /OPT/altera/12.1/nios2eds/bin/gnu/H-i686-pc-linux-gnu/bin/../lib/gcc/nios2-elf/4.1.2/../../../../nios2-elf/lib/libc.a(lib_a-atexit.o)
 .debug_pubnames
                0x00002367       0x1b /OPT/altera/12.1/nios2eds/bin/gnu/H-i686-pc-linux-gnu/bin/../lib/gcc/nios2-elf/4.1.2/../../../../nios2-elf/lib/libc.a(lib_a-exit.o)
 .debug_pubnames
                0x00002382       0x1d /OPT/altera/12.1/nios2eds/bin/gnu/H-i686-pc-linux-gnu/bin/../lib/gcc/nios2-elf/4.1.2/../../../../nios2-elf/lib/libc.a(lib_a-memcmp.o)
 .debug_pubnames
                0x0000239f       0x2a /OPT/altera/12.1/nios2eds/bin/gnu/H-i686-pc-linux-gnu/bin/../lib/gcc/nios2-elf/4.1.2/../../../../nios2-elf/lib/libc.a(lib_a-__atexit.o)
 .debug_pubnames
                0x000023c9       0x27 /OPT/altera/12.1/nios2eds/bin/gnu/H-i686-pc-linux-gnu/bin/../lib/gcc/nios2-elf/4.1.2/../../../../nios2-elf/lib/libc.a(lib_a-__call_atexit.o)
 .debug_pubnames
                0x000023f0       0x1c ../audioTest_bsp//libucosii_bsp.a(alt_exit.o)

.debug_info     0x00000000    0x2ca55
 *(.debug_info .gnu.linkonce.wi.*)
 .debug_info    0x00000000       0x8c ../audioTest_bsp//obj/HAL/src/crt0.o
 .debug_info    0x0000008c      0x6d3 obj/default/hello_ucosii.o
 .debug_info    0x0000075f       0xfd /OPT/altera/12.1/nios2eds/bin/gnu/H-i686-pc-linux-gnu/bin/../lib/gcc/nios2-elf/4.1.2/../../../../nios2-elf/lib/libm.a(lib_a-s_sin.o)
 .debug_info    0x0000085c      0x364 /OPT/altera/12.1/nios2eds/bin/gnu/H-i686-pc-linux-gnu/bin/../lib/gcc/nios2-elf/4.1.2/../../../../nios2-elf/lib/libm.a(lib_a-e_rem_pio2.o)
 .debug_info    0x00000bc0      0x21f /OPT/altera/12.1/nios2eds/bin/gnu/H-i686-pc-linux-gnu/bin/../lib/gcc/nios2-elf/4.1.2/../../../../nios2-elf/lib/libm.a(lib_a-k_cos.o)
 .debug_info    0x00000ddf      0x2e6 /OPT/altera/12.1/nios2eds/bin/gnu/H-i686-pc-linux-gnu/bin/../lib/gcc/nios2-elf/4.1.2/../../../../nios2-elf/lib/libm.a(lib_a-k_rem_pio2.o)
 .debug_info    0x000010c5      0x19e /OPT/altera/12.1/nios2eds/bin/gnu/H-i686-pc-linux-gnu/bin/../lib/gcc/nios2-elf/4.1.2/../../../../nios2-elf/lib/libm.a(lib_a-k_sin.o)
 .debug_info    0x00001263      0x13b /OPT/altera/12.1/nios2eds/bin/gnu/H-i686-pc-linux-gnu/bin/../lib/gcc/nios2-elf/4.1.2/../../../../nios2-elf/lib/libm.a(lib_a-s_fabs.o)
 .debug_info    0x0000139e      0x1bf /OPT/altera/12.1/nios2eds/bin/gnu/H-i686-pc-linux-gnu/bin/../lib/gcc/nios2-elf/4.1.2/../../../../nios2-elf/lib/libm.a(lib_a-s_floor.o)
 .debug_info    0x0000155d      0x225 /OPT/altera/12.1/nios2eds/bin/gnu/H-i686-pc-linux-gnu/bin/../lib/gcc/nios2-elf/4.1.2/../../../../nios2-elf/lib/libm.a(lib_a-s_scalbn.o)
 .debug_info    0x00001782      0x154 /OPT/altera/12.1/nios2eds/bin/gnu/H-i686-pc-linux-gnu/bin/../lib/gcc/nios2-elf/4.1.2/../../../../nios2-elf/lib/libm.a(lib_a-s_copysign.o)
 .debug_info    0x000018d6       0xce /OPT/altera/12.1/nios2eds/bin/gnu/H-i686-pc-linux-gnu/bin/../lib/gcc/nios2-elf/4.1.2/libgcc.a(_fixunsdfsi.o)
 .debug_info    0x000019a4      0x493 /OPT/altera/12.1/nios2eds/bin/gnu/H-i686-pc-linux-gnu/bin/../lib/gcc/nios2-elf/4.1.2/libgcc.a(_addsub_df.o)
 .debug_info    0x00001e37      0x488 /OPT/altera/12.1/nios2eds/bin/gnu/H-i686-pc-linux-gnu/bin/../lib/gcc/nios2-elf/4.1.2/libgcc.a(_mul_df.o)
 .debug_info    0x000022bf      0x39b /OPT/altera/12.1/nios2eds/bin/gnu/H-i686-pc-linux-gnu/bin/../lib/gcc/nios2-elf/4.1.2/libgcc.a(_div_df.o)
 .debug_info    0x0000265a      0x29d /OPT/altera/12.1/nios2eds/bin/gnu/H-i686-pc-linux-gnu/bin/../lib/gcc/nios2-elf/4.1.2/libgcc.a(_eq_df.o)
 .debug_info    0x000028f7      0x29d /OPT/altera/12.1/nios2eds/bin/gnu/H-i686-pc-linux-gnu/bin/../lib/gcc/nios2-elf/4.1.2/libgcc.a(_gt_df.o)
 .debug_info    0x00002b94      0x29d /OPT/altera/12.1/nios2eds/bin/gnu/H-i686-pc-linux-gnu/bin/../lib/gcc/nios2-elf/4.1.2/libgcc.a(_ge_df.o)
 .debug_info    0x00002e31      0x218 /OPT/altera/12.1/nios2eds/bin/gnu/H-i686-pc-linux-gnu/bin/../lib/gcc/nios2-elf/4.1.2/libgcc.a(_si_to_df.o)
 .debug_info    0x00003049      0x2cd /OPT/altera/12.1/nios2eds/bin/gnu/H-i686-pc-linux-gnu/bin/../lib/gcc/nios2-elf/4.1.2/libgcc.a(_df_to_si.o)
 .debug_info    0x00003316      0x164 /OPT/altera/12.1/nios2eds/bin/gnu/H-i686-pc-linux-gnu/bin/../lib/gcc/nios2-elf/4.1.2/libgcc.a(_thenan_df.o)
 .debug_info    0x0000347a      0x21c /OPT/altera/12.1/nios2eds/bin/gnu/H-i686-pc-linux-gnu/bin/../lib/gcc/nios2-elf/4.1.2/libgcc.a(lib2-divmod.o)
 .debug_info    0x00003696      0x215 /OPT/altera/12.1/nios2eds/bin/gnu/H-i686-pc-linux-gnu/bin/../lib/gcc/nios2-elf/4.1.2/libgcc.a(_muldi3.o)
 .debug_info    0x000038ab      0x130 /OPT/altera/12.1/nios2eds/bin/gnu/H-i686-pc-linux-gnu/bin/../lib/gcc/nios2-elf/4.1.2/libgcc.a(_clzsi2.o)
 .debug_info    0x000039db      0x2fc /OPT/altera/12.1/nios2eds/bin/gnu/H-i686-pc-linux-gnu/bin/../lib/gcc/nios2-elf/4.1.2/libgcc.a(_pack_df.o)
 .debug_info    0x00003cd7      0x268 /OPT/altera/12.1/nios2eds/bin/gnu/H-i686-pc-linux-gnu/bin/../lib/gcc/nios2-elf/4.1.2/libgcc.a(_unpack_df.o)
 .debug_info    0x00003f3f      0x21b /OPT/altera/12.1/nios2eds/bin/gnu/H-i686-pc-linux-gnu/bin/../lib/gcc/nios2-elf/4.1.2/libgcc.a(_fpcmp_parts_df.o)
 .debug_info    0x0000415a       0xc9 /OPT/altera/12.1/nios2eds/bin/gnu/H-i686-pc-linux-gnu/bin/../lib/gcc/nios2-elf/4.1.2/libgcc.a(_clz.o)
 .debug_info    0x00004223      0xa25 /OPT/altera/12.1/nios2eds/bin/gnu/H-i686-pc-linux-gnu/bin/../lib/gcc/nios2-elf/4.1.2/../../../../nios2-elf/lib/libc.a(lib_a-puts.o)
 .debug_info    0x00004c48       0xdb /OPT/altera/12.1/nios2eds/bin/gnu/H-i686-pc-linux-gnu/bin/../lib/gcc/nios2-elf/4.1.2/../../../../nios2-elf/lib/libc.a(lib_a-strlen.o)
 .debug_info    0x00004d23      0xa88 /OPT/altera/12.1/nios2eds/bin/gnu/H-i686-pc-linux-gnu/bin/../lib/gcc/nios2-elf/4.1.2/../../../../nios2-elf/lib/libc.a(lib_a-fvwrite.o)
 .debug_info    0x000057ab      0x93d /OPT/altera/12.1/nios2eds/bin/gnu/H-i686-pc-linux-gnu/bin/../lib/gcc/nios2-elf/4.1.2/../../../../nios2-elf/lib/libc.a(lib_a-impure.o)
 .debug_info    0x000060e8      0xcd0 /OPT/altera/12.1/nios2eds/bin/gnu/H-i686-pc-linux-gnu/bin/../lib/gcc/nios2-elf/4.1.2/../../../../nios2-elf/lib/libc.a(lib_a-mallocr.o)
 .debug_info    0x00006db8      0x138 /OPT/altera/12.1/nios2eds/bin/gnu/H-i686-pc-linux-gnu/bin/../lib/gcc/nios2-elf/4.1.2/../../../../nios2-elf/lib/libc.a(lib_a-memchr.o)
 .debug_info    0x00006ef0      0x106 /OPT/altera/12.1/nios2eds/bin/gnu/H-i686-pc-linux-gnu/bin/../lib/gcc/nios2-elf/4.1.2/../../../../nios2-elf/lib/libc.a(lib_a-memcpy.o)
 .debug_info    0x00006ff6      0x13e /OPT/altera/12.1/nios2eds/bin/gnu/H-i686-pc-linux-gnu/bin/../lib/gcc/nios2-elf/4.1.2/../../../../nios2-elf/lib/libc.a(lib_a-memmove.o)
 .debug_info    0x00007134      0xbd7 /OPT/altera/12.1/nios2eds/bin/gnu/H-i686-pc-linux-gnu/bin/../lib/gcc/nios2-elf/4.1.2/../../../../nios2-elf/lib/libc.a(lib_a-reallocr.o)
 .debug_info    0x00007d0b      0x962 /OPT/altera/12.1/nios2eds/bin/gnu/H-i686-pc-linux-gnu/bin/../lib/gcc/nios2-elf/4.1.2/../../../../nios2-elf/lib/libc.a(lib_a-sbrkr.o)
 .debug_info    0x0000866d      0x95d /OPT/altera/12.1/nios2eds/bin/gnu/H-i686-pc-linux-gnu/bin/../lib/gcc/nios2-elf/4.1.2/../../../../nios2-elf/lib/libc.a(lib_a-wsetup.o)
 .debug_info    0x00008fca      0x9fe /OPT/altera/12.1/nios2eds/bin/gnu/H-i686-pc-linux-gnu/bin/../lib/gcc/nios2-elf/4.1.2/../../../../nios2-elf/lib/libc.a(lib_a-fflush.o)
 .debug_info    0x000099c8      0xb72 /OPT/altera/12.1/nios2eds/bin/gnu/H-i686-pc-linux-gnu/bin/../lib/gcc/nios2-elf/4.1.2/../../../../nios2-elf/lib/libc.a(lib_a-findfp.o)
 .debug_info    0x0000a53a      0xbc9 /OPT/altera/12.1/nios2eds/bin/gnu/H-i686-pc-linux-gnu/bin/../lib/gcc/nios2-elf/4.1.2/../../../../nios2-elf/lib/libc.a(lib_a-freer.o)
 .debug_info    0x0000b103      0xaed /OPT/altera/12.1/nios2eds/bin/gnu/H-i686-pc-linux-gnu/bin/../lib/gcc/nios2-elf/4.1.2/../../../../nios2-elf/lib/libc.a(lib_a-fwalk.o)
 .debug_info    0x0000bbf0       0x8c /OPT/altera/12.1/nios2eds/bin/gnu/H-i686-pc-linux-gnu/bin/../lib/gcc/nios2-elf/4.1.2/../../../../nios2-elf/lib/libc.a(lib_a-int_errno.o)
 .debug_info    0x0000bc7c      0xb1a /OPT/altera/12.1/nios2eds/bin/gnu/H-i686-pc-linux-gnu/bin/../lib/gcc/nios2-elf/4.1.2/../../../../nios2-elf/lib/libc.a(lib_a-makebuf.o)
 .debug_info    0x0000c796      0x113 /OPT/altera/12.1/nios2eds/bin/gnu/H-i686-pc-linux-gnu/bin/../lib/gcc/nios2-elf/4.1.2/../../../../nios2-elf/lib/libc.a(lib_a-memset.o)
 .debug_info    0x0000c8a9      0xaac /OPT/altera/12.1/nios2eds/bin/gnu/H-i686-pc-linux-gnu/bin/../lib/gcc/nios2-elf/4.1.2/../../../../nios2-elf/lib/libc.a(lib_a-stdio.o)
 .debug_info    0x0000d355      0x993 /OPT/altera/12.1/nios2eds/bin/gnu/H-i686-pc-linux-gnu/bin/../lib/gcc/nios2-elf/4.1.2/../../../../nios2-elf/lib/libc.a(lib_a-writer.o)
 .debug_info    0x0000dce8      0x958 /OPT/altera/12.1/nios2eds/bin/gnu/H-i686-pc-linux-gnu/bin/../lib/gcc/nios2-elf/4.1.2/../../../../nios2-elf/lib/libc.a(lib_a-closer.o)
 .debug_info    0x0000e640      0x994 /OPT/altera/12.1/nios2eds/bin/gnu/H-i686-pc-linux-gnu/bin/../lib/gcc/nios2-elf/4.1.2/../../../../nios2-elf/lib/libc.a(lib_a-fclose.o)
 .debug_info    0x0000efd4      0xafc /OPT/altera/12.1/nios2eds/bin/gnu/H-i686-pc-linux-gnu/bin/../lib/gcc/nios2-elf/4.1.2/../../../../nios2-elf/lib/libc.a(lib_a-fstatr.o)
 .debug_info    0x0000fad0      0x958 /OPT/altera/12.1/nios2eds/bin/gnu/H-i686-pc-linux-gnu/bin/../lib/gcc/nios2-elf/4.1.2/../../../../nios2-elf/lib/libc.a(lib_a-isattyr.o)
 .debug_info    0x00010428      0x981 /OPT/altera/12.1/nios2eds/bin/gnu/H-i686-pc-linux-gnu/bin/../lib/gcc/nios2-elf/4.1.2/../../../../nios2-elf/lib/libc.a(lib_a-lseekr.o)
 .debug_info    0x00010da9      0x98c /OPT/altera/12.1/nios2eds/bin/gnu/H-i686-pc-linux-gnu/bin/../lib/gcc/nios2-elf/4.1.2/../../../../nios2-elf/lib/libc.a(lib_a-readr.o)
 .debug_info    0x00011735      0x4ff ../audioTest_bsp//libucosii_bsp.a(alt_close.o)
 .debug_info    0x00011c34      0x821 ../audioTest_bsp//libucosii_bsp.a(alt_dev.o)
 .debug_info    0x00012455      0x175 ../audioTest_bsp//libucosii_bsp.a(alt_errno.o)
 .debug_info    0x000125ca      0x6f8 ../audioTest_bsp//libucosii_bsp.a(alt_fstat.o)
 .debug_info    0x00012cc2      0x6fe ../audioTest_bsp//libucosii_bsp.a(alt_isatty.o)
 .debug_info    0x000133c0      0x29e ../audioTest_bsp//libucosii_bsp.a(alt_load.o)
 .debug_info    0x0001365e      0x532 ../audioTest_bsp//libucosii_bsp.a(alt_lseek.o)
 .debug_info    0x00013b90      0x421 ../audioTest_bsp//libucosii_bsp.a(alt_main.o)
 .debug_info    0x00013fb1      0x722 ../audioTest_bsp//libucosii_bsp.a(alt_read.o)
 .debug_info    0x000146d3      0x493 ../audioTest_bsp//libucosii_bsp.a(alt_release_fd.o)
 .debug_info    0x00014b66      0x30f ../audioTest_bsp//libucosii_bsp.a(alt_sbrk.o)
 .debug_info    0x00014e75      0x72b ../audioTest_bsp//libucosii_bsp.a(alt_write.o)
 .debug_info    0x000155a0     0x1217 ../audioTest_bsp//libucosii_bsp.a(alt_env_lock.o)
 .debug_info    0x000167b7     0x1373 ../audioTest_bsp//libucosii_bsp.a(alt_malloc_lock.o)
 .debug_info    0x00017b2a     0x1c2d ../audioTest_bsp//libucosii_bsp.a(os_core.o)
 .debug_info    0x00019757     0x1172 ../audioTest_bsp//libucosii_bsp.a(os_dbg.o)
 .debug_info    0x0001a8c9     0x1288 ../audioTest_bsp//libucosii_bsp.a(os_flag.o)
 .debug_info    0x0001bb51      0x852 ../audioTest_bsp//libucosii_bsp.a(os_mem.o)
 .debug_info    0x0001c3a3     0x10c2 ../audioTest_bsp//libucosii_bsp.a(os_q.o)
 .debug_info    0x0001d465      0xd2a ../audioTest_bsp//libucosii_bsp.a(os_sem.o)
 .debug_info    0x0001e18f     0x13a0 ../audioTest_bsp//libucosii_bsp.a(os_task.o)
 .debug_info    0x0001f52f      0xa24 ../audioTest_bsp//libucosii_bsp.a(os_time.o)
 .debug_info    0x0001ff53      0xb47 ../audioTest_bsp//libucosii_bsp.a(alt_sys_init.o)
 .debug_info    0x00020a9a      0xa16 ../audioTest_bsp//libucosii_bsp.a(altera_avalon_jtag_uart_fd.o)
 .debug_info    0x000214b0      0x9a1 ../audioTest_bsp//libucosii_bsp.a(altera_avalon_jtag_uart_init.o)
 .debug_info    0x00021e51      0x680 ../audioTest_bsp//libucosii_bsp.a(altera_avalon_jtag_uart_ioctl.o)
 .debug_info    0x000224d1      0x83c ../audioTest_bsp//libucosii_bsp.a(altera_avalon_jtag_uart_read.o)
 .debug_info    0x00022d0d      0x833 ../audioTest_bsp//libucosii_bsp.a(altera_avalon_jtag_uart_write.o)
 .debug_info    0x00023540      0x3dc ../audioTest_bsp//libucosii_bsp.a(altera_avalon_timer_sc.o)
 .debug_info    0x0002391c      0xb6c ../audioTest_bsp//libucosii_bsp.a(altera_up_avalon_audio.o)
 .debug_info    0x00024488      0xc4e ../audioTest_bsp//libucosii_bsp.a(altera_up_avalon_audio_and_video_config.o)
 .debug_info    0x000250d6      0x940 ../audioTest_bsp//libucosii_bsp.a(altera_up_avalon_character_lcd.o)
 .debug_info    0x00025a16      0x486 ../audioTest_bsp//libucosii_bsp.a(alt_alarm_start.o)
 .debug_info    0x00025e9c      0x180 ../audioTest_bsp//libucosii_bsp.a(alt_dcache_flush_all.o)
 .debug_info    0x0002601c      0x2c8 ../audioTest_bsp//libucosii_bsp.a(alt_dev_llist_insert.o)
 .debug_info    0x000262e4      0x120 ../audioTest_bsp//libucosii_bsp.a(alt_do_ctors.o)
 .debug_info    0x00026404      0x11f ../audioTest_bsp//libucosii_bsp.a(alt_do_dtors.o)
 .debug_info    0x00026523      0x4b0 ../audioTest_bsp//libucosii_bsp.a(alt_find_dev.o)
 .debug_info    0x000269d3      0x16d ../audioTest_bsp//libucosii_bsp.a(alt_icache_flush_all.o)
 .debug_info    0x00026b40      0x72d ../audioTest_bsp//libucosii_bsp.a(alt_io_redirect.o)
 .debug_info    0x0002726d      0x480 ../audioTest_bsp//libucosii_bsp.a(alt_irq_register.o)
 .debug_info    0x000276ed      0x178 ../audioTest_bsp//libucosii_bsp.a(alt_irq_vars.o)
 .debug_info    0x00027865      0x5ae ../audioTest_bsp//libucosii_bsp.a(alt_open.o)
 .debug_info    0x00027e13      0x455 ../audioTest_bsp//libucosii_bsp.a(alt_tick.o)
 .debug_info    0x00028268      0x1bb ../audioTest_bsp//libucosii_bsp.a(altera_nios2_qsys_irq.o)
 .debug_info    0x00028423       0x94 ../audioTest_bsp//libucosii_bsp.a(os_cpu_a.o)
 .debug_info    0x000284b7     0x1317 ../audioTest_bsp//libucosii_bsp.a(os_cpu_c.o)
 .debug_info    0x000297ce      0x4b7 ../audioTest_bsp//libucosii_bsp.a(alt_find_file.o)
 .debug_info    0x00029c85      0x649 ../audioTest_bsp//libucosii_bsp.a(alt_get_fd.o)
 .debug_info    0x0002a2ce      0x1b5 ../audioTest_bsp//libucosii_bsp.a(alt_icache_flush.o)
 .debug_info    0x0002a483       0x95 ../audioTest_bsp//libucosii_bsp.a(alt_irq_entry.o)
 .debug_info    0x0002a518      0x303 ../audioTest_bsp//libucosii_bsp.a(alt_irq_handler.o)
 .debug_info    0x0002a81b       0x9b ../audioTest_bsp//libucosii_bsp.a(alt_exception_entry.o)
 .debug_info    0x0002a8b6      0x181 /OPT/altera/12.1/nios2eds/bin/gnu/H-i686-pc-linux-gnu/bin/../lib/gcc/nios2-elf/4.1.2/../../../../nios2-elf/lib/libc.a(lib_a-atexit.o)
 .debug_info    0x0002aa37      0x93f /OPT/altera/12.1/nios2eds/bin/gnu/H-i686-pc-linux-gnu/bin/../lib/gcc/nios2-elf/4.1.2/../../../../nios2-elf/lib/libc.a(lib_a-exit.o)
 .debug_info    0x0002b376      0x115 /OPT/altera/12.1/nios2eds/bin/gnu/H-i686-pc-linux-gnu/bin/../lib/gcc/nios2-elf/4.1.2/../../../../nios2-elf/lib/libc.a(lib_a-memcmp.o)
 .debug_info    0x0002b48b      0x99c /OPT/altera/12.1/nios2eds/bin/gnu/H-i686-pc-linux-gnu/bin/../lib/gcc/nios2-elf/4.1.2/../../../../nios2-elf/lib/libc.a(lib_a-__atexit.o)
 .debug_info    0x0002be27      0x9e2 /OPT/altera/12.1/nios2eds/bin/gnu/H-i686-pc-linux-gnu/bin/../lib/gcc/nios2-elf/4.1.2/../../../../nios2-elf/lib/libc.a(lib_a-__call_atexit.o)
 .debug_info    0x0002c809      0x24c ../audioTest_bsp//libucosii_bsp.a(alt_exit.o)

.debug_abbrev   0x00000000     0x87e8
 *(.debug_abbrev)
 .debug_abbrev  0x00000000       0x12 ../audioTest_bsp//obj/HAL/src/crt0.o
 .debug_abbrev  0x00000012      0x152 obj/default/hello_ucosii.o
 .debug_abbrev  0x00000164       0x9a /OPT/altera/12.1/nios2eds/bin/gnu/H-i686-pc-linux-gnu/bin/../lib/gcc/nios2-elf/4.1.2/../../../../nios2-elf/lib/libm.a(lib_a-s_sin.o)
 .debug_abbrev  0x000001fe      0x135 /OPT/altera/12.1/nios2eds/bin/gnu/H-i686-pc-linux-gnu/bin/../lib/gcc/nios2-elf/4.1.2/../../../../nios2-elf/lib/libm.a(lib_a-e_rem_pio2.o)
 .debug_abbrev  0x00000333       0xec /OPT/altera/12.1/nios2eds/bin/gnu/H-i686-pc-linux-gnu/bin/../lib/gcc/nios2-elf/4.1.2/../../../../nios2-elf/lib/libm.a(lib_a-k_cos.o)
 .debug_abbrev  0x0000041f      0x104 /OPT/altera/12.1/nios2eds/bin/gnu/H-i686-pc-linux-gnu/bin/../lib/gcc/nios2-elf/4.1.2/../../../../nios2-elf/lib/libm.a(lib_a-k_rem_pio2.o)
 .debug_abbrev  0x00000523       0xa0 /OPT/altera/12.1/nios2eds/bin/gnu/H-i686-pc-linux-gnu/bin/../lib/gcc/nios2-elf/4.1.2/../../../../nios2-elf/lib/libm.a(lib_a-k_sin.o)
 .debug_abbrev  0x000005c3       0xc3 /OPT/altera/12.1/nios2eds/bin/gnu/H-i686-pc-linux-gnu/bin/../lib/gcc/nios2-elf/4.1.2/../../../../nios2-elf/lib/libm.a(lib_a-s_fabs.o)
 .debug_abbrev  0x00000686       0xea /OPT/altera/12.1/nios2eds/bin/gnu/H-i686-pc-linux-gnu/bin/../lib/gcc/nios2-elf/4.1.2/../../../../nios2-elf/lib/libm.a(lib_a-s_floor.o)
 .debug_abbrev  0x00000770       0xf5 /OPT/altera/12.1/nios2eds/bin/gnu/H-i686-pc-linux-gnu/bin/../lib/gcc/nios2-elf/4.1.2/../../../../nios2-elf/lib/libm.a(lib_a-s_scalbn.o)
 .debug_abbrev  0x00000865       0xc3 /OPT/altera/12.1/nios2eds/bin/gnu/H-i686-pc-linux-gnu/bin/../lib/gcc/nios2-elf/4.1.2/../../../../nios2-elf/lib/libm.a(lib_a-s_copysign.o)
 .debug_abbrev  0x00000928       0x5d /OPT/altera/12.1/nios2eds/bin/gnu/H-i686-pc-linux-gnu/bin/../lib/gcc/nios2-elf/4.1.2/libgcc.a(_fixunsdfsi.o)
 .debug_abbrev  0x00000985      0x1d2 /OPT/altera/12.1/nios2eds/bin/gnu/H-i686-pc-linux-gnu/bin/../lib/gcc/nios2-elf/4.1.2/libgcc.a(_addsub_df.o)
 .debug_abbrev  0x00000b57      0x204 /OPT/altera/12.1/nios2eds/bin/gnu/H-i686-pc-linux-gnu/bin/../lib/gcc/nios2-elf/4.1.2/libgcc.a(_mul_df.o)
 .debug_abbrev  0x00000d5b      0x1e3 /OPT/altera/12.1/nios2eds/bin/gnu/H-i686-pc-linux-gnu/bin/../lib/gcc/nios2-elf/4.1.2/libgcc.a(_div_df.o)
 .debug_abbrev  0x00000f3e      0x151 /OPT/altera/12.1/nios2eds/bin/gnu/H-i686-pc-linux-gnu/bin/../lib/gcc/nios2-elf/4.1.2/libgcc.a(_eq_df.o)
 .debug_abbrev  0x0000108f      0x151 /OPT/altera/12.1/nios2eds/bin/gnu/H-i686-pc-linux-gnu/bin/../lib/gcc/nios2-elf/4.1.2/libgcc.a(_gt_df.o)
 .debug_abbrev  0x000011e0      0x151 /OPT/altera/12.1/nios2eds/bin/gnu/H-i686-pc-linux-gnu/bin/../lib/gcc/nios2-elf/4.1.2/libgcc.a(_ge_df.o)
 .debug_abbrev  0x00001331      0x13f /OPT/altera/12.1/nios2eds/bin/gnu/H-i686-pc-linux-gnu/bin/../lib/gcc/nios2-elf/4.1.2/libgcc.a(_si_to_df.o)
 .debug_abbrev  0x00001470      0x176 /OPT/altera/12.1/nios2eds/bin/gnu/H-i686-pc-linux-gnu/bin/../lib/gcc/nios2-elf/4.1.2/libgcc.a(_df_to_si.o)
 .debug_abbrev  0x000015e6       0xba /OPT/altera/12.1/nios2eds/bin/gnu/H-i686-pc-linux-gnu/bin/../lib/gcc/nios2-elf/4.1.2/libgcc.a(_thenan_df.o)
 .debug_abbrev  0x000016a0       0xe0 /OPT/altera/12.1/nios2eds/bin/gnu/H-i686-pc-linux-gnu/bin/../lib/gcc/nios2-elf/4.1.2/libgcc.a(lib2-divmod.o)
 .debug_abbrev  0x00001780       0xee /OPT/altera/12.1/nios2eds/bin/gnu/H-i686-pc-linux-gnu/bin/../lib/gcc/nios2-elf/4.1.2/libgcc.a(_muldi3.o)
 .debug_abbrev  0x0000186e       0xb9 /OPT/altera/12.1/nios2eds/bin/gnu/H-i686-pc-linux-gnu/bin/../lib/gcc/nios2-elf/4.1.2/libgcc.a(_clzsi2.o)
 .debug_abbrev  0x00001927      0x1b1 /OPT/altera/12.1/nios2eds/bin/gnu/H-i686-pc-linux-gnu/bin/../lib/gcc/nios2-elf/4.1.2/libgcc.a(_pack_df.o)
 .debug_abbrev  0x00001ad8      0x149 /OPT/altera/12.1/nios2eds/bin/gnu/H-i686-pc-linux-gnu/bin/../lib/gcc/nios2-elf/4.1.2/libgcc.a(_unpack_df.o)
 .debug_abbrev  0x00001c21      0x132 /OPT/altera/12.1/nios2eds/bin/gnu/H-i686-pc-linux-gnu/bin/../lib/gcc/nios2-elf/4.1.2/libgcc.a(_fpcmp_parts_df.o)
 .debug_abbrev  0x00001d53       0x61 /OPT/altera/12.1/nios2eds/bin/gnu/H-i686-pc-linux-gnu/bin/../lib/gcc/nios2-elf/4.1.2/libgcc.a(_clz.o)
 .debug_abbrev  0x00001db4      0x1ac /OPT/altera/12.1/nios2eds/bin/gnu/H-i686-pc-linux-gnu/bin/../lib/gcc/nios2-elf/4.1.2/../../../../nios2-elf/lib/libc.a(lib_a-puts.o)
 .debug_abbrev  0x00001f60       0x8b /OPT/altera/12.1/nios2eds/bin/gnu/H-i686-pc-linux-gnu/bin/../lib/gcc/nios2-elf/4.1.2/../../../../nios2-elf/lib/libc.a(lib_a-strlen.o)
 .debug_abbrev  0x00001feb      0x1a3 /OPT/altera/12.1/nios2eds/bin/gnu/H-i686-pc-linux-gnu/bin/../lib/gcc/nios2-elf/4.1.2/../../../../nios2-elf/lib/libc.a(lib_a-fvwrite.o)
 .debug_abbrev  0x0000218e      0x157 /OPT/altera/12.1/nios2eds/bin/gnu/H-i686-pc-linux-gnu/bin/../lib/gcc/nios2-elf/4.1.2/../../../../nios2-elf/lib/libc.a(lib_a-impure.o)
 .debug_abbrev  0x000022e5      0x216 /OPT/altera/12.1/nios2eds/bin/gnu/H-i686-pc-linux-gnu/bin/../lib/gcc/nios2-elf/4.1.2/../../../../nios2-elf/lib/libc.a(lib_a-mallocr.o)
 .debug_abbrev  0x000024fb       0xb5 /OPT/altera/12.1/nios2eds/bin/gnu/H-i686-pc-linux-gnu/bin/../lib/gcc/nios2-elf/4.1.2/../../../../nios2-elf/lib/libc.a(lib_a-memchr.o)
 .debug_abbrev  0x000025b0       0xb5 /OPT/altera/12.1/nios2eds/bin/gnu/H-i686-pc-linux-gnu/bin/../lib/gcc/nios2-elf/4.1.2/../../../../nios2-elf/lib/libc.a(lib_a-memcpy.o)
 .debug_abbrev  0x00002665       0xb5 /OPT/altera/12.1/nios2eds/bin/gnu/H-i686-pc-linux-gnu/bin/../lib/gcc/nios2-elf/4.1.2/../../../../nios2-elf/lib/libc.a(lib_a-memmove.o)
 .debug_abbrev  0x0000271a      0x1c3 /OPT/altera/12.1/nios2eds/bin/gnu/H-i686-pc-linux-gnu/bin/../lib/gcc/nios2-elf/4.1.2/../../../../nios2-elf/lib/libc.a(lib_a-reallocr.o)
 .debug_abbrev  0x000028dd      0x18c /OPT/altera/12.1/nios2eds/bin/gnu/H-i686-pc-linux-gnu/bin/../lib/gcc/nios2-elf/4.1.2/../../../../nios2-elf/lib/libc.a(lib_a-sbrkr.o)
 .debug_abbrev  0x00002a69      0x170 /OPT/altera/12.1/nios2eds/bin/gnu/H-i686-pc-linux-gnu/bin/../lib/gcc/nios2-elf/4.1.2/../../../../nios2-elf/lib/libc.a(lib_a-wsetup.o)
 .debug_abbrev  0x00002bd9      0x1c6 /OPT/altera/12.1/nios2eds/bin/gnu/H-i686-pc-linux-gnu/bin/../lib/gcc/nios2-elf/4.1.2/../../../../nios2-elf/lib/libc.a(lib_a-fflush.o)
 .debug_abbrev  0x00002d9f      0x24c /OPT/altera/12.1/nios2eds/bin/gnu/H-i686-pc-linux-gnu/bin/../lib/gcc/nios2-elf/4.1.2/../../../../nios2-elf/lib/libc.a(lib_a-findfp.o)
 .debug_abbrev  0x00002feb      0x1d9 /OPT/altera/12.1/nios2eds/bin/gnu/H-i686-pc-linux-gnu/bin/../lib/gcc/nios2-elf/4.1.2/../../../../nios2-elf/lib/libc.a(lib_a-freer.o)
 .debug_abbrev  0x000031c4      0x1e3 /OPT/altera/12.1/nios2eds/bin/gnu/H-i686-pc-linux-gnu/bin/../lib/gcc/nios2-elf/4.1.2/../../../../nios2-elf/lib/libc.a(lib_a-fwalk.o)
 .debug_abbrev  0x000033a7       0x3b /OPT/altera/12.1/nios2eds/bin/gnu/H-i686-pc-linux-gnu/bin/../lib/gcc/nios2-elf/4.1.2/../../../../nios2-elf/lib/libc.a(lib_a-int_errno.o)
 .debug_abbrev  0x000033e2      0x197 /OPT/altera/12.1/nios2eds/bin/gnu/H-i686-pc-linux-gnu/bin/../lib/gcc/nios2-elf/4.1.2/../../../../nios2-elf/lib/libc.a(lib_a-makebuf.o)
 .debug_abbrev  0x00003579       0xb8 /OPT/altera/12.1/nios2eds/bin/gnu/H-i686-pc-linux-gnu/bin/../lib/gcc/nios2-elf/4.1.2/../../../../nios2-elf/lib/libc.a(lib_a-memset.o)
 .debug_abbrev  0x00003631      0x1c9 /OPT/altera/12.1/nios2eds/bin/gnu/H-i686-pc-linux-gnu/bin/../lib/gcc/nios2-elf/4.1.2/../../../../nios2-elf/lib/libc.a(lib_a-stdio.o)
 .debug_abbrev  0x000037fa      0x184 /OPT/altera/12.1/nios2eds/bin/gnu/H-i686-pc-linux-gnu/bin/../lib/gcc/nios2-elf/4.1.2/../../../../nios2-elf/lib/libc.a(lib_a-writer.o)
 .debug_abbrev  0x0000397e      0x17f /OPT/altera/12.1/nios2eds/bin/gnu/H-i686-pc-linux-gnu/bin/../lib/gcc/nios2-elf/4.1.2/../../../../nios2-elf/lib/libc.a(lib_a-closer.o)
 .debug_abbrev  0x00003afd      0x1a7 /OPT/altera/12.1/nios2eds/bin/gnu/H-i686-pc-linux-gnu/bin/../lib/gcc/nios2-elf/4.1.2/../../../../nios2-elf/lib/libc.a(lib_a-fclose.o)
 .debug_abbrev  0x00003ca4      0x18e /OPT/altera/12.1/nios2eds/bin/gnu/H-i686-pc-linux-gnu/bin/../lib/gcc/nios2-elf/4.1.2/../../../../nios2-elf/lib/libc.a(lib_a-fstatr.o)
 .debug_abbrev  0x00003e32      0x17f /OPT/altera/12.1/nios2eds/bin/gnu/H-i686-pc-linux-gnu/bin/../lib/gcc/nios2-elf/4.1.2/../../../../nios2-elf/lib/libc.a(lib_a-isattyr.o)
 .debug_abbrev  0x00003fb1      0x18e /OPT/altera/12.1/nios2eds/bin/gnu/H-i686-pc-linux-gnu/bin/../lib/gcc/nios2-elf/4.1.2/../../../../nios2-elf/lib/libc.a(lib_a-lseekr.o)
 .debug_abbrev  0x0000413f      0x17f /OPT/altera/12.1/nios2eds/bin/gnu/H-i686-pc-linux-gnu/bin/../lib/gcc/nios2-elf/4.1.2/../../../../nios2-elf/lib/libc.a(lib_a-readr.o)
 .debug_abbrev  0x000042be      0x102 ../audioTest_bsp//libucosii_bsp.a(alt_close.o)
 .debug_abbrev  0x000043c0      0x10a ../audioTest_bsp//libucosii_bsp.a(alt_dev.o)
 .debug_abbrev  0x000044ca       0x5e ../audioTest_bsp//libucosii_bsp.a(alt_errno.o)
 .debug_abbrev  0x00004528      0x102 ../audioTest_bsp//libucosii_bsp.a(alt_fstat.o)
 .debug_abbrev  0x0000462a      0x102 ../audioTest_bsp//libucosii_bsp.a(alt_isatty.o)
 .debug_abbrev  0x0000472c       0x88 ../audioTest_bsp//libucosii_bsp.a(alt_load.o)
 .debug_abbrev  0x000047b4      0x102 ../audioTest_bsp//libucosii_bsp.a(alt_lseek.o)
 .debug_abbrev  0x000048b6      0x120 ../audioTest_bsp//libucosii_bsp.a(alt_main.o)
 .debug_abbrev  0x000049d6      0x102 ../audioTest_bsp//libucosii_bsp.a(alt_read.o)
 .debug_abbrev  0x00004ad8       0xd3 ../audioTest_bsp//libucosii_bsp.a(alt_release_fd.o)
 .debug_abbrev  0x00004bab      0x11c ../audioTest_bsp//libucosii_bsp.a(alt_sbrk.o)
 .debug_abbrev  0x00004cc7      0x107 ../audioTest_bsp//libucosii_bsp.a(alt_write.o)
 .debug_abbrev  0x00004dce      0x1b3 ../audioTest_bsp//libucosii_bsp.a(alt_env_lock.o)
 .debug_abbrev  0x00004f81      0x234 ../audioTest_bsp//libucosii_bsp.a(alt_malloc_lock.o)
 .debug_abbrev  0x000051b5      0x2aa ../audioTest_bsp//libucosii_bsp.a(os_core.o)
 .debug_abbrev  0x0000545f      0x114 ../audioTest_bsp//libucosii_bsp.a(os_dbg.o)
 .debug_abbrev  0x00005573      0x21b ../audioTest_bsp//libucosii_bsp.a(os_flag.o)
 .debug_abbrev  0x0000578e      0x235 ../audioTest_bsp//libucosii_bsp.a(os_mem.o)
 .debug_abbrev  0x000059c3      0x20d ../audioTest_bsp//libucosii_bsp.a(os_q.o)
 .debug_abbrev  0x00005bd0      0x20d ../audioTest_bsp//libucosii_bsp.a(os_sem.o)
 .debug_abbrev  0x00005ddd      0x20e ../audioTest_bsp//libucosii_bsp.a(os_task.o)
 .debug_abbrev  0x00005feb      0x1de ../audioTest_bsp//libucosii_bsp.a(os_time.o)
 .debug_abbrev  0x000061c9      0x1b9 ../audioTest_bsp//libucosii_bsp.a(alt_sys_init.o)
 .debug_abbrev  0x00006382      0x13c ../audioTest_bsp//libucosii_bsp.a(altera_avalon_jtag_uart_fd.o)
 .debug_abbrev  0x000064be      0x21e ../audioTest_bsp//libucosii_bsp.a(altera_avalon_jtag_uart_init.o)
 .debug_abbrev  0x000066dc      0x135 ../audioTest_bsp//libucosii_bsp.a(altera_avalon_jtag_uart_ioctl.o)
 .debug_abbrev  0x00006811      0x1ee ../audioTest_bsp//libucosii_bsp.a(altera_avalon_jtag_uart_read.o)
 .debug_abbrev  0x000069ff      0x1ea ../audioTest_bsp//libucosii_bsp.a(altera_avalon_jtag_uart_write.o)
 .debug_abbrev  0x00006be9      0x137 ../audioTest_bsp//libucosii_bsp.a(altera_avalon_timer_sc.o)
 .debug_abbrev  0x00006d20      0x16b ../audioTest_bsp//libucosii_bsp.a(altera_up_avalon_audio.o)
 .debug_abbrev  0x00006e8b      0x117 ../audioTest_bsp//libucosii_bsp.a(altera_up_avalon_audio_and_video_config.o)
 .debug_abbrev  0x00006fa2      0x127 ../audioTest_bsp//libucosii_bsp.a(altera_up_avalon_character_lcd.o)
 .debug_abbrev  0x000070c9      0x172 ../audioTest_bsp//libucosii_bsp.a(alt_alarm_start.o)
 .debug_abbrev  0x0000723b       0x57 ../audioTest_bsp//libucosii_bsp.a(alt_dcache_flush_all.o)
 .debug_abbrev  0x00007292       0xf6 ../audioTest_bsp//libucosii_bsp.a(alt_dev_llist_insert.o)
 .debug_abbrev  0x00007388       0x76 ../audioTest_bsp//libucosii_bsp.a(alt_do_ctors.o)
 .debug_abbrev  0x000073fe       0x76 ../audioTest_bsp//libucosii_bsp.a(alt_do_dtors.o)
 .debug_abbrev  0x00007474       0xd6 ../audioTest_bsp//libucosii_bsp.a(alt_find_dev.o)
 .debug_abbrev  0x0000754a       0x3f ../audioTest_bsp//libucosii_bsp.a(alt_icache_flush_all.o)
 .debug_abbrev  0x00007589       0xf7 ../audioTest_bsp//libucosii_bsp.a(alt_io_redirect.o)
 .debug_abbrev  0x00007680      0x180 ../audioTest_bsp//libucosii_bsp.a(alt_irq_register.o)
 .debug_abbrev  0x00007800       0x44 ../audioTest_bsp//libucosii_bsp.a(alt_irq_vars.o)
 .debug_abbrev  0x00007844      0x119 ../audioTest_bsp//libucosii_bsp.a(alt_open.o)
 .debug_abbrev  0x0000795d      0x161 ../audioTest_bsp//libucosii_bsp.a(alt_tick.o)
 .debug_abbrev  0x00007abe       0x64 ../audioTest_bsp//libucosii_bsp.a(altera_nios2_qsys_irq.o)
 .debug_abbrev  0x00007b22       0x14 ../audioTest_bsp//libucosii_bsp.a(os_cpu_a.o)
 .debug_abbrev  0x00007b36      0x1d0 ../audioTest_bsp//libucosii_bsp.a(os_cpu_c.o)
 .debug_abbrev  0x00007d06       0xd6 ../audioTest_bsp//libucosii_bsp.a(alt_find_file.o)
 .debug_abbrev  0x00007ddc      0x173 ../audioTest_bsp//libucosii_bsp.a(alt_get_fd.o)
 .debug_abbrev  0x00007f4f       0x7a ../audioTest_bsp//libucosii_bsp.a(alt_icache_flush.o)
 .debug_abbrev  0x00007fc9       0x12 ../audioTest_bsp//libucosii_bsp.a(alt_irq_entry.o)
 .debug_abbrev  0x00007fdb      0x124 ../audioTest_bsp//libucosii_bsp.a(alt_irq_handler.o)
 .debug_abbrev  0x000080ff       0x12 ../audioTest_bsp//libucosii_bsp.a(alt_exception_entry.o)
 .debug_abbrev  0x00008111       0xb7 /OPT/altera/12.1/nios2eds/bin/gnu/H-i686-pc-linux-gnu/bin/../lib/gcc/nios2-elf/4.1.2/../../../../nios2-elf/lib/libc.a(lib_a-atexit.o)
 .debug_abbrev  0x000081c8      0x16e /OPT/altera/12.1/nios2eds/bin/gnu/H-i686-pc-linux-gnu/bin/../lib/gcc/nios2-elf/4.1.2/../../../../nios2-elf/lib/libc.a(lib_a-exit.o)
 .debug_abbrev  0x00008336       0x7c /OPT/altera/12.1/nios2eds/bin/gnu/H-i686-pc-linux-gnu/bin/../lib/gcc/nios2-elf/4.1.2/../../../../nios2-elf/lib/libc.a(lib_a-memcmp.o)
 .debug_abbrev  0x000083b2      0x1ae /OPT/altera/12.1/nios2eds/bin/gnu/H-i686-pc-linux-gnu/bin/../lib/gcc/nios2-elf/4.1.2/../../../../nios2-elf/lib/libc.a(lib_a-__atexit.o)
 .debug_abbrev  0x00008560      0x1de /OPT/altera/12.1/nios2eds/bin/gnu/H-i686-pc-linux-gnu/bin/../lib/gcc/nios2-elf/4.1.2/../../../../nios2-elf/lib/libc.a(lib_a-__call_atexit.o)
 .debug_abbrev  0x0000873e       0xaa ../audioTest_bsp//libucosii_bsp.a(alt_exit.o)

.debug_line     0x00000000    0x1961e
 *(.debug_line)
 .debug_line    0x00000000       0x72 ../audioTest_bsp//obj/HAL/src/crt0.o
 .debug_line    0x00000072      0x429 obj/default/hello_ucosii.o
 .debug_line    0x0000049b      0x29f /OPT/altera/12.1/nios2eds/bin/gnu/H-i686-pc-linux-gnu/bin/../lib/gcc/nios2-elf/4.1.2/../../../../nios2-elf/lib/libm.a(lib_a-s_sin.o)
 .debug_line    0x0000073a      0x658 /OPT/altera/12.1/nios2eds/bin/gnu/H-i686-pc-linux-gnu/bin/../lib/gcc/nios2-elf/4.1.2/../../../../nios2-elf/lib/libm.a(lib_a-e_rem_pio2.o)
 .debug_line    0x00000d92      0x2c3 /OPT/altera/12.1/nios2eds/bin/gnu/H-i686-pc-linux-gnu/bin/../lib/gcc/nios2-elf/4.1.2/../../../../nios2-elf/lib/libm.a(lib_a-k_cos.o)
 .debug_line    0x00001055      0x8d8 /OPT/altera/12.1/nios2eds/bin/gnu/H-i686-pc-linux-gnu/bin/../lib/gcc/nios2-elf/4.1.2/../../../../nios2-elf/lib/libm.a(lib_a-k_rem_pio2.o)
 .debug_line    0x0000192d      0x2af /OPT/altera/12.1/nios2eds/bin/gnu/H-i686-pc-linux-gnu/bin/../lib/gcc/nios2-elf/4.1.2/../../../../nios2-elf/lib/libm.a(lib_a-k_sin.o)
 .debug_line    0x00001bdc      0x228 /OPT/altera/12.1/nios2eds/bin/gnu/H-i686-pc-linux-gnu/bin/../lib/gcc/nios2-elf/4.1.2/../../../../nios2-elf/lib/libm.a(lib_a-s_fabs.o)
 .debug_line    0x00001e04      0x307 /OPT/altera/12.1/nios2eds/bin/gnu/H-i686-pc-linux-gnu/bin/../lib/gcc/nios2-elf/4.1.2/../../../../nios2-elf/lib/libm.a(lib_a-s_floor.o)
 .debug_line    0x0000210b      0x32e /OPT/altera/12.1/nios2eds/bin/gnu/H-i686-pc-linux-gnu/bin/../lib/gcc/nios2-elf/4.1.2/../../../../nios2-elf/lib/libm.a(lib_a-s_scalbn.o)
 .debug_line    0x00002439      0x22c /OPT/altera/12.1/nios2eds/bin/gnu/H-i686-pc-linux-gnu/bin/../lib/gcc/nios2-elf/4.1.2/../../../../nios2-elf/lib/libm.a(lib_a-s_copysign.o)
 .debug_line    0x00002665      0x176 /OPT/altera/12.1/nios2eds/bin/gnu/H-i686-pc-linux-gnu/bin/../lib/gcc/nios2-elf/4.1.2/libgcc.a(_fixunsdfsi.o)
 .debug_line    0x000027db      0x430 /OPT/altera/12.1/nios2eds/bin/gnu/H-i686-pc-linux-gnu/bin/../lib/gcc/nios2-elf/4.1.2/libgcc.a(_addsub_df.o)
 .debug_line    0x00002c0b      0x3e5 /OPT/altera/12.1/nios2eds/bin/gnu/H-i686-pc-linux-gnu/bin/../lib/gcc/nios2-elf/4.1.2/libgcc.a(_mul_df.o)
 .debug_line    0x00002ff0      0x301 /OPT/altera/12.1/nios2eds/bin/gnu/H-i686-pc-linux-gnu/bin/../lib/gcc/nios2-elf/4.1.2/libgcc.a(_div_df.o)
 .debug_line    0x000032f1      0x129 /OPT/altera/12.1/nios2eds/bin/gnu/H-i686-pc-linux-gnu/bin/../lib/gcc/nios2-elf/4.1.2/libgcc.a(_eq_df.o)
 .debug_line    0x0000341a      0x129 /OPT/altera/12.1/nios2eds/bin/gnu/H-i686-pc-linux-gnu/bin/../lib/gcc/nios2-elf/4.1.2/libgcc.a(_gt_df.o)
 .debug_line    0x00003543      0x129 /OPT/altera/12.1/nios2eds/bin/gnu/H-i686-pc-linux-gnu/bin/../lib/gcc/nios2-elf/4.1.2/libgcc.a(_ge_df.o)
 .debug_line    0x0000366c      0x175 /OPT/altera/12.1/nios2eds/bin/gnu/H-i686-pc-linux-gnu/bin/../lib/gcc/nios2-elf/4.1.2/libgcc.a(_si_to_df.o)
 .debug_line    0x000037e1      0x149 /OPT/altera/12.1/nios2eds/bin/gnu/H-i686-pc-linux-gnu/bin/../lib/gcc/nios2-elf/4.1.2/libgcc.a(_df_to_si.o)
 .debug_line    0x0000392a       0x94 /OPT/altera/12.1/nios2eds/bin/gnu/H-i686-pc-linux-gnu/bin/../lib/gcc/nios2-elf/4.1.2/libgcc.a(_thenan_df.o)
 .debug_line    0x000039be      0x2c6 /OPT/altera/12.1/nios2eds/bin/gnu/H-i686-pc-linux-gnu/bin/../lib/gcc/nios2-elf/4.1.2/libgcc.a(lib2-divmod.o)
 .debug_line    0x00003c84      0x196 /OPT/altera/12.1/nios2eds/bin/gnu/H-i686-pc-linux-gnu/bin/../lib/gcc/nios2-elf/4.1.2/libgcc.a(_muldi3.o)
 .debug_line    0x00003e1a      0x17c /OPT/altera/12.1/nios2eds/bin/gnu/H-i686-pc-linux-gnu/bin/../lib/gcc/nios2-elf/4.1.2/libgcc.a(_clzsi2.o)
 .debug_line    0x00003f96      0x222 /OPT/altera/12.1/nios2eds/bin/gnu/H-i686-pc-linux-gnu/bin/../lib/gcc/nios2-elf/4.1.2/libgcc.a(_pack_df.o)
 .debug_line    0x000041b8      0x1e4 /OPT/altera/12.1/nios2eds/bin/gnu/H-i686-pc-linux-gnu/bin/../lib/gcc/nios2-elf/4.1.2/libgcc.a(_unpack_df.o)
 .debug_line    0x0000439c      0x187 /OPT/altera/12.1/nios2eds/bin/gnu/H-i686-pc-linux-gnu/bin/../lib/gcc/nios2-elf/4.1.2/libgcc.a(_fpcmp_parts_df.o)
 .debug_line    0x00004523      0x121 /OPT/altera/12.1/nios2eds/bin/gnu/H-i686-pc-linux-gnu/bin/../lib/gcc/nios2-elf/4.1.2/libgcc.a(_clz.o)
 .debug_line    0x00004644      0x2f7 /OPT/altera/12.1/nios2eds/bin/gnu/H-i686-pc-linux-gnu/bin/../lib/gcc/nios2-elf/4.1.2/../../../../nios2-elf/lib/libc.a(lib_a-puts.o)
 .debug_line    0x0000493b      0x26d /OPT/altera/12.1/nios2eds/bin/gnu/H-i686-pc-linux-gnu/bin/../lib/gcc/nios2-elf/4.1.2/../../../../nios2-elf/lib/libc.a(lib_a-strlen.o)
 .debug_line    0x00004ba8      0x641 /OPT/altera/12.1/nios2eds/bin/gnu/H-i686-pc-linux-gnu/bin/../lib/gcc/nios2-elf/4.1.2/../../../../nios2-elf/lib/libc.a(lib_a-fvwrite.o)
 .debug_line    0x000051e9      0x22d /OPT/altera/12.1/nios2eds/bin/gnu/H-i686-pc-linux-gnu/bin/../lib/gcc/nios2-elf/4.1.2/../../../../nios2-elf/lib/libc.a(lib_a-impure.o)
 .debug_line    0x00005416      0x80a /OPT/altera/12.1/nios2eds/bin/gnu/H-i686-pc-linux-gnu/bin/../lib/gcc/nios2-elf/4.1.2/../../../../nios2-elf/lib/libc.a(lib_a-mallocr.o)
 .debug_line    0x00005c20      0x303 /OPT/altera/12.1/nios2eds/bin/gnu/H-i686-pc-linux-gnu/bin/../lib/gcc/nios2-elf/4.1.2/../../../../nios2-elf/lib/libc.a(lib_a-memchr.o)
 .debug_line    0x00005f23      0x1ac /OPT/altera/12.1/nios2eds/bin/gnu/H-i686-pc-linux-gnu/bin/../lib/gcc/nios2-elf/4.1.2/../../../../nios2-elf/lib/libc.a(lib_a-memcpy.o)
 .debug_line    0x000060cf      0x30a /OPT/altera/12.1/nios2eds/bin/gnu/H-i686-pc-linux-gnu/bin/../lib/gcc/nios2-elf/4.1.2/../../../../nios2-elf/lib/libc.a(lib_a-memmove.o)
 .debug_line    0x000063d9      0x58a /OPT/altera/12.1/nios2eds/bin/gnu/H-i686-pc-linux-gnu/bin/../lib/gcc/nios2-elf/4.1.2/../../../../nios2-elf/lib/libc.a(lib_a-reallocr.o)
 .debug_line    0x00006963      0x299 /OPT/altera/12.1/nios2eds/bin/gnu/H-i686-pc-linux-gnu/bin/../lib/gcc/nios2-elf/4.1.2/../../../../nios2-elf/lib/libc.a(lib_a-sbrkr.o)
 .debug_line    0x00006bfc      0x2f0 /OPT/altera/12.1/nios2eds/bin/gnu/H-i686-pc-linux-gnu/bin/../lib/gcc/nios2-elf/4.1.2/../../../../nios2-elf/lib/libc.a(lib_a-wsetup.o)
 .debug_line    0x00006eec      0x40d /OPT/altera/12.1/nios2eds/bin/gnu/H-i686-pc-linux-gnu/bin/../lib/gcc/nios2-elf/4.1.2/../../../../nios2-elf/lib/libc.a(lib_a-fflush.o)
 .debug_line    0x000072f9      0x601 /OPT/altera/12.1/nios2eds/bin/gnu/H-i686-pc-linux-gnu/bin/../lib/gcc/nios2-elf/4.1.2/../../../../nios2-elf/lib/libc.a(lib_a-findfp.o)
 .debug_line    0x000078fa      0x5eb /OPT/altera/12.1/nios2eds/bin/gnu/H-i686-pc-linux-gnu/bin/../lib/gcc/nios2-elf/4.1.2/../../../../nios2-elf/lib/libc.a(lib_a-freer.o)
 .debug_line    0x00007ee5      0x34a /OPT/altera/12.1/nios2eds/bin/gnu/H-i686-pc-linux-gnu/bin/../lib/gcc/nios2-elf/4.1.2/../../../../nios2-elf/lib/libc.a(lib_a-fwalk.o)
 .debug_line    0x0000822f      0x1df /OPT/altera/12.1/nios2eds/bin/gnu/H-i686-pc-linux-gnu/bin/../lib/gcc/nios2-elf/4.1.2/../../../../nios2-elf/lib/libc.a(lib_a-int_errno.o)
 .debug_line    0x0000840e      0x3c3 /OPT/altera/12.1/nios2eds/bin/gnu/H-i686-pc-linux-gnu/bin/../lib/gcc/nios2-elf/4.1.2/../../../../nios2-elf/lib/libc.a(lib_a-makebuf.o)
 .debug_line    0x000087d1      0x301 /OPT/altera/12.1/nios2eds/bin/gnu/H-i686-pc-linux-gnu/bin/../lib/gcc/nios2-elf/4.1.2/../../../../nios2-elf/lib/libc.a(lib_a-memset.o)
 .debug_line    0x00008ad2      0x38c /OPT/altera/12.1/nios2eds/bin/gnu/H-i686-pc-linux-gnu/bin/../lib/gcc/nios2-elf/4.1.2/../../../../nios2-elf/lib/libc.a(lib_a-stdio.o)
 .debug_line    0x00008e5e      0x29a /OPT/altera/12.1/nios2eds/bin/gnu/H-i686-pc-linux-gnu/bin/../lib/gcc/nios2-elf/4.1.2/../../../../nios2-elf/lib/libc.a(lib_a-writer.o)
 .debug_line    0x000090f8      0x29a /OPT/altera/12.1/nios2eds/bin/gnu/H-i686-pc-linux-gnu/bin/../lib/gcc/nios2-elf/4.1.2/../../../../nios2-elf/lib/libc.a(lib_a-closer.o)
 .debug_line    0x00009392      0x2e8 /OPT/altera/12.1/nios2eds/bin/gnu/H-i686-pc-linux-gnu/bin/../lib/gcc/nios2-elf/4.1.2/../../../../nios2-elf/lib/libc.a(lib_a-fclose.o)
 .debug_line    0x0000967a      0x264 /OPT/altera/12.1/nios2eds/bin/gnu/H-i686-pc-linux-gnu/bin/../lib/gcc/nios2-elf/4.1.2/../../../../nios2-elf/lib/libc.a(lib_a-fstatr.o)
 .debug_line    0x000098de      0x29b /OPT/altera/12.1/nios2eds/bin/gnu/H-i686-pc-linux-gnu/bin/../lib/gcc/nios2-elf/4.1.2/../../../../nios2-elf/lib/libc.a(lib_a-isattyr.o)
 .debug_line    0x00009b79      0x29a /OPT/altera/12.1/nios2eds/bin/gnu/H-i686-pc-linux-gnu/bin/../lib/gcc/nios2-elf/4.1.2/../../../../nios2-elf/lib/libc.a(lib_a-lseekr.o)
 .debug_line    0x00009e13      0x299 /OPT/altera/12.1/nios2eds/bin/gnu/H-i686-pc-linux-gnu/bin/../lib/gcc/nios2-elf/4.1.2/../../../../nios2-elf/lib/libc.a(lib_a-readr.o)
 .debug_line    0x0000a0ac      0x315 ../audioTest_bsp//libucosii_bsp.a(alt_close.o)
 .debug_line    0x0000a3c1      0x2d9 ../audioTest_bsp//libucosii_bsp.a(alt_dev.o)
 .debug_line    0x0000a69a      0x1b2 ../audioTest_bsp//libucosii_bsp.a(alt_errno.o)
 .debug_line    0x0000a84c      0x31d ../audioTest_bsp//libucosii_bsp.a(alt_fstat.o)
 .debug_line    0x0000ab69      0x31e ../audioTest_bsp//libucosii_bsp.a(alt_isatty.o)
 .debug_line    0x0000ae87      0x21f ../audioTest_bsp//libucosii_bsp.a(alt_load.o)
 .debug_line    0x0000b0a6      0x31d ../audioTest_bsp//libucosii_bsp.a(alt_lseek.o)
 .debug_line    0x0000b3c3      0x365 ../audioTest_bsp//libucosii_bsp.a(alt_main.o)
 .debug_line    0x0000b728      0x344 ../audioTest_bsp//libucosii_bsp.a(alt_read.o)
 .debug_line    0x0000ba6c      0x295 ../audioTest_bsp//libucosii_bsp.a(alt_release_fd.o)
 .debug_line    0x0000bd01      0x282 ../audioTest_bsp//libucosii_bsp.a(alt_sbrk.o)
 .debug_line    0x0000bf83      0x345 ../audioTest_bsp//libucosii_bsp.a(alt_write.o)
 .debug_line    0x0000c2c8      0x2e0 ../audioTest_bsp//libucosii_bsp.a(alt_env_lock.o)
 .debug_line    0x0000c5a8      0x39c ../audioTest_bsp//libucosii_bsp.a(alt_malloc_lock.o)
 .debug_line    0x0000c944     0x1684 ../audioTest_bsp//libucosii_bsp.a(os_core.o)
 .debug_line    0x0000dfc8      0x3a9 ../audioTest_bsp//libucosii_bsp.a(os_dbg.o)
 .debug_line    0x0000e371     0x1208 ../audioTest_bsp//libucosii_bsp.a(os_flag.o)
 .debug_line    0x0000f579      0x7ab ../audioTest_bsp//libucosii_bsp.a(os_mem.o)
 .debug_line    0x0000fd24      0xe8c ../audioTest_bsp//libucosii_bsp.a(os_q.o)
 .debug_line    0x00010bb0      0xa44 ../audioTest_bsp//libucosii_bsp.a(os_sem.o)
 .debug_line    0x000115f4     0x114d ../audioTest_bsp//libucosii_bsp.a(os_task.o)
 .debug_line    0x00012741      0x550 ../audioTest_bsp//libucosii_bsp.a(os_time.o)
 .debug_line    0x00012c91      0x39d ../audioTest_bsp//libucosii_bsp.a(alt_sys_init.o)
 .debug_line    0x0001302e      0x338 ../audioTest_bsp//libucosii_bsp.a(altera_avalon_jtag_uart_fd.o)
 .debug_line    0x00013366      0x5b7 ../audioTest_bsp//libucosii_bsp.a(altera_avalon_jtag_uart_init.o)
 .debug_line    0x0001391d      0x375 ../audioTest_bsp//libucosii_bsp.a(altera_avalon_jtag_uart_ioctl.o)
 .debug_line    0x00013c92      0x4b3 ../audioTest_bsp//libucosii_bsp.a(altera_avalon_jtag_uart_read.o)
 .debug_line    0x00014145      0x4c1 ../audioTest_bsp//libucosii_bsp.a(altera_avalon_jtag_uart_write.o)
 .debug_line    0x00014606      0x2d2 ../audioTest_bsp//libucosii_bsp.a(altera_avalon_timer_sc.o)
 .debug_line    0x000148d8      0x5f5 ../audioTest_bsp//libucosii_bsp.a(altera_up_avalon_audio.o)
 .debug_line    0x00014ecd      0x5c3 ../audioTest_bsp//libucosii_bsp.a(altera_up_avalon_audio_and_video_config.o)
 .debug_line    0x00015490      0x4e1 ../audioTest_bsp//libucosii_bsp.a(altera_up_avalon_character_lcd.o)
 .debug_line    0x00015971      0x2fd ../audioTest_bsp//libucosii_bsp.a(alt_alarm_start.o)
 .debug_line    0x00015c6e      0x1d5 ../audioTest_bsp//libucosii_bsp.a(alt_dcache_flush_all.o)
 .debug_line    0x00015e43      0x262 ../audioTest_bsp//libucosii_bsp.a(alt_dev_llist_insert.o)
 .debug_line    0x000160a5       0x83 ../audioTest_bsp//libucosii_bsp.a(alt_do_ctors.o)
 .debug_line    0x00016128       0x83 ../audioTest_bsp//libucosii_bsp.a(alt_do_dtors.o)
 .debug_line    0x000161ab      0x2f6 ../audioTest_bsp//libucosii_bsp.a(alt_find_dev.o)
 .debug_line    0x000164a1      0x1c5 ../audioTest_bsp//libucosii_bsp.a(alt_icache_flush_all.o)
 .debug_line    0x00016666      0x33f ../audioTest_bsp//libucosii_bsp.a(alt_io_redirect.o)
 .debug_line    0x000169a5      0x375 ../audioTest_bsp//libucosii_bsp.a(alt_irq_register.o)
 .debug_line    0x00016d1a       0x72 ../audioTest_bsp//libucosii_bsp.a(alt_irq_vars.o)
 .debug_line    0x00016d8c      0x37b ../audioTest_bsp//libucosii_bsp.a(alt_open.o)
 .debug_line    0x00017107      0x337 ../audioTest_bsp//libucosii_bsp.a(alt_tick.o)
 .debug_line    0x0001743e      0x1ef ../audioTest_bsp//libucosii_bsp.a(altera_nios2_qsys_irq.o)
 .debug_line    0x0001762d       0x86 ../audioTest_bsp//libucosii_bsp.a(os_cpu_a.o)
 .debug_line    0x000176b3      0x349 ../audioTest_bsp//libucosii_bsp.a(os_cpu_c.o)
 .debug_line    0x000179fc      0x307 ../audioTest_bsp//libucosii_bsp.a(alt_find_file.o)
 .debug_line    0x00017d03      0x337 ../audioTest_bsp//libucosii_bsp.a(alt_get_fd.o)
 .debug_line    0x0001803a      0x201 ../audioTest_bsp//libucosii_bsp.a(alt_icache_flush.o)
 .debug_line    0x0001823b       0x6b ../audioTest_bsp//libucosii_bsp.a(alt_irq_entry.o)
 .debug_line    0x000182a6      0x2e5 ../audioTest_bsp//libucosii_bsp.a(alt_irq_handler.o)
 .debug_line    0x0001858b       0xab ../audioTest_bsp//libucosii_bsp.a(alt_exception_entry.o)
 .debug_line    0x00018636      0x200 /OPT/altera/12.1/nios2eds/bin/gnu/H-i686-pc-linux-gnu/bin/../lib/gcc/nios2-elf/4.1.2/../../../../nios2-elf/lib/libc.a(lib_a-atexit.o)
 .debug_line    0x00018836      0x238 /OPT/altera/12.1/nios2eds/bin/gnu/H-i686-pc-linux-gnu/bin/../lib/gcc/nios2-elf/4.1.2/../../../../nios2-elf/lib/libc.a(lib_a-exit.o)
 .debug_line    0x00018a6e      0x29f /OPT/altera/12.1/nios2eds/bin/gnu/H-i686-pc-linux-gnu/bin/../lib/gcc/nios2-elf/4.1.2/../../../../nios2-elf/lib/libc.a(lib_a-memcmp.o)
 .debug_line    0x00018d0d      0x313 /OPT/altera/12.1/nios2eds/bin/gnu/H-i686-pc-linux-gnu/bin/../lib/gcc/nios2-elf/4.1.2/../../../../nios2-elf/lib/libc.a(lib_a-__atexit.o)
 .debug_line    0x00019020      0x367 /OPT/altera/12.1/nios2eds/bin/gnu/H-i686-pc-linux-gnu/bin/../lib/gcc/nios2-elf/4.1.2/../../../../nios2-elf/lib/libc.a(lib_a-__call_atexit.o)
 .debug_line    0x00019387      0x297 ../audioTest_bsp//libucosii_bsp.a(alt_exit.o)

.debug_frame    0x00000000     0x25f8
 *(.debug_frame)
 .debug_frame   0x00000000       0x4c obj/default/hello_ucosii.o
 .debug_frame   0x0000004c       0x28 /OPT/altera/12.1/nios2eds/bin/gnu/H-i686-pc-linux-gnu/bin/../lib/gcc/nios2-elf/4.1.2/../../../../nios2-elf/lib/libm.a(lib_a-s_sin.o)
 .debug_frame   0x00000074       0x3c /OPT/altera/12.1/nios2eds/bin/gnu/H-i686-pc-linux-gnu/bin/../lib/gcc/nios2-elf/4.1.2/../../../../nios2-elf/lib/libm.a(lib_a-e_rem_pio2.o)
 .debug_frame   0x000000b0       0x38 /OPT/altera/12.1/nios2eds/bin/gnu/H-i686-pc-linux-gnu/bin/../lib/gcc/nios2-elf/4.1.2/../../../../nios2-elf/lib/libm.a(lib_a-k_cos.o)
 .debug_frame   0x000000e8       0x3c /OPT/altera/12.1/nios2eds/bin/gnu/H-i686-pc-linux-gnu/bin/../lib/gcc/nios2-elf/4.1.2/../../../../nios2-elf/lib/libm.a(lib_a-k_rem_pio2.o)
 .debug_frame   0x00000124       0x38 /OPT/altera/12.1/nios2eds/bin/gnu/H-i686-pc-linux-gnu/bin/../lib/gcc/nios2-elf/4.1.2/../../../../nios2-elf/lib/libm.a(lib_a-k_sin.o)
 .debug_frame   0x0000015c       0x20 /OPT/altera/12.1/nios2eds/bin/gnu/H-i686-pc-linux-gnu/bin/../lib/gcc/nios2-elf/4.1.2/../../../../nios2-elf/lib/libm.a(lib_a-s_fabs.o)
 .debug_frame   0x0000017c       0x3c /OPT/altera/12.1/nios2eds/bin/gnu/H-i686-pc-linux-gnu/bin/../lib/gcc/nios2-elf/4.1.2/../../../../nios2-elf/lib/libm.a(lib_a-s_floor.o)
 .debug_frame   0x000001b8       0x2c /OPT/altera/12.1/nios2eds/bin/gnu/H-i686-pc-linux-gnu/bin/../lib/gcc/nios2-elf/4.1.2/../../../../nios2-elf/lib/libm.a(lib_a-s_scalbn.o)
 .debug_frame   0x000001e4       0x20 /OPT/altera/12.1/nios2eds/bin/gnu/H-i686-pc-linux-gnu/bin/../lib/gcc/nios2-elf/4.1.2/../../../../nios2-elf/lib/libm.a(lib_a-s_copysign.o)
 .debug_frame   0x00000204       0x30 /OPT/altera/12.1/nios2eds/bin/gnu/H-i686-pc-linux-gnu/bin/../lib/gcc/nios2-elf/4.1.2/libgcc.a(_fixunsdfsi.o)
 .debug_frame   0x00000234       0x70 /OPT/altera/12.1/nios2eds/bin/gnu/H-i686-pc-linux-gnu/bin/../lib/gcc/nios2-elf/4.1.2/libgcc.a(_addsub_df.o)
 .debug_frame   0x000002a4       0x3c /OPT/altera/12.1/nios2eds/bin/gnu/H-i686-pc-linux-gnu/bin/../lib/gcc/nios2-elf/4.1.2/libgcc.a(_mul_df.o)
 .debug_frame   0x000002e0       0x30 /OPT/altera/12.1/nios2eds/bin/gnu/H-i686-pc-linux-gnu/bin/../lib/gcc/nios2-elf/4.1.2/libgcc.a(_div_df.o)
 .debug_frame   0x00000310       0x2c /OPT/altera/12.1/nios2eds/bin/gnu/H-i686-pc-linux-gnu/bin/../lib/gcc/nios2-elf/4.1.2/libgcc.a(_eq_df.o)
 .debug_frame   0x0000033c       0x2c /OPT/altera/12.1/nios2eds/bin/gnu/H-i686-pc-linux-gnu/bin/../lib/gcc/nios2-elf/4.1.2/libgcc.a(_gt_df.o)
 .debug_frame   0x00000368       0x2c /OPT/altera/12.1/nios2eds/bin/gnu/H-i686-pc-linux-gnu/bin/../lib/gcc/nios2-elf/4.1.2/libgcc.a(_ge_df.o)
 .debug_frame   0x00000394       0x30 /OPT/altera/12.1/nios2eds/bin/gnu/H-i686-pc-linux-gnu/bin/../lib/gcc/nios2-elf/4.1.2/libgcc.a(_si_to_df.o)
 .debug_frame   0x000003c4       0x28 /OPT/altera/12.1/nios2eds/bin/gnu/H-i686-pc-linux-gnu/bin/../lib/gcc/nios2-elf/4.1.2/libgcc.a(_df_to_si.o)
 .debug_frame   0x000003ec       0x70 /OPT/altera/12.1/nios2eds/bin/gnu/H-i686-pc-linux-gnu/bin/../lib/gcc/nios2-elf/4.1.2/libgcc.a(lib2-divmod.o)
 .debug_frame   0x0000045c       0x2c /OPT/altera/12.1/nios2eds/bin/gnu/H-i686-pc-linux-gnu/bin/../lib/gcc/nios2-elf/4.1.2/libgcc.a(_muldi3.o)
 .debug_frame   0x00000488       0x20 /OPT/altera/12.1/nios2eds/bin/gnu/H-i686-pc-linux-gnu/bin/../lib/gcc/nios2-elf/4.1.2/libgcc.a(_clzsi2.o)
 .debug_frame   0x000004a8       0x2c /OPT/altera/12.1/nios2eds/bin/gnu/H-i686-pc-linux-gnu/bin/../lib/gcc/nios2-elf/4.1.2/libgcc.a(_pack_df.o)
 .debug_frame   0x000004d4       0x20 /OPT/altera/12.1/nios2eds/bin/gnu/H-i686-pc-linux-gnu/bin/../lib/gcc/nios2-elf/4.1.2/libgcc.a(_unpack_df.o)
 .debug_frame   0x000004f4       0x20 /OPT/altera/12.1/nios2eds/bin/gnu/H-i686-pc-linux-gnu/bin/../lib/gcc/nios2-elf/4.1.2/libgcc.a(_fpcmp_parts_df.o)
 .debug_frame   0x00000514       0x3c /OPT/altera/12.1/nios2eds/bin/gnu/H-i686-pc-linux-gnu/bin/../lib/gcc/nios2-elf/4.1.2/../../../../nios2-elf/lib/libc.a(lib_a-puts.o)
 .debug_frame   0x00000550       0x20 /OPT/altera/12.1/nios2eds/bin/gnu/H-i686-pc-linux-gnu/bin/../lib/gcc/nios2-elf/4.1.2/../../../../nios2-elf/lib/libc.a(lib_a-strlen.o)
 .debug_frame   0x00000570       0x38 /OPT/altera/12.1/nios2eds/bin/gnu/H-i686-pc-linux-gnu/bin/../lib/gcc/nios2-elf/4.1.2/../../../../nios2-elf/lib/libc.a(lib_a-fvwrite.o)
 .debug_frame   0x000005a8       0x38 /OPT/altera/12.1/nios2eds/bin/gnu/H-i686-pc-linux-gnu/bin/../lib/gcc/nios2-elf/4.1.2/../../../../nios2-elf/lib/libc.a(lib_a-mallocr.o)
 .debug_frame   0x000005e0       0x20 /OPT/altera/12.1/nios2eds/bin/gnu/H-i686-pc-linux-gnu/bin/../lib/gcc/nios2-elf/4.1.2/../../../../nios2-elf/lib/libc.a(lib_a-memchr.o)
 .debug_frame   0x00000600       0x20 /OPT/altera/12.1/nios2eds/bin/gnu/H-i686-pc-linux-gnu/bin/../lib/gcc/nios2-elf/4.1.2/../../../../nios2-elf/lib/libc.a(lib_a-memcpy.o)
 .debug_frame   0x00000620       0x20 /OPT/altera/12.1/nios2eds/bin/gnu/H-i686-pc-linux-gnu/bin/../lib/gcc/nios2-elf/4.1.2/../../../../nios2-elf/lib/libc.a(lib_a-memmove.o)
 .debug_frame   0x00000640       0x38 /OPT/altera/12.1/nios2eds/bin/gnu/H-i686-pc-linux-gnu/bin/../lib/gcc/nios2-elf/4.1.2/../../../../nios2-elf/lib/libc.a(lib_a-reallocr.o)
 .debug_frame   0x00000678       0x2c /OPT/altera/12.1/nios2eds/bin/gnu/H-i686-pc-linux-gnu/bin/../lib/gcc/nios2-elf/4.1.2/../../../../nios2-elf/lib/libc.a(lib_a-sbrkr.o)
 .debug_frame   0x000006a4       0x2c /OPT/altera/12.1/nios2eds/bin/gnu/H-i686-pc-linux-gnu/bin/../lib/gcc/nios2-elf/4.1.2/../../../../nios2-elf/lib/libc.a(lib_a-wsetup.o)
 .debug_frame   0x000006d0       0x40 /OPT/altera/12.1/nios2eds/bin/gnu/H-i686-pc-linux-gnu/bin/../lib/gcc/nios2-elf/4.1.2/../../../../nios2-elf/lib/libc.a(lib_a-fflush.o)
 .debug_frame   0x00000710      0x118 /OPT/altera/12.1/nios2eds/bin/gnu/H-i686-pc-linux-gnu/bin/../lib/gcc/nios2-elf/4.1.2/../../../../nios2-elf/lib/libc.a(lib_a-findfp.o)
 .debug_frame   0x00000828       0x4c /OPT/altera/12.1/nios2eds/bin/gnu/H-i686-pc-linux-gnu/bin/../lib/gcc/nios2-elf/4.1.2/../../../../nios2-elf/lib/libc.a(lib_a-freer.o)
 .debug_frame   0x00000874       0x60 /OPT/altera/12.1/nios2eds/bin/gnu/H-i686-pc-linux-gnu/bin/../lib/gcc/nios2-elf/4.1.2/../../../../nios2-elf/lib/libc.a(lib_a-fwalk.o)
 .debug_frame   0x000008d4       0x2c /OPT/altera/12.1/nios2eds/bin/gnu/H-i686-pc-linux-gnu/bin/../lib/gcc/nios2-elf/4.1.2/../../../../nios2-elf/lib/libc.a(lib_a-makebuf.o)
 .debug_frame   0x00000900       0x20 /OPT/altera/12.1/nios2eds/bin/gnu/H-i686-pc-linux-gnu/bin/../lib/gcc/nios2-elf/4.1.2/../../../../nios2-elf/lib/libc.a(lib_a-memset.o)
 .debug_frame   0x00000920       0x78 /OPT/altera/12.1/nios2eds/bin/gnu/H-i686-pc-linux-gnu/bin/../lib/gcc/nios2-elf/4.1.2/../../../../nios2-elf/lib/libc.a(lib_a-stdio.o)
 .debug_frame   0x00000998       0x2c /OPT/altera/12.1/nios2eds/bin/gnu/H-i686-pc-linux-gnu/bin/../lib/gcc/nios2-elf/4.1.2/../../../../nios2-elf/lib/libc.a(lib_a-writer.o)
 .debug_frame   0x000009c4       0x2c /OPT/altera/12.1/nios2eds/bin/gnu/H-i686-pc-linux-gnu/bin/../lib/gcc/nios2-elf/4.1.2/../../../../nios2-elf/lib/libc.a(lib_a-closer.o)
 .debug_frame   0x000009f0       0x3c /OPT/altera/12.1/nios2eds/bin/gnu/H-i686-pc-linux-gnu/bin/../lib/gcc/nios2-elf/4.1.2/../../../../nios2-elf/lib/libc.a(lib_a-fclose.o)
 .debug_frame   0x00000a2c       0x2c /OPT/altera/12.1/nios2eds/bin/gnu/H-i686-pc-linux-gnu/bin/../lib/gcc/nios2-elf/4.1.2/../../../../nios2-elf/lib/libc.a(lib_a-fstatr.o)
 .debug_frame   0x00000a58       0x2c /OPT/altera/12.1/nios2eds/bin/gnu/H-i686-pc-linux-gnu/bin/../lib/gcc/nios2-elf/4.1.2/../../../../nios2-elf/lib/libc.a(lib_a-isattyr.o)
 .debug_frame   0x00000a84       0x2c /OPT/altera/12.1/nios2eds/bin/gnu/H-i686-pc-linux-gnu/bin/../lib/gcc/nios2-elf/4.1.2/../../../../nios2-elf/lib/libc.a(lib_a-lseekr.o)
 .debug_frame   0x00000ab0       0x2c /OPT/altera/12.1/nios2eds/bin/gnu/H-i686-pc-linux-gnu/bin/../lib/gcc/nios2-elf/4.1.2/../../../../nios2-elf/lib/libc.a(lib_a-readr.o)
 .debug_frame   0x00000adc       0x48 ../audioTest_bsp//libucosii_bsp.a(alt_close.o)
 .debug_frame   0x00000b24       0x2c ../audioTest_bsp//libucosii_bsp.a(alt_dev.o)
 .debug_frame   0x00000b50       0x48 ../audioTest_bsp//libucosii_bsp.a(alt_fstat.o)
 .debug_frame   0x00000b98       0x48 ../audioTest_bsp//libucosii_bsp.a(alt_isatty.o)
 .debug_frame   0x00000be0       0x48 ../audioTest_bsp//libucosii_bsp.a(alt_load.o)
 .debug_frame   0x00000c28       0x48 ../audioTest_bsp//libucosii_bsp.a(alt_lseek.o)
 .debug_frame   0x00000c70       0x2c ../audioTest_bsp//libucosii_bsp.a(alt_main.o)
 .debug_frame   0x00000c9c       0x48 ../audioTest_bsp//libucosii_bsp.a(alt_read.o)
 .debug_frame   0x00000ce4       0x2c ../audioTest_bsp//libucosii_bsp.a(alt_release_fd.o)
 .debug_frame   0x00000d10       0x2c ../audioTest_bsp//libucosii_bsp.a(alt_sbrk.o)
 .debug_frame   0x00000d3c       0x48 ../audioTest_bsp//libucosii_bsp.a(alt_write.o)
 .debug_frame   0x00000d84       0x4c ../audioTest_bsp//libucosii_bsp.a(alt_env_lock.o)
 .debug_frame   0x00000dd0       0x4c ../audioTest_bsp//libucosii_bsp.a(alt_malloc_lock.o)
 .debug_frame   0x00000e1c      0x3e4 ../audioTest_bsp//libucosii_bsp.a(os_core.o)
 .debug_frame   0x00001200       0x2c ../audioTest_bsp//libucosii_bsp.a(os_dbg.o)
 .debug_frame   0x0000122c      0x180 ../audioTest_bsp//libucosii_bsp.a(os_flag.o)
 .debug_frame   0x000013ac       0xd4 ../audioTest_bsp//libucosii_bsp.a(os_mem.o)
 .debug_frame   0x00001480      0x144 ../audioTest_bsp//libucosii_bsp.a(os_q.o)
 .debug_frame   0x000015c4       0xf0 ../audioTest_bsp//libucosii_bsp.a(os_sem.o)
 .debug_frame   0x000016b4      0x160 ../audioTest_bsp//libucosii_bsp.a(os_task.o)
 .debug_frame   0x00001814       0xa0 ../audioTest_bsp//libucosii_bsp.a(os_time.o)
 .debug_frame   0x000018b4       0x64 ../audioTest_bsp//libucosii_bsp.a(alt_sys_init.o)
 .debug_frame   0x00001918       0x80 ../audioTest_bsp//libucosii_bsp.a(altera_avalon_jtag_uart_fd.o)
 .debug_frame   0x00001998       0x80 ../audioTest_bsp//libucosii_bsp.a(altera_avalon_jtag_uart_init.o)
 .debug_frame   0x00001a18       0x2c ../audioTest_bsp//libucosii_bsp.a(altera_avalon_jtag_uart_ioctl.o)
 .debug_frame   0x00001a44       0x2c ../audioTest_bsp//libucosii_bsp.a(altera_avalon_jtag_uart_read.o)
 .debug_frame   0x00001a70       0x2c ../audioTest_bsp//libucosii_bsp.a(altera_avalon_jtag_uart_write.o)
 .debug_frame   0x00001a9c       0x48 ../audioTest_bsp//libucosii_bsp.a(altera_avalon_timer_sc.o)
 .debug_frame   0x00001ae4      0x208 ../audioTest_bsp//libucosii_bsp.a(altera_up_avalon_audio.o)
 .debug_frame   0x00001cec      0x1ec ../audioTest_bsp//libucosii_bsp.a(altera_up_avalon_audio_and_video_config.o)
 .debug_frame   0x00001ed8      0x17c ../audioTest_bsp//libucosii_bsp.a(altera_up_avalon_character_lcd.o)
 .debug_frame   0x00002054       0x2c ../audioTest_bsp//libucosii_bsp.a(alt_alarm_start.o)
 .debug_frame   0x00002080       0x2c ../audioTest_bsp//libucosii_bsp.a(alt_dcache_flush_all.o)
 .debug_frame   0x000020ac       0x48 ../audioTest_bsp//libucosii_bsp.a(alt_dev_llist_insert.o)
 .debug_frame   0x000020f4       0x2c ../audioTest_bsp//libucosii_bsp.a(alt_do_ctors.o)
 .debug_frame   0x00002120       0x2c ../audioTest_bsp//libucosii_bsp.a(alt_do_dtors.o)
 .debug_frame   0x0000214c       0x2c ../audioTest_bsp//libucosii_bsp.a(alt_find_dev.o)
 .debug_frame   0x00002178       0x2c ../audioTest_bsp//libucosii_bsp.a(alt_icache_flush_all.o)
 .debug_frame   0x000021a4       0x48 ../audioTest_bsp//libucosii_bsp.a(alt_io_redirect.o)
 .debug_frame   0x000021ec       0x2c ../audioTest_bsp//libucosii_bsp.a(alt_irq_register.o)
 .debug_frame   0x00002218       0x64 ../audioTest_bsp//libucosii_bsp.a(alt_open.o)
 .debug_frame   0x0000227c       0x48 ../audioTest_bsp//libucosii_bsp.a(alt_tick.o)
 .debug_frame   0x000022c4       0x2c ../audioTest_bsp//libucosii_bsp.a(altera_nios2_qsys_irq.o)
 .debug_frame   0x000022f0      0x128 ../audioTest_bsp//libucosii_bsp.a(os_cpu_c.o)
 .debug_frame   0x00002418       0x2c ../audioTest_bsp//libucosii_bsp.a(alt_find_file.o)
 .debug_frame   0x00002444       0x2c ../audioTest_bsp//libucosii_bsp.a(alt_get_fd.o)
 .debug_frame   0x00002470       0x2c ../audioTest_bsp//libucosii_bsp.a(alt_icache_flush.o)
 .debug_frame   0x0000249c       0x2c ../audioTest_bsp//libucosii_bsp.a(alt_irq_handler.o)
 .debug_frame   0x000024c8       0x20 /OPT/altera/12.1/nios2eds/bin/gnu/H-i686-pc-linux-gnu/bin/../lib/gcc/nios2-elf/4.1.2/../../../../nios2-elf/lib/libc.a(lib_a-atexit.o)
 .debug_frame   0x000024e8       0x28 /OPT/altera/12.1/nios2eds/bin/gnu/H-i686-pc-linux-gnu/bin/../lib/gcc/nios2-elf/4.1.2/../../../../nios2-elf/lib/libc.a(lib_a-exit.o)
 .debug_frame   0x00002510       0x20 /OPT/altera/12.1/nios2eds/bin/gnu/H-i686-pc-linux-gnu/bin/../lib/gcc/nios2-elf/4.1.2/../../../../nios2-elf/lib/libc.a(lib_a-memcmp.o)
 .debug_frame   0x00002530       0x34 /OPT/altera/12.1/nios2eds/bin/gnu/H-i686-pc-linux-gnu/bin/../lib/gcc/nios2-elf/4.1.2/../../../../nios2-elf/lib/libc.a(lib_a-__atexit.o)
 .debug_frame   0x00002564       0x4c /OPT/altera/12.1/nios2eds/bin/gnu/H-i686-pc-linux-gnu/bin/../lib/gcc/nios2-elf/4.1.2/../../../../nios2-elf/lib/libc.a(lib_a-__call_atexit.o)
 .debug_frame   0x000025b0       0x48 ../audioTest_bsp//libucosii_bsp.a(alt_exit.o)

.debug_str      0x00000000     0x219a
 *(.debug_str)
 .debug_str     0x00000000       0x38 obj/default/hello_ucosii.o
 .debug_str     0x00000038      0x139 /OPT/altera/12.1/nios2eds/bin/gnu/H-i686-pc-linux-gnu/bin/../lib/gcc/nios2-elf/4.1.2/../../../../nios2-elf/lib/libm.a(lib_a-s_sin.o)
                                0x17f (size before relaxing)
 .debug_str     0x00000171       0xd6 /OPT/altera/12.1/nios2eds/bin/gnu/H-i686-pc-linux-gnu/bin/../lib/gcc/nios2-elf/4.1.2/../../../../nios2-elf/lib/libm.a(lib_a-e_rem_pio2.o)
                                0x22e (size before relaxing)
 .debug_str     0x00000247       0x4a /OPT/altera/12.1/nios2eds/bin/gnu/H-i686-pc-linux-gnu/bin/../lib/gcc/nios2-elf/4.1.2/../../../../nios2-elf/lib/libm.a(lib_a-k_cos.o)
                                0x1bf (size before relaxing)
 .debug_str     0x00000291       0x7e /OPT/altera/12.1/nios2eds/bin/gnu/H-i686-pc-linux-gnu/bin/../lib/gcc/nios2-elf/4.1.2/../../../../nios2-elf/lib/libm.a(lib_a-k_rem_pio2.o)
                                0x1d0 (size before relaxing)
 .debug_str     0x0000030f       0x45 /OPT/altera/12.1/nios2eds/bin/gnu/H-i686-pc-linux-gnu/bin/../lib/gcc/nios2-elf/4.1.2/../../../../nios2-elf/lib/libm.a(lib_a-k_sin.o)
                                0x191 (size before relaxing)
 .debug_str     0x00000354       0x3e /OPT/altera/12.1/nios2eds/bin/gnu/H-i686-pc-linux-gnu/bin/../lib/gcc/nios2-elf/4.1.2/../../../../nios2-elf/lib/libm.a(lib_a-s_fabs.o)
                                0x1b3 (size before relaxing)
 .debug_str     0x00000392       0x4a /OPT/altera/12.1/nios2eds/bin/gnu/H-i686-pc-linux-gnu/bin/../lib/gcc/nios2-elf/4.1.2/../../../../nios2-elf/lib/libm.a(lib_a-s_floor.o)
                                0x1c4 (size before relaxing)
 .debug_str     0x000003dc       0xe7 /OPT/altera/12.1/nios2eds/bin/gnu/H-i686-pc-linux-gnu/bin/../lib/gcc/nios2-elf/4.1.2/../../../../nios2-elf/lib/libm.a(lib_a-s_scalbn.o)
                                0x1e1 (size before relaxing)
 .debug_str     0x000004c3       0x48 /OPT/altera/12.1/nios2eds/bin/gnu/H-i686-pc-linux-gnu/bin/../lib/gcc/nios2-elf/4.1.2/../../../../nios2-elf/lib/libm.a(lib_a-s_copysign.o)
                                0x1ba (size before relaxing)
 .debug_str     0x0000050b       0xce /OPT/altera/12.1/nios2eds/bin/gnu/H-i686-pc-linux-gnu/bin/../lib/gcc/nios2-elf/4.1.2/libgcc.a(_fixunsdfsi.o)
                                0x170 (size before relaxing)
 .debug_str     0x000005d9      0x13d /OPT/altera/12.1/nios2eds/bin/gnu/H-i686-pc-linux-gnu/bin/../lib/gcc/nios2-elf/4.1.2/libgcc.a(_addsub_df.o)
                                0x274 (size before relaxing)
 .debug_str     0x00000716       0x40 /OPT/altera/12.1/nios2eds/bin/gnu/H-i686-pc-linux-gnu/bin/../lib/gcc/nios2-elf/4.1.2/libgcc.a(_mul_df.o)
                                0x246 (size before relaxing)
 .debug_str     0x00000756       0x35 /OPT/altera/12.1/nios2eds/bin/gnu/H-i686-pc-linux-gnu/bin/../lib/gcc/nios2-elf/4.1.2/libgcc.a(_div_df.o)
                                0x236 (size before relaxing)
 .debug_str     0x0000078b        0x8 /OPT/altera/12.1/nios2eds/bin/gnu/H-i686-pc-linux-gnu/bin/../lib/gcc/nios2-elf/4.1.2/libgcc.a(_eq_df.o)
                                0x203 (size before relaxing)
 .debug_str     0x00000793        0x8 /OPT/altera/12.1/nios2eds/bin/gnu/H-i686-pc-linux-gnu/bin/../lib/gcc/nios2-elf/4.1.2/libgcc.a(_gt_df.o)
                                0x203 (size before relaxing)
 .debug_str     0x0000079b        0x8 /OPT/altera/12.1/nios2eds/bin/gnu/H-i686-pc-linux-gnu/bin/../lib/gcc/nios2-elf/4.1.2/libgcc.a(_ge_df.o)
                                0x203 (size before relaxing)
 .debug_str     0x000007a3       0x1e /OPT/altera/12.1/nios2eds/bin/gnu/H-i686-pc-linux-gnu/bin/../lib/gcc/nios2-elf/4.1.2/libgcc.a(_si_to_df.o)
                                0x1e3 (size before relaxing)
 .debug_str     0x000007c1        0xa /OPT/altera/12.1/nios2eds/bin/gnu/H-i686-pc-linux-gnu/bin/../lib/gcc/nios2-elf/4.1.2/libgcc.a(_df_to_si.o)
                                0x20c (size before relaxing)
 .debug_str     0x00000000      0x1a8 /OPT/altera/12.1/nios2eds/bin/gnu/H-i686-pc-linux-gnu/bin/../lib/gcc/nios2-elf/4.1.2/libgcc.a(_thenan_df.o)
 .debug_str     0x000007cb       0x76 /OPT/altera/12.1/nios2eds/bin/gnu/H-i686-pc-linux-gnu/bin/../lib/gcc/nios2-elf/4.1.2/libgcc.a(lib2-divmod.o)
                                0x1b9 (size before relaxing)
 .debug_str     0x00000841       0x42 /OPT/altera/12.1/nios2eds/bin/gnu/H-i686-pc-linux-gnu/bin/../lib/gcc/nios2-elf/4.1.2/libgcc.a(_muldi3.o)
                                0x1b1 (size before relaxing)
 .debug_str     0x00000883       0x20 /OPT/altera/12.1/nios2eds/bin/gnu/H-i686-pc-linux-gnu/bin/../lib/gcc/nios2-elf/4.1.2/libgcc.a(_clzsi2.o)
                                0x183 (size before relaxing)
 .debug_str     0x000008a3       0x10 /OPT/altera/12.1/nios2eds/bin/gnu/H-i686-pc-linux-gnu/bin/../lib/gcc/nios2-elf/4.1.2/libgcc.a(_pack_df.o)
                                0x20b (size before relaxing)
 .debug_str     0x000008b3        0xb /OPT/altera/12.1/nios2eds/bin/gnu/H-i686-pc-linux-gnu/bin/../lib/gcc/nios2-elf/4.1.2/libgcc.a(_unpack_df.o)
                                0x1ed (size before relaxing)
 .debug_str     0x000008be       0x10 /OPT/altera/12.1/nios2eds/bin/gnu/H-i686-pc-linux-gnu/bin/../lib/gcc/nios2-elf/4.1.2/libgcc.a(_fpcmp_parts_df.o)
                                0x1cb (size before relaxing)
 .debug_str     0x00000000      0x166 /OPT/altera/12.1/nios2eds/bin/gnu/H-i686-pc-linux-gnu/bin/../lib/gcc/nios2-elf/4.1.2/libgcc.a(_clz.o)
 .debug_str     0x000008ce      0x478 /OPT/altera/12.1/nios2eds/bin/gnu/H-i686-pc-linux-gnu/bin/../lib/gcc/nios2-elf/4.1.2/../../../../nios2-elf/lib/libc.a(lib_a-puts.o)
                                0x54e (size before relaxing)
 .debug_str     0x00000d46       0xe0 /OPT/altera/12.1/nios2eds/bin/gnu/H-i686-pc-linux-gnu/bin/../lib/gcc/nios2-elf/4.1.2/../../../../nios2-elf/lib/libc.a(lib_a-strlen.o)
                                0x182 (size before relaxing)
 .debug_str     0x00000e26       0x66 /OPT/altera/12.1/nios2eds/bin/gnu/H-i686-pc-linux-gnu/bin/../lib/gcc/nios2-elf/4.1.2/../../../../nios2-elf/lib/libc.a(lib_a-fvwrite.o)
                                0x568 (size before relaxing)
 .debug_str     0x00000e8c       0xe9 /OPT/altera/12.1/nios2eds/bin/gnu/H-i686-pc-linux-gnu/bin/../lib/gcc/nios2-elf/4.1.2/../../../../nios2-elf/lib/libc.a(lib_a-impure.o)
                                0x51f (size before relaxing)
 .debug_str     0x00000f75      0x29f /OPT/altera/12.1/nios2eds/bin/gnu/H-i686-pc-linux-gnu/bin/../lib/gcc/nios2-elf/4.1.2/../../../../nios2-elf/lib/libc.a(lib_a-mallocr.o)
                                0x6f6 (size before relaxing)
 .debug_str     0x00001214       0x63 /OPT/altera/12.1/nios2eds/bin/gnu/H-i686-pc-linux-gnu/bin/../lib/gcc/nios2-elf/4.1.2/../../../../nios2-elf/lib/libc.a(lib_a-memchr.o)
                                0x190 (size before relaxing)
 .debug_str     0x00001277       0x69 /OPT/altera/12.1/nios2eds/bin/gnu/H-i686-pc-linux-gnu/bin/../lib/gcc/nios2-elf/4.1.2/../../../../nios2-elf/lib/libc.a(lib_a-memcpy.o)
                                0x12d (size before relaxing)
 .debug_str     0x000012e0       0x4d /OPT/altera/12.1/nios2eds/bin/gnu/H-i686-pc-linux-gnu/bin/../lib/gcc/nios2-elf/4.1.2/../../../../nios2-elf/lib/libc.a(lib_a-memmove.o)
                                0x1a2 (size before relaxing)
 .debug_str     0x0000132d       0x59 /OPT/altera/12.1/nios2eds/bin/gnu/H-i686-pc-linux-gnu/bin/../lib/gcc/nios2-elf/4.1.2/../../../../nios2-elf/lib/libc.a(lib_a-reallocr.o)
                                0x5c8 (size before relaxing)
 .debug_str     0x00001386       0x50 /OPT/altera/12.1/nios2eds/bin/gnu/H-i686-pc-linux-gnu/bin/../lib/gcc/nios2-elf/4.1.2/../../../../nios2-elf/lib/libc.a(lib_a-sbrkr.o)
                                0x510 (size before relaxing)
 .debug_str     0x000013d6       0x46 /OPT/altera/12.1/nios2eds/bin/gnu/H-i686-pc-linux-gnu/bin/../lib/gcc/nios2-elf/4.1.2/../../../../nios2-elf/lib/libc.a(lib_a-wsetup.o)
                                0x511 (size before relaxing)
 .debug_str     0x0000141c       0x52 /OPT/altera/12.1/nios2eds/bin/gnu/H-i686-pc-linux-gnu/bin/../lib/gcc/nios2-elf/4.1.2/../../../../nios2-elf/lib/libc.a(lib_a-fflush.o)
                                0x537 (size before relaxing)
 .debug_str     0x0000146e      0x102 /OPT/altera/12.1/nios2eds/bin/gnu/H-i686-pc-linux-gnu/bin/../lib/gcc/nios2-elf/4.1.2/../../../../nios2-elf/lib/libc.a(lib_a-findfp.o)
                                0x5f9 (size before relaxing)
 .debug_str     0x00001570       0x3c /OPT/altera/12.1/nios2eds/bin/gnu/H-i686-pc-linux-gnu/bin/../lib/gcc/nios2-elf/4.1.2/../../../../nios2-elf/lib/libc.a(lib_a-freer.o)
                                0x648 (size before relaxing)
 .debug_str     0x000015ac       0x5e /OPT/altera/12.1/nios2eds/bin/gnu/H-i686-pc-linux-gnu/bin/../lib/gcc/nios2-elf/4.1.2/../../../../nios2-elf/lib/libc.a(lib_a-fwalk.o)
                                0x53a (size before relaxing)
 .debug_str     0x0000160a       0x3d /OPT/altera/12.1/nios2eds/bin/gnu/H-i686-pc-linux-gnu/bin/../lib/gcc/nios2-elf/4.1.2/../../../../nios2-elf/lib/libc.a(lib_a-int_errno.o)
                                0x168 (size before relaxing)
 .debug_str     0x00001647      0x123 /OPT/altera/12.1/nios2eds/bin/gnu/H-i686-pc-linux-gnu/bin/../lib/gcc/nios2-elf/4.1.2/../../../../nios2-elf/lib/libc.a(lib_a-makebuf.o)
                                0x60b (size before relaxing)
 .debug_str     0x0000176a       0x42 /OPT/altera/12.1/nios2eds/bin/gnu/H-i686-pc-linux-gnu/bin/../lib/gcc/nios2-elf/4.1.2/../../../../nios2-elf/lib/libc.a(lib_a-memset.o)
                                0x183 (size before relaxing)
 .debug_str     0x000017ac       0x62 /OPT/altera/12.1/nios2eds/bin/gnu/H-i686-pc-linux-gnu/bin/../lib/gcc/nios2-elf/4.1.2/../../../../nios2-elf/lib/libc.a(lib_a-stdio.o)
                                0x536 (size before relaxing)
 .debug_str     0x0000180e       0x4c /OPT/altera/12.1/nios2eds/bin/gnu/H-i686-pc-linux-gnu/bin/../lib/gcc/nios2-elf/4.1.2/../../../../nios2-elf/lib/libc.a(lib_a-writer.o)
                                0x513 (size before relaxing)
 .debug_str     0x0000185a       0x43 /OPT/altera/12.1/nios2eds/bin/gnu/H-i686-pc-linux-gnu/bin/../lib/gcc/nios2-elf/4.1.2/../../../../nios2-elf/lib/libc.a(lib_a-closer.o)
                                0x503 (size before relaxing)
 .debug_str     0x0000189d       0x50 /OPT/altera/12.1/nios2eds/bin/gnu/H-i686-pc-linux-gnu/bin/../lib/gcc/nios2-elf/4.1.2/../../../../nios2-elf/lib/libc.a(lib_a-fclose.o)
                                0x51b (size before relaxing)
 .debug_str     0x000018ed       0x49 /OPT/altera/12.1/nios2eds/bin/gnu/H-i686-pc-linux-gnu/bin/../lib/gcc/nios2-elf/4.1.2/../../../../nios2-elf/lib/libc.a(lib_a-fstatr.o)
                                0x5f6 (size before relaxing)
 .debug_str     0x00001936       0x45 /OPT/altera/12.1/nios2eds/bin/gnu/H-i686-pc-linux-gnu/bin/../lib/gcc/nios2-elf/4.1.2/../../../../nios2-elf/lib/libc.a(lib_a-isattyr.o)
                                0x505 (size before relaxing)
 .debug_str     0x0000197b       0x43 /OPT/altera/12.1/nios2eds/bin/gnu/H-i686-pc-linux-gnu/bin/../lib/gcc/nios2-elf/4.1.2/../../../../nios2-elf/lib/libc.a(lib_a-lseekr.o)
                                0x511 (size before relaxing)
 .debug_str     0x000019be       0x41 /OPT/altera/12.1/nios2eds/bin/gnu/H-i686-pc-linux-gnu/bin/../lib/gcc/nios2-elf/4.1.2/../../../../nios2-elf/lib/libc.a(lib_a-readr.o)
                                0x511 (size before relaxing)
 .debug_str     0x000019ff       0x12 ../audioTest_bsp//libucosii_bsp.a(alt_close.o)
 .debug_str     0x00001a11       0x12 ../audioTest_bsp//libucosii_bsp.a(alt_dev.o)
 .debug_str     0x00001a23       0x12 ../audioTest_bsp//libucosii_bsp.a(alt_errno.o)
 .debug_str     0x00001a35       0x12 ../audioTest_bsp//libucosii_bsp.a(alt_fstat.o)
 .debug_str     0x00001a47       0x12 ../audioTest_bsp//libucosii_bsp.a(alt_isatty.o)
 .debug_str     0x00001a59       0x12 ../audioTest_bsp//libucosii_bsp.a(alt_load.o)
 .debug_str     0x00001a6b       0x12 ../audioTest_bsp//libucosii_bsp.a(alt_lseek.o)
 .debug_str     0x00001a7d       0x12 ../audioTest_bsp//libucosii_bsp.a(alt_main.o)
 .debug_str     0x00001a8f       0x12 ../audioTest_bsp//libucosii_bsp.a(alt_read.o)
 .debug_str     0x00001aa1       0x12 ../audioTest_bsp//libucosii_bsp.a(alt_release_fd.o)
 .debug_str     0x00001ab3       0x1a ../audioTest_bsp//libucosii_bsp.a(alt_sbrk.o)
 .debug_str     0x00001acd       0x12 ../audioTest_bsp//libucosii_bsp.a(alt_write.o)
 .debug_str     0x00001adf       0x36 ../audioTest_bsp//libucosii_bsp.a(alt_env_lock.o)
 .debug_str     0x00001b15       0x36 ../audioTest_bsp//libucosii_bsp.a(alt_malloc_lock.o)
 .debug_str     0x00001b4b       0x46 ../audioTest_bsp//libucosii_bsp.a(os_core.o)
 .debug_str     0x00001b91       0x2b ../audioTest_bsp//libucosii_bsp.a(os_dbg.o)
 .debug_str     0x00001bbc       0x4e ../audioTest_bsp//libucosii_bsp.a(os_flag.o)
 .debug_str     0x00001c0a       0x2c ../audioTest_bsp//libucosii_bsp.a(os_mem.o)
 .debug_str     0x00001c36       0x36 ../audioTest_bsp//libucosii_bsp.a(os_q.o)
 .debug_str     0x00001c6c       0x36 ../audioTest_bsp//libucosii_bsp.a(os_sem.o)
 .debug_str     0x00001ca2       0x23 ../audioTest_bsp//libucosii_bsp.a(os_task.o)
 .debug_str     0x00001cc5       0x1f ../audioTest_bsp//libucosii_bsp.a(os_time.o)
 .debug_str     0x00001ce4       0x51 ../audioTest_bsp//libucosii_bsp.a(alt_sys_init.o)
 .debug_str     0x00001d35       0x12 ../audioTest_bsp//libucosii_bsp.a(altera_avalon_jtag_uart_fd.o)
 .debug_str     0x00001d47       0x1a ../audioTest_bsp//libucosii_bsp.a(altera_avalon_jtag_uart_init.o)
 .debug_str     0x00001d61       0x12 ../audioTest_bsp//libucosii_bsp.a(altera_avalon_jtag_uart_ioctl.o)
 .debug_str     0x00001d73       0x22 ../audioTest_bsp//libucosii_bsp.a(altera_avalon_jtag_uart_read.o)
 .debug_str     0x00001d95       0x22 ../audioTest_bsp//libucosii_bsp.a(altera_avalon_jtag_uart_write.o)
 .debug_str     0x00001db7       0x12 ../audioTest_bsp//libucosii_bsp.a(altera_avalon_timer_sc.o)
 .debug_str     0x00001dc9       0x4f ../audioTest_bsp//libucosii_bsp.a(altera_up_avalon_audio.o)
 .debug_str     0x00001e18       0x46 ../audioTest_bsp//libucosii_bsp.a(altera_up_avalon_audio_and_video_config.o)
 .debug_str     0x00001e5e       0x55 ../audioTest_bsp//libucosii_bsp.a(altera_up_avalon_character_lcd.o)
 .debug_str     0x00001eb3       0x23 ../audioTest_bsp//libucosii_bsp.a(alt_alarm_start.o)
 .debug_str     0x00001ed6       0x12 ../audioTest_bsp//libucosii_bsp.a(alt_dcache_flush_all.o)
 .debug_str     0x00001ee8       0x12 ../audioTest_bsp//libucosii_bsp.a(alt_dev_llist_insert.o)
 .debug_str     0x00001efa       0x12 ../audioTest_bsp//libucosii_bsp.a(alt_find_dev.o)
 .debug_str     0x00001f0c       0x12 ../audioTest_bsp//libucosii_bsp.a(alt_icache_flush_all.o)
 .debug_str     0x00001f1e       0x12 ../audioTest_bsp//libucosii_bsp.a(alt_io_redirect.o)
 .debug_str     0x00001f30       0x21 ../audioTest_bsp//libucosii_bsp.a(alt_irq_register.o)
 .debug_str     0x00001f51       0x12 ../audioTest_bsp//libucosii_bsp.a(alt_open.o)
 .debug_str     0x00001f63       0x1a ../audioTest_bsp//libucosii_bsp.a(alt_tick.o)
 .debug_str     0x00001f7d       0x12 ../audioTest_bsp//libucosii_bsp.a(altera_nios2_qsys_irq.o)
 .debug_str     0x00001f8f       0x20 ../audioTest_bsp//libucosii_bsp.a(os_cpu_c.o)
 .debug_str     0x00001faf       0x12 ../audioTest_bsp//libucosii_bsp.a(alt_find_file.o)
 .debug_str     0x00001fc1       0x12 ../audioTest_bsp//libucosii_bsp.a(alt_get_fd.o)
 .debug_str     0x00001fd3       0x12 ../audioTest_bsp//libucosii_bsp.a(alt_icache_flush.o)
 .debug_str     0x00001fe5       0x12 ../audioTest_bsp//libucosii_bsp.a(alt_irq_handler.o)
 .debug_str     0x00001ff7       0x3b /OPT/altera/12.1/nios2eds/bin/gnu/H-i686-pc-linux-gnu/bin/../lib/gcc/nios2-elf/4.1.2/../../../../nios2-elf/lib/libc.a(lib_a-atexit.o)
                                0x1c4 (size before relaxing)
 .debug_str     0x00002032       0x3e /OPT/altera/12.1/nios2eds/bin/gnu/H-i686-pc-linux-gnu/bin/../lib/gcc/nios2-elf/4.1.2/../../../../nios2-elf/lib/libc.a(lib_a-exit.o)
                                0x511 (size before relaxing)
 .debug_str     0x00002070       0x42 /OPT/altera/12.1/nios2eds/bin/gnu/H-i686-pc-linux-gnu/bin/../lib/gcc/nios2-elf/4.1.2/../../../../nios2-elf/lib/libc.a(lib_a-memcmp.o)
                                0x16f (size before relaxing)
 .debug_str     0x000020b2       0x51 /OPT/altera/12.1/nios2eds/bin/gnu/H-i686-pc-linux-gnu/bin/../lib/gcc/nios2-elf/4.1.2/../../../../nios2-elf/lib/libc.a(lib_a-__atexit.o)
                                0x529 (size before relaxing)
 .debug_str     0x00002103       0x7b /OPT/altera/12.1/nios2eds/bin/gnu/H-i686-pc-linux-gnu/bin/../lib/gcc/nios2-elf/4.1.2/../../../../nios2-elf/lib/libc.a(lib_a-__call_atexit.o)
                                0x553 (size before relaxing)
 .debug_str     0x0000217e       0x1c ../audioTest_bsp//libucosii_bsp.a(alt_exit.o)

.debug_loc      0x00000000     0x8018
 *(.debug_loc)
 .debug_loc     0x00000000       0x57 obj/default/hello_ucosii.o
 .debug_loc     0x00000057       0x90 /OPT/altera/12.1/nios2eds/bin/gnu/H-i686-pc-linux-gnu/bin/../lib/gcc/nios2-elf/4.1.2/../../../../nios2-elf/lib/libm.a(lib_a-s_sin.o)
 .debug_loc     0x000000e7      0x33c /OPT/altera/12.1/nios2eds/bin/gnu/H-i686-pc-linux-gnu/bin/../lib/gcc/nios2-elf/4.1.2/../../../../nios2-elf/lib/libm.a(lib_a-e_rem_pio2.o)
 .debug_loc     0x00000423      0x18c /OPT/altera/12.1/nios2eds/bin/gnu/H-i686-pc-linux-gnu/bin/../lib/gcc/nios2-elf/4.1.2/../../../../nios2-elf/lib/libm.a(lib_a-k_cos.o)
 .debug_loc     0x000005af      0xc76 /OPT/altera/12.1/nios2eds/bin/gnu/H-i686-pc-linux-gnu/bin/../lib/gcc/nios2-elf/4.1.2/../../../../nios2-elf/lib/libm.a(lib_a-k_rem_pio2.o)
 .debug_loc     0x00001225       0xbe /OPT/altera/12.1/nios2eds/bin/gnu/H-i686-pc-linux-gnu/bin/../lib/gcc/nios2-elf/4.1.2/../../../../nios2-elf/lib/libm.a(lib_a-k_sin.o)
 .debug_loc     0x000012e3      0x221 /OPT/altera/12.1/nios2eds/bin/gnu/H-i686-pc-linux-gnu/bin/../lib/gcc/nios2-elf/4.1.2/../../../../nios2-elf/lib/libm.a(lib_a-s_floor.o)
 .debug_loc     0x00001504      0x228 /OPT/altera/12.1/nios2eds/bin/gnu/H-i686-pc-linux-gnu/bin/../lib/gcc/nios2-elf/4.1.2/../../../../nios2-elf/lib/libm.a(lib_a-s_scalbn.o)
 .debug_loc     0x0000172c       0x87 /OPT/altera/12.1/nios2eds/bin/gnu/H-i686-pc-linux-gnu/bin/../lib/gcc/nios2-elf/4.1.2/libgcc.a(_fixunsdfsi.o)
 .debug_loc     0x000017b3      0x47a /OPT/altera/12.1/nios2eds/bin/gnu/H-i686-pc-linux-gnu/bin/../lib/gcc/nios2-elf/4.1.2/libgcc.a(_addsub_df.o)
 .debug_loc     0x00001c2d      0x3b4 /OPT/altera/12.1/nios2eds/bin/gnu/H-i686-pc-linux-gnu/bin/../lib/gcc/nios2-elf/4.1.2/libgcc.a(_mul_df.o)
 .debug_loc     0x00001fe1      0x1df /OPT/altera/12.1/nios2eds/bin/gnu/H-i686-pc-linux-gnu/bin/../lib/gcc/nios2-elf/4.1.2/libgcc.a(_div_df.o)
 .debug_loc     0x000021c0       0x70 /OPT/altera/12.1/nios2eds/bin/gnu/H-i686-pc-linux-gnu/bin/../lib/gcc/nios2-elf/4.1.2/libgcc.a(_eq_df.o)
 .debug_loc     0x00002230       0x70 /OPT/altera/12.1/nios2eds/bin/gnu/H-i686-pc-linux-gnu/bin/../lib/gcc/nios2-elf/4.1.2/libgcc.a(_gt_df.o)
 .debug_loc     0x000022a0       0x70 /OPT/altera/12.1/nios2eds/bin/gnu/H-i686-pc-linux-gnu/bin/../lib/gcc/nios2-elf/4.1.2/libgcc.a(_ge_df.o)
 .debug_loc     0x00002310       0x9a /OPT/altera/12.1/nios2eds/bin/gnu/H-i686-pc-linux-gnu/bin/../lib/gcc/nios2-elf/4.1.2/libgcc.a(_si_to_df.o)
 .debug_loc     0x000023aa       0x8b /OPT/altera/12.1/nios2eds/bin/gnu/H-i686-pc-linux-gnu/bin/../lib/gcc/nios2-elf/4.1.2/libgcc.a(_df_to_si.o)
 .debug_loc     0x00002435      0x1d2 /OPT/altera/12.1/nios2eds/bin/gnu/H-i686-pc-linux-gnu/bin/../lib/gcc/nios2-elf/4.1.2/libgcc.a(lib2-divmod.o)
 .debug_loc     0x00002607       0xc4 /OPT/altera/12.1/nios2eds/bin/gnu/H-i686-pc-linux-gnu/bin/../lib/gcc/nios2-elf/4.1.2/libgcc.a(_muldi3.o)
 .debug_loc     0x000026cb       0x1e /OPT/altera/12.1/nios2eds/bin/gnu/H-i686-pc-linux-gnu/bin/../lib/gcc/nios2-elf/4.1.2/libgcc.a(_clzsi2.o)
 .debug_loc     0x000026e9      0x184 /OPT/altera/12.1/nios2eds/bin/gnu/H-i686-pc-linux-gnu/bin/../lib/gcc/nios2-elf/4.1.2/libgcc.a(_pack_df.o)
 .debug_loc     0x0000286d       0xe5 /OPT/altera/12.1/nios2eds/bin/gnu/H-i686-pc-linux-gnu/bin/../lib/gcc/nios2-elf/4.1.2/libgcc.a(_unpack_df.o)
 .debug_loc     0x00002952       0xa2 /OPT/altera/12.1/nios2eds/bin/gnu/H-i686-pc-linux-gnu/bin/../lib/gcc/nios2-elf/4.1.2/../../../../nios2-elf/lib/libc.a(lib_a-puts.o)
 .debug_loc     0x000029f4       0x3c /OPT/altera/12.1/nios2eds/bin/gnu/H-i686-pc-linux-gnu/bin/../lib/gcc/nios2-elf/4.1.2/../../../../nios2-elf/lib/libc.a(lib_a-strlen.o)
 .debug_loc     0x00002a30      0x4e4 /OPT/altera/12.1/nios2eds/bin/gnu/H-i686-pc-linux-gnu/bin/../lib/gcc/nios2-elf/4.1.2/../../../../nios2-elf/lib/libc.a(lib_a-fvwrite.o)
 .debug_loc     0x00002f14      0xaeb /OPT/altera/12.1/nios2eds/bin/gnu/H-i686-pc-linux-gnu/bin/../lib/gcc/nios2-elf/4.1.2/../../../../nios2-elf/lib/libc.a(lib_a-mallocr.o)
 .debug_loc     0x000039ff      0x106 /OPT/altera/12.1/nios2eds/bin/gnu/H-i686-pc-linux-gnu/bin/../lib/gcc/nios2-elf/4.1.2/../../../../nios2-elf/lib/libc.a(lib_a-memchr.o)
 .debug_loc     0x00003b05       0xca /OPT/altera/12.1/nios2eds/bin/gnu/H-i686-pc-linux-gnu/bin/../lib/gcc/nios2-elf/4.1.2/../../../../nios2-elf/lib/libc.a(lib_a-memcpy.o)
 .debug_loc     0x00003bcf      0x117 /OPT/altera/12.1/nios2eds/bin/gnu/H-i686-pc-linux-gnu/bin/../lib/gcc/nios2-elf/4.1.2/../../../../nios2-elf/lib/libc.a(lib_a-memmove.o)
 .debug_loc     0x00003ce6      0x8c0 /OPT/altera/12.1/nios2eds/bin/gnu/H-i686-pc-linux-gnu/bin/../lib/gcc/nios2-elf/4.1.2/../../../../nios2-elf/lib/libc.a(lib_a-reallocr.o)
 .debug_loc     0x000045a6       0x5b /OPT/altera/12.1/nios2eds/bin/gnu/H-i686-pc-linux-gnu/bin/../lib/gcc/nios2-elf/4.1.2/../../../../nios2-elf/lib/libc.a(lib_a-sbrkr.o)
 .debug_loc     0x00004601       0x7c /OPT/altera/12.1/nios2eds/bin/gnu/H-i686-pc-linux-gnu/bin/../lib/gcc/nios2-elf/4.1.2/../../../../nios2-elf/lib/libc.a(lib_a-wsetup.o)
 .debug_loc     0x0000467d      0x1f6 /OPT/altera/12.1/nios2eds/bin/gnu/H-i686-pc-linux-gnu/bin/../lib/gcc/nios2-elf/4.1.2/../../../../nios2-elf/lib/libc.a(lib_a-fflush.o)
 .debug_loc     0x00004873      0x19f /OPT/altera/12.1/nios2eds/bin/gnu/H-i686-pc-linux-gnu/bin/../lib/gcc/nios2-elf/4.1.2/../../../../nios2-elf/lib/libc.a(lib_a-findfp.o)
 .debug_loc     0x00004a12      0x4a7 /OPT/altera/12.1/nios2eds/bin/gnu/H-i686-pc-linux-gnu/bin/../lib/gcc/nios2-elf/4.1.2/../../../../nios2-elf/lib/libc.a(lib_a-freer.o)
 .debug_loc     0x00004eb9      0x1d2 /OPT/altera/12.1/nios2eds/bin/gnu/H-i686-pc-linux-gnu/bin/../lib/gcc/nios2-elf/4.1.2/../../../../nios2-elf/lib/libc.a(lib_a-fwalk.o)
 .debug_loc     0x0000508b      0x11c /OPT/altera/12.1/nios2eds/bin/gnu/H-i686-pc-linux-gnu/bin/../lib/gcc/nios2-elf/4.1.2/../../../../nios2-elf/lib/libc.a(lib_a-makebuf.o)
 .debug_loc     0x000051a7       0xa1 /OPT/altera/12.1/nios2eds/bin/gnu/H-i686-pc-linux-gnu/bin/../lib/gcc/nios2-elf/4.1.2/../../../../nios2-elf/lib/libc.a(lib_a-memset.o)
 .debug_loc     0x00005248      0x21f /OPT/altera/12.1/nios2eds/bin/gnu/H-i686-pc-linux-gnu/bin/../lib/gcc/nios2-elf/4.1.2/../../../../nios2-elf/lib/libc.a(lib_a-stdio.o)
 .debug_loc     0x00005467       0x97 /OPT/altera/12.1/nios2eds/bin/gnu/H-i686-pc-linux-gnu/bin/../lib/gcc/nios2-elf/4.1.2/../../../../nios2-elf/lib/libc.a(lib_a-writer.o)
 .debug_loc     0x000054fe       0x5b /OPT/altera/12.1/nios2eds/bin/gnu/H-i686-pc-linux-gnu/bin/../lib/gcc/nios2-elf/4.1.2/../../../../nios2-elf/lib/libc.a(lib_a-closer.o)
 .debug_loc     0x00005559       0xe4 /OPT/altera/12.1/nios2eds/bin/gnu/H-i686-pc-linux-gnu/bin/../lib/gcc/nios2-elf/4.1.2/../../../../nios2-elf/lib/libc.a(lib_a-fclose.o)
 .debug_loc     0x0000563d       0x79 /OPT/altera/12.1/nios2eds/bin/gnu/H-i686-pc-linux-gnu/bin/../lib/gcc/nios2-elf/4.1.2/../../../../nios2-elf/lib/libc.a(lib_a-fstatr.o)
 .debug_loc     0x000056b6       0x5b /OPT/altera/12.1/nios2eds/bin/gnu/H-i686-pc-linux-gnu/bin/../lib/gcc/nios2-elf/4.1.2/../../../../nios2-elf/lib/libc.a(lib_a-isattyr.o)
 .debug_loc     0x00005711       0x97 /OPT/altera/12.1/nios2eds/bin/gnu/H-i686-pc-linux-gnu/bin/../lib/gcc/nios2-elf/4.1.2/../../../../nios2-elf/lib/libc.a(lib_a-lseekr.o)
 .debug_loc     0x000057a8       0x97 /OPT/altera/12.1/nios2eds/bin/gnu/H-i686-pc-linux-gnu/bin/../lib/gcc/nios2-elf/4.1.2/../../../../nios2-elf/lib/libc.a(lib_a-readr.o)
 .debug_loc     0x0000583f       0x56 ../audioTest_bsp//libucosii_bsp.a(alt_close.o)
 .debug_loc     0x00005895       0x2b ../audioTest_bsp//libucosii_bsp.a(alt_dev.o)
 .debug_loc     0x000058c0       0x56 ../audioTest_bsp//libucosii_bsp.a(alt_fstat.o)
 .debug_loc     0x00005916       0x57 ../audioTest_bsp//libucosii_bsp.a(alt_isatty.o)
 .debug_loc     0x0000596d       0x56 ../audioTest_bsp//libucosii_bsp.a(alt_load.o)
 .debug_loc     0x000059c3       0x56 ../audioTest_bsp//libucosii_bsp.a(alt_lseek.o)
 .debug_loc     0x00005a19       0x2b ../audioTest_bsp//libucosii_bsp.a(alt_main.o)
 .debug_loc     0x00005a44       0x56 ../audioTest_bsp//libucosii_bsp.a(alt_read.o)
 .debug_loc     0x00005a9a       0x2b ../audioTest_bsp//libucosii_bsp.a(alt_release_fd.o)
 .debug_loc     0x00005ac5       0x2b ../audioTest_bsp//libucosii_bsp.a(alt_sbrk.o)
 .debug_loc     0x00005af0       0x56 ../audioTest_bsp//libucosii_bsp.a(alt_write.o)
 .debug_loc     0x00005b46       0x57 ../audioTest_bsp//libucosii_bsp.a(alt_env_lock.o)
 .debug_loc     0x00005b9d       0x57 ../audioTest_bsp//libucosii_bsp.a(alt_malloc_lock.o)
 .debug_loc     0x00005bf4      0x5e2 ../audioTest_bsp//libucosii_bsp.a(os_core.o)
 .debug_loc     0x000061d6       0x2b ../audioTest_bsp//libucosii_bsp.a(os_dbg.o)
 .debug_loc     0x00006201      0x232 ../audioTest_bsp//libucosii_bsp.a(os_flag.o)
 .debug_loc     0x00006433      0x12d ../audioTest_bsp//libucosii_bsp.a(os_mem.o)
 .debug_loc     0x00006560      0x1da ../audioTest_bsp//libucosii_bsp.a(os_q.o)
 .debug_loc     0x0000673a      0x158 ../audioTest_bsp//libucosii_bsp.a(os_sem.o)
 .debug_loc     0x00006892      0x207 ../audioTest_bsp//libucosii_bsp.a(os_task.o)
 .debug_loc     0x00006a99       0xd7 ../audioTest_bsp//libucosii_bsp.a(os_time.o)
 .debug_loc     0x00006b70       0x81 ../audioTest_bsp//libucosii_bsp.a(alt_sys_init.o)
 .debug_loc     0x00006bf1       0xac ../audioTest_bsp//libucosii_bsp.a(altera_avalon_jtag_uart_fd.o)
 .debug_loc     0x00006c9d       0xac ../audioTest_bsp//libucosii_bsp.a(altera_avalon_jtag_uart_init.o)
 .debug_loc     0x00006d49       0x2b ../audioTest_bsp//libucosii_bsp.a(altera_avalon_jtag_uart_ioctl.o)
 .debug_loc     0x00006d74       0x2c ../audioTest_bsp//libucosii_bsp.a(altera_avalon_jtag_uart_read.o)
 .debug_loc     0x00006da0       0x2c ../audioTest_bsp//libucosii_bsp.a(altera_avalon_jtag_uart_write.o)
 .debug_loc     0x00006dcc       0x56 ../audioTest_bsp//libucosii_bsp.a(altera_avalon_timer_sc.o)
 .debug_loc     0x00006e22      0x306 ../audioTest_bsp//libucosii_bsp.a(altera_up_avalon_audio.o)
 .debug_loc     0x00007128      0x2db ../audioTest_bsp//libucosii_bsp.a(altera_up_avalon_audio_and_video_config.o)
 .debug_loc     0x00007403      0x22f ../audioTest_bsp//libucosii_bsp.a(altera_up_avalon_character_lcd.o)
 .debug_loc     0x00007632       0x2b ../audioTest_bsp//libucosii_bsp.a(alt_alarm_start.o)
 .debug_loc     0x0000765d       0x2b ../audioTest_bsp//libucosii_bsp.a(alt_dcache_flush_all.o)
 .debug_loc     0x00007688       0x56 ../audioTest_bsp//libucosii_bsp.a(alt_dev_llist_insert.o)
 .debug_loc     0x000076de       0x2b ../audioTest_bsp//libucosii_bsp.a(alt_do_ctors.o)
 .debug_loc     0x00007709       0x2b ../audioTest_bsp//libucosii_bsp.a(alt_do_dtors.o)
 .debug_loc     0x00007734       0x2b ../audioTest_bsp//libucosii_bsp.a(alt_find_dev.o)
 .debug_loc     0x0000775f       0x2b ../audioTest_bsp//libucosii_bsp.a(alt_icache_flush_all.o)
 .debug_loc     0x0000778a       0x56 ../audioTest_bsp//libucosii_bsp.a(alt_io_redirect.o)
 .debug_loc     0x000077e0       0x2c ../audioTest_bsp//libucosii_bsp.a(alt_irq_register.o)
 .debug_loc     0x0000780c       0x81 ../audioTest_bsp//libucosii_bsp.a(alt_open.o)
 .debug_loc     0x0000788d       0x56 ../audioTest_bsp//libucosii_bsp.a(alt_tick.o)
 .debug_loc     0x000078e3       0x2b ../audioTest_bsp//libucosii_bsp.a(altera_nios2_qsys_irq.o)
 .debug_loc     0x0000790e      0x1ae ../audioTest_bsp//libucosii_bsp.a(os_cpu_c.o)
 .debug_loc     0x00007abc       0x2b ../audioTest_bsp//libucosii_bsp.a(alt_find_file.o)
 .debug_loc     0x00007ae7       0x2b ../audioTest_bsp//libucosii_bsp.a(alt_get_fd.o)
 .debug_loc     0x00007b12       0x2b ../audioTest_bsp//libucosii_bsp.a(alt_icache_flush.o)
 .debug_loc     0x00007b3d       0x2b ../audioTest_bsp//libucosii_bsp.a(alt_irq_handler.o)
 .debug_loc     0x00007b68       0x1e /OPT/altera/12.1/nios2eds/bin/gnu/H-i686-pc-linux-gnu/bin/../lib/gcc/nios2-elf/4.1.2/../../../../nios2-elf/lib/libc.a(lib_a-atexit.o)
 .debug_loc     0x00007b86       0x3d /OPT/altera/12.1/nios2eds/bin/gnu/H-i686-pc-linux-gnu/bin/../lib/gcc/nios2-elf/4.1.2/../../../../nios2-elf/lib/libc.a(lib_a-exit.o)
 .debug_loc     0x00007bc3      0x114 /OPT/altera/12.1/nios2eds/bin/gnu/H-i686-pc-linux-gnu/bin/../lib/gcc/nios2-elf/4.1.2/../../../../nios2-elf/lib/libc.a(lib_a-memcmp.o)
 .debug_loc     0x00007cd7      0x120 /OPT/altera/12.1/nios2eds/bin/gnu/H-i686-pc-linux-gnu/bin/../lib/gcc/nios2-elf/4.1.2/../../../../nios2-elf/lib/libc.a(lib_a-__atexit.o)
 .debug_loc     0x00007df7      0x1cb /OPT/altera/12.1/nios2eds/bin/gnu/H-i686-pc-linux-gnu/bin/../lib/gcc/nios2-elf/4.1.2/../../../../nios2-elf/lib/libc.a(lib_a-__call_atexit.o)
 .debug_loc     0x00007fc2       0x56 ../audioTest_bsp//libucosii_bsp.a(alt_exit.o)

.debug_macinfo
 *(.debug_macinfo)

.debug_weaknames
 *(.debug_weaknames)

.debug_funcnames
 *(.debug_funcnames)

.debug_typenames
 *(.debug_typenames)

.debug_varnames
 *(.debug_varnames)

.debug_alt_sim_info
                0x00000000       0x30
 *(.debug_alt_sim_info)
 .debug_alt_sim_info
                0x00000000       0x30 ../audioTest_bsp//obj/HAL/src/crt0.o
                0x01000000                __alt_data_end = 0x1000000
                0x01000000                PROVIDE (__alt_stack_pointer, __alt_data_end)
                0x0081e66c                PROVIDE (__alt_stack_limit, __alt_stack_base)
                0x0081e66c                PROVIDE (__alt_heap_start, end)
                0x01000000                PROVIDE (__alt_heap_limit, 0x1000000)
OUTPUT(audioTest.elf elf32-littlenios2)

.debug_ranges   0x00000000      0x560
 .debug_ranges  0x00000000       0x20 ../audioTest_bsp//obj/HAL/src/crt0.o
 .debug_ranges  0x00000020       0x40 /OPT/altera/12.1/nios2eds/bin/gnu/H-i686-pc-linux-gnu/bin/../lib/gcc/nios2-elf/4.1.2/../../../../nios2-elf/lib/libm.a(lib_a-e_rem_pio2.o)
 .debug_ranges  0x00000060       0x18 /OPT/altera/12.1/nios2eds/bin/gnu/H-i686-pc-linux-gnu/bin/../lib/gcc/nios2-elf/4.1.2/../../../../nios2-elf/lib/libm.a(lib_a-s_fabs.o)
 .debug_ranges  0x00000078       0x20 /OPT/altera/12.1/nios2eds/bin/gnu/H-i686-pc-linux-gnu/bin/../lib/gcc/nios2-elf/4.1.2/../../../../nios2-elf/lib/libm.a(lib_a-s_scalbn.o)
 .debug_ranges  0x00000098       0x18 /OPT/altera/12.1/nios2eds/bin/gnu/H-i686-pc-linux-gnu/bin/../lib/gcc/nios2-elf/4.1.2/../../../../nios2-elf/lib/libm.a(lib_a-s_copysign.o)
 .debug_ranges  0x000000b0       0x30 /OPT/altera/12.1/nios2eds/bin/gnu/H-i686-pc-linux-gnu/bin/../lib/gcc/nios2-elf/4.1.2/libgcc.a(_addsub_df.o)
 .debug_ranges  0x000000e0       0x88 /OPT/altera/12.1/nios2eds/bin/gnu/H-i686-pc-linux-gnu/bin/../lib/gcc/nios2-elf/4.1.2/libgcc.a(_mul_df.o)
 .debug_ranges  0x00000168       0x50 /OPT/altera/12.1/nios2eds/bin/gnu/H-i686-pc-linux-gnu/bin/../lib/gcc/nios2-elf/4.1.2/libgcc.a(_div_df.o)
 .debug_ranges  0x000001b8       0x68 /OPT/altera/12.1/nios2eds/bin/gnu/H-i686-pc-linux-gnu/bin/../lib/gcc/nios2-elf/4.1.2/libgcc.a(_muldi3.o)
 .debug_ranges  0x00000220       0x28 /OPT/altera/12.1/nios2eds/bin/gnu/H-i686-pc-linux-gnu/bin/../lib/gcc/nios2-elf/4.1.2/libgcc.a(_clzsi2.o)
 .debug_ranges  0x00000248       0x28 /OPT/altera/12.1/nios2eds/bin/gnu/H-i686-pc-linux-gnu/bin/../lib/gcc/nios2-elf/4.1.2/libgcc.a(_pack_df.o)
 .debug_ranges  0x00000270       0x28 /OPT/altera/12.1/nios2eds/bin/gnu/H-i686-pc-linux-gnu/bin/../lib/gcc/nios2-elf/4.1.2/../../../../nios2-elf/lib/libc.a(lib_a-fvwrite.o)
 .debug_ranges  0x00000298       0x70 /OPT/altera/12.1/nios2eds/bin/gnu/H-i686-pc-linux-gnu/bin/../lib/gcc/nios2-elf/4.1.2/../../../../nios2-elf/lib/libc.a(lib_a-mallocr.o)
 .debug_ranges  0x00000308      0x110 /OPT/altera/12.1/nios2eds/bin/gnu/H-i686-pc-linux-gnu/bin/../lib/gcc/nios2-elf/4.1.2/../../../../nios2-elf/lib/libc.a(lib_a-reallocr.o)
 .debug_ranges  0x00000418       0x20 /OPT/altera/12.1/nios2eds/bin/gnu/H-i686-pc-linux-gnu/bin/../lib/gcc/nios2-elf/4.1.2/../../../../nios2-elf/lib/libc.a(lib_a-fflush.o)
 .debug_ranges  0x00000438       0xa0 /OPT/altera/12.1/nios2eds/bin/gnu/H-i686-pc-linux-gnu/bin/../lib/gcc/nios2-elf/4.1.2/../../../../nios2-elf/lib/libc.a(lib_a-fwalk.o)
 .debug_ranges  0x000004d8       0x18 ../audioTest_bsp//libucosii_bsp.a(altera_avalon_jtag_uart_init.o)
 .debug_ranges  0x000004f0       0x28 ../audioTest_bsp//libucosii_bsp.a(alt_irq_entry.o)
 .debug_ranges  0x00000518       0x30 ../audioTest_bsp//libucosii_bsp.a(alt_exception_entry.o)
 .debug_ranges  0x00000548       0x18 /OPT/altera/12.1/nios2eds/bin/gnu/H-i686-pc-linux-gnu/bin/../lib/gcc/nios2-elf/4.1.2/../../../../nios2-elf/lib/libc.a(lib_a-__call_atexit.o)
